 SixMansPlugin-Rework

 Timestamp is 6223f283 (Sat Mar  5 18:30:11 2022)

 Preferred load address is 0000000180000000

 Start         Length     Name                   Class
 0001:00000000 00000080H .text$di                CODE
 0001:00000080 000119d0H .text$mn                CODE
 0001:00011a50 00000040H .text$mn$00             CODE
 0001:00011a90 00000480H .text$x                 CODE
 0001:00011f10 00000194H .text$yd                CODE
 0002:00000000 00000240H .idata$5                DATA
 0002:00000240 00000038H .00cfg                  DATA
 0002:00000278 00000008H .CRT$XCA                DATA
 0002:00000280 00000018H .CRT$XCC                DATA
 0002:00000298 00000010H .CRT$XCL                DATA
 0002:000002a8 00000010H .CRT$XCU                DATA
 0002:000002b8 00000008H .CRT$XCZ                DATA
 0002:000002c0 00000008H .CRT$XIA                DATA
 0002:000002c8 00000030H .CRT$XIC                DATA
 0002:000002f8 00000008H .CRT$XIZ                DATA
 0002:00000300 00000008H .CRT$XLA                DATA
 0002:00000308 00000008H .CRT$XLZ                DATA
 0002:00000310 00000008H .CRT$XPA                DATA
 0002:00000318 00000010H .CRT$XPX                DATA
 0002:00000328 00000008H .CRT$XPXA               DATA
 0002:00000330 00000008H .CRT$XPZ                DATA
 0002:00000338 00000008H .CRT$XTA                DATA
 0002:00000340 00000010H .CRT$XTZ                DATA
 0002:00000348 00000000H .gehcont$y              DATA
 0002:00000348 00000000H .gfids$y                DATA
 0002:00000350 00010030H .rdata                  DATA
 0002:00010380 00000000H .rdata$CastGuardVftablesA DATA
 0002:00010380 00000000H .rdata$CastGuardVftablesC DATA
 0002:00010380 00000028H .rdata$T                DATA
 0002:000103a8 0000043cH .rdata$r                DATA
 0002:000107e4 00000108H .rdata$voltmd           DATA
 0002:000108ec 0000044cH .rdata$zzzdbg           DATA
 0002:00010d38 00000008H .rtc$IAA                DATA
 0002:00010d40 00000008H .rtc$IZZ                DATA
 0002:00010d48 00000008H .rtc$TAA                DATA
 0002:00010d50 00000008H .rtc$TZZ                DATA
 0002:00010d58 00000004H .tls                    DATA
 0002:00010d5c 00000004H .tls$                   DATA
 0002:00010d60 00000008H .tls$ZZZ                DATA
 0002:00010d68 00000f88H .xdata                  DATA
 0002:00011cf0 00000150H .xdata$x                DATA
 0002:00011e40 000002ecH .edata                  DATA
 0002:0001212c 00000014H .idata$2                DATA
 0002:00012140 00000018H .idata$3                DATA
 0002:00012158 00000240H .idata$4                DATA
 0002:00012398 0000054aH .idata$6                DATA
 0003:00000000 00000d60H .data                   DATA
 0003:00000d60 000000b0H .data$r                 DATA
 0003:00000e10 000000f0H .data$rs                DATA
 0003:00000f00 000017f4H .bss                    DATA
 0004:00000000 00001218H .pdata                  DATA
 0005:00000000 0000015cH _RDATA                  DATA
 0006:00000000 000000a0H .rsrc$01                DATA
 0006:000000a0 000004b8H .rsrc$02                DATA

  Address         Publics by Value              Rva+Base               Lib:Object

 0000:00000000       __arm64x_extra_rfe_table_size 0000000000000000     <absolute>
 0000:00000000       ___safe_se_handler_count   0000000000000000     <absolute>
 0000:00000000       __arm64x_extra_rfe_table   0000000000000000     <absolute>
 0000:00000000       __guard_fids_count         0000000000000000     <absolute>
 0000:00000000       __x64_code_ranges_to_entry_points 0000000000000000     <absolute>
 0000:00000000       __guard_longjmp_table      0000000000000000     <absolute>
 0000:00000000       ___safe_se_handler_table   0000000000000000     <absolute>
 0000:00000000       __x64_code_ranges_to_entry_points_count 0000000000000000     <absolute>
 0000:00000000       __arm64x_redirection_metadata 0000000000000000     <absolute>
 0000:00000000       __guard_eh_cont_count      0000000000000000     <absolute>
 0000:00000000       __hybrid_code_map          0000000000000000     <absolute>
 0000:00000000       __guard_iat_table          0000000000000000     <absolute>
 0000:00000000       __guard_iat_count          0000000000000000     <absolute>
 0000:00000000       __guard_longjmp_count      0000000000000000     <absolute>
 0000:00000000       __dynamic_value_reloc_table 0000000000000000     <absolute>
 0000:00000000       __hybrid_auxiliary_iat     0000000000000000     <absolute>
 0000:00000000       __hybrid_auxiliary_iat_copy 0000000000000000     <absolute>
 0000:00000000       __AbsoluteZero             0000000000000000     <absolute>
 0000:00000000       __guard_check_icall_a64n_fptr 0000000000000000     <absolute>
 0000:00000000       __guard_fids_table         0000000000000000     <absolute>
 0000:00000000       __arm64x_redirection_metadata_count 0000000000000000     <absolute>
 0000:00000000       __enclave_config           0000000000000000     <absolute>
 0000:00000000       __guard_eh_cont_table      0000000000000000     <absolute>
 0000:00000000       __arm64x_native_entrypoint 0000000000000000     <absolute>
 0000:00000000       __hybrid_code_map_count    0000000000000000     <absolute>
 0000:00000100       __guard_flags              0000000000000100     <absolute>
 0000:00000000       __ImageBase                0000000180000000     <linker-defined>
 0001:00000080       ??0bad_array_new_length@std@@QEAA@XZ 0000000180001080 f i format.obj
 0001:000000b0       ??1bad_exception@std@@UEAA@XZ 00000001800010b0 f i libvcruntime:frame.obj
 0001:000000b0       ??1bad_array_new_length@std@@UEAA@XZ 00000001800010b0 f i format.obj
 0001:000000b0       ??1bad_alloc@std@@UEAA@XZ  00000001800010b0 f i format.obj
 0001:000000d0       ??_Eexception@std@@UEAAPEAXI@Z 00000001800010d0 f i * CIL library *:* CIL module *
 0001:000000d0       ??_Ebad_alloc@std@@UEAAPEAXI@Z 00000001800010d0 f i * CIL library *:* CIL module *
 0001:000000d0       ??_Ebad_exception@std@@UEAAPEAXI@Z 00000001800010d0 f i libvcruntime:frame.obj
 0001:000000d0       ??_Gbad_exception@std@@UEAAPEAXI@Z 00000001800010d0 f i libvcruntime:frame.obj
 0001:000000d0       ??_Gbad_array_new_length@std@@UEAAPEAXI@Z 00000001800010d0 f i format.obj
 0001:000000d0       ??_Gbad_alloc@std@@UEAAPEAXI@Z 00000001800010d0 f i format.obj
 0001:000000d0       ??_Gexception@std@@UEAAPEAXI@Z 00000001800010d0 f i format.obj
 0001:000000d0       ??_Ebad_array_new_length@std@@UEAAPEAXI@Z 00000001800010d0 f i * CIL library *:* CIL module *
 0001:00000120       ??0bad_array_new_length@std@@QEAA@AEBV01@@Z 0000000180001120 f i format.obj
 0001:00000160       ??0bad_alloc@std@@QEAA@AEBV01@@Z 0000000180001160 f i format.obj
 0001:000001a0       ?what@exception@std@@UEBAPEBDXZ 00000001800011a0 f i format.obj
 0001:000001c0       ??0exception@std@@QEAA@AEBV01@@Z 00000001800011c0 f i format.obj
 0001:00000200       __local_stdio_printf_options 0000000180001200 f i format.obj
 0001:00000220       ??3@YAXPEAX@Z              0000000180001220 f   LIBCMT:delete_scalar.obj
 0001:00000230       __local_stdio_scanf_options 0000000180001230 f i imgui.obj
 0001:00000240       getPlugin                  0000000180001240 f   SixMansPlugin-Rework.obj
 0001:00000310       deleteMe                   0000000180001310 f   SixMansPlugin-Rework.obj
 0001:00000380       ?onLoad@SixMansPlugin@@EEAAXXZ 0000000180001380 f   SixMansPlugin-Rework.obj
 0001:00000400       ?onLoad@BakkesModPlugin@Plugin@BakkesMod@@UEAAXXZ 0000000180001400 f   SixMansPlugin-Rework.obj
 0001:00000400       ?onUnload@BakkesModPlugin@Plugin@BakkesMod@@UEAAXXZ 0000000180001400 f   SixMansPlugin-Rework.obj
 0001:00000400       ?onUnload@SixMansPlugin@@EEAAXXZ 0000000180001400 f   SixMansPlugin-Rework.obj
 0001:00000400       _guard_check_icall_nop     0000000180001400 f   LIBCMT:guard_support.obj
 0001:00000410       ?_Delete_this@?$_Ref_count@VSixMansPlugin@@@std@@EEAAXXZ 0000000180001410 f i SixMansPlugin-Rework.obj
 0001:00000430       ?_Destroy@?$_Ref_count@VSixMansPlugin@@@std@@EEAAXXZ 0000000180001430 f i SixMansPlugin-Rework.obj
 0001:00000460       ??_G?$_Ref_count@VSixMansPlugin@@@std@@UEAAPEAXI@Z 0000000180001460 f i SixMansPlugin-Rework.obj
 0001:00000460       ??_E?$_Ref_count@VSixMansPlugin@@@std@@UEAAPEAXI@Z 0000000180001460 f i * CIL library *:* CIL module *
 0001:00000490       ?_Get_deleter@_Ref_count_base@std@@UEBAPEAXAEBVtype_info@@@Z 0000000180001490 f i SixMansPlugin-Rework.obj
 0001:000004a0       ??4?$shared_ptr@VCVarManagerWrapper@@@std@@QEAAAEAV01@AEBV01@@Z 00000001800014a0 f i SixMansPlugin-Rework.obj
 0001:00000530       ??1BakkesModPlugin@Plugin@BakkesMod@@QEAA@XZ 0000000180001530 f i SixMansPlugin-Rework.obj
 0001:000005c0       ??0BakkesModPlugin@Plugin@BakkesMod@@QEAA@XZ 00000001800015c0 f i SixMansPlugin-Rework.obj
 0001:000005e0       ??0BakkesModPlugin@Plugin@BakkesMod@@QEAA@AEBV012@@Z 00000001800015e0 f i pch.obj
 0001:00000640       ??0BakkesModPlugin@Plugin@BakkesMod@@QEAA@$$QEAV012@@Z 0000000180001640 f i pch.obj
 0001:000006a0       ??4BakkesModPlugin@Plugin@BakkesMod@@QEAAAEAV012@AEBV012@@Z 00000001800016a0 f i pch.obj
 0001:00000740       ??4BakkesModPlugin@Plugin@BakkesMod@@QEAAAEAV012@$$QEAV012@@Z 0000000180001740 f i pch.obj
 0001:00000820       ?__autoclassinit2@BakkesModPlugin@Plugin@BakkesMod@@QEAAX_K@Z 0000000180001820 f i pch.obj
 0001:0000082c       ??0bad_alloc@std@@QEAA@XZ  000000018000182c f i libcpmt:xthrow.obj
 0001:0000084c       ??0_Init_locks@std@@QEAA@XZ 000000018000184c f   libcpmt:xlock.obj
 0001:00000890       ??1_Init_locks@std@@QEAA@XZ 0000000180001890 f   libcpmt:xlock.obj
 0001:000008cc       _Mtxdst                    00000001800018cc f   libcpmt:xmtx.obj
 0001:000008d4       _Mtxinit                   00000001800018d4 f   libcpmt:xmtx.obj
 0001:00000900       __security_check_cookie    0000000180001900 f   LIBCMT:amdsecgs.obj
 0001:00000920       ??3@YAXPEAX_K@Z            0000000180001920 f   LIBCMT:delete_scalar_size.obj
 0001:00000928       ??2@YAPEAX_K@Z             0000000180001928 f   LIBCMT:new_scalar.obj
 0001:00000964       ??_Gtype_info@@UEAAPEAXI@Z 0000000180001964 f i LIBCMT:std_type_info_static.obj
 0001:00000964       ??_Etype_info@@UEAAPEAXI@Z 0000000180001964 f i LIBCMT:std_type_info_static.obj
 0001:00000a88       __scrt_acquire_startup_lock 0000000180001a88 f   LIBCMT:utility.obj
 0001:00000ac4       __scrt_dllmain_after_initialize_c 0000000180001ac4 f   LIBCMT:utility.obj
 0001:00000af8       __scrt_dllmain_before_initialize_c 0000000180001af8 f   LIBCMT:utility.obj
 0001:00000b10       __scrt_dllmain_crt_thread_attach 0000000180001b10 f   LIBCMT:utility.obj
 0001:00000b38       __scrt_dllmain_crt_thread_detach 0000000180001b38 f   LIBCMT:utility.obj
 0001:00000b50       __scrt_dllmain_exception_filter 0000000180001b50 f   LIBCMT:utility.obj
 0001:00000bb0       __scrt_dllmain_uninitialize_c 0000000180001bb0 f   LIBCMT:utility.obj
 0001:00000be0       __scrt_dllmain_uninitialize_critical 0000000180001be0 f   LIBCMT:utility.obj
 0001:00000bf4       __scrt_initialize_crt      0000000180001bf4 f   LIBCMT:utility.obj
 0001:00000c40       __scrt_initialize_onexit_tables 0000000180001c40 f   LIBCMT:utility.obj
 0001:00000ccc       __scrt_is_nonwritable_in_current_image 0000000180001ccc f   LIBCMT:utility.obj
 0001:00000d64       __scrt_release_startup_lock 0000000180001d64 f   LIBCMT:utility.obj
 0001:00000d88       __scrt_uninitialize_crt    0000000180001d88 f   LIBCMT:utility.obj
 0001:00000db4       _onexit                    0000000180001db4 f   LIBCMT:utility.obj
 0001:00000df0       atexit                     0000000180001df0 f   LIBCMT:utility.obj
 0001:00000e08       __raise_securityfailure    0000000180001e08 f   LIBCMT:gs_report.obj
 0001:00000e3c       __report_gsfailure         0000000180001e3c f   LIBCMT:gs_report.obj
 0001:00000f10       __report_rangecheckfailure 0000000180001f10 f   LIBCMT:gs_report.obj
 0001:00000f24       __report_securityfailure   0000000180001f24 f   LIBCMT:gs_report.obj
 0001:000013c4       _DllMainCRTStartup         00000001800023c4 f   LIBCMT:dll_dllmain.obj
 0001:00001404       __GSHandlerCheck           0000000180002404 f   LIBCMT:gshandler.obj
 0001:00001424       __GSHandlerCheckCommon     0000000180002424 f   LIBCMT:gshandler.obj
 0001:00001490       __chkstk                   0000000180002490 f   LIBCMT:chkstk.obj
 0001:00001490       _alloca_probe              0000000180002490 f   LIBCMT:chkstk.obj
 0001:000014e0       ?__scrt_throw_std_bad_alloc@@YAXXZ 00000001800024e0 f   LIBCMT:throw_bad_alloc.obj
 0001:00001500       ?__scrt_throw_std_bad_array_new_length@@YAXXZ 0000000180002500 f   LIBCMT:throw_bad_alloc.obj
 0001:00001520       __crt_debugger_hook        0000000180002520 f   LIBCMT:utility_desktop.obj
 0001:00001528       __scrt_fastfail            0000000180002528 f   LIBCMT:utility_desktop.obj
 0001:00001674       __isa_available_init       0000000180002674 f   LIBCMT:cpu_disp.obj
 0001:00001820       DllMain                    0000000180002820 f   LIBCMT:dll_dllmain_stub.obj
 0001:00001820       _get_startup_argv_mode     0000000180002820 f   LIBCMT:argv_mode.obj
 0001:00001828       __scrt_is_ucrt_dll_in_use  0000000180002828 f   LIBCMT:ucrt_detection.obj
 0001:00001834       __security_init_cookie     0000000180002834 f   LIBCMT:gs_support.obj
 0001:000018e0       ?__scrt_initialize_type_info@@YAXXZ 00000001800028e0 f   LIBCMT:tncleanup.obj
 0001:000018f0       ?__scrt_uninitialize_type_info@@YAXXZ 00000001800028f0 f   LIBCMT:tncleanup.obj
 0001:000018fc       __scrt_initialize_default_local_stdio_options 00000001800028fc f   LIBCMT:default_local_stdio_options.obj
 0001:00001918       __scrt_get_dyn_tls_init_callback 0000000180002918 f   LIBCMT:dyn_tls_init.obj
 0001:00001920       _RTC_Initialize            0000000180002920 f   LIBCMT:initsect.obj
 0001:0000195c       _RTC_Terminate             000000018000295c f   LIBCMT:initsect.obj
 0001:000019a0       ??$_CallSETranslator@V__FrameHandler4@@@@YAHPEAUEHExceptionRecord@@PEA_KPEAU_CONTEXT@@PEAU_xDISPATCHER_CONTEXT@@PEAUFuncInfo4@FH4@@K1H@Z 00000001800029a0 f i libvcruntime:risctrnsctrl.obj
 0001:000019f4       ?DecompFuncInfo@FH4@@YA_JPEAEAEAUFuncInfo4@1@_KH_N@Z 00000001800029f4 f i libvcruntime:risctrnsctrl.obj
 0001:00001b18       ?ExecutionInCatch@__FrameHandler4@@SA_NPEAU_xDISPATCHER_CONTEXT@@PEAUFuncInfo4@FH4@@@Z 0000000180002b18 f   libvcruntime:risctrnsctrl.obj
 0001:00001b20       ?FrameUnwindToEmptyState@__FrameHandler4@@SAXPEA_KPEAU_xDISPATCHER_CONTEXT@@PEAUFuncInfo4@FH4@@@Z 0000000180002b20 f   libvcruntime:risctrnsctrl.obj
 0001:00001b54       ?GetEstablisherFrame@__FrameHandler4@@SAPEA_KPEA_KPEAU_xDISPATCHER_CONTEXT@@PEAUFuncInfo4@FH4@@0@Z 0000000180002b54 f   libvcruntime:risctrnsctrl.obj
 0001:00001b78       ?GetRangeOfTrysToCheck@__FrameHandler4@@SA?AU?$pair@Viterator@TryBlockMap4@FH4@@V123@@std@@AEAVTryBlockMap4@FH4@@HPEAU_xDISPATCHER_CONTEXT@@PEAUFuncInfo4@5@H@Z 0000000180002b78 f   libvcruntime:risctrnsctrl.obj
 0001:00001ce4       ?UnwindNestedFrames@__FrameHandler4@@SAXPEA_KPEAUEHExceptionRecord@@PEAU_CONTEXT@@0PEAXPEAUFuncInfo4@FH4@@HHPEAUHandlerType4@5@PEAU_xDISPATCHER_CONTEXT@@E@Z 0000000180002ce4 f   libvcruntime:risctrnsctrl.obj
 0001:00001e04       ?setBuffer@TryBlockMap4@FH4@@QEAAXViterator@12@@Z 0000000180002e04 f i libvcruntime:risctrnsctrl.obj
 0001:00001fc8       _CreateFrameInfo           0000000180002fc8 f   libvcruntime:risctrnsctrl.obj
 0001:00002004       _FindAndUnlinkFrame        0000000180003004 f   libvcruntime:risctrnsctrl.obj
 0001:00002058       _GetImageBase              0000000180003058 f   libvcruntime:risctrnsctrl.obj
 0001:0000206c       _GetThrowImageBase         000000018000306c f   libvcruntime:risctrnsctrl.obj
 0001:00002080       _SetImageBase              0000000180003080 f   libvcruntime:risctrnsctrl.obj
 0001:00002098       _SetThrowImageBase         0000000180003098 f   libvcruntime:risctrnsctrl.obj
 0001:000020b0       __CxxFrameHandler4         00000001800030b0 f   libvcruntime:risctrnsctrl.obj
 0001:00002170       __DestructExceptionObject  0000000180003170 f   libvcruntime:ehhelpers.obj
 0001:000021e0       ?_CallMemberFunction0@@YAXQEAX0@Z 00000001800031e0 f i libvcruntime:ehhelpers.obj
 0001:000021e4       _IsExceptionObjectToBeDestroyed 00000001800031e4 f   libvcruntime:ehhelpers.obj
 0001:00002214       __AdjustPointer            0000000180003214 f   libvcruntime:ehhelpers.obj
 0001:00002238       __FrameUnwindFilter        0000000180003238 f   libvcruntime:ehhelpers.obj
 0001:000022a0       __std_terminate            00000001800032a0 f   libvcruntime:ehhelpers.obj
 0001:000022ac       __std_exception_copy       00000001800032ac f   libvcruntime:std_exception.obj
 0001:0000233c       __std_exception_destroy    000000018000333c f   libvcruntime:std_exception.obj
 0001:00002364       _CxxThrowException         0000000180003364 f   libvcruntime:throw.obj
 0001:00002420       memcpy_repmovs             0000000180003420 f   libvcruntime:memcpy.obj
 0001:00002440       memmove                    0000000180003440 f   libvcruntime:memcpy.obj
 0001:00002440       memcpy                     0000000180003440 f   libvcruntime:memcpy.obj
 0001:00002ad0       memchr                     0000000180003ad0 f   libvcruntime:memchr.obj
 0001:00002b50       memset_repstos             0000000180003b50 f   libvcruntime:memset.obj
 0001:00002b70       memset                     0000000180003b70 f   libvcruntime:memset.obj
 0001:00002f10       memcmp                     0000000180003f10 f   libvcruntime:memcmp.obj
 0001:00002fd8       __C_specific_handler       0000000180003fd8 f   libvcruntime:riscchandler.obj
 0001:000031d0       __vcrt_initialize          00000001800041d0 f   libvcruntime:initialization.obj
 0001:000031f8       __vcrt_thread_attach       00000001800041f8 f   libvcruntime:initialization.obj
 0001:0000320c       __vcrt_thread_detach       000000018000420c f   libvcruntime:initialization.obj
 0001:00003220       __vcrt_uninitialize        0000000180004220 f   libvcruntime:initialization.obj
 0001:0000323c       __vcrt_uninitialize_critical 000000018000423c f   libvcruntime:initialization.obj
 0001:0000324c       __std_type_info_compare    000000018000424c f   libvcruntime:std_type_info.obj
 0001:00003274       __std_type_info_destroy_list 0000000180004274 f   libvcruntime:std_type_info.obj
 0001:000032a0       __vcrt_freefls             00000001800042a0 f   libvcruntime:per_thread_data.obj
 0001:000032c0       __vcrt_freeptd             00000001800042c0 f   libvcruntime:per_thread_data.obj
 0001:00003310       __vcrt_getptd              0000000180004310 f   libvcruntime:per_thread_data.obj
 0001:0000332c       __vcrt_getptd_noexit       000000018000432c f   libvcruntime:per_thread_data.obj
 0001:000033ec       __vcrt_initialize_ptd      00000001800043ec f   libvcruntime:per_thread_data.obj
 0001:00003434       __vcrt_uninitialize_ptd    0000000180004434 f   libvcruntime:per_thread_data.obj
 0001:00003458       ?StateFromControlPc@__FrameHandler4@@SAHPEAUFuncInfo4@FH4@@PEAU_xDISPATCHER_CONTEXT@@@Z 0000000180004458 f   libvcruntime:ehstate.obj
 0001:00003460       ?StateFromIp@__FrameHandler4@@SAHPEAUFuncInfo4@FH4@@PEAU_xDISPATCHER_CONTEXT@@_K@Z 0000000180004460 f   libvcruntime:ehstate.obj
 0001:000040d8       ??$TypeMatchHelper@V__FrameHandler3@@@@YAHPEBU_s_HandlerType@@PEBU_s_CatchableType@@PEBU_s_ThrowInfo@@@Z 00000001800050d8 f i libvcruntime:frame.obj
 0001:00004218       ??$TypeMatchHelper@V__FrameHandler4@@@@YAHPEAUHandlerType4@FH4@@PEBU_s_CatchableType@@PEBU_s_ThrowInfo@@@Z 0000000180005218 f i libvcruntime:frame.obj
 0001:0000435c       ??$__InternalCxxFrameHandler@V__FrameHandler4@@@@YA?AW4_EXCEPTION_DISPOSITION@@PEAUEHExceptionRecord@@PEA_KPEAU_CONTEXT@@PEAU_xDISPATCHER_CONTEXT@@PEAUFuncInfo4@FH4@@H1E@Z 000000018000535c f i libvcruntime:frame.obj
 0001:000045f0       ??0HandlerMap4@FH4@@QEAA@PEBUTryBlockMapEntry4@1@_KH@Z 00000001800055f0 f i libvcruntime:frame.obj
 0001:0000466c       ??0TryBlockMap4@FH4@@QEAA@PEBUFuncInfo4@1@_K@Z 000000018000566c f i libvcruntime:frame.obj
 0001:00004744       ??0bad_exception@std@@QEAA@AEBV01@@Z 0000000180005744 f i libvcruntime:frame.obj
 0001:00004780       ??0bad_exception@std@@QEAA@XZ 0000000180005780 f i libvcruntime:frame.obj
 0001:000047a0       ?CxxCallCatchBlock@__FrameHandler4@@SAPEAXPEAU_EXCEPTION_RECORD@@@Z 00000001800057a0 f   libvcruntime:frame.obj
 0001:000049f0       ?DecompHandler@HandlerMap4@FH4@@AEAAXXZ 00000001800059f0 f i libvcruntime:frame.obj
 0001:00004c3c       ?FrameUnwindToState@__FrameHandler4@@SAXPEA_KPEAU_xDISPATCHER_CONTEXT@@PEAUFuncInfo4@FH4@@H@Z 0000000180005c3c f   libvcruntime:frame.obj
 0001:000050b0       ?ReadEntry@UWMap4@FH4@@AEAAXPEAPEAE@Z 00000001800060b0 f i libvcruntime:frame.obj
 0001:0000514c       ?_CallMemberFunction1@@YAXQEAX00@Z 000000018000614c f i libvcruntime:frame.obj
 0001:00005158       ?_CallMemberFunction2@@YAXQEAX00H@Z 0000000180006158 f i libvcruntime:frame.obj
 0001:00005168       ?getStartStop@UWMap4@FH4@@QEAAXHHAEAViterator@12@0@Z 0000000180006168 f i libvcruntime:frame.obj
 0001:00005238       ?getStateFromIterators@UWMap4@FH4@@SAHAEBViterator@12@H0H0@Z 0000000180006238 f i libvcruntime:frame.obj
 0001:00005320       _NLG_Notify                0000000180006320 f   libvcruntime:notify.obj
 0001:00005340       __NLG_Dispatch2            0000000180006340 f   libvcruntime:notify.obj
 0001:00005350       __NLG_Return2              0000000180006350 f   libvcruntime:notify.obj
 0001:00005354       __except_validate_context_record 0000000180006354 f   libvcruntime:jbcxrval.obj
 0001:0000538c       __vcrt_initialize_locks    000000018000638c f   libvcruntime:locks.obj
 0001:000053d4       __vcrt_uninitialize_locks  00000001800063d4 f   libvcruntime:locks.obj
 0001:0000555c       __vcrt_FlsAlloc            000000018000655c f   libvcruntime:winapi_downlevel.obj
 0001:000055a4       __vcrt_FlsFree             00000001800065a4 f   libvcruntime:winapi_downlevel.obj
 0001:000055ec       __vcrt_FlsGetValue         00000001800065ec f   libvcruntime:winapi_downlevel.obj
 0001:00005634       __vcrt_FlsSetValue         0000000180006634 f   libvcruntime:winapi_downlevel.obj
 0001:00005688       __vcrt_InitializeCriticalSectionEx 0000000180006688 f   libvcruntime:winapi_downlevel.obj
 0001:00005700       _CallSettingFrame          0000000180006700 f   libvcruntime:handlers.obj
 0001:00005750       _CallSettingFrame_LookupContinuationIndex 0000000180006750 f   libvcruntime:handlers.obj
 0001:00005780       _CallSettingFrame_NotifyContinuationAddr 0000000180006780 f   libvcruntime:handlers.obj
 0001:000057b0       _CallSettingFrameEncoded   00000001800067b0 f   libvcruntime:handlers.obj
 0001:000057f8       ??0_LocaleUpdate@@QEAA@QEAU__crt_locale_pointers@@@Z 00000001800067f8 f i libucrt:output.obj
 0001:00005894       __acrt_initialize_stdio    0000000180006894 f   libucrt:_file.obj
 0001:000059b4       __acrt_uninitialize_stdio  00000001800069b4 f   libucrt:_file.obj
 0001:00005a10       _lock_file                 0000000180006a10 f   libucrt:_file.obj
 0001:00005a1c       _unlock_file               0000000180006a1c f   libucrt:_file.obj
 0001:00005a28       terminate                  0000000180006a28 f   libucrt:terminate.obj
 0001:00005a48       __acrt_errno_from_os_error 0000000180006a48 f   libucrt:errno.obj
 0001:00005a90       __acrt_errno_map_os_error  0000000180006a90 f   libucrt:errno.obj
 0001:00005ae0       __doserrno                 0000000180006ae0 f   libucrt:errno.obj
 0001:00005b00       _errno                     0000000180006b00 f   libucrt:errno.obj
 0001:00005b20       __acrt_call_reportfault    0000000180006b20 f   libucrt:invalid_parameter.obj
 0001:00005c7c       __acrt_initialize_invalid_parameter_handler 0000000180006c7c f   libucrt:invalid_parameter.obj
 0001:00005c84       _invalid_parameter         0000000180006c84 f   libucrt:invalid_parameter.obj
 0001:00005d34       _invalid_parameter_noinfo  0000000180006d34 f   libucrt:invalid_parameter.obj
 0001:00005d54       _invoke_watson             0000000180006d54 f   libucrt:invalid_parameter.obj
 0001:00005d9c       _fileno                    0000000180006d9c f   libucrt:fileno.obj
 0001:00005dc4       _isatty                    0000000180006dc4 f   libucrt:isatty.obj
 0001:00005e24       __acrt_lowio_create_handle_array 0000000180006e24 f   libucrt:osfinfo.obj
 0001:00005ecc       __acrt_lowio_destroy_handle_array 0000000180006ecc f   libucrt:osfinfo.obj
 0001:00005f1c       __acrt_lowio_ensure_fh_exists 0000000180006f1c f   libucrt:osfinfo.obj
 0001:00005fc4       __acrt_lowio_lock_fh       0000000180006fc4 f   libucrt:osfinfo.obj
 0001:00005fec       __acrt_lowio_unlock_fh     0000000180006fec f   libucrt:osfinfo.obj
 0001:00006014       _free_osfhnd               0000000180007014 f   libucrt:osfinfo.obj
 0001:000060d0       _get_osfhandle             00000001800070d0 f   libucrt:osfinfo.obj
 0001:00006148       free                       0000000180007148 f   libucrt:free.obj
 0001:0000615c       calloc                     000000018000715c f   libucrt:calloc.obj
 0001:00006164       _fclose_nolock             0000000180007164 f   libucrt:fclose.obj
 0001:000061e8       fclose                     00000001800071e8 f   libucrt:fclose.obj
 0001:0000624c       ??$__acrt_mbs_to_wcs_cp@U__crt_win32_buffer_internal_dynamic_resizing@@@@YAHQEBDAEAV?$__crt_win32_buffer@_WU__crt_win32_buffer_internal_dynamic_resizing@@@@I@Z 000000018000724c f i libucrt:open.obj
 0001:00006438       _close                     0000000180007438 f   libucrt:close.obj
 0001:000064dc       _close_nolock              00000001800074dc f   libucrt:close.obj
 0001:00006e18       _write                     0000000180007e18 f   libucrt:write.obj
 0001:00006f04       _write_nolock              0000000180007f04 f   libucrt:write.obj
 0001:000071e8       malloc                     00000001800081e8 f   libucrt:malloc.obj
 0001:00007200       strncpy                    0000000180008200 f   libucrt:strncpy.obj
 0001:00007370       qsort                      0000000180008370 f   libucrt:qsort.obj
 0001:000078ec       __acrt_stdio_flush_nolock  00000001800088ec f   libucrt:fflush.obj
 0001:00007968       _fflush_nolock             0000000180008968 f   libucrt:fflush.obj
 0001:000079b4       _flushall                  00000001800089b4 f   libucrt:fflush.obj
 0001:000079d0       strncmp                    00000001800089d0 f   libucrt:strncmp.obj
 0001:00007a50       __acrt_initialize_locks    0000000180008a50 f   libucrt:locks.obj
 0001:00007a98       __acrt_lock                0000000180008a98 f   libucrt:locks.obj
 0001:00007ab4       __acrt_uninitialize_locks  0000000180008ab4 f   libucrt:locks.obj
 0001:00007aec       __acrt_unlock              0000000180008aec f   libucrt:locks.obj
 0001:00007b08       __pctype_func              0000000180008b08 f   libucrt:ctype.obj
 0001:00007b40       pow                        0000000180008b40 f   libucrt:pow.obj
 0001:000091e0       powf                       000000018000a1e0 f   libucrt:powf.obj
 0001:0000a0a8       abort                      000000018000b0a8 f   libucrt:abort.obj
 0001:0000a100       ??$__acrt_wcs_to_mbs_cp@U__crt_win32_buffer_no_resizing@@@@YAHQEB_WAEAV?$__crt_win32_buffer@DU__crt_win32_buffer_no_resizing@@@@I@Z 000000018000b100 f i libucrt:strftime.obj
 0001:0000a214       __strncnt                  000000018000b214 f   libucrt:strncnt.obj
 0001:0000a22c       __acrt_initialize_new_handler 000000018000b22c f   libucrt:new_handler.obj
 0001:0000a234       _callnewh                  000000018000b234 f   libucrt:new_handler.obj
 0001:0000a264       _query_new_handler         000000018000b264 f   libucrt:new_handler.obj
 0001:0000a298       _seh_filter_dll            000000018000b298 f   libucrt:exception_filter.obj
 0001:0000a2ac       _seh_filter_exe            000000018000b2ac f   libucrt:exception_filter.obj
 0001:0000a69c       __acrt_initialize_thread_local_exit_callback 000000018000b69c f   libucrt:exit.obj
 0001:0000a6a4       _cexit                     000000018000b6a4 f   libucrt:exit.obj
 0001:0000a6b4       _exit                      000000018000b6b4 f   libucrt:exit.obj
 0001:0000a6c0       _is_c_termination_complete 000000018000b6c0 f   libucrt:exit.obj
 0001:0000a888       __acrt_allocate_buffer_for_argv 000000018000b888 f   libucrt:argv_parsing.obj
 0001:0000a8e8       _configure_narrow_argv     000000018000b8e8 f   libucrt:argv_parsing.obj
 0001:0000ac60       __dcrt_uninitialize_environments_nolock 000000018000bc60 f   libucrt:environment_initialization.obj
 0001:0000ac98       _initialize_narrow_environment 000000018000bc98 f   libucrt:environment_initialization.obj
 0001:0000afe0       _crt_atexit                000000018000bfe0 f   libucrt:onexit.obj
 0001:0000aff0       _execute_onexit_table      000000018000bff0 f   libucrt:onexit.obj
 0001:0000b02c       _initialize_onexit_table   000000018000c02c f   libucrt:onexit.obj
 0001:0000b054       _register_onexit_function  000000018000c054 f   libucrt:onexit.obj
 0001:0000b0d4       __acrt_uninitialize_command_line 000000018000c0d4 f   libucrt:argv_data.obj
 0001:0000b1cc       __acrt_initialize          000000018000c1cc f   libucrt:initialization.obj
 0001:0000b1e0       __acrt_thread_attach       000000018000c1e0 f   libucrt:initialization.obj
 0001:0000b1f4       __acrt_thread_detach       000000018000c1f4 f   libucrt:initialization.obj
 0001:0000b204       __acrt_uninitialize        000000018000c204 f   libucrt:initialization.obj
 0001:0000b23c       __acrt_uninitialize_critical 000000018000c23c f   libucrt:initialization.obj
 0001:0000b24c       _initterm                  000000018000c24c f   libucrt:initterm.obj
 0001:0000b2b0       _initterm_e                000000018000c2b0 f   libucrt:initterm.obj
 0001:0000b2f0       strcpy_s                   000000018000c2f0 f   libucrt:strcpy_s.obj
 0001:0000b350       wcsncmp                    000000018000c350 f   libucrt:wcsncmp.obj
 0001:0000b37c       _free_base                 000000018000c37c f   libucrt:free_base.obj
 0001:0000b3bc       _malloc_base               000000018000c3bc f   libucrt:malloc_base.obj
 0001:0000b41c       _mbtowc_l                  000000018000c41c f   libucrt:mbtowc.obj
 0001:0000b59c       mbtowc                     000000018000c59c f   libucrt:mbtowc.obj
 0001:0000b91c       __acrt_freeptd             000000018000c91c f   libucrt:per_thread_data.obj
 0001:0000b960       __acrt_getptd              000000018000c960 f   libucrt:per_thread_data.obj
 0001:0000ba34       __acrt_getptd_head         000000018000ca34 f   libucrt:per_thread_data.obj
 0001:0000badc       __acrt_getptd_noexit       000000018000cadc f   libucrt:per_thread_data.obj
 0001:0000bba8       __acrt_initialize_ptd      000000018000cba8 f   libucrt:per_thread_data.obj
 0001:0000bbe4       __acrt_uninitialize_ptd    000000018000cbe4 f   libucrt:per_thread_data.obj
 0001:0000bc08       __acrt_update_locale_info  000000018000cc08 f   libucrt:locale_update.obj
 0001:0000bc3c       __acrt_update_multibyte_info 000000018000cc3c f   libucrt:locale_update.obj
 0001:0000bce0       __acrt_set_locale_changed  000000018000cce0 f   libucrt:wsetlocale.obj
 0001:0000bcec       __acrt_uninitialize_locale 000000018000ccec f   libucrt:wsetlocale.obj
 0001:0000bf18       __acrt_initialize_lowio    000000018000cf18 f   libucrt:ioinit.obj
 0001:0000bf54       __acrt_uninitialize_lowio  000000018000cf54 f   libucrt:ioinit.obj
 0001:0000bf94       _calloc_base               000000018000cf94 f   libucrt:calloc_base.obj
 0001:0000c1e4       __acrt_AppPolicyGetProcessTerminationMethodInternal 000000018000d1e4 f   libucrt:winapi_thunks.obj
 0001:0000c234       __acrt_AreFileApisANSI     000000018000d234 f   libucrt:winapi_thunks.obj
 0001:0000c270       __acrt_FlsAlloc            000000018000d270 f   libucrt:winapi_thunks.obj
 0001:0000c2b8       __acrt_FlsFree             000000018000d2b8 f   libucrt:winapi_thunks.obj
 0001:0000c300       __acrt_FlsGetValue         000000018000d300 f   libucrt:winapi_thunks.obj
 0001:0000c348       __acrt_FlsSetValue         000000018000d348 f   libucrt:winapi_thunks.obj
 0001:0000c39c       __acrt_InitializeCriticalSectionEx 000000018000d39c f   libucrt:winapi_thunks.obj
 0001:0000c400       __acrt_LCMapStringEx       000000018000d400 f   libucrt:winapi_thunks.obj
 0001:0000c4dc       __acrt_LocaleNameToLCID    000000018000d4dc f   libucrt:winapi_thunks.obj
 0001:0000c52c       __acrt_initialize_winapi_thunks 000000018000d52c f   libucrt:winapi_thunks.obj
 0001:0000c560       __acrt_uninitialize_winapi_thunks 000000018000d560 f   libucrt:winapi_thunks.obj
 0001:0000c5a4       _fcloseall                 000000018000d5a4 f   libucrt:closeall.obj
 0001:0000c658       __acrt_stdio_free_buffer_nolock 000000018000d658 f   libucrt:_freebuf.obj
 0001:0000c698       strncpy_s                  000000018000d698 f   libucrt:strncpy_s.obj
 0001:0000c76c       _query_app_type            000000018000d76c f   libucrt:report_runtime_error.obj
 0001:0000c774       ?__acrt_stdio_free_stream@@YAXV__crt_stdio_stream@@@Z 000000018000d774 f   libucrt:stream.obj
 0001:0000c790       __acrt_MultiByteToWideChar 000000018000d790 f   libucrt:multibytetowidechar.obj
 0001:0000c888       _lseeki64_nolock           000000018000d888 f   libucrt:lseek.obj
 0001:0000c890       __acrt_WideCharToMultiByte 000000018000d890 f   libucrt:widechartomultibyte.obj
 0001:0000c940       ?__mbrtowc_utf8@__crt_mbstring@@YA_KPEA_WPEBD_KPEAU_Mbstatet@@@Z 000000018000d940 f   libucrt:mbrtowc.obj
 0001:0000c97c       ?__mbsrtowcs_utf8@__crt_mbstring@@YA_KPEA_WPEAPEBD_KPEAU_Mbstatet@@@Z 000000018000d97c f   libucrt:mbrtowc.obj
 0001:0000caf4       _putwch_nolock             000000018000daf4 f   libucrt:putwch.obj
 0001:0000cb30       __ascii_wcsnicmp           000000018000db30 f   libucrt:wcsnicmp.obj
 0001:0000cb7c       _isleadbyte_l              000000018000db7c f i libucrt:_wctype.obj
 0001:0000cee0       __acrt_LCMapStringA        000000018000dee0 f   libucrt:lcmapstringa.obj
 0001:0000d004       _commit                    000000018000e004 f   libucrt:commit.obj
 0001:0000d098       __acrt_GetStringTypeA      000000018000e098 f   libucrt:getstringtypea.obj
 0001:0000d228       _raise_exc                 000000018000e228 f   libucrt:fpexcept.obj
 0001:0000d250       _raise_exc_ex              000000018000e250 f   libucrt:fpexcept.obj
 0001:0000d560       _raise_excf                000000018000e560 f   libucrt:fpexcept.obj
 0001:0000d58c       _set_errno_from_matherr    000000018000e58c f   libucrt:fpexcept.obj
 0001:0000d5bc       _clrfp                     000000018000e5bc f   libucrt:fpctrl.obj
 0001:0000d5dc       _ctrlfp                    000000018000e5dc f   libucrt:fpctrl.obj
 0001:0000d658       _set_statfp                000000018000e658 f   libucrt:fpctrl.obj
 0001:0000d678       _statfp                    000000018000e678 f   libucrt:fpctrl.obj
 0001:0000d68c       _realloc_base              000000018000e68c f   libucrt:realloc_base.obj
 0001:0000d710       __acrt_initialize_fma3     000000018000e710 f   libucrt:fma3_available.obj
 0001:0000d780       _pow_special               000000018000e780 f   libucrt:pow_special.obj
 0001:0000d8a4       _powf_special              000000018000e8a4 f   libucrt:pow_special.obj
 0001:0000da78       __acrt_get_sigabrt_handler 000000018000ea78 f   libucrt:signal.obj
 0001:0000daa8       __acrt_initialize_signal_handlers 000000018000eaa8 f   libucrt:signal.obj
 0001:0000dac8       raise                      000000018000eac8 f   libucrt:signal.obj
 0001:0000dd34       __acrt_initialize_timeset  000000018000ed34 f   libucrt:timeset.obj
 0001:0000dd84       __acrt_get_process_end_policy 000000018000ed84 f   libucrt:win_policies.obj
 0001:0000ddd4       ??$__acrt_wcs_to_mbs_cp@U__crt_win32_buffer_internal_dynamic_resizing@@@@YAHQEB_WAEAV?$__crt_win32_buffer@DU__crt_win32_buffer_internal_dynamic_resizing@@@@I@Z 000000018000edd4 f i libucrt:argv_wildcards.obj
 0001:0000e604       __acrt_expand_narrow_argv_wildcards 000000018000f604 f   libucrt:argv_wildcards.obj
 0001:0000e60c       __acrt_GetModuleFileNameA  000000018000f60c f   libucrt:getmodulefilenamea.obj
 0001:0000ee54       __acrt_initialize_multibyte 000000018000fe54 f   libucrt:mbctype.obj
 0001:0000eeb4       __acrt_update_thread_multibyte_data 000000018000feb4 f   libucrt:mbctype.obj
 0001:0000eed0       _setmbcp_nolock            000000018000fed0 f   libucrt:mbctype.obj
 0001:0000f204       _ismbblead                 0000000180010204 f   libucrt:ismbbyte.obj
 0001:0000f218       __acrt_initialize_command_line 0000000180010218 f   libucrt:argv_data.obj
 0001:0000f240       __dcrt_get_narrow_environment_from_os 0000000180010240 f   libucrt:get_environment_from_os.obj
 0001:0000f344       _recalloc_base             0000000180010344 f   libucrt:recalloc.obj
 0001:0000f3dc       __acrt_initialize_heap     00000001800103dc f   libucrt:heap_handle.obj
 0001:0000f3f8       __acrt_uninitialize_heap   00000001800103f8 f   libucrt:heap_handle.obj
 0001:0000f404       __acrt_execute_initializers 0000000180010404 f   libucrt:shared_initialization.obj
 0001:0000f484       __acrt_execute_uninitializers 0000000180010484 f   libucrt:shared_initialization.obj
 0001:0000f4c0       __acrt_has_user_matherr    00000001800104c0 f   libucrt:matherr.obj
 0001:0000f4e0       __acrt_initialize_user_matherr 00000001800104e0 f   libucrt:matherr.obj
 0001:0000f4e8       __acrt_invoke_user_matherr 00000001800104e8 f   libucrt:matherr.obj
 0001:0000f518       _query_new_mode            0000000180010518 f   libucrt:new_mode.obj
 0001:0000f520       __acrt_add_locale_ref      0000000180010520 f   libucrt:locale_refcounting.obj
 0001:0000f5ac       __acrt_free_locale         00000001800105ac f   libucrt:locale_refcounting.obj
 0001:0000f724       __acrt_locale_add_lc_time_reference 0000000180010724 f   libucrt:locale_refcounting.obj
 0001:0000f74c       __acrt_locale_free_lc_time_if_unreferenced 000000018001074c f   libucrt:locale_refcounting.obj
 0001:0000f784       __acrt_locale_release_lc_time_reference 0000000180010784 f   libucrt:locale_refcounting.obj
 0001:0000f7ac       __acrt_release_locale_ref  00000001800107ac f   libucrt:locale_refcounting.obj
 0001:0000f854       __acrt_update_thread_locale_data 0000000180010854 f   libucrt:locale_refcounting.obj
 0001:0000f8c4       _updatetlocinfoEx_nolock   00000001800108c4 f   libucrt:locale_refcounting.obj
 0001:0000f92c       __acrt_locale_free_monetary 000000018001092c f   libucrt:initmon.obj
 0001:0000fa38       __acrt_locale_free_numeric 0000000180010a38 f   libucrt:initnum.obj
 0001:0000fafc       __acrt_locale_free_time    0000000180010afc f   libucrt:inittime.obj
 0001:0000fc04       __acrt_DownlevelLocaleNameToLCID 0000000180010c04 f   libucrt:lcidtoname_downlevel.obj
 0001:0000fcb4       __acrt_initialize_fmode    0000000180010cb4 f   libucrt:txtmode.obj
 0001:0000fcd0       ?__mbrtoc32_utf8@__crt_mbstring@@YA_KPEA_UPEBD_KPEAU_Mbstatet@@@Z 0000000180010cd0 f   libucrt:mbrtoc32.obj
 0001:0000fea8       __dcrt_lowio_ensure_console_output_initialized 0000000180010ea8 f   libucrt:initcon.obj
 0001:0000fefc       __dcrt_terminate_console_output 0000000180010efc f   libucrt:initcon.obj
 0001:0000ff18       __dcrt_write_console       0000000180010f18 f   libucrt:initcon.obj
 0001:0000fff0       _get_fpsr                  0000000180010ff0 f   libucrt:fpsr.obj
 0001:00010000       _set_fpsr                  0000000180011000 f   libucrt:fpsr.obj
 0001:0001000a       _fclrf                     000000018001100a f   libucrt:fpsr.obj
 0001:0001001e       _frnd                      000000018001101e f   libucrt:fpsr.obj
 0001:00010164       _handle_error              0000000180011164 f   libucrt:libm_error.obj
 0001:0001028c       _handle_errorf             000000018001128c f   libucrt:libm_error.obj
 0001:000103c0       _handle_nan                00000001800113c0 f   libucrt:libm_error.obj
 0001:000103dc       _handle_nanf               00000001800113dc f   libucrt:libm_error.obj
 0001:00010490       strpbrk                    0000000180011490 f   libucrt:strpbrk.obj
 0001:00010858       _mbsdec                    0000000180011858 f   libucrt:mbsdec.obj
 0001:00010860       _mbsdec_l                  0000000180011860 f   libucrt:mbsdec.obj
 0001:0001090c       _msize_base                000000018001190c f   libucrt:msize.obj
 0001:00010950       log10                      0000000180011950 f   libucrt:log10.obj
 0001:00010f00       _log10_special             0000000180011f00 f   libucrt:log_special.obj
 0001:00010fc0       _FindPESection             0000000180011fc0 f   LIBCMT:pesect.obj
 0001:00011010       _IsNonwritableInCurrentImage 0000000180012010 f   LIBCMT:pesect.obj
 0001:00011060       _ValidateImageBase         0000000180012060 f   LIBCMT:pesect.obj
 0001:0001108c       __GSHandlerCheck_SEH       000000018001208c f   LIBCMT:gshandlerseh.obj
 0001:00011120       sinf                       0000000180012120 f   libucrt:sinf.obj
 0001:00011820       __remainder_piby2d2f_forC  0000000180012820 f   libucrt:remainder_piby2f_forc.obj
 0001:00011a38       _sinf_special              0000000180012a38 f   libucrt:sincos_special.obj
 0001:00011a60       _guard_dispatch_icall_nop  0000000180012a60 f   LIBCMT:guard_dispatch.obj
 0001:00011a80       _guard_xfg_dispatch_icall_nop 0000000180012a80 f   LIBCMT:guard_xfg_dispatch.obj
 0002:00000000       __imp_QueryPerformanceCounter 0000000180014000     kernel32:KERNEL32.dll
 0002:00000008       __imp_HeapSize             0000000180014008     kernel32:KERNEL32.dll
 0002:00000010       __imp_GetProcessHeap       0000000180014010     kernel32:KERNEL32.dll
 0002:00000018       __imp_FreeEnvironmentStringsW 0000000180014018     kernel32:KERNEL32.dll
 0002:00000020       __imp_GetEnvironmentStringsW 0000000180014020     kernel32:KERNEL32.dll
 0002:00000028       __imp_GetCommandLineA      0000000180014028     kernel32:KERNEL32.dll
 0002:00000030       __imp_GetOEMCP             0000000180014030     kernel32:KERNEL32.dll
 0002:00000038       __imp_GetACP               0000000180014038     kernel32:KERNEL32.dll
 0002:00000040       __imp_IsValidCodePage      0000000180014040     kernel32:KERNEL32.dll
 0002:00000048       __imp_FindNextFileW        0000000180014048     kernel32:KERNEL32.dll
 0002:00000050       __imp_FindFirstFileExW     0000000180014050     kernel32:KERNEL32.dll
 0002:00000058       __imp_FindClose            0000000180014058     kernel32:KERNEL32.dll
 0002:00000060       __imp_HeapReAlloc          0000000180014060     kernel32:KERNEL32.dll
 0002:00000068       __imp_FlushFileBuffers     0000000180014068     kernel32:KERNEL32.dll
 0002:00000070       __imp_SetFilePointerEx     0000000180014070     kernel32:KERNEL32.dll
 0002:00000078       __imp_WideCharToMultiByte  0000000180014078     kernel32:KERNEL32.dll
 0002:00000080       __imp_GetLastError         0000000180014080     kernel32:KERNEL32.dll
 0002:00000088       __imp_GetCommandLineW      0000000180014088     kernel32:KERNEL32.dll
 0002:00000090       __imp_WriteConsoleW        0000000180014090     kernel32:KERNEL32.dll
 0002:00000098       __imp_MultiByteToWideChar  0000000180014098     kernel32:KERNEL32.dll
 0002:000000a0       __imp_EncodePointer        00000001800140a0     kernel32:KERNEL32.dll
 0002:000000a8       __imp_DecodePointer        00000001800140a8     kernel32:KERNEL32.dll
 0002:000000b0       __imp_EnterCriticalSection 00000001800140b0     kernel32:KERNEL32.dll
 0002:000000b8       __imp_LeaveCriticalSection 00000001800140b8     kernel32:KERNEL32.dll
 0002:000000c0       __imp_InitializeCriticalSectionEx 00000001800140c0     kernel32:KERNEL32.dll
 0002:000000c8       __imp_DeleteCriticalSection 00000001800140c8     kernel32:KERNEL32.dll
 0002:000000d0       __imp_GetStringTypeW       00000001800140d0     kernel32:KERNEL32.dll
 0002:000000d8       __imp_GetCPInfo            00000001800140d8     kernel32:KERNEL32.dll
 0002:000000e0       __imp_CloseHandle          00000001800140e0     kernel32:KERNEL32.dll
 0002:000000e8       __imp_InitializeCriticalSectionAndSpinCount 00000001800140e8     kernel32:KERNEL32.dll
 0002:000000f0       __imp_CreateEventW         00000001800140f0     kernel32:KERNEL32.dll
 0002:000000f8       __imp_GetModuleHandleW     00000001800140f8     kernel32:KERNEL32.dll
 0002:00000100       __imp_GetProcAddress       0000000180014100     kernel32:KERNEL32.dll
 0002:00000108       __imp_RtlCaptureContext    0000000180014108     kernel32:KERNEL32.dll
 0002:00000110       __imp_RtlLookupFunctionEntry 0000000180014110     kernel32:KERNEL32.dll
 0002:00000118       __imp_RtlVirtualUnwind     0000000180014118     kernel32:KERNEL32.dll
 0002:00000120       __imp_UnhandledExceptionFilter 0000000180014120     kernel32:KERNEL32.dll
 0002:00000128       __imp_SetUnhandledExceptionFilter 0000000180014128     kernel32:KERNEL32.dll
 0002:00000130       __imp_GetCurrentProcess    0000000180014130     kernel32:KERNEL32.dll
 0002:00000138       __imp_TerminateProcess     0000000180014138     kernel32:KERNEL32.dll
 0002:00000140       __imp_IsProcessorFeaturePresent 0000000180014140     kernel32:KERNEL32.dll
 0002:00000148       __imp_IsDebuggerPresent    0000000180014148     kernel32:KERNEL32.dll
 0002:00000150       __imp_GetStartupInfoW      0000000180014150     kernel32:KERNEL32.dll
 0002:00000158       __imp_GetCurrentProcessId  0000000180014158     kernel32:KERNEL32.dll
 0002:00000160       __imp_GetCurrentThreadId   0000000180014160     kernel32:KERNEL32.dll
 0002:00000168       __imp_GetSystemTimeAsFileTime 0000000180014168     kernel32:KERNEL32.dll
 0002:00000170       __imp_InitializeSListHead  0000000180014170     kernel32:KERNEL32.dll
 0002:00000178       __imp_RtlUnwindEx          0000000180014178     kernel32:KERNEL32.dll
 0002:00000180       __imp_RtlPcToFileHeader    0000000180014180     kernel32:KERNEL32.dll
 0002:00000188       __imp_RaiseException       0000000180014188     kernel32:KERNEL32.dll
 0002:00000190       __imp_InterlockedFlushSList 0000000180014190     kernel32:KERNEL32.dll
 0002:00000198       __imp_SetLastError         0000000180014198     kernel32:KERNEL32.dll
 0002:000001a0       __imp_TlsAlloc             00000001800141a0     kernel32:KERNEL32.dll
 0002:000001a8       __imp_TlsGetValue          00000001800141a8     kernel32:KERNEL32.dll
 0002:000001b0       __imp_TlsSetValue          00000001800141b0     kernel32:KERNEL32.dll
 0002:000001b8       __imp_TlsFree              00000001800141b8     kernel32:KERNEL32.dll
 0002:000001c0       __imp_FreeLibrary          00000001800141c0     kernel32:KERNEL32.dll
 0002:000001c8       __imp_LoadLibraryExW       00000001800141c8     kernel32:KERNEL32.dll
 0002:000001d0       __imp_SetStdHandle         00000001800141d0     kernel32:KERNEL32.dll
 0002:000001d8       __imp_GetFileType          00000001800141d8     kernel32:KERNEL32.dll
 0002:000001e0       __imp_CreateFileW          00000001800141e0     kernel32:KERNEL32.dll
 0002:000001e8       __imp_GetConsoleMode       00000001800141e8     kernel32:KERNEL32.dll
 0002:000001f0       __imp_WriteFile            00000001800141f0     kernel32:KERNEL32.dll
 0002:000001f8       __imp_GetConsoleOutputCP   00000001800141f8     kernel32:KERNEL32.dll
 0002:00000200       __imp_ExitProcess          0000000180014200     kernel32:KERNEL32.dll
 0002:00000208       __imp_GetModuleHandleExW   0000000180014208     kernel32:KERNEL32.dll
 0002:00000210       __imp_GetModuleFileNameW   0000000180014210     kernel32:KERNEL32.dll
 0002:00000218       __imp_HeapFree             0000000180014218     kernel32:KERNEL32.dll
 0002:00000220       __imp_HeapAlloc            0000000180014220     kernel32:KERNEL32.dll
 0002:00000228       __imp_GetStdHandle         0000000180014228     kernel32:KERNEL32.dll
 0002:00000230       __imp_LCMapStringW         0000000180014230     kernel32:KERNEL32.dll
 0002:00000238       \177KERNEL32_NULL_THUNK_DATA 0000000180014238     kernel32:KERNEL32.dll
 0002:00000240       __guard_check_icall_fptr   0000000180014240     LIBCMT:guard_support.obj
 0002:00000248       __guard_xfg_check_icall_fptr 0000000180014248     LIBCMT:guard_support.obj
 0002:00000250       __guard_dispatch_icall_fptr 0000000180014250     LIBCMT:guard_support.obj
 0002:00000258       __guard_xfg_dispatch_icall_fptr 0000000180014258     LIBCMT:guard_support.obj
 0002:00000260       __guard_xfg_table_dispatch_icall_fptr 0000000180014260     LIBCMT:guard_support.obj
 0002:00000268       __castguard_check_failure_os_handled_fptr 0000000180014268     LIBCMT:guard_support.obj
 0002:00000270       __guard_memcpy_fptr        0000000180014270     libvcruntime:softmemtag.obj
 0002:00000278       __xc_a                     0000000180014278     LIBCMT:initializers.obj
 0002:000002b8       __xc_z                     00000001800142b8     LIBCMT:initializers.obj
 0002:000002c0       __xi_a                     00000001800142c0     LIBCMT:initializers.obj
 0002:000002d0       __acrt_stdio_initializer   00000001800142d0     libucrt:stdio_initializer.obj
 0002:000002d8       __acrt_tran_fma3_initializer 00000001800142d8     libucrt:fma3_initializer.obj
 0002:000002e0       __acrt_timeset_initializer 00000001800142e0     libucrt:timeset_initializer.obj
 0002:000002e8       __acrt_multibyte_initializer 00000001800142e8     libucrt:multibyte_initializer.obj
 0002:000002f0       __acrt_fmode_initializer   00000001800142f0     libucrt:fmode_initializer.obj
 0002:000002f8       __xi_z                     00000001800142f8     LIBCMT:initializers.obj
 0002:00000300       __xl_a                     0000000180014300     LIBCMT:tlssup.obj
 0002:00000308       __xl_z                     0000000180014308     LIBCMT:tlssup.obj
 0002:00000310       __xp_a                     0000000180014310     LIBCMT:initializers.obj
 0002:00000318       __acrt_locale_terminator   0000000180014318     libucrt:locale_initializer.obj
 0002:00000320       __dcrt_console_output_terminator 0000000180014320     libucrt:console_output_initializer.obj
 0002:00000328       __acrt_stdio_terminator    0000000180014328     libucrt:stdio_initializer.obj
 0002:00000330       __xp_z                     0000000180014330     LIBCMT:initializers.obj
 0002:00000338       __xt_a                     0000000180014338     LIBCMT:initializers.obj
 0002:00000340       __xt_z                     0000000180014340     LIBCMT:initializers.obj
 0002:00000358       ??_7exception@std@@6B@     0000000180014358     libcpmt:xthrow.obj
 0002:00000370       ??_7bad_alloc@std@@6B@     0000000180014370     libcpmt:xthrow.obj
 0002:00000380       ??_C@_0P@GHFPNOJB@bad?5allocation@ 0000000180014380     libcpmt:xthrow.obj
 0002:00000398       ??_7bad_array_new_length@std@@6B@ 0000000180014398     libcpmt:locale.obj
 0002:000003a8       ??_C@_11LOCGONAA@@         00000001800143a8     libcpmt:wlocale.obj
 0002:00000bb0       ??_C@_0BN@LKKBCCDB@address?5family?5not?5supported@ 0000000180014bb0     libcpmt:syserror.obj
 0002:00000bd0       ??_C@_0P@LDMLAFHI@address?5in?5use@ 0000000180014bd0     libcpmt:syserror.obj
 0002:00000be0       ??_C@_0BG@DHPCNBJB@address?5not?5available@ 0000000180014be0     libcpmt:syserror.obj
 0002:00000bf8       ??_C@_0BC@DFIBIBIL@already?5connected@ 0000000180014bf8     libcpmt:syserror.obj
 0002:00000c10       ??_C@_0BH@CAKOHOMI@argument?5list?5too?5long@ 0000000180014c10     libcpmt:syserror.obj
 0002:00000c28       ??_C@_0BH@CGIMPKIM@argument?5out?5of?5domain@ 0000000180014c28     libcpmt:syserror.obj
 0002:00000c40       ??_C@_0M@KGHGGJGL@bad?5address@ 0000000180014c40     libcpmt:syserror.obj
 0002:00000c50       ??_C@_0BE@MPJPGCEO@bad?5file?5descriptor@ 0000000180014c50     libcpmt:syserror.obj
 0002:00000c68       ??_C@_0M@PMMIEFCP@bad?5message@ 0000000180014c68     libcpmt:syserror.obj
 0002:00000c78       ??_C@_0M@KPHOFDBE@broken?5pipe@ 0000000180014c78     libcpmt:syserror.obj
 0002:00000c88       ??_C@_0BD@MGNDDEGM@connection?5aborted@ 0000000180014c88     libcpmt:syserror.obj
 0002:00000ca0       ??_C@_0BP@KAIHPOGN@connection?5already?5in?5progress@ 0000000180014ca0     libcpmt:syserror.obj
 0002:00000cc0       ??_C@_0BD@PJLIIJEL@connection?5refused@ 0000000180014cc0     libcpmt:syserror.obj
 0002:00000cd8       ??_C@_0BB@IECNJNOI@connection?5reset@ 0000000180014cd8     libcpmt:syserror.obj
 0002:00000cf0       ??_C@_0BC@PPHBOELF@cross?5device?5link@ 0000000180014cf0     libcpmt:syserror.obj
 0002:00000d08       ??_C@_0BN@KDMIFEIP@destination?5address?5required@ 0000000180014d08     libcpmt:syserror.obj
 0002:00000d28       ??_C@_0BI@NGCEHDD@device?5or?5resource?5busy@ 0000000180014d28     libcpmt:syserror.obj
 0002:00000d40       ??_C@_0BE@JIDOCPHM@directory?5not?5empty@ 0000000180014d40     libcpmt:syserror.obj
 0002:00000d58       ??_C@_0BI@BNCLIGPB@executable?5format?5error@ 0000000180014d58     libcpmt:syserror.obj
 0002:00000d70       ??_C@_0M@MIDIAGJP@file?5exists@ 0000000180014d70     libcpmt:syserror.obj
 0002:00000d80       ??_C@_0P@DNAJLBJK@file?5too?5large@ 0000000180014d80     libcpmt:syserror.obj
 0002:00000d90       ??_C@_0BC@EJHOMAAK@filename?5too?5long@ 0000000180014d90     libcpmt:syserror.obj
 0002:00000da8       ??_C@_0BH@KEFGLDAF@function?5not?5supported@ 0000000180014da8     libcpmt:syserror.obj
 0002:00000dc0       ??_C@_0BB@DHFDFGDM@host?5unreachable@ 0000000180014dc0     libcpmt:syserror.obj
 0002:00000dd8       ??_C@_0BD@JPHBMONG@identifier?5removed@ 0000000180014dd8     libcpmt:syserror.obj
 0002:00000df0       ??_C@_0BG@CDNPAGJK@illegal?5byte?5sequence@ 0000000180014df0     libcpmt:syserror.obj
 0002:00000e08       ??_C@_0CD@BNPLBMNA@inappropriate?5io?5control?5operat@ 0000000180014e08     libcpmt:syserror.obj
 0002:00000e30       ??_C@_0M@EGEKIIMP@interrupted@ 0000000180014e30     libcpmt:syserror.obj
 0002:00000e40       ??_C@_0BB@FCMFBGOM@invalid?5argument@ 0000000180014e40     libcpmt:syserror.obj
 0002:00000e58       ??_C@_0N@OHAFKDEK@invalid?5seek@ 0000000180014e58     libcpmt:syserror.obj
 0002:00000e68       ??_C@_08GLNPIFBN@io?5error@ 0000000180014e68     libcpmt:syserror.obj
 0002:00000e78       ??_C@_0P@FLLDBIDK@is?5a?5directory@ 0000000180014e78     libcpmt:syserror.obj
 0002:00000e88       ??_C@_0N@IFLPBIOP@message?5size@ 0000000180014e88     libcpmt:syserror.obj
 0002:00000e98       ??_C@_0N@KIIEAAIO@network?5down@ 0000000180014e98     libcpmt:syserror.obj
 0002:00000ea8       ??_C@_0O@FNPDBHEE@network?5reset@ 0000000180014ea8     libcpmt:syserror.obj
 0002:00000eb8       ??_C@_0BE@IFNCKGE@network?5unreachable@ 0000000180014eb8     libcpmt:syserror.obj
 0002:00000ed0       ??_C@_0BA@PFFCAOFK@no?5buffer?5space@ 0000000180014ed0     libcpmt:syserror.obj
 0002:00000ee0       ??_C@_0BB@IEPBLJHK@no?5child?5process@ 0000000180014ee0     libcpmt:syserror.obj
 0002:00000ef8       ??_C@_07PLECNNKG@no?5link@ 0000000180014ef8     libcpmt:syserror.obj
 0002:00000f00       ??_C@_0BC@NJECKMKE@no?5lock?5available@ 0000000180014f00     libcpmt:syserror.obj
 0002:00000f18       ??_C@_0BF@PBGGPKKE@no?5message?5available@ 0000000180014f18     libcpmt:syserror.obj
 0002:00000f30       ??_C@_0L@EDOLMPAK@no?5message@ 0000000180014f30     libcpmt:syserror.obj
 0002:00000f40       ??_C@_0BD@EAMBFIDF@no?5protocol?5option@ 0000000180014f40     libcpmt:syserror.obj
 0002:00000f58       ??_C@_0BD@IJDJKDEA@no?5space?5on?5device@ 0000000180014f58     libcpmt:syserror.obj
 0002:00000f70       ??_C@_0BE@MKFDAFMP@no?5stream?5resources@ 0000000180014f70     libcpmt:syserror.obj
 0002:00000f88       ??_C@_0BK@IMCPHCBI@no?5such?5device?5or?5address@ 0000000180014f88     libcpmt:syserror.obj
 0002:00000fa8       ??_C@_0P@FDINDDOK@no?5such?5device@ 0000000180014fa8     libcpmt:syserror.obj
 0002:00000fb8       ??_C@_0BK@NDOCBPGE@no?5such?5file?5or?5directory@ 0000000180014fb8     libcpmt:syserror.obj
 0002:00000fd8       ??_C@_0BA@ENLPPKBN@no?5such?5process@ 0000000180014fd8     libcpmt:syserror.obj
 0002:00000fe8       ??_C@_0BA@DOCPFFJG@not?5a?5directory@ 0000000180014fe8     libcpmt:syserror.obj
 0002:00000ff8       ??_C@_0N@POEIPGGF@not?5a?5socket@ 0000000180014ff8     libcpmt:syserror.obj
 0002:00001008       ??_C@_0N@LGAPMMPI@not?5a?5stream@ 0000000180015008     libcpmt:syserror.obj
 0002:00001018       ??_C@_0O@GLMIBBEG@not?5connected@ 0000000180015018     libcpmt:syserror.obj
 0002:00001028       ??_C@_0BC@ENOOLCNF@not?5enough?5memory@ 0000000180015028     libcpmt:syserror.obj
 0002:00001040       ??_C@_0O@NHEDABJP@not?5supported@ 0000000180015040     libcpmt:syserror.obj
 0002:00001050       ??_C@_0BD@MOLBPMEA@operation?5canceled@ 0000000180015050     libcpmt:syserror.obj
 0002:00001068       ??_C@_0BG@KDKHOPCO@operation?5in?5progress@ 0000000180015068     libcpmt:syserror.obj
 0002:00001080       ??_C@_0BI@OHIEJAAB@operation?5not?5permitted@ 0000000180015080     libcpmt:syserror.obj
 0002:00001098       ??_C@_0BI@LNEGIFLN@operation?5not?5supported@ 0000000180015098     libcpmt:syserror.obj
 0002:000010b0       ??_C@_0BG@OEMDKMEE@operation?5would?5block@ 00000001800150b0     libcpmt:syserror.obj
 0002:000010c8       ??_C@_0L@BLPOFLNJ@owner?5dead@ 00000001800150c8     libcpmt:syserror.obj
 0002:000010d8       ??_C@_0BC@CIJDGCDI@permission?5denied@ 00000001800150d8     libcpmt:syserror.obj
 0002:000010f0       ??_C@_0P@FNPOCJBE@protocol?5error@ 00000001800150f0     libcpmt:syserror.obj
 0002:00001100       ??_C@_0BH@JPPPLHJB@protocol?5not?5supported@ 0000000180015100     libcpmt:syserror.obj
 0002:00001118       ??_C@_0BG@EICBIHDP@read?5only?5file?5system@ 0000000180015118     libcpmt:syserror.obj
 0002:00001130       ??_C@_0BO@BJBOMOEJ@resource?5deadlock?5would?5occur@ 0000000180015130     libcpmt:syserror.obj
 0002:00001150       ??_C@_0BP@LKNGHENJ@resource?5unavailable?5try?5again@ 0000000180015150     libcpmt:syserror.obj
 0002:00001170       ??_C@_0BE@GOIPJJHG@result?5out?5of?5range@ 0000000180015170     libcpmt:syserror.obj
 0002:00001188       ??_C@_0BG@MPLKFPAE@state?5not?5recoverable@ 0000000180015188     libcpmt:syserror.obj
 0002:000011a0       ??_C@_0P@DIIFGFCG@stream?5timeout@ 00000001800151a0     libcpmt:syserror.obj
 0002:000011b0       ??_C@_0P@IPFDMIFL@text?5file?5busy@ 00000001800151b0     libcpmt:syserror.obj
 0002:000011c0       ??_C@_09KJPPMAOI@timed?5out@ 00000001800151c0     libcpmt:syserror.obj
 0002:000011d0       ??_C@_0BO@HACHBEKI@too?5many?5files?5open?5in?5system@ 00000001800151d0     libcpmt:syserror.obj
 0002:000011f0       ??_C@_0BE@GHAFMPAH@too?5many?5files?5open@ 00000001800151f0     libcpmt:syserror.obj
 0002:00001208       ??_C@_0P@HCOMKFCC@too?5many?5links@ 0000000180015208     libcpmt:syserror.obj
 0002:00001218       ??_C@_0BO@EFGOJEF@too?5many?5symbolic?5link?5levels@ 0000000180015218     libcpmt:syserror.obj
 0002:00001238       ??_C@_0BA@KGKGOOJA@value?5too?5large@ 0000000180015238     libcpmt:syserror.obj
 0002:00001248       ??_C@_0BE@MIEJDDNH@wrong?5protocol?5type@ 0000000180015248     libcpmt:syserror.obj
 0002:00001368       ??_7type_info@@6B@         0000000180015368     LIBCMT:std_type_info_static.obj
 0002:00001370       ??_C@_1EC@JIJBPKFM@?$AAa?$AAp?$AAi?$AA?9?$AAm?$AAs?$AA?9?$AAw?$AAi?$AAn?$AA?9?$AAc?$AAo?$AAr?$AAe@ 0000000180015370     LIBCMT:thread_safe_statics.obj
 0002:000013b8       ??_C@_1BK@MGMFAEKH@?$AAk?$AAe?$AAr?$AAn?$AAe?$AAl?$AA3?$AA2?$AA?4?$AAd?$AAl?$AAl@ 00000001800153b8     LIBCMT:thread_safe_statics.obj
 0002:000013d8       ??_C@_0BJ@JEBJOJFJ@SleepConditionVariableCS@ 00000001800153d8     LIBCMT:thread_safe_statics.obj
 0002:000013f8       ??_C@_0BJ@PGPPEPCC@WakeAllConditionVariable@ 00000001800153f8     LIBCMT:thread_safe_statics.obj
 0002:00001420       __xmm@ffffffffffffffffffffffffffffffff 0000000180015420     LIBCMT:utility.obj
 0002:00001440       _pDefaultRawDllMain        0000000180015440     LIBCMT:dll_dllmain.obj
 0002:00001440       _pRawDllMain               0000000180015440     LIBCMT:dll_dllmain.obj
 0002:00001448       ?s_negLengthTab@FH4@@3QBCB 0000000180015448     libvcruntime:risctrnsctrl.obj
 0002:00001458       ?s_shiftTab@FH4@@3QBEB     0000000180015458     libvcruntime:risctrnsctrl.obj
 0002:00001508       _pDestructExceptionObject  0000000180015508     libvcruntime:ehhelpers.obj
 0002:00001518       ??_7bad_exception@std@@6B@ 0000000180015518     libvcruntime:frame.obj
 0002:00001528       ??_C@_0O@DPKOEFFH@bad?5exception@ 0000000180015528     libvcruntime:frame.obj
 0002:00001c50       ??_C@_08EHJDFFNH@__based?$CI@ 0000000180015c50     libvcruntime:undname.obj
 0002:00001c60       ??_C@_07KOLFKCDI@__cdecl@  0000000180015c60     libvcruntime:undname.obj
 0002:00001c68       ??_C@_08GHMPAG@__pascal@   0000000180015c68     libvcruntime:undname.obj
 0002:00001c78       ??_C@_09IFJBGAPI@__stdcall@ 0000000180015c78     libvcruntime:undname.obj
 0002:00001c88       ??_C@_0L@NPHFGOKO@__thiscall@ 0000000180015c88     libvcruntime:undname.obj
 0002:00001c98       ??_C@_0L@JMKHOMEK@__fastcall@ 0000000180015c98     libvcruntime:undname.obj
 0002:00001ca8       ??_C@_0N@BCKKPABJ@__vectorcall@ 0000000180015ca8     libvcruntime:undname.obj
 0002:00001cb8       ??_C@_09HIJEGCPM@__clrcall@ 0000000180015cb8     libvcruntime:undname.obj
 0002:00001cc4       ??_C@_06GHPCKEAG@__eabi@   0000000180015cc4     libvcruntime:undname.obj
 0002:00001cd0       ??_C@_09IOPIDJLG@__swift_1@ 0000000180015cd0     libvcruntime:undname.obj
 0002:00001ce0       ??_C@_09KFNFGKHF@__swift_2@ 0000000180015ce0     libvcruntime:undname.obj
 0002:00001cf0       ??_C@_09LMMOFLDE@__swift_3@ 0000000180015cf0     libvcruntime:undname.obj
 0002:00001d00       ??_C@_07JOMMBBKO@__ptr64@  0000000180015d00     libvcruntime:undname.obj
 0002:00001d08       ??_C@_0L@PILCLIHE@__restrict@ 0000000180015d08     libvcruntime:undname.obj
 0002:00001d18       ??_C@_0M@GFIIJFMG@__unaligned@ 0000000180015d18     libvcruntime:undname.obj
 0002:00001d28       ??_C@_09DHDLOLLB@restrict?$CI@ 0000000180015d28     libvcruntime:undname.obj
 0002:00001d34       ??_C@_04NIHEBCM@?5new@     0000000180015d34     libvcruntime:undname.obj
 0002:00001d40       ??_C@_07FPCDHGMM@?5delete@ 0000000180015d40     libvcruntime:undname.obj
 0002:00001d48       ??_C@_01NEMOKFLO@?$DN@     0000000180015d48     libvcruntime:undname.obj
 0002:00001d4c       ??_C@_01DCLJPIOD@?$CB@     0000000180015d4c     libvcruntime:undname.obj
 0002:00001d50       ??_C@_02EGOFBIJA@?$DN?$DN@ 0000000180015d50     libvcruntime:undname.obj
 0002:00001d54       ??_C@_02FDNJECIE@?$CB?$DN@ 0000000180015d54     libvcruntime:undname.obj
 0002:00001d58       ??_C@_02GPECMEKF@?$FL?$FN@ 0000000180015d58     libvcruntime:undname.obj
 0002:00001d60       ??_C@_08LHJFAFGD@operator@ 0000000180015d60     libvcruntime:undname.obj
 0002:00001d6c       ??_C@_02HBOOOICD@?9?$DO@   0000000180015d6c     libvcruntime:undname.obj
 0002:00001d70       ??_C@_02ECNGHCIF@?$CL?$CL@ 0000000180015d70     libvcruntime:undname.obj
 0002:00001d74       ??_C@_02BAABKJLB@?9?9@     0000000180015d74     libvcruntime:undname.obj
 0002:00001d78       ??_C@_01HNPIGOCE@?$CG@     0000000180015d78     libvcruntime:undname.obj
 0002:00001d7c       ??_C@_03MNHNFDLC@?9?$DO?$CK@ 0000000180015d7c     libvcruntime:undname.obj
 0002:00001d80       ??_C@_01KMDKNFGN@?1@       0000000180015d80     libvcruntime:undname.obj
 0002:00001d84       ??_C@_01FGNFDNOH@?$CF@     0000000180015d84     libvcruntime:undname.obj
 0002:00001d88       ??_C@_02EHCHHCKH@?$DM?$DN@ 0000000180015d88     libvcruntime:undname.obj
 0002:00001d8c       ??_C@_02EEKDKGMJ@?$DO?$DN@ 0000000180015d8c     libvcruntime:undname.obj
 0002:00001d90       ??_C@_01IHBHIGKO@?0@       0000000180015d90     libvcruntime:undname.obj
 0002:00001d94       ??_C@_02HCKGKOFO@?$CI?$CJ@ 0000000180015d94     libvcruntime:undname.obj
 0002:00001d98       ??_C@_01PJKLJHI@?$HO@      0000000180015d98     libvcruntime:undname.obj
 0002:00001d9c       ??_C@_01JKBOJNNK@?$FO@     0000000180015d9c     libvcruntime:undname.obj
 0002:00001da0       ??_C@_01DNKMNLPK@?$HM@     0000000180015da0     libvcruntime:undname.obj
 0002:00001da4       ??_C@_02PPKAJPJL@?$CG?$CG@ 0000000180015da4     libvcruntime:undname.obj
 0002:00001da8       ??_C@_02NONPIBCD@?$HM?$HM@ 0000000180015da8     libvcruntime:undname.obj
 0002:00001dac       ??_C@_02FPIMKNGF@?$CK?$DN@ 0000000180015dac     libvcruntime:undname.obj
 0002:00001db0       ??_C@_02FOEOMHFC@?$CL?$DN@ 0000000180015db0     libvcruntime:undname.obj
 0002:00001db4       ??_C@_02FKMDLLOA@?9?$DN@   0000000180015db4     libvcruntime:undname.obj
 0002:00001db8       ??_C@_02FJEHGPIO@?1?$DN@   0000000180015db8     libvcruntime:undname.obj
 0002:00001dbc       ??_C@_02FENAOKFI@?$CF?$DN@ 0000000180015dbc     libvcruntime:undname.obj
 0002:00001dc0       ??_C@_03IKFCCPFF@?$DO?$DO?$DN@ 0000000180015dc0     libvcruntime:undname.obj
 0002:00001dc4       ??_C@_03CDNPDDLA@?$DM?$DM?$DN@ 0000000180015dc4     libvcruntime:undname.obj
 0002:00001dc8       ??_C@_02FGJGFEAB@?$CG?$DN@ 0000000180015dc8     libvcruntime:undname.obj
 0002:00001dcc       ??_C@_02DHLNPPGH@?$HM?$DN@ 0000000180015dcc     libvcruntime:undname.obj
 0002:00001dd0       ??_C@_02MHEGNOJ@?$FO?$DN@  0000000180015dd0     libvcruntime:undname.obj
 0002:00001dd8       ??_C@_09IFPLHPGF@?$GAvftable?8@ 0000000180015dd8     libvcruntime:undname.obj
 0002:00001de8       ??_C@_09BLBHBJP@?$GAvbtable?8@ 0000000180015de8     libvcruntime:undname.obj
 0002:00001df8       ??_C@_07FEEIOKP@?$GAvcall?8@ 0000000180015df8     libvcruntime:undname.obj
 0002:00001e00       ??_C@_08LLFFHHDJ@?$GAtypeof?8@ 0000000180015e00     libvcruntime:undname.obj
 0002:00001e10       ??_C@_0BF@KDPPACIK@?$GAlocal?5static?5guard?8@ 0000000180015e10     libvcruntime:undname.obj
 0002:00001e28       ??_C@_08OBABFOLI@?$GAstring?8@ 0000000180015e28     libvcruntime:undname.obj
 0002:00001e38       ??_C@_0BD@JDLKDPAB@?$GAvbase?5destructor?8@ 0000000180015e38     libvcruntime:undname.obj
 0002:00001e50       ??_C@_0BN@DEGPLNFK@?$GAvector?5deleting?5destructor?8@ 0000000180015e50     libvcruntime:undname.obj
 0002:00001e70       ??_C@_0BO@OBMKPJIG@?$GAdefault?5constructor?5closure?8@ 0000000180015e70     libvcruntime:undname.obj
 0002:00001e90       ??_C@_0BN@IMDCHIKM@?$GAscalar?5deleting?5destructor?8@ 0000000180015e90     libvcruntime:undname.obj
 0002:00001eb0       ??_C@_0BO@PFGOCPJJ@?$GAvector?5constructor?5iterator?8@ 0000000180015eb0     libvcruntime:undname.obj
 0002:00001ed0       ??_C@_0BN@LFPFMEDL@?$GAvector?5destructor?5iterator?8@ 0000000180015ed0     libvcruntime:undname.obj
 0002:00001ef0       ??_C@_0CE@IKBNEHA@?$GAvector?5vbase?5constructor?5itera@ 0000000180015ef0     libvcruntime:undname.obj
 0002:00001f18       ??_C@_0BL@NILFHHPC@?$GAvirtual?5displacement?5map?8@ 0000000180015f18     libvcruntime:undname.obj
 0002:00001f38       ??_C@_0CB@JONCMFFK@?$GAeh?5vector?5constructor?5iterator@ 0000000180015f38     libvcruntime:undname.obj
 0002:00001f60       ??_C@_0CA@GCEOPDGL@?$GAeh?5vector?5destructor?5iterator?8@ 0000000180015f60     libvcruntime:undname.obj
 0002:00001f80       ??_C@_0CH@OOJPLCPH@?$GAeh?5vector?5vbase?5constructor?5it@ 0000000180015f80     libvcruntime:undname.obj
 0002:00001fa8       ??_C@_0BL@LLKPOHJI@?$GAcopy?5constructor?5closure?8@ 0000000180015fa8     libvcruntime:undname.obj
 0002:00001fc8       ??_C@_0BA@KBCDOMBN@?$GAudt?5returning?8@ 0000000180015fc8     libvcruntime:undname.obj
 0002:00001fd8       ??_C@_03KLGMFNMG@?$GAEH@   0000000180015fd8     libvcruntime:undname.obj
 0002:00001fdc       ??_C@_05KHLCHHI@?$GARTTI@  0000000180015fdc     libvcruntime:undname.obj
 0002:00001fe8       ??_C@_0BA@KKLDJDLB@?$GAlocal?5vftable?8@ 0000000180015fe8     libvcruntime:undname.obj
 0002:00001ff8       ??_C@_0CE@IIHCMGGL@?$GAlocal?5vftable?5constructor?5clos@ 0000000180015ff8     libvcruntime:undname.obj
 0002:0000201c       ??_C@_06FHBGPFGH@?5new?$FL?$FN@ 000000018001601c     libvcruntime:undname.obj
 0002:00002028       ??_C@_09LBNFPBCA@?5delete?$FL?$FN@ 0000000180016028     libvcruntime:undname.obj
 0002:00002038       ??_C@_0P@HJKNJFNN@?$GAomni?5callsig?8@ 0000000180016038     libvcruntime:undname.obj
 0002:00002048       ??_C@_0BL@CNOONJFP@?$GAplacement?5delete?5closure?8@ 0000000180016048     libvcruntime:undname.obj
 0002:00002068       ??_C@_0BN@CKNJLHMB@?$GAplacement?5delete?$FL?$FN?5closure?8@ 0000000180016068     libvcruntime:undname.obj
 0002:00002088       ??_C@_0CG@CFDHKGGD@?$GAmanaged?5vector?5constructor?5ite@ 0000000180016088     libvcruntime:undname.obj
 0002:000020b0       ??_C@_0CF@IMGKMJNO@?$GAmanaged?5vector?5destructor?5iter@ 00000001800160b0     libvcruntime:undname.obj
 0002:000020d8       ??_C@_0CG@HLDDJMAG@?$GAeh?5vector?5copy?5constructor?5ite@ 00000001800160d8     libvcruntime:undname.obj
 0002:00002100       ??_C@_0CM@FCBBDIGB@?$GAeh?5vector?5vbase?5copy?5construct@ 0000000180016100     libvcruntime:undname.obj
 0002:00002130       ??_C@_0BL@CLIPGLGB@?$GAdynamic?5initializer?5for?5?8@ 0000000180016130     libvcruntime:undname.obj
 0002:00002150       ??_C@_0CB@PDBIFEP@?$GAdynamic?5atexit?5destructor?5for?5@ 0000000180016150     libvcruntime:undname.obj
 0002:00002178       ??_C@_0CD@CGAJBKEJ@?$GAvector?5copy?5constructor?5iterat@ 0000000180016178     libvcruntime:undname.obj
 0002:000021a0       ??_C@_0CJ@GJELGAMM@?$GAvector?5vbase?5copy?5constructor?5@ 00000001800161a0     libvcruntime:undname.obj
 0002:000021d0       ??_C@_0CL@FGIJHLCE@?$GAmanaged?5vector?5copy?5constructo@ 00000001800161d0     libvcruntime:undname.obj
 0002:00002200       ??_C@_0BM@PMGGMLDN@?$GAlocal?5static?5thread?5guard?8@ 0000000180016200     libvcruntime:undname.obj
 0002:00002220       ??_C@_0N@BDNMDMOL@operator?5?$CC?$CC?5@ 0000000180016220     libvcruntime:undname.obj
 0002:00002230       ??_C@_0BC@GGEBGALA@operator?5co_await@ 0000000180016230     libvcruntime:undname.obj
 0002:00002248       ??_C@_0M@GAAIMMOH@operator?$DM?$DN?$DO@ 0000000180016248     libvcruntime:undname.obj
 0002:00002258       ??_C@_0BC@DAFEJGAK@?5Type?5Descriptor?8@ 0000000180016258     libvcruntime:undname.obj
 0002:00002270       ??_C@_0BM@LDKODKLH@?5Base?5Class?5Descriptor?5at?5?$CI@ 0000000180016270     libvcruntime:undname.obj
 0002:00002290       ??_C@_0BD@LGICGFMM@?5Base?5Class?5Array?8@ 0000000180016290     libvcruntime:undname.obj
 0002:000022a8       ??_C@_0BN@MECKDCOJ@?5Class?5Hierarchy?5Descriptor?8@ 00000001800162a8     libvcruntime:undname.obj
 0002:000022c8       ??_C@_0BK@CFCOFLF@?5Complete?5Object?5Locator?8@ 00000001800162c8     libvcruntime:undname.obj
 0002:000022e8       ??_C@_0BG@JNJLAMPM@?$GAanonymous?5namespace?8@ 00000001800162e8     libvcruntime:undname.obj
 0002:00002318       ??_C@_1DM@KHCHBNEB@?$AAa?$AAp?$AAi?$AA?9?$AAm?$AAs?$AA?9?$AAw?$AAi?$AAn?$AA?9?$AAc?$AAo?$AAr?$AAe@ 0000000180016318     libvcruntime:winapi_downlevel.obj
 0002:00002358       ??_C@_1DK@LPPGFMPP@?$AAa?$AAp?$AAi?$AA?9?$AAm?$AAs?$AA?9?$AAw?$AAi?$AAn?$AA?9?$AAc?$AAo?$AAr?$AAe@ 0000000180016358     libvcruntime:winapi_downlevel.obj
 0002:00002398       ??_C@_1BC@GDMECMAK@?$AAk?$AAe?$AAr?$AAn?$AAe?$AAl?$AA3?$AA2@ 0000000180016398     libvcruntime:winapi_downlevel.obj
 0002:000023b0       ??_C@_1BA@PFFKHIOG@?$AAa?$AAp?$AAi?$AA?9?$AAm?$AAs?$AA?9@ 00000001800163b0     libvcruntime:winapi_downlevel.obj
 0002:000023c8       ??_C@_08KNHFBNJ@FlsAlloc@  00000001800163c8     libvcruntime:winapi_downlevel.obj
 0002:000023e0       ??_C@_07PEJMOBNF@FlsFree@  00000001800163e0     libvcruntime:winapi_downlevel.obj
 0002:000023f0       ??_C@_0M@GDNOONDI@FlsGetValue@ 00000001800163f0     libvcruntime:winapi_downlevel.obj
 0002:00002408       ??_C@_0M@JCPCPOEF@FlsSetValue@ 0000000180016408     libvcruntime:winapi_downlevel.obj
 0002:00002420       ??_C@_0BM@HCFOFFN@InitializeCriticalSectionEx@ 0000000180016420     libvcruntime:winapi_downlevel.obj
 0002:000025b0       __newctype                 00000001800165b0     libucrt:ctype.obj
 0002:000028b0       __newclmap                 00000001800168b0     libucrt:ctype.obj
 0002:00002a30       __newcumap                 0000000180016a30     libucrt:ctype.obj
 0002:00004860       __acrt_exception_action_table 0000000180018860     libucrt:exception_filter.obj
 0002:00004920       __acrt_signal_action_table_count 0000000180018920     libucrt:exception_filter.obj
 0002:00004928       __acrt_signal_action_first_fpe_index 0000000180018928     libucrt:exception_filter.obj
 0002:00004930       __acrt_signal_action_fpe_count 0000000180018930     libucrt:exception_filter.obj
 0002:00004938       ??_C@_1BI@BGOHAHKC@?$AAm?$AAs?$AAc?$AAo?$AAr?$AAe?$AAe?$AA?4?$AAd?$AAl?$AAl@ 0000000180018938     libucrt:exit.obj
 0002:00004950       ??_C@_0P@MIGLKIOC@CorExitProcess@ 0000000180018950     libucrt:exit.obj
 0002:00004a60       __lc_time_c                0000000180018a60     libucrt:nlsdata.obj
 0002:00004d20       ??_C@_03KOEHGMDN@Sun@      0000000180018d20     libucrt:nlsdata.obj
 0002:00004d24       ??_C@_03PDAGKDH@Mon@       0000000180018d24     libucrt:nlsdata.obj
 0002:00004d28       ??_C@_03NAGEINEP@Tue@      0000000180018d28     libucrt:nlsdata.obj
 0002:00004d2c       ??_C@_03MHOMLAJA@Wed@      0000000180018d2c     libucrt:nlsdata.obj
 0002:00004d30       ??_C@_03IOFIKPDN@Thu@      0000000180018d30     libucrt:nlsdata.obj
 0002:00004d34       ??_C@_03IDIOELNC@Fri@      0000000180018d34     libucrt:nlsdata.obj
 0002:00004d38       ??_C@_03FEFJNEK@Sat@       0000000180018d38     libucrt:nlsdata.obj
 0002:00004d3c       ??_C@_06OOPIFAJ@Sunday@    0000000180018d3c     libucrt:nlsdata.obj
 0002:00004d44       ??_C@_06JLEDEDGH@Monday@   0000000180018d44     libucrt:nlsdata.obj
 0002:00004d50       ??_C@_07BAAGCFCM@Tuesday@  0000000180018d50     libucrt:nlsdata.obj
 0002:00004d58       ??_C@_09DLIGFAKA@Wednesday@ 0000000180018d58     libucrt:nlsdata.obj
 0002:00004d68       ??_C@_08HACCIKIA@Thursday@ 0000000180018d68     libucrt:nlsdata.obj
 0002:00004d74       ??_C@_06JECMNKMI@Friday@   0000000180018d74     libucrt:nlsdata.obj
 0002:00004d80       ??_C@_08INBOOONO@Saturday@ 0000000180018d80     libucrt:nlsdata.obj
 0002:00004d8c       ??_C@_03JIHJHPIE@Jan@      0000000180018d8c     libucrt:nlsdata.obj
 0002:00004d90       ??_C@_03HJBDCHOM@Feb@      0000000180018d90     libucrt:nlsdata.obj
 0002:00004d94       ??_C@_03ODNJBKGA@Mar@      0000000180018d94     libucrt:nlsdata.obj
 0002:00004d98       ??_C@_03LEOLGMJP@Apr@      0000000180018d98     libucrt:nlsdata.obj
 0002:00004d9c       ??_C@_03CNMDKL@May@        0000000180018d9c     libucrt:nlsdata.obj
 0002:00004da0       ??_C@_03IDFGHECI@Jun@      0000000180018da0     libucrt:nlsdata.obj
 0002:00004da4       ??_C@_03LBGABGKK@Jul@      0000000180018da4     libucrt:nlsdata.obj
 0002:00004da8       ??_C@_03IFJFEIGA@Aug@      0000000180018da8     libucrt:nlsdata.obj
 0002:00004dac       ??_C@_03GGCAPAJC@Sep@      0000000180018dac     libucrt:nlsdata.obj
 0002:00004db0       ??_C@_03BMAOKBAD@Oct@      0000000180018db0     libucrt:nlsdata.obj
 0002:00004db4       ??_C@_03JPJOFNIA@Nov@      0000000180018db4     libucrt:nlsdata.obj
 0002:00004db8       ??_C@_03MKABNOCG@Dec@      0000000180018db8     libucrt:nlsdata.obj
 0002:00004dc0       ??_C@_07CGJPFGJA@January@  0000000180018dc0     libucrt:nlsdata.obj
 0002:00004dc8       ??_C@_08GNJGEPFN@February@ 0000000180018dc8     libucrt:nlsdata.obj
 0002:00004dd4       ??_C@_05HPCKOFNC@March@    0000000180018dd4     libucrt:nlsdata.obj
 0002:00004ddc       ??_C@_05DMJDNLEJ@April@    0000000180018ddc     libucrt:nlsdata.obj
 0002:00004de4       ??_C@_04CNLMGBGM@June@     0000000180018de4     libucrt:nlsdata.obj
 0002:00004dec       ??_C@_04MIEPOIFP@July@     0000000180018dec     libucrt:nlsdata.obj
 0002:00004df4       ??_C@_06LBBHFDDG@August@   0000000180018df4     libucrt:nlsdata.obj
 0002:00004e00       ??_C@_09BHHEALKD@September@ 0000000180018e00     libucrt:nlsdata.obj
 0002:00004e10       ??_C@_07JJNFCEND@October@  0000000180018e10     libucrt:nlsdata.obj
 0002:00004e18       ??_C@_08HCHEGEOA@November@ 0000000180018e18     libucrt:nlsdata.obj
 0002:00004e28       ??_C@_08EDHMEBNP@December@ 0000000180018e28     libucrt:nlsdata.obj
 0002:00004e34       ??_C@_02DEDBPAFC@AM@       0000000180018e34     libucrt:nlsdata.obj
 0002:00004e38       ??_C@_02CJNFDJBF@PM@       0000000180018e38     libucrt:nlsdata.obj
 0002:00004e40       ??_C@_08BPBNCDIB@MM?1dd?1yy@ 0000000180018e40     libucrt:nlsdata.obj
 0002:00004e50       ??_C@_0BE@CKGJFCPC@dddd?0?5MMMM?5dd?0?5yyyy@ 0000000180018e50     libucrt:nlsdata.obj
 0002:00004e68       ??_C@_08JCCMCCIL@HH?3mm?3ss@ 0000000180018e68     libucrt:nlsdata.obj
 0002:00004e78       ??_C@_17MBGCMIPB@?$AAS?$AAu?$AAn@ 0000000180018e78     libucrt:nlsdata.obj
 0002:00004e80       ??_C@_17KBOMKBF@?$AAM?$AAo?$AAn@ 0000000180018e80     libucrt:nlsdata.obj
 0002:00004e88       ??_C@_17BMKGEGOJ@?$AAT?$AAu?$AAe@ 0000000180018e88     libucrt:nlsdata.obj
 0002:00004e90       ??_C@_17CJEDCEPE@?$AAW?$AAe?$AAd@ 0000000180018e90     libucrt:nlsdata.obj
 0002:00004e98       ??_C@_17PDPHAADD@?$AAT?$AAh?$AAu@ 0000000180018e98     libucrt:nlsdata.obj
 0002:00004ea0       ??_C@_17HFOLPPLP@?$AAF?$AAr?$AAi@ 0000000180018ea0     libucrt:nlsdata.obj
 0002:00004ea8       ??_C@_17GGIBDPIH@?$AAS?$AAa?$AAt@ 0000000180018ea8     libucrt:nlsdata.obj
 0002:00004eb0       ??_C@_1O@IHNHDHPB@?$AAS?$AAu?$AAn?$AAd?$AAa?$AAy@ 0000000180018eb0     libucrt:nlsdata.obj
 0002:00004ec0       ??_C@_1O@MMNBFLIA@?$AAM?$AAo?$AAn?$AAd?$AAa?$AAy@ 0000000180018ec0     libucrt:nlsdata.obj
 0002:00004ed0       ??_C@_1BA@ENFBFFEK@?$AAT?$AAu?$AAe?$AAs?$AAd?$AAa?$AAy@ 0000000180018ed0     libucrt:nlsdata.obj
 0002:00004ee0       ??_C@_1BE@EBOGMDOH@?$AAW?$AAe?$AAd?$AAn?$AAe?$AAs?$AAd?$AAa?$AAy@ 0000000180018ee0     libucrt:nlsdata.obj
 0002:00004ef8       ??_C@_1BC@HHMNLIHE@?$AAT?$AAh?$AAu?$AAr?$AAs?$AAd?$AAa?$AAy@ 0000000180018ef8     libucrt:nlsdata.obj
 0002:00004f10       ??_C@_1O@PDICJHAG@?$AAF?$AAr?$AAi?$AAd?$AAa?$AAy@ 0000000180018f10     libucrt:nlsdata.obj
 0002:00004f20       ??_C@_1BC@ENMNNPAJ@?$AAS?$AAa?$AAt?$AAu?$AAr?$AAd?$AAa?$AAy@ 0000000180018f20     libucrt:nlsdata.obj
 0002:00004f38       ??_C@_17DKNBKCHM@?$AAJ?$AAa?$AAn@ 0000000180018f38     libucrt:nlsdata.obj
 0002:00004f40       ??_C@_17LMDJEKJN@?$AAF?$AAe?$AAb@ 0000000180018f40     libucrt:nlsdata.obj
 0002:00004f48       ??_C@_17CKNLEDEC@?$AAM?$AAa?$AAr@ 0000000180018f48     libucrt:nlsdata.obj
 0002:00004f50       ??_C@_17LFPOIHDD@?$AAA?$AAp?$AAr@ 0000000180018f50     libucrt:nlsdata.obj
 0002:00004f58       ??_C@_17PNNKMEED@?$AAM?$AAa?$AAy@ 0000000180018f58     libucrt:nlsdata.obj
 0002:00004f60       ??_C@_17KCJGOCPB@?$AAJ?$AAu?$AAn@ 0000000180018f60     libucrt:nlsdata.obj
 0002:00004f68       ??_C@_17IJPCKHK@?$AAJ?$AAu?$AAl@ 0000000180018f68     libucrt:nlsdata.obj
 0002:00004f70       ??_C@_17ICPELBCN@?$AAA?$AAu?$AAg@ 0000000180018f70     libucrt:nlsdata.obj
 0002:00004f78       ??_C@_17HCHCOKMG@?$AAS?$AAe?$AAp@ 0000000180018f78     libucrt:nlsdata.obj
 0002:00004f80       ??_C@_17FNLKOI@?$AAO?$AAc?$AAt@ 0000000180018f80     libucrt:nlsdata.obj
 0002:00004f88       ??_C@_17BBDMLCIG@?$AAN?$AAo?$AAv@ 0000000180018f88     libucrt:nlsdata.obj
 0002:00004f90       ??_C@_17EGKACKIF@?$AAD?$AAe?$AAc@ 0000000180018f90     libucrt:nlsdata.obj
 0002:00004f98       ??_C@_1BA@EFMEIEBA@?$AAJ?$AAa?$AAn?$AAu?$AAa?$AAr?$AAy@ 0000000180018f98     libucrt:nlsdata.obj
 0002:00004fa8       ??_C@_1BC@JGDDFFAM@?$AAF?$AAe?$AAb?$AAr?$AAu?$AAa?$AAr?$AAy@ 0000000180018fa8     libucrt:nlsdata.obj
 0002:00004fc0       ??_C@_1M@IKEENEDF@?$AAM?$AAa?$AAr?$AAc?$AAh@ 0000000180018fc0     libucrt:nlsdata.obj
 0002:00004fd0       ??_C@_1M@GJNLMHFD@?$AAA?$AAp?$AAr?$AAi?$AAl@ 0000000180018fd0     libucrt:nlsdata.obj
 0002:00004fe0       ??_C@_19EPFLPGAP@?$AAJ?$AAu?$AAn?$AAe@ 0000000180018fe0     libucrt:nlsdata.obj
 0002:00004ff0       ??_C@_19BIFMLPCD@?$AAJ?$AAu?$AAl?$AAy@ 0000000180018ff0     libucrt:nlsdata.obj
 0002:00005000       ??_C@_1O@PAHLKOAC@?$AAA?$AAu?$AAg?$AAu?$AAs?$AAt@ 0000000180019000     libucrt:nlsdata.obj
 0002:00005010       ??_C@_1BE@DKAAMBJL@?$AAS?$AAe?$AAp?$AAt?$AAe?$AAm?$AAb?$AAe?$AAr@ 0000000180019010     libucrt:nlsdata.obj
 0002:00005028       ??_C@_1BA@EPANDLNG@?$AAO?$AAc?$AAt?$AAo?$AAb?$AAe?$AAr@ 0000000180019028     libucrt:nlsdata.obj
 0002:00005038       ??_C@_1BC@BGLIFPF@?$AAN?$AAo?$AAv?$AAe?$AAm?$AAb?$AAe?$AAr@ 0000000180019038     libucrt:nlsdata.obj
 0002:00005050       ??_C@_1BC@FEMKIFH@?$AAD?$AAe?$AAc?$AAe?$AAm?$AAb?$AAe?$AAr@ 0000000180019050     libucrt:nlsdata.obj
 0002:00005064       ??_C@_15ODEHAHHF@?$AAA?$AAM@ 0000000180019064     libucrt:nlsdata.obj
 0002:0000506c       ??_C@_15CLMNNGEL@?$AAP?$AAM@ 000000018001906c     libucrt:nlsdata.obj
 0002:00005078       ??_C@_1BC@IEBCMHCM@?$AAM?$AAM?$AA?1?$AAd?$AAd?$AA?1?$AAy?$AAy@ 0000000180019078     libucrt:nlsdata.obj
 0002:00005090       ??_C@_1CI@KNAKOEBC@?$AAd?$AAd?$AAd?$AAd?$AA?0?$AA?5?$AAM?$AAM?$AAM?$AAM?$AA?5?$AAd?$AAd?$AA?0?$AA?5@ 0000000180019090     libucrt:nlsdata.obj
 0002:000050b8       ??_C@_1BC@GDGBMEMK@?$AAH?$AAH?$AA?3?$AAm?$AAm?$AA?3?$AAs?$AAs@ 00000001800190b8     libucrt:nlsdata.obj
 0002:000050d0       ??_C@_1M@BMHNFIME@?$AAe?$AAn?$AA?9?$AAU?$AAS@ 00000001800190d0     libucrt:nlsdata.obj
 0002:00005180       ??_C@_1EA@JGEFHKEI@?$AAa?$AAp?$AAi?$AA?9?$AAm?$AAs?$AA?9?$AAw?$AAi?$AAn?$AA?9?$AAc?$AAo?$AAr?$AAe@ 0000000180019180     libucrt:winapi_thunks.obj
 0002:000051c0       ??_C@_1DI@IJCEHOCB@?$AAa?$AAp?$AAi?$AA?9?$AAm?$AAs?$AA?9?$AAw?$AAi?$AAn?$AA?9?$AAc?$AAo?$AAr?$AAe@ 00000001800191c0     libucrt:winapi_thunks.obj
 0002:00005200       ??_C@_1EI@MPIAOHOC@?$AAa?$AAp?$AAi?$AA?9?$AAm?$AAs?$AA?9?$AAw?$AAi?$AAn?$AA?9?$AAc?$AAo?$AAr?$AAe@ 0000000180019200     libucrt:winapi_thunks.obj
 0002:00005250       ??_C@_1FK@FPHCKFIE@?$AAa?$AAp?$AAi?$AA?9?$AAm?$AAs?$AA?9?$AAw?$AAi?$AAn?$AA?9?$AAc?$AAo?$AAr?$AAe@ 0000000180019250     libucrt:winapi_thunks.obj
 0002:000052b0       ??_C@_1EM@DILCGIIO@?$AAa?$AAp?$AAi?$AA?9?$AAm?$AAs?$AA?9?$AAw?$AAi?$AAn?$AA?9?$AAc?$AAo?$AAr?$AAe@ 00000001800192b0     libucrt:winapi_thunks.obj
 0002:00005300       ??_C@_1DM@LNCGDDPN@?$AAa?$AAp?$AAi?$AA?9?$AAm?$AAs?$AA?9?$AAw?$AAi?$AAn?$AA?9?$AAc?$AAo?$AAr?$AAe@ 0000000180019300     libucrt:winapi_thunks.obj
 0002:00005340       ??_C@_1DO@FPAPJEMD@?$AAa?$AAp?$AAi?$AA?9?$AAm?$AAs?$AA?9?$AAw?$AAi?$AAn?$AA?9?$AAc?$AAo?$AAr?$AAe@ 0000000180019340     libucrt:winapi_thunks.obj
 0002:00005380       ??_C@_1DK@NDHNAHIO@?$AAa?$AAp?$AAi?$AA?9?$AAm?$AAs?$AA?9?$AAw?$AAi?$AAn?$AA?9?$AAc?$AAo?$AAr?$AAe@ 0000000180019380     libucrt:winapi_thunks.obj
 0002:000053c0       ??_C@_1DM@KGHDGBCM@?$AAa?$AAp?$AAi?$AA?9?$AAm?$AAs?$AA?9?$AAw?$AAi?$AAn?$AA?9?$AAc?$AAo?$AAr?$AAe@ 00000001800193c0     libucrt:winapi_thunks.obj
 0002:00005400       ??_C@_1EO@IJIOEFOH@?$AAa?$AAp?$AAi?$AA?9?$AAm?$AAs?$AA?9?$AAw?$AAi?$AAn?$AA?9?$AAr?$AAt?$AAc?$AAo@ 0000000180019400     libucrt:winapi_thunks.obj
 0002:00005450       ??_C@_1FG@HHGEKANL@?$AAa?$AAp?$AAi?$AA?9?$AAm?$AAs?$AA?9?$AAw?$AAi?$AAn?$AA?9?$AAs?$AAe?$AAc?$AAu@ 0000000180019450     libucrt:winapi_thunks.obj
 0002:000054b0       ??_C@_1EG@DBIOJECG@?$AAe?$AAx?$AAt?$AA?9?$AAm?$AAs?$AA?9?$AAw?$AAi?$AAn?$AA?9?$AAn?$AAt?$AAu?$AAs@ 00000001800194b0     libucrt:winapi_thunks.obj
 0002:00005500       ??_C@_1EO@FIHMJCLF@?$AAe?$AAx?$AAt?$AA?9?$AAm?$AAs?$AA?9?$AAw?$AAi?$AAn?$AA?9?$AAn?$AAt?$AAu?$AAs@ 0000000180019500     libucrt:winapi_thunks.obj
 0002:00005550       ??_C@_1BC@DNHGCMLG@?$AAa?$AAd?$AAv?$AAa?$AAp?$AAi?$AA3?$AA2@ 0000000180019550     libucrt:winapi_thunks.obj
 0002:00005568       ??_C@_1M@OAIMIKLP@?$AAn?$AAt?$AAd?$AAl?$AAl@ 0000000180019568     libucrt:winapi_thunks.obj
 0002:00005580       ??_C@_1EG@DPGNFKGC@?$AAa?$AAp?$AAi?$AA?9?$AAm?$AAs?$AA?9?$AAw?$AAi?$AAn?$AA?9?$AAa?$AAp?$AAp?$AAm@ 0000000180019580     libucrt:winapi_thunks.obj
 0002:000055c8       ??_C@_1O@BCCLBEOE@?$AAu?$AAs?$AAe?$AAr?$AA3?$AA2@ 00000001800195c8     libucrt:winapi_thunks.obj
 0002:000055d8       ??_C@_1BA@IAIFMGEF@?$AAe?$AAx?$AAt?$AA?9?$AAm?$AAs?$AA?9@ 00000001800195d8     libucrt:winapi_thunks.obj
 0002:000055f0       ??_C@_0BA@FHFNEAED@AreFileApisANSI@ 00000001800195f0     libucrt:winapi_thunks.obj
 0002:00005630       ??_C@_0O@KKBNKAPF@LCMapStringEx@ 0000000180019630     libucrt:winapi_thunks.obj
 0002:00005648       ??_C@_0BB@HBDEELFH@LocaleNameToLCID@ 0000000180019648     libucrt:winapi_thunks.obj
 0002:00005660       ??_C@_0CF@OJOFEIGO@AppPolicyGetProcessTerminationM@ 0000000180019660     libucrt:winapi_thunks.obj
 0002:00005688       ??_C@_03JGHBODFD@pow@      0000000180019688     libucrt:fpexcept.obj
 0002:0000568c       ??_C@_05HGHHAHAP@log10@    000000018001968c     libucrt:fpexcept.obj
 0002:000056a0       __log_256_lead             00000001800196a0     libucrt:log_256_lead_tail_table.obj
 0002:00005eb0       __log_256_tail             0000000180019eb0     libucrt:log_256_lead_tail_table.obj
 0002:000066c0       __two_to_jby64_head_table  000000018001a6c0     libucrt:two_to_jby64_head_tail_table.obj
 0002:000068c0       __two_to_jby64_tail_table  000000018001a8c0     libucrt:two_to_jby64_head_tail_table.obj
 0002:00006ac0       ??_C@_04MBFDLNIM@powf@     000000018001aac0     libucrt:pow_special.obj
 0002:00006ad0       __two_to_jby64_table       000000018001aad0     libucrt:two_to_jby64_table.obj
 0002:00006cd0       __log_F_inv_qword          000000018001acd0     libucrt:log_f_inv_qword_table.obj
 0002:00007500       ??_C@_1M@HPNHIDJI@?$AAj?$AAa?$AA?9?$AAJ?$AAP@ 000000018001b500     libucrt:mbctype.obj
 0002:00007510       ??_C@_1M@BIBDDEMK@?$AAz?$AAh?$AA?9?$AAC?$AAN@ 000000018001b510     libucrt:mbctype.obj
 0002:00007520       ??_C@_1M@JLOOOEGK@?$AAk?$AAo?$AA?9?$AAK?$AAR@ 000000018001b520     libucrt:mbctype.obj
 0002:00007530       ??_C@_1M@CLNBBOPM@?$AAz?$AAh?$AA?9?$AAT?$AAW@ 000000018001b530     libucrt:mbctype.obj
 0002:0000753c       ??_C@_15PJPFLCCM@?$AAu?$AAk@ 000000018001b53c     libucrt:get_qualified_locale.obj
 0002:00008390       ??_C@_15EMKDOKLE@?$AAa?$AAr@ 000000018001c390     libucrt:lcidtoname_downlevel.obj
 0002:00008398       ??_C@_15KNPADPLH@?$AAb?$AAg@ 000000018001c398     libucrt:lcidtoname_downlevel.obj
 0002:000083a0       ??_C@_15EDMHLDMO@?$AAc?$AAa@ 000000018001c3a0     libucrt:lcidtoname_downlevel.obj
 0002:000083a8       ??_C@_1O@BPEAJADD@?$AAz?$AAh?$AA?9?$AAC?$AAH?$AAS@ 000000018001c3a8     libucrt:lcidtoname_downlevel.obj
 0002:000083b8       ??_C@_15LJNHCMNK@?$AAc?$AAs@ 000000018001c3b8     libucrt:lcidtoname_downlevel.obj
 0002:000083c0       ??_C@_15FOMCIDHG@?$AAd?$AAa@ 000000018001c3c0     libucrt:lcidtoname_downlevel.obj
 0002:000083c8       ??_C@_15NBKABECB@?$AAd?$AAe@ 000000018001c3c8     libucrt:lcidtoname_downlevel.obj
 0002:000083d0       ??_C@_15GHPEIIAO@?$AAe?$AAl@ 000000018001c3d0     libucrt:lcidtoname_downlevel.obj
 0002:000083d8       ??_C@_15MNPNEAIF@?$AAe?$AAn@ 000000018001c3d8     libucrt:lcidtoname_downlevel.obj
 0002:000083e0       ??_C@_15GPIOMPMH@?$AAe?$AAs@ 000000018001c3e0     libucrt:lcidtoname_downlevel.obj
 0002:000083e8       ??_C@_15NGLOAKJC@?$AAf?$AAi@ 000000018001c3e8     libucrt:lcidtoname_downlevel.obj
 0002:000083f0       ??_C@_15FBKGNKAM@?$AAf?$AAr@ 000000018001c3f0     libucrt:lcidtoname_downlevel.obj
 0002:000083f8       ??_C@_15KGGCNEFK@?$AAh?$AAe@ 000000018001c3f8     libucrt:lcidtoname_downlevel.obj
 0002:00008400       ??_C@_15PGHLIDMF@?$AAh?$AAu@ 000000018001c400     libucrt:lcidtoname_downlevel.obj
 0002:00008408       ??_C@_15BIEMAPLM@?$AAi?$AAs@ 000000018001c408     libucrt:lcidtoname_downlevel.obj
 0002:00008410       ??_C@_15IFJLDHAF@?$AAi?$AAt@ 000000018001c410     libucrt:lcidtoname_downlevel.obj
 0002:00008418       ??_C@_15GEMIOCAG@?$AAj?$AAa@ 000000018001c418     libucrt:lcidtoname_downlevel.obj
 0002:00008420       ??_C@_15EPELEGJA@?$AAk?$AAo@ 000000018001c420     libucrt:lcidtoname_downlevel.obj
 0002:00008428       ??_C@_15NDDHIMN@?$AAn?$AAl@ 000000018001c428     libucrt:lcidtoname_downlevel.obj
 0002:00008430       ??_C@_15BPIGNHCD@?$AAn?$AAo@ 000000018001c430     libucrt:lcidtoname_downlevel.obj
 0002:00008438       ??_C@_15DEOPBLCG@?$AAp?$AAl@ 000000018001c438     libucrt:lcidtoname_downlevel.obj
 0002:00008440       ??_C@_15KBECGEFG@?$AAp?$AAt@ 000000018001c440     libucrt:lcidtoname_downlevel.obj
 0002:00008448       ??_C@_15GLJCBFMD@?$AAr?$AAo@ 000000018001c448     libucrt:lcidtoname_downlevel.obj
 0002:00008450       ??_C@_15FEDGKCDI@?$AAr?$AAu@ 000000018001c450     libucrt:lcidtoname_downlevel.obj
 0002:00008458       ??_C@_15GLKMLLHM@?$AAh?$AAr@ 000000018001c458     libucrt:lcidtoname_downlevel.obj
 0002:00008460       ??_C@_15CPKMFBDB@?$AAs?$AAk@ 000000018001c460     libucrt:lcidtoname_downlevel.obj
 0002:00008468       ??_C@_15BAAIOGMK@?$AAs?$AAq@ 000000018001c468     libucrt:lcidtoname_downlevel.obj
 0002:00008470       ??_C@_15INNPNOHD@?$AAs?$AAv@ 000000018001c470     libucrt:lcidtoname_downlevel.obj
 0002:00008478       ??_C@_15CABMMOGH@?$AAt?$AAh@ 000000018001c478     libucrt:lcidtoname_downlevel.obj
 0002:00008480       ??_C@_15BPLIHJJM@?$AAt?$AAr@ 000000018001c480     libucrt:lcidtoname_downlevel.obj
 0002:00008488       ??_C@_15NEOEKKDJ@?$AAu?$AAr@ 000000018001c488     libucrt:lcidtoname_downlevel.obj
 0002:00008490       ??_C@_15NFICGAJK@?$AAi?$AAd@ 000000018001c490     libucrt:lcidtoname_downlevel.obj
 0002:00008498       ??_C@_15HPJPHDM@?$AAb?$AAe@ 000000018001c498     libucrt:lcidtoname_downlevel.obj
 0002:000084a0       ??_C@_15LCHLGJII@?$AAs?$AAl@ 000000018001c4a0     libucrt:lcidtoname_downlevel.obj
 0002:000084a8       ??_C@_15PCFJPHHO@?$AAe?$AAt@ 000000018001c4a8     libucrt:lcidtoname_downlevel.obj
 0002:000084b0       ??_C@_15HPFPGODN@?$AAl?$AAv@ 000000018001c4b0     libucrt:lcidtoname_downlevel.obj
 0002:000084b8       ??_C@_15NFFGKGLG@?$AAl?$AAt@ 000000018001c4b8     libucrt:lcidtoname_downlevel.obj
 0002:000084c0       ??_C@_15BDAKCCHN@?$AAf?$AAa@ 000000018001c4c0     libucrt:lcidtoname_downlevel.obj
 0002:000084c8       ??_C@_15NFGIAIAJ@?$AAv?$AAi@ 000000018001c4c8     libucrt:lcidtoname_downlevel.obj
 0002:000084d0       ??_C@_15LMKNDMHN@?$AAh?$AAy@ 000000018001c4d0     libucrt:lcidtoname_downlevel.obj
 0002:000084d8       ??_C@_15IJBHMCFL@?$AAa?$AAz@ 000000018001c4d8     libucrt:lcidtoname_downlevel.obj
 0002:000084e0       ??_C@_15EKOFJABL@?$AAe?$AAu@ 000000018001c4e0     libucrt:lcidtoname_downlevel.obj
 0002:000084e8       ??_C@_15BGHADCNK@?$AAm?$AAk@ 000000018001c4e8     libucrt:lcidtoname_downlevel.obj
 0002:000084f0       ??_C@_15JDNICKHM@?$AAa?$AAf@ 000000018001c4f0     libucrt:lcidtoname_downlevel.obj
 0002:000084f8       ??_C@_15KPJEDBKD@?$AAk?$AAa@ 000000018001c4f8     libucrt:lcidtoname_downlevel.obj
 0002:00008500       ??_C@_15PDNFFFEO@?$AAf?$AAo@ 000000018001c500     libucrt:lcidtoname_downlevel.obj
 0002:00008508       ??_C@_15OMLEGLOC@?$AAh?$AAi@ 000000018001c508     libucrt:lcidtoname_downlevel.obj
 0002:00008510       ??_C@_15IDNNENKK@?$AAm?$AAs@ 000000018001c510     libucrt:lcidtoname_downlevel.obj
 0002:00008518       ??_C@_15MACJNBMH@?$AAk?$AAk@ 000000018001c518     libucrt:lcidtoname_downlevel.obj
 0002:00008520       ??_C@_15DKDJEOND@?$AAk?$AAy@ 000000018001c520     libucrt:lcidtoname_downlevel.obj
 0002:00008528       ??_C@_15DFGDLJBG@?$AAs?$AAw@ 000000018001c528     libucrt:lcidtoname_downlevel.obj
 0002:00008530       ??_C@_15BBFAICNG@?$AAu?$AAz@ 000000018001c530     libucrt:lcidtoname_downlevel.obj
 0002:00008538       ??_C@_15DKNDCGEA@?$AAt?$AAt@ 000000018001c538     libucrt:lcidtoname_downlevel.obj
 0002:00008540       ??_C@_15MGIFMDPL@?$AAp?$AAa@ 000000018001c540     libucrt:lcidtoname_downlevel.obj
 0002:00008548       ??_C@_15HCNDBBA@?$AAg?$AAu@ 000000018001c548     libucrt:lcidtoname_downlevel.obj
 0002:00008550       ??_C@_15FNBEIBON@?$AAt?$AAa@ 000000018001c550     libucrt:lcidtoname_downlevel.obj
 0002:00008558       ??_C@_15NCHGBGLK@?$AAt?$AAe@ 000000018001c558     libucrt:lcidtoname_downlevel.obj
 0002:00008560       ??_C@_15PHPHCBPF@?$AAk?$AAn@ 000000018001c560     libucrt:lcidtoname_downlevel.obj
 0002:00008568       ??_C@_15DLGBCKMP@?$AAm?$AAr@ 000000018001c568     libucrt:lcidtoname_downlevel.obj
 0002:00008570       ??_C@_15EABBLBFF@?$AAs?$AAa@ 000000018001c570     libucrt:lcidtoname_downlevel.obj
 0002:00008578       ??_C@_15CBKOMCOI@?$AAm?$AAn@ 000000018001c578     libucrt:lcidtoname_downlevel.obj
 0002:00008580       ??_C@_15CKDMCJAF@?$AAg?$AAl@ 000000018001c580     libucrt:lcidtoname_downlevel.obj
 0002:00008588       ??_C@_17CNJFBPG@?$AAk?$AAo?$AAk@ 000000018001c588     libucrt:lcidtoname_downlevel.obj
 0002:00008590       ??_C@_17FFBJICPL@?$AAs?$AAy?$AAr@ 000000018001c590     libucrt:lcidtoname_downlevel.obj
 0002:00008598       ??_C@_17KPNDCPAF@?$AAd?$AAi?$AAv@ 000000018001c598     libucrt:lcidtoname_downlevel.obj
 0002:000085a0       ??_C@_1M@OKAHONE@?$AAa?$AAr?$AA?9?$AAS?$AAA@ 000000018001c5a0     libucrt:lcidtoname_downlevel.obj
 0002:000085b0       ??_C@_1M@FFFIGIGK@?$AAb?$AAg?$AA?9?$AAB?$AAG@ 000000018001c5b0     libucrt:lcidtoname_downlevel.obj
 0002:000085c0       ??_C@_1M@BJNKEDC@?$AAc?$AAa?$AA?9?$AAE?$AAS@ 000000018001c5c0     libucrt:lcidtoname_downlevel.obj
 0002:000085d0       ??_C@_1M@IJJHFJHA@?$AAc?$AAs?$AA?9?$AAC?$AAZ@ 000000018001c5d0     libucrt:lcidtoname_downlevel.obj
 0002:000085e0       ??_C@_1M@CLPEOBGI@?$AAd?$AAa?$AA?9?$AAD?$AAK@ 000000018001c5e0     libucrt:lcidtoname_downlevel.obj
 0002:000085f0       ??_C@_1M@MCMADGCB@?$AAd?$AAe?$AA?9?$AAD?$AAE@ 000000018001c5f0     libucrt:lcidtoname_downlevel.obj
 0002:00008600       ??_C@_1M@OOCKEMAM@?$AAe?$AAl?$AA?9?$AAG?$AAR@ 000000018001c600     libucrt:lcidtoname_downlevel.obj
 0002:00008610       ??_C@_1M@DDNJFGID@?$AAf?$AAi?$AA?9?$AAF?$AAI@ 000000018001c610     libucrt:lcidtoname_downlevel.obj
 0002:00008620       ??_C@_1M@GLIPPMAC@?$AAf?$AAr?$AA?9?$AAF?$AAR@ 000000018001c620     libucrt:lcidtoname_downlevel.obj
 0002:00008630       ??_C@_1M@GFMCHPE@?$AAh?$AAe?$AA?9?$AAI?$AAL@ 000000018001c630     libucrt:lcidtoname_downlevel.obj
 0002:00008640       ??_C@_1M@MHLPGNKM@?$AAh?$AAu?$AA?9?$AAH?$AAU@ 000000018001c640     libucrt:lcidtoname_downlevel.obj
 0002:00008650       ??_C@_1M@LPDDNNPN@?$AAi?$AAs?$AA?9?$AAI?$AAS@ 000000018001c650     libucrt:lcidtoname_downlevel.obj
 0002:00008660       ??_C@_1M@MADIPODN@?$AAi?$AAt?$AA?9?$AAI?$AAT@ 000000018001c660     libucrt:lcidtoname_downlevel.obj
 0002:00008670       ??_C@_1M@IHBJJGG@?$AAn?$AAl?$AA?9?$AAN?$AAL@ 000000018001c670     libucrt:lcidtoname_downlevel.obj
 0002:00008680       ??_C@_1M@EANAGDL@?$AAn?$AAb?$AA?9?$AAN?$AAO@ 000000018001c680     libucrt:lcidtoname_downlevel.obj
 0002:00008690       ??_C@_1M@NEIEMEGP@?$AAp?$AAl?$AA?9?$AAP?$AAL@ 000000018001c690     libucrt:lcidtoname_downlevel.obj
 0002:000086a0       ??_C@_1M@BOCFIGEP@?$AAp?$AAt?$AA?9?$AAB?$AAR@ 000000018001c6a0     libucrt:lcidtoname_downlevel.obj
 0002:000086b0       ??_C@_1M@IMPFOPBG@?$AAr?$AAo?$AA?9?$AAR?$AAO@ 000000018001c6b0     libucrt:lcidtoname_downlevel.obj
 0002:000086c0       ??_C@_1M@IDNNEJMM@?$AAr?$AAu?$AA?9?$AAR?$AAU@ 000000018001c6c0     libucrt:lcidtoname_downlevel.obj
 0002:000086d0       ??_C@_1M@LILEEOGM@?$AAh?$AAr?$AA?9?$AAH?$AAR@ 000000018001c6d0     libucrt:lcidtoname_downlevel.obj
 0002:000086e0       ??_C@_1M@FKIFEHPB@?$AAs?$AAk?$AA?9?$AAS?$AAK@ 000000018001c6e0     libucrt:lcidtoname_downlevel.obj
 0002:000086f0       ??_C@_1M@LJMAMNPJ@?$AAs?$AAq?$AA?9?$AAA?$AAL@ 000000018001c6f0     libucrt:lcidtoname_downlevel.obj
 0002:00008700       ??_C@_1M@GIAKDKJK@?$AAs?$AAv?$AA?9?$AAS?$AAE@ 000000018001c700     libucrt:lcidtoname_downlevel.obj
 0002:00008710       ??_C@_1M@MKJKIKCL@?$AAt?$AAh?$AA?9?$AAT?$AAH@ 000000018001c710     libucrt:lcidtoname_downlevel.obj
 0002:00008720       ??_C@_1M@MFLCCMPB@?$AAt?$AAr?$AA?9?$AAT?$AAR@ 000000018001c720     libucrt:lcidtoname_downlevel.obj
 0002:00008730       ??_C@_1M@OIJHDKJN@?$AAu?$AAr?$AA?9?$AAP?$AAK@ 000000018001c730     libucrt:lcidtoname_downlevel.obj
 0002:00008740       ??_C@_1M@LHIPCIEK@?$AAi?$AAd?$AA?9?$AAI?$AAD@ 000000018001c740     libucrt:lcidtoname_downlevel.obj
 0002:00008750       ??_C@_1M@MFMOBGI@?$AAu?$AAk?$AA?9?$AAU?$AAA@ 000000018001c750     libucrt:lcidtoname_downlevel.obj
 0002:00008760       ??_C@_1M@OBGLJIPL@?$AAb?$AAe?$AA?9?$AAB?$AAY@ 000000018001c760     libucrt:lcidtoname_downlevel.obj
 0002:00008770       ??_C@_1M@BCFAJEAD@?$AAs?$AAl?$AA?9?$AAS?$AAI@ 000000018001c770     libucrt:lcidtoname_downlevel.obj
 0002:00008780       ??_C@_1M@FKFFEDDN@?$AAe?$AAt?$AA?9?$AAE?$AAE@ 000000018001c780     libucrt:lcidtoname_downlevel.obj
 0002:00008790       ??_C@_1M@KGKKAACI@?$AAl?$AAv?$AA?9?$AAL?$AAV@ 000000018001c790     libucrt:lcidtoname_downlevel.obj
 0002:000087a0       ??_C@_1M@IFGBIJO@?$AAl?$AAt?$AA?9?$AAL?$AAT@ 000000018001c7a0     libucrt:lcidtoname_downlevel.obj
 0002:000087b0       ??_C@_1M@FGEAHEDM@?$AAf?$AAa?$AA?9?$AAI?$AAR@ 000000018001c7b0     libucrt:lcidtoname_downlevel.obj
 0002:000087c0       ??_C@_1M@KBMAIBFN@?$AAv?$AAi?$AA?9?$AAV?$AAN@ 000000018001c7c0     libucrt:lcidtoname_downlevel.obj
 0002:000087d0       ??_C@_1M@GPCBKDJK@?$AAh?$AAy?$AA?9?$AAA?$AAM@ 000000018001c7d0     libucrt:lcidtoname_downlevel.obj
 0002:000087e0       ??_C@_1BG@BECMDDJB@?$AAa?$AAz?$AA?9?$AAA?$AAZ?$AA?9?$AAL?$AAa?$AAt?$AAn@ 000000018001c7e0     libucrt:lcidtoname_downlevel.obj
 0002:000087f8       ??_C@_1M@MAOFCAEA@?$AAe?$AAu?$AA?9?$AAE?$AAS@ 000000018001c7f8     libucrt:lcidtoname_downlevel.obj
 0002:00008808       ??_C@_1M@IGHABKPI@?$AAm?$AAk?$AA?9?$AAM?$AAK@ 000000018001c808     libucrt:lcidtoname_downlevel.obj
 0002:00008818       ??_C@_1M@IAIGNEJG@?$AAt?$AAn?$AA?9?$AAZ?$AAA@ 000000018001c818     libucrt:lcidtoname_downlevel.obj
 0002:00008828       ??_C@_1M@IIJCOJFA@?$AAx?$AAh?$AA?9?$AAZ?$AAA@ 000000018001c828     libucrt:lcidtoname_downlevel.obj
 0002:00008838       ??_C@_1M@LGPJHNJH@?$AAz?$AAu?$AA?9?$AAZ?$AAA@ 000000018001c838     libucrt:lcidtoname_downlevel.obj
 0002:00008848       ??_C@_1M@HOKAOIO@?$AAa?$AAf?$AA?9?$AAZ?$AAA@ 000000018001c848     libucrt:lcidtoname_downlevel.obj
 0002:00008858       ??_C@_1M@DPCLHLIE@?$AAk?$AAa?$AA?9?$AAG?$AAE@ 000000018001c858     libucrt:lcidtoname_downlevel.obj
 0002:00008868       ??_C@_1M@BLKMHJBI@?$AAf?$AAo?$AA?9?$AAF?$AAO@ 000000018001c868     libucrt:lcidtoname_downlevel.obj
 0002:00008878       ??_C@_1M@LGGJAPPB@?$AAh?$AAi?$AA?9?$AAI?$AAN@ 000000018001c878     libucrt:lcidtoname_downlevel.obj
 0002:00008888       ??_C@_1M@FIKPIHFE@?$AAm?$AAt?$AA?9?$AAM?$AAT@ 000000018001c888     libucrt:lcidtoname_downlevel.obj
 0002:00008898       ??_C@_1M@HEGGPBFA@?$AAs?$AAe?$AA?9?$AAN?$AAO@ 000000018001c898     libucrt:lcidtoname_downlevel.obj
 0002:000088a8       ??_C@_1M@EIBJEEPA@?$AAm?$AAs?$AA?9?$AAM?$AAY@ 000000018001c8a8     libucrt:lcidtoname_downlevel.obj
 0002:000088b8       ??_C@_1M@FHLBGMPP@?$AAk?$AAk?$AA?9?$AAK?$AAZ@ 000000018001c8b8     libucrt:lcidtoname_downlevel.obj
 0002:000088c8       ??_C@_1M@NGJJLCGI@?$AAk?$AAy?$AA?9?$AAK?$AAG@ 000000018001c8c8     libucrt:lcidtoname_downlevel.obj
 0002:000088d8       ??_C@_1M@GIENNBFC@?$AAs?$AAw?$AA?9?$AAK?$AAE@ 000000018001c8d8     libucrt:lcidtoname_downlevel.obj
 0002:000088e8       ??_C@_1BG@NDGMJIMJ@?$AAu?$AAz?$AA?9?$AAU?$AAZ?$AA?9?$AAL?$AAa?$AAt?$AAn@ 000000018001c8e8     libucrt:lcidtoname_downlevel.obj
 0002:00008900       ??_C@_1M@IDCCIHBC@?$AAt?$AAt?$AA?9?$AAR?$AAU@ 000000018001c900     libucrt:lcidtoname_downlevel.obj
 0002:00008910       ??_C@_1M@LOICPMOJ@?$AAb?$AAn?$AA?9?$AAI?$AAN@ 000000018001c910     libucrt:lcidtoname_downlevel.obj
 0002:00008920       ??_C@_1M@KPKKNEAH@?$AAp?$AAa?$AA?9?$AAI?$AAN@ 000000018001c920     libucrt:lcidtoname_downlevel.obj
 0002:00008930       ??_C@_1M@PJGPPBOG@?$AAg?$AAu?$AA?9?$AAI?$AAN@ 000000018001c930     libucrt:lcidtoname_downlevel.obj
 0002:00008940       ??_C@_1M@KMKMOPHI@?$AAt?$AAa?$AA?9?$AAI?$AAN@ 000000018001c940     libucrt:lcidtoname_downlevel.obj
 0002:00008950       ??_C@_1M@KFEHEPAC@?$AAt?$AAe?$AA?9?$AAI?$AAN@ 000000018001c950     libucrt:lcidtoname_downlevel.obj
 0002:00008960       ??_C@_1M@CDCLMGHI@?$AAk?$AAn?$AA?9?$AAI?$AAN@ 000000018001c960     libucrt:lcidtoname_downlevel.obj
 0002:00008970       ??_C@_1M@MIODLDKF@?$AAm?$AAl?$AA?9?$AAI?$AAN@ 000000018001c970     libucrt:lcidtoname_downlevel.obj
 0002:00008980       ??_C@_1M@PBIEACPO@?$AAm?$AAr?$AA?9?$AAI?$AAN@ 000000018001c980     libucrt:lcidtoname_downlevel.obj
 0002:00008990       ??_C@_1M@NIDEAGPH@?$AAs?$AAa?$AA?9?$AAI?$AAN@ 000000018001c990     libucrt:lcidtoname_downlevel.obj
 0002:000089a0       ??_C@_1M@FHIHCBIO@?$AAm?$AAn?$AA?9?$AAM?$AAN@ 000000018001c9a0     libucrt:lcidtoname_downlevel.obj
 0002:000089b0       ??_C@_1M@JAIJPENP@?$AAc?$AAy?$AA?9?$AAG?$AAB@ 000000018001c9b0     libucrt:lcidtoname_downlevel.obj
 0002:000089c0       ??_C@_1M@PHGFBEPN@?$AAg?$AAl?$AA?9?$AAE?$AAS@ 000000018001c9c0     libucrt:lcidtoname_downlevel.obj
 0002:000089d0       ??_C@_1O@KPIPDNCP@?$AAk?$AAo?$AAk?$AA?9?$AAI?$AAN@ 000000018001c9d0     libucrt:lcidtoname_downlevel.obj
 0002:000089e0       ??_C@_1O@KNHJLDJA@?$AAs?$AAy?$AAr?$AA?9?$AAS?$AAY@ 000000018001c9e0     libucrt:lcidtoname_downlevel.obj
 0002:000089f0       ??_C@_1O@MKEKBLAH@?$AAd?$AAi?$AAv?$AA?9?$AAM?$AAV@ 000000018001c9f0     libucrt:lcidtoname_downlevel.obj
 0002:00008a00       ??_C@_1O@OHDCKDDF@?$AAq?$AAu?$AAz?$AA?9?$AAB?$AAO@ 000000018001ca00     libucrt:lcidtoname_downlevel.obj
 0002:00008a10       ??_C@_1M@LEPJNLFD@?$AAn?$AAs?$AA?9?$AAZ?$AAA@ 000000018001ca10     libucrt:lcidtoname_downlevel.obj
 0002:00008a20       ??_C@_1M@OMLEIIJB@?$AAm?$AAi?$AA?9?$AAN?$AAZ@ 000000018001ca20     libucrt:lcidtoname_downlevel.obj
 0002:00008a30       ??_C@_1M@PMPEAILG@?$AAa?$AAr?$AA?9?$AAI?$AAQ@ 000000018001ca30     libucrt:lcidtoname_downlevel.obj
 0002:00008a40       ??_C@_1M@CNKPNOEE@?$AAd?$AAe?$AA?9?$AAC?$AAH@ 000000018001ca40     libucrt:lcidtoname_downlevel.obj
 0002:00008a50       ??_C@_1M@LKMGMLKO@?$AAe?$AAn?$AA?9?$AAG?$AAB@ 000000018001ca50     libucrt:lcidtoname_downlevel.obj
 0002:00008a60       ??_C@_1M@PGKJFFGL@?$AAe?$AAs?$AA?9?$AAM?$AAX@ 000000018001ca60     libucrt:lcidtoname_downlevel.obj
 0002:00008a70       ??_C@_1M@DNNANBDC@?$AAf?$AAr?$AA?9?$AAB?$AAE@ 000000018001ca70     libucrt:lcidtoname_downlevel.obj
 0002:00008a80       ??_C@_1M@HLGMDFHM@?$AAi?$AAt?$AA?9?$AAC?$AAH@ 000000018001ca80     libucrt:lcidtoname_downlevel.obj
 0002:00008a90       ??_C@_1M@CLLBGJH@?$AAn?$AAl?$AA?9?$AAB?$AAE@ 000000018001ca90     libucrt:lcidtoname_downlevel.obj
 0002:00008aa0       ??_C@_1M@BODBOGLF@?$AAn?$AAn?$AA?9?$AAN?$AAO@ 000000018001caa0     libucrt:lcidtoname_downlevel.obj
 0002:00008ab0       ??_C@_1M@HFFAHKAD@?$AAp?$AAt?$AA?9?$AAP?$AAT@ 000000018001cab0     libucrt:lcidtoname_downlevel.obj
 0002:00008ac0       ??_C@_1BG@LNOAKHIE@?$AAs?$AAr?$AA?9?$AAS?$AAP?$AA?9?$AAL?$AAa?$AAt?$AAn@ 000000018001cac0     libucrt:lcidtoname_downlevel.obj
 0002:00008ad8       ??_C@_1M@HBMHBGAK@?$AAs?$AAv?$AA?9?$AAF?$AAI@ 000000018001cad8     libucrt:lcidtoname_downlevel.obj
 0002:00008ae8       ??_C@_1BG@DGCJGJBE@?$AAa?$AAz?$AA?9?$AAA?$AAZ?$AA?9?$AAC?$AAy?$AAr?$AAl@ 000000018001cae8     libucrt:lcidtoname_downlevel.obj
 0002:00008b00       ??_C@_1M@KEJDAAHB@?$AAs?$AAe?$AA?9?$AAS?$AAE@ 000000018001cb00     libucrt:lcidtoname_downlevel.obj
 0002:00008b10       ??_C@_1M@HEIBJJAD@?$AAm?$AAs?$AA?9?$AAB?$AAN@ 000000018001cb10     libucrt:lcidtoname_downlevel.obj
 0002:00008b20       ??_C@_1BG@PBGJMCEM@?$AAu?$AAz?$AA?9?$AAU?$AAZ?$AA?9?$AAC?$AAy?$AAr?$AAl@ 000000018001cb20     libucrt:lcidtoname_downlevel.obj
 0002:00008b38       ??_C@_1O@LAOBCMDF@?$AAq?$AAu?$AAz?$AA?9?$AAE?$AAC@ 000000018001cb38     libucrt:lcidtoname_downlevel.obj
 0002:00008b48       ??_C@_1M@POEEMAIO@?$AAa?$AAr?$AA?9?$AAE?$AAG@ 000000018001cb48     libucrt:lcidtoname_downlevel.obj
 0002:00008b58       ??_C@_1M@EFAKDEDL@?$AAz?$AAh?$AA?9?$AAH?$AAK@ 000000018001cb58     libucrt:lcidtoname_downlevel.obj
 0002:00008b68       ??_C@_1M@HKKIJHGI@?$AAd?$AAe?$AA?9?$AAA?$AAT@ 000000018001cb68     libucrt:lcidtoname_downlevel.obj
 0002:00008b78       ??_C@_1M@KBFBEHJF@?$AAe?$AAn?$AA?9?$AAA?$AAU@ 000000018001cb78     libucrt:lcidtoname_downlevel.obj
 0002:00008b88       ??_C@_1M@MNPLFAAH@?$AAe?$AAs?$AA?9?$AAE?$AAS@ 000000018001cb88     libucrt:lcidtoname_downlevel.obj
 0002:00008b98       ??_C@_1M@HJOOJFMA@?$AAf?$AAr?$AA?9?$AAC?$AAA@ 000000018001cb98     libucrt:lcidtoname_downlevel.obj
 0002:00008ba8       ??_C@_1BG@JPOFPNAB@?$AAs?$AAr?$AA?9?$AAS?$AAP?$AA?9?$AAC?$AAy?$AAr?$AAl@ 000000018001cba8     libucrt:lcidtoname_downlevel.obj
 0002:00008bc0       ??_C@_1M@LNFOCMOB@?$AAs?$AAe?$AA?9?$AAF?$AAI@ 000000018001cbc0     libucrt:lcidtoname_downlevel.obj
 0002:00008bd0       ??_C@_1O@MGJBOAMB@?$AAq?$AAu?$AAz?$AA?9?$AAP?$AAE@ 000000018001cbd0     libucrt:lcidtoname_downlevel.obj
 0002:00008be0       ??_C@_1M@GJINLBOK@?$AAa?$AAr?$AA?9?$AAL?$AAY@ 000000018001cbe0     libucrt:lcidtoname_downlevel.obj
 0002:00008bf0       ??_C@_1M@GGMNHJNL@?$AAz?$AAh?$AA?9?$AAS?$AAG@ 000000018001cbf0     libucrt:lcidtoname_downlevel.obj
 0002:00008c00       ??_C@_1M@HOIKODND@?$AAd?$AAe?$AA?9?$AAL?$AAU@ 000000018001cc00     libucrt:lcidtoname_downlevel.obj
 0002:00008c10       ??_C@_1M@DDOCCGFG@?$AAe?$AAn?$AA?9?$AAC?$AAA@ 000000018001cc10     libucrt:lcidtoname_downlevel.obj
 0002:00008c20       ??_C@_1M@BNOEMJLF@?$AAe?$AAs?$AA?9?$AAG?$AAT@ 000000018001cc20     libucrt:lcidtoname_downlevel.obj
 0002:00008c30       ??_C@_1M@EOGNKEK@?$AAf?$AAr?$AA?9?$AAC?$AAH@ 000000018001cc30     libucrt:lcidtoname_downlevel.obj
 0002:00008c40       ??_C@_1M@FLIDJFHL@?$AAh?$AAr?$AA?9?$AAB?$AAA@ 000000018001cc40     libucrt:lcidtoname_downlevel.obj
 0002:00008c50       ??_C@_1O@FMCELNAJ@?$AAs?$AAm?$AAj?$AA?9?$AAN?$AAO@ 000000018001cc50     libucrt:lcidtoname_downlevel.obj
 0002:00008c60       ??_C@_1M@JHGLJMGJ@?$AAa?$AAr?$AA?9?$AAD?$AAZ@ 000000018001cc60     libucrt:lcidtoname_downlevel.obj
 0002:00008c70       ??_C@_1M@JKKFDCNP@?$AAz?$AAh?$AA?9?$AAM?$AAO@ 000000018001cc70     libucrt:lcidtoname_downlevel.obj
 0002:00008c80       ??_C@_1M@GEEFALPE@?$AAd?$AAe?$AA?9?$AAL?$AAI@ 000000018001cc80     libucrt:lcidtoname_downlevel.obj
 0002:00008c90       ??_C@_1M@IGEOFBG@?$AAe?$AAn?$AA?9?$AAN?$AAZ@ 000000018001cc90     libucrt:lcidtoname_downlevel.obj
 0002:00008ca0       ??_C@_1M@KDBONEHP@?$AAe?$AAs?$AA?9?$AAC?$AAR@ 000000018001cca0     libucrt:lcidtoname_downlevel.obj
 0002:00008cb0       ??_C@_1M@FHMDOHNN@?$AAf?$AAr?$AA?9?$AAL?$AAU@ 000000018001ccb0     libucrt:lcidtoname_downlevel.obj
 0002:00008cc0       ??_C@_1BG@NFKKMAFG@?$AAb?$AAs?$AA?9?$AAB?$AAA?$AA?9?$AAL?$AAa?$AAt?$AAn@ 000000018001ccc0     libucrt:lcidtoname_downlevel.obj
 0002:00008cd8       ??_C@_1O@IMNBEMCI@?$AAs?$AAm?$AAj?$AA?9?$AAS?$AAE@ 000000018001ccd8     libucrt:lcidtoname_downlevel.obj
 0002:00008ce8       ??_C@_1M@DHHMBNDP@?$AAa?$AAr?$AA?9?$AAM?$AAA@ 000000018001cce8     libucrt:lcidtoname_downlevel.obj
 0002:00008cf8       ??_C@_1M@BNBLJCGH@?$AAe?$AAn?$AA?9?$AAI?$AAE@ 000000018001ccf8     libucrt:lcidtoname_downlevel.obj
 0002:00008d08       ??_C@_1M@GEPAFMDL@?$AAe?$AAs?$AA?9?$AAP?$AAA@ 000000018001cd08     libucrt:lcidtoname_downlevel.obj
 0002:00008d18       ??_C@_1M@OJONDMDL@?$AAf?$AAr?$AA?9?$AAM?$AAC@ 000000018001cd18     libucrt:lcidtoname_downlevel.obj
 0002:00008d28       ??_C@_1BG@OBCNFJB@?$AAs?$AAr?$AA?9?$AAB?$AAA?$AA?9?$AAL?$AAa?$AAt?$AAn@ 000000018001cd28     libucrt:lcidtoname_downlevel.obj
 0002:00008d40       ??_C@_1O@KEMEEGPO@?$AAs?$AAm?$AAa?$AA?9?$AAN?$AAO@ 000000018001cd40     libucrt:lcidtoname_downlevel.obj
 0002:00008d50       ??_C@_1M@ELMGFODK@?$AAa?$AAr?$AA?9?$AAT?$AAN@ 000000018001cd50     libucrt:lcidtoname_downlevel.obj
 0002:00008d60       ??_C@_1M@BHDLHFAF@?$AAe?$AAn?$AA?9?$AAZ?$AAA@ 000000018001cd60     libucrt:lcidtoname_downlevel.obj
 0002:00008d70       ??_C@_1M@BMGIGLIF@?$AAe?$AAs?$AA?9?$AAD?$AAO@ 000000018001cd70     libucrt:lcidtoname_downlevel.obj
 0002:00008d80       ??_C@_1BG@CMBHIPBE@?$AAs?$AAr?$AA?9?$AAB?$AAA?$AA?9?$AAC?$AAy?$AAr?$AAl@ 000000018001cd80     libucrt:lcidtoname_downlevel.obj
 0002:00008d98       ??_C@_1O@HEDBLHNP@?$AAs?$AAm?$AAa?$AA?9?$AAS?$AAE@ 000000018001cd98     libucrt:lcidtoname_downlevel.obj
 0002:00008da8       ??_C@_1M@DAGCADIM@?$AAa?$AAr?$AA?9?$AAO?$AAM@ 000000018001cda8     libucrt:lcidtoname_downlevel.obj
 0002:00008db8       ??_C@_1M@FODLMICG@?$AAe?$AAn?$AA?9?$AAJ?$AAM@ 000000018001cdb8     libucrt:lcidtoname_downlevel.obj
 0002:00008dc8       ??_C@_1M@DNMLCIHB@?$AAe?$AAs?$AA?9?$AAV?$AAE@ 000000018001cdc8     libucrt:lcidtoname_downlevel.obj
 0002:00008dd8       ??_C@_1O@EOKHMKJK@?$AAs?$AAm?$AAs?$AA?9?$AAF?$AAI@ 000000018001cdd8     libucrt:lcidtoname_downlevel.obj
 0002:00008de8       ??_C@_1M@CAFJMKOF@?$AAa?$AAr?$AA?9?$AAY?$AAE@ 000000018001cde8     libucrt:lcidtoname_downlevel.obj
 0002:00008df8       ??_C@_1M@CBFHIJLI@?$AAe?$AAn?$AA?9?$AAC?$AAB@ 000000018001cdf8     libucrt:lcidtoname_downlevel.obj
 0002:00008e08       ??_C@_1M@BGNFLDN@?$AAe?$AAs?$AA?9?$AAC?$AAO@ 000000018001ce08     libucrt:lcidtoname_downlevel.obj
 0002:00008e18       ??_C@_1O@JMPHMAMC@?$AAs?$AAm?$AAn?$AA?9?$AAF?$AAI@ 000000018001ce18     libucrt:lcidtoname_downlevel.obj
 0002:00008e28       ??_C@_1M@JLANABKE@?$AAa?$AAr?$AA?9?$AAS?$AAY@ 000000018001ce28     libucrt:lcidtoname_downlevel.obj
 0002:00008e38       ??_C@_1M@HPKGCFGN@?$AAe?$AAn?$AA?9?$AAB?$AAZ@ 000000018001ce38     libucrt:lcidtoname_downlevel.obj
 0002:00008e48       ??_C@_1M@OLJCMLGM@?$AAe?$AAs?$AA?9?$AAP?$AAE@ 000000018001ce48     libucrt:lcidtoname_downlevel.obj
 0002:00008e58       ??_C@_1M@MKKGFKLE@?$AAa?$AAr?$AA?9?$AAJ?$AAO@ 000000018001ce58     libucrt:lcidtoname_downlevel.obj
 0002:00008e68       ??_C@_1M@EKPGLDNI@?$AAe?$AAn?$AA?9?$AAT?$AAT@ 000000018001ce68     libucrt:lcidtoname_downlevel.obj
 0002:00008e78       ??_C@_1M@OONGHFHE@?$AAe?$AAs?$AA?9?$AAA?$AAR@ 000000018001ce78     libucrt:lcidtoname_downlevel.obj
 0002:00008e88       ??_C@_1M@OOJFGBHE@?$AAa?$AAr?$AA?9?$AAL?$AAB@ 000000018001ce88     libucrt:lcidtoname_downlevel.obj
 0002:00008e98       ??_C@_1M@GCEJHNEG@?$AAe?$AAn?$AA?9?$AAZ?$AAW@ 000000018001ce98     libucrt:lcidtoname_downlevel.obj
 0002:00008ea8       ??_C@_1M@JNOCAHJI@?$AAe?$AAs?$AA?9?$AAE?$AAC@ 000000018001cea8     libucrt:lcidtoname_downlevel.obj
 0002:00008eb8       ??_C@_1M@JEFHPGGB@?$AAa?$AAr?$AA?9?$AAK?$AAW@ 000000018001ceb8     libucrt:lcidtoname_downlevel.obj
 0002:00008ec8       ??_C@_1M@MLKIBJOJ@?$AAe?$AAn?$AA?9?$AAP?$AAH@ 000000018001cec8     libucrt:lcidtoname_downlevel.obj
 0002:00008ed8       ??_C@_1M@BDNIPEND@?$AAe?$AAs?$AA?9?$AAC?$AAL@ 000000018001ced8     libucrt:lcidtoname_downlevel.obj
 0002:00008ee8       ??_C@_1M@MPNMEKBD@?$AAa?$AAr?$AA?9?$AAA?$AAE@ 000000018001cee8     libucrt:lcidtoname_downlevel.obj
 0002:00008ef8       ??_C@_1M@KBJALCPI@?$AAe?$AAs?$AA?9?$AAU?$AAY@ 000000018001cef8     libucrt:lcidtoname_downlevel.obj
 0002:00008f08       ??_C@_1M@LLCCOAGA@?$AAa?$AAr?$AA?9?$AAB?$AAH@ 000000018001cf08     libucrt:lcidtoname_downlevel.obj
 0002:00008f18       ??_C@_1M@PBFNCDEL@?$AAe?$AAs?$AA?9?$AAP?$AAY@ 000000018001cf18     libucrt:lcidtoname_downlevel.obj
 0002:00008f28       ??_C@_1M@EDGINPNP@?$AAa?$AAr?$AA?9?$AAQ?$AAA@ 000000018001cf28     libucrt:lcidtoname_downlevel.obj
 0002:00008f38       ??_C@_1M@MKDBIIJI@?$AAe?$AAs?$AA?9?$AAB?$AAO@ 000000018001cf38     libucrt:lcidtoname_downlevel.obj
 0002:00008f48       ??_C@_1M@CPKKEBLD@?$AAe?$AAs?$AA?9?$AAS?$AAV@ 000000018001cf48     libucrt:lcidtoname_downlevel.obj
 0002:00008f58       ??_C@_1M@NDBGMMJL@?$AAe?$AAs?$AA?9?$AAH?$AAN@ 000000018001cf58     libucrt:lcidtoname_downlevel.obj
 0002:00008f68       ??_C@_1M@JIJIBHDP@?$AAe?$AAs?$AA?9?$AAN?$AAI@ 000000018001cf68     libucrt:lcidtoname_downlevel.obj
 0002:00008f78       ??_C@_1M@CGFMKEEK@?$AAe?$AAs?$AA?9?$AAP?$AAR@ 000000018001cf78     libucrt:lcidtoname_downlevel.obj
 0002:00008f88       ??_C@_1O@ICJHKIIK@?$AAz?$AAh?$AA?9?$AAC?$AAH?$AAT@ 000000018001cf88     libucrt:lcidtoname_downlevel.obj
 0002:00008f98       ??_C@_15CLNEJCE@?$AAs?$AAr@ 000000018001cf98     libucrt:lcidtoname_downlevel.obj
 0002:00009de0       ??_C@_1M@KAHEKEIG@?$AAa?$AAf?$AA?9?$AAz?$AAa@ 000000018001dde0     libucrt:lcidtoname_downlevel.obj
 0002:00009df0       ??_C@_1M@GIECOABL@?$AAa?$AAr?$AA?9?$AAa?$AAe@ 000000018001ddf0     libucrt:lcidtoname_downlevel.obj
 0002:00009e00       ??_C@_1M@BMLMEKGI@?$AAa?$AAr?$AA?9?$AAb?$AAh@ 000000018001de00     libucrt:lcidtoname_downlevel.obj
 0002:00009e10       ??_C@_1M@DAPFDGGB@?$AAa?$AAr?$AA?9?$AAd?$AAz@ 000000018001de10     libucrt:lcidtoname_downlevel.obj
 0002:00009e20       ??_C@_1M@FJNKGKIG@?$AAa?$AAr?$AA?9?$AAe?$AAg@ 000000018001de20     libucrt:lcidtoname_downlevel.obj
 0002:00009e30       ??_C@_1M@FLGKKCLO@?$AAa?$AAr?$AA?9?$AAi?$AAq@ 000000018001de30     libucrt:lcidtoname_downlevel.obj
 0002:00009e40       ??_C@_1M@GNDIPALM@?$AAa?$AAr?$AA?9?$AAj?$AAo@ 000000018001de40     libucrt:lcidtoname_downlevel.obj
 0002:00009e50       ??_C@_1M@DDMJFMGJ@?$AAa?$AAr?$AA?9?$AAk?$AAw@ 000000018001de50     libucrt:lcidtoname_downlevel.obj
 0002:00009e60       ??_C@_1M@EJALMLHM@?$AAa?$AAr?$AA?9?$AAl?$AAb@ 000000018001de60     libucrt:lcidtoname_downlevel.obj
 0002:00009e70       ??_C@_1M@MOBDBLOC@?$AAa?$AAr?$AA?9?$AAl?$AAy@ 000000018001de70     libucrt:lcidtoname_downlevel.obj
 0002:00009e80       ??_C@_1M@JAOCLHDH@?$AAa?$AAr?$AA?9?$AAm?$AAa@ 000000018001de80     libucrt:lcidtoname_downlevel.obj
 0002:00009e90       ??_C@_1M@JHPMKJIE@?$AAa?$AAr?$AA?9?$AAo?$AAm@ 000000018001de90     libucrt:lcidtoname_downlevel.obj
 0002:00009ea0       ??_C@_1M@OEPGHFNH@?$AAa?$AAr?$AA?9?$AAq?$AAa@ 000000018001dea0     libucrt:lcidtoname_downlevel.obj
 0002:00009eb0       ??_C@_1M@KJDONENM@?$AAa?$AAr?$AA?9?$AAs?$AAa@ 000000018001deb0     libucrt:lcidtoname_downlevel.obj
 0002:00009ec0       ??_C@_1M@DMJDKLKM@?$AAa?$AAr?$AA?9?$AAs?$AAy@ 000000018001dec0     libucrt:lcidtoname_downlevel.obj
 0002:00009ed0       ??_C@_1M@OMFIPEDC@?$AAa?$AAr?$AA?9?$AAt?$AAn@ 000000018001ded0     libucrt:lcidtoname_downlevel.obj
 0002:00009ee0       ??_C@_1M@IHMHGAON@?$AAa?$AAr?$AA?9?$AAy?$AAe@ 000000018001dee0     libucrt:lcidtoname_downlevel.obj
 0002:00009ef0       ??_C@_1BG@KDCPGJGB@?$AAa?$AAz?$AA?9?$AAa?$AAz?$AA?9?$AAc?$AAy?$AAr?$AAl@ 000000018001def0     libucrt:lcidtoname_downlevel.obj
 0002:00009f08       ??_C@_1BG@IBCKDDOE@?$AAa?$AAz?$AA?9?$AAa?$AAz?$AA?9?$AAl?$AAa?$AAt?$AAn@ 000000018001df08     libucrt:lcidtoname_downlevel.obj
 0002:00009f20       ??_C@_1M@EGPFDCPD@?$AAb?$AAe?$AA?9?$AAb?$AAy@ 000000018001df20     libucrt:lcidtoname_downlevel.obj
 0002:00009f30       ??_C@_1M@PCMGMCGC@?$AAb?$AAg?$AA?9?$AAb?$AAg@ 000000018001df30     libucrt:lcidtoname_downlevel.obj
 0002:00009f40       ??_C@_1M@BJBMFGOB@?$AAb?$AAn?$AA?9?$AAi?$AAn@ 000000018001df40     libucrt:lcidtoname_downlevel.obj
 0002:00009f50       ??_C@_1BG@EAKMMACD@?$AAb?$AAs?$AA?9?$AAb?$AAa?$AA?9?$AAl?$AAa?$AAt?$AAn@ 000000018001df50     libucrt:lcidtoname_downlevel.obj
 0002:00009f68       ??_C@_1M@KGADAODK@?$AAc?$AAa?$AA?9?$AAe?$AAs@ 000000018001df68     libucrt:lcidtoname_downlevel.obj
 0002:00009f78       ??_C@_1M@COAJPDHI@?$AAc?$AAs?$AA?9?$AAc?$AAz@ 000000018001df78     libucrt:lcidtoname_downlevel.obj
 0002:00009f88       ??_C@_1M@DHBHFONH@?$AAc?$AAy?$AA?9?$AAg?$AAb@ 000000018001df88     libucrt:lcidtoname_downlevel.obj
 0002:00009f98       ??_C@_1M@IMGKELGA@?$AAd?$AAa?$AA?9?$AAd?$AAk@ 000000018001df98     libucrt:lcidtoname_downlevel.obj
 0002:00009fa8       ??_C@_1M@NNDGDNGA@?$AAd?$AAe?$AA?9?$AAa?$AAt@ 000000018001dfa8     libucrt:lcidtoname_downlevel.obj
 0002:00009fb8       ??_C@_1M@IKDBHEEM@?$AAd?$AAe?$AA?9?$AAc?$AAh@ 000000018001dfb8     libucrt:lcidtoname_downlevel.obj
 0002:00009fc8       ??_C@_1M@GFFOJMCJ@?$AAd?$AAe?$AA?9?$AAd?$AAe@ 000000018001dfc8     libucrt:lcidtoname_downlevel.obj
 0002:00009fd8       ??_C@_1M@MDNLKBPM@?$AAd?$AAe?$AA?9?$AAl?$AAi@ 000000018001dfd8     libucrt:lcidtoname_downlevel.obj
 0002:00009fe8       ??_C@_1M@NJBEEJNL@?$AAd?$AAe?$AA?9?$AAl?$AAu@ 000000018001dfe8     libucrt:lcidtoname_downlevel.obj
 0002:00009ff8       ??_C@_1O@GNNELBAP@?$AAd?$AAi?$AAv?$AA?9?$AAm?$AAv@ 000000018001dff8     libucrt:lcidtoname_downlevel.obj
 0002:0000a008       ??_C@_1M@EJLEOGAE@?$AAe?$AAl?$AA?9?$AAg?$AAr@ 000000018001e008     libucrt:lcidtoname_downlevel.obj
 0002:0000a018       ??_C@_1M@GMPONJN@?$AAe?$AAn?$AA?9?$AAa?$AAu@ 000000018001e018     libucrt:lcidtoname_downlevel.obj
 0002:0000a028       ??_C@_1M@NIDIIPGF@?$AAe?$AAn?$AA?9?$AAb?$AAz@ 000000018001e028     libucrt:lcidtoname_downlevel.obj
 0002:0000a038       ??_C@_1M@JEHMIMFO@?$AAe?$AAn?$AA?9?$AAc?$AAa@ 000000018001e038     libucrt:lcidtoname_downlevel.obj
 0002:0000a048       ??_C@_1M@IGMJCDLA@?$AAe?$AAn?$AA?9?$AAc?$AAb@ 000000018001e048     libucrt:lcidtoname_downlevel.obj
 0002:0000a058       ??_C@_1M@BNFIGBKG@?$AAe?$AAn?$AA?9?$AAg?$AAb@ 000000018001e058     libucrt:lcidtoname_downlevel.obj
 0002:0000a068       ??_C@_1M@LKIFDIGP@?$AAe?$AAn?$AA?9?$AAi?$AAe@ 000000018001e068     libucrt:lcidtoname_downlevel.obj
 0002:0000a078       ??_C@_1M@PJKFGCCO@?$AAe?$AAn?$AA?9?$AAj?$AAm@ 000000018001e078     libucrt:lcidtoname_downlevel.obj
 0002:0000a088       ??_C@_1M@KPPKEPBO@?$AAe?$AAn?$AA?9?$AAn?$AAz@ 000000018001e088     libucrt:lcidtoname_downlevel.obj
 0002:0000a098       ??_C@_1M@GMDGLDOB@?$AAe?$AAn?$AA?9?$AAp?$AAh@ 000000018001e098     libucrt:lcidtoname_downlevel.obj
 0002:0000a0a8       ??_C@_1M@ONGIBJNA@?$AAe?$AAn?$AA?9?$AAt?$AAt@ 000000018001e0a8     libucrt:lcidtoname_downlevel.obj
 0002:0000a0b8       ??_C@_1M@LLODPCMM@?$AAe?$AAn?$AA?9?$AAu?$AAs@ 000000018001e0b8     libucrt:lcidtoname_downlevel.obj
 0002:0000a0c8       ??_C@_1M@LAKFNPAN@?$AAe?$AAn?$AA?9?$AAz?$AAa@ 000000018001e0c8     libucrt:lcidtoname_downlevel.obj
 0002:0000a0d8       ??_C@_1M@MFNHNHEO@?$AAe?$AAn?$AA?9?$AAz?$AAw@ 000000018001e0d8     libucrt:lcidtoname_downlevel.obj
 0002:0000a0e8       ??_C@_1M@EJEINPHM@?$AAe?$AAs?$AA?9?$AAa?$AAr@ 000000018001e0e8     libucrt:lcidtoname_downlevel.obj
 0002:0000a0f8       ??_C@_1M@GNKPCCJA@?$AAe?$AAs?$AA?9?$AAb?$AAo@ 000000018001e0f8     libucrt:lcidtoname_downlevel.obj
 0002:0000a108       ??_C@_1M@LEEGFONL@?$AAe?$AAs?$AA?9?$AAc?$AAl@ 000000018001e108     libucrt:lcidtoname_downlevel.obj
 0002:0000a118       ??_C@_1M@KGPDPBDF@?$AAe?$AAs?$AA?9?$AAc?$AAo@ 000000018001e118     libucrt:lcidtoname_downlevel.obj
 0002:0000a128       ??_C@_1M@EIAHOHH@?$AAe?$AAs?$AA?9?$AAc?$AAr@ 000000018001e128     libucrt:lcidtoname_downlevel.obj
 0002:0000a138       ??_C@_1M@LLPGMBIN@?$AAe?$AAs?$AA?9?$AAd?$AAo@ 000000018001e138     libucrt:lcidtoname_downlevel.obj
 0002:0000a148       ??_C@_1M@DKHMKNJA@?$AAe?$AAs?$AA?9?$AAe?$AAc@ 000000018001e148     libucrt:lcidtoname_downlevel.obj
 0002:0000a158       ??_C@_1M@GKGFPKAP@?$AAe?$AAs?$AA?9?$AAe?$AAs@ 000000018001e158     libucrt:lcidtoname_downlevel.obj
 0002:0000a168       ??_C@_1M@LKHKGDLN@?$AAe?$AAs?$AA?9?$AAg?$AAt@ 000000018001e168     libucrt:lcidtoname_downlevel.obj
 0002:0000a178       ??_C@_1M@HEIIGGJD@?$AAe?$AAs?$AA?9?$AAh?$AAn@ 000000018001e178     libucrt:lcidtoname_downlevel.obj
 0002:0000a188       ??_C@_1M@FBDHPPGD@?$AAe?$AAs?$AA?9?$AAm?$AAx@ 000000018001e188     libucrt:lcidtoname_downlevel.obj
 0002:0000a198       ??_C@_1M@DPAGLNDH@?$AAe?$AAs?$AA?9?$AAn?$AAi@ 000000018001e198     libucrt:lcidtoname_downlevel.obj
 0002:0000a1a8       ??_C@_1M@MDGOPGDD@?$AAe?$AAs?$AA?9?$AAp?$AAa@ 000000018001e1a8     libucrt:lcidtoname_downlevel.obj
 0002:0000a1b8       ??_C@_1M@EMAMGBGE@?$AAe?$AAs?$AA?9?$AAp?$AAe@ 000000018001e1b8     libucrt:lcidtoname_downlevel.obj
 0002:0000a1c8       ??_C@_1M@IBMCAOEC@?$AAe?$AAs?$AA?9?$AAp?$AAr@ 000000018001e1c8     libucrt:lcidtoname_downlevel.obj
 0002:0000a1d8       ??_C@_1M@FGMDIJED@?$AAe?$AAs?$AA?9?$AAp?$AAy@ 000000018001e1d8     libucrt:lcidtoname_downlevel.obj
 0002:0000a1e8       ??_C@_1M@IIDEOLLL@?$AAe?$AAs?$AA?9?$AAs?$AAv@ 000000018001e1e8     libucrt:lcidtoname_downlevel.obj
 0002:0000a1f8       ??_C@_1M@GAOBIPA@?$AAe?$AAs?$AA?9?$AAu?$AAy@ 000000018001e1f8     libucrt:lcidtoname_downlevel.obj
 0002:0000a208       ??_C@_1M@JKFFICHJ@?$AAe?$AAs?$AA?9?$AAv?$AAe@ 000000018001e208     libucrt:lcidtoname_downlevel.obj
 0002:0000a218       ??_C@_1M@PNMLOJDF@?$AAe?$AAt?$AA?9?$AAe?$AAe@ 000000018001e218     libucrt:lcidtoname_downlevel.obj
 0002:0000a228       ??_C@_1M@GHHLIKEI@?$AAe?$AAu?$AA?9?$AAe?$AAs@ 000000018001e228     libucrt:lcidtoname_downlevel.obj
 0002:0000a238       ??_C@_1M@PBNONODE@?$AAf?$AAa?$AA?9?$AAi?$AAr@ 000000018001e238     libucrt:lcidtoname_downlevel.obj
 0002:0000a248       ??_C@_1M@JEEHPMIL@?$AAf?$AAi?$AA?9?$AAf?$AAi@ 000000018001e248     libucrt:lcidtoname_downlevel.obj
 0002:0000a258       ??_C@_1M@LMDCNDBA@?$AAf?$AAo?$AA?9?$AAf?$AAo@ 000000018001e258     libucrt:lcidtoname_downlevel.obj
 0002:0000a268       ??_C@_1M@JKEOHLDK@?$AAf?$AAr?$AA?9?$AAb?$AAe@ 000000018001e268     libucrt:lcidtoname_downlevel.obj
 0002:0000a278       ??_C@_1M@NOHADPMI@?$AAf?$AAr?$AA?9?$AAc?$AAa@ 000000018001e278     libucrt:lcidtoname_downlevel.obj
 0002:0000a288       ??_C@_1M@KDHIHAEC@?$AAf?$AAr?$AA?9?$AAc?$AAh@ 000000018001e288     libucrt:lcidtoname_downlevel.obj
 0002:0000a298       ??_C@_1M@MMBBFGAK@?$AAf?$AAr?$AA?9?$AAf?$AAr@ 000000018001e298     libucrt:lcidtoname_downlevel.obj
 0002:0000a2a8       ??_C@_1M@PAFNENNF@?$AAf?$AAr?$AA?9?$AAl?$AAu@ 000000018001e2a8     libucrt:lcidtoname_downlevel.obj
 0002:0000a2b8       ??_C@_1M@EOHDJGDD@?$AAf?$AAr?$AA?9?$AAm?$AAc@ 000000018001e2b8     libucrt:lcidtoname_downlevel.obj
 0002:0000a2c8       ??_C@_1M@FAPLLOPF@?$AAg?$AAl?$AA?9?$AAe?$AAs@ 000000018001e2c8     libucrt:lcidtoname_downlevel.obj
 0002:0000a2d8       ??_C@_1M@FOPBFLOO@?$AAg?$AAu?$AA?9?$AAi?$AAn@ 000000018001e2d8     libucrt:lcidtoname_downlevel.obj
 0002:0000a2e8       ??_C@_1M@KBMCINPM@?$AAh?$AAe?$AA?9?$AAi?$AAl@ 000000018001e2e8     libucrt:lcidtoname_downlevel.obj
 0002:0000a2f8       ??_C@_1M@BBPHKFPJ@?$AAh?$AAi?$AA?9?$AAi?$AAn@ 000000018001e2f8     libucrt:lcidtoname_downlevel.obj
 0002:0000a308       ??_C@_1M@PMBNDPHD@?$AAh?$AAr?$AA?9?$AAb?$AAa@ 000000018001e308     libucrt:lcidtoname_downlevel.obj
 0002:0000a318       ??_C@_1M@BPCKOEGE@?$AAh?$AAr?$AA?9?$AAh?$AAr@ 000000018001e318     libucrt:lcidtoname_downlevel.obj
 0002:0000a328       ??_C@_1M@GACBMHKE@?$AAh?$AAu?$AA?9?$AAh?$AAu@ 000000018001e328     libucrt:lcidtoname_downlevel.obj
 0002:0000a338       ??_C@_1M@MILPAJJC@?$AAh?$AAy?$AA?9?$AAa?$AAm@ 000000018001e338     libucrt:lcidtoname_downlevel.obj
 0002:0000a348       ??_C@_1M@BABBICEC@?$AAi?$AAd?$AA?9?$AAi?$AAd@ 000000018001e348     libucrt:lcidtoname_downlevel.obj
 0002:0000a358       ??_C@_1M@BIKNHHPF@?$AAi?$AAs?$AA?9?$AAi?$AAs@ 000000018001e358     libucrt:lcidtoname_downlevel.obj
 0002:0000a368       ??_C@_1M@NMPCJPHE@?$AAi?$AAt?$AA?9?$AAc?$AAh@ 000000018001e368     libucrt:lcidtoname_downlevel.obj
 0002:0000a378       ??_C@_1M@GHKGFEDF@?$AAi?$AAt?$AA?9?$AAi?$AAt@ 000000018001e378     libucrt:lcidtoname_downlevel.obj
 0002:0000a388       ??_C@_1M@NIEJCJJA@?$AAj?$AAa?$AA?9?$AAj?$AAp@ 000000018001e388     libucrt:lcidtoname_downlevel.obj
 0002:0000a398       ??_C@_1M@JILFNBIM@?$AAk?$AAa?$AA?9?$AAg?$AAe@ 000000018001e398     libucrt:lcidtoname_downlevel.obj
 0002:0000a3a8       ??_C@_1M@PACPMGPH@?$AAk?$AAk?$AA?9?$AAk?$AAz@ 000000018001e3a8     libucrt:lcidtoname_downlevel.obj
 0002:0000a3b8       ??_C@_1M@IELFGMHA@?$AAk?$AAn?$AA?9?$AAi?$AAn@ 000000018001e3b8     libucrt:lcidtoname_downlevel.obj
 0002:0000a3c8       ??_C@_1O@IBBJHCH@?$AAk?$AAo?$AAk?$AA?9?$AAi?$AAn@ 000000018001e3c8     libucrt:lcidtoname_downlevel.obj
 0002:0000a3d8       ??_C@_1M@DMHAEOGC@?$AAk?$AAo?$AA?9?$AAk?$AAr@ 000000018001e3d8     libucrt:lcidtoname_downlevel.obj
 0002:0000a3e8       ??_C@_1M@HBAHBIGA@?$AAk?$AAy?$AA?9?$AAk?$AAg@ 000000018001e3e8     libucrt:lcidtoname_downlevel.obj
 0002:0000a3f8       ??_C@_1M@KPMILCJG@?$AAl?$AAt?$AA?9?$AAl?$AAt@ 000000018001e3f8     libucrt:lcidtoname_downlevel.obj
 0002:0000a408       ??_C@_1M@BDEKKCA@?$AAl?$AAv?$AA?9?$AAl?$AAv@ 000000018001e408     libucrt:lcidtoname_downlevel.obj
 0002:0000a418       ??_C@_1M@ELCKCCJJ@?$AAm?$AAi?$AA?9?$AAn?$AAz@ 000000018001e418     libucrt:lcidtoname_downlevel.obj
 0002:0000a428       ??_C@_1M@CBOOLAPA@?$AAm?$AAk?$AA?9?$AAm?$AAk@ 000000018001e428     libucrt:lcidtoname_downlevel.obj
 0002:0000a438       ??_C@_1M@GPHNBJKN@?$AAm?$AAl?$AA?9?$AAi?$AAn@ 000000018001e438     libucrt:lcidtoname_downlevel.obj
 0002:0000a448       ??_C@_1M@PABJILIG@?$AAm?$AAn?$AA?9?$AAm?$AAn@ 000000018001e448     libucrt:lcidtoname_downlevel.obj
 0002:0000a458       ??_C@_1M@FGBKKIPG@?$AAm?$AAr?$AA?9?$AAi?$AAn@ 000000018001e458     libucrt:lcidtoname_downlevel.obj
 0002:0000a468       ??_C@_1M@NDBPDDAL@?$AAm?$AAs?$AA?9?$AAb?$AAn@ 000000018001e468     libucrt:lcidtoname_downlevel.obj
 0002:0000a478       ??_C@_1M@OPIHOOPI@?$AAm?$AAs?$AA?9?$AAm?$AAy@ 000000018001e478     libucrt:lcidtoname_downlevel.obj
 0002:0000a488       ??_C@_1M@PPDBCNFM@?$AAm?$AAt?$AA?9?$AAm?$AAt@ 000000018001e488     libucrt:lcidtoname_downlevel.obj
 0002:0000a498       ??_C@_1M@KDJDKMDD@?$AAn?$AAb?$AA?9?$AAn?$AAo@ 000000018001e498     libucrt:lcidtoname_downlevel.obj
 0002:0000a4a8       ??_C@_1M@KFCFLMJP@?$AAn?$AAl?$AA?9?$AAb?$AAe@ 000000018001e4a8     libucrt:lcidtoname_downlevel.obj
 0002:0000a4b8       ??_C@_1M@KPOPDDGO@?$AAn?$AAl?$AA?9?$AAn?$AAl@ 000000018001e4b8     libucrt:lcidtoname_downlevel.obj
 0002:0000a4c8       ??_C@_1M@LJKPEMLN@?$AAn?$AAn?$AA?9?$AAn?$AAo@ 000000018001e4c8     libucrt:lcidtoname_downlevel.obj
 0002:0000a4d8       ??_C@_1M@BDGHHBFL@?$AAn?$AAs?$AA?9?$AAz?$AAa@ 000000018001e4d8     libucrt:lcidtoname_downlevel.obj
 0002:0000a4e8       ??_C@_1M@IDEHOAP@?$AAp?$AAa?$AA?9?$AAi?$AAn@ 000000018001e4e8     libucrt:lcidtoname_downlevel.obj
 0002:0000a4f8       ??_C@_1M@HDBKGOGH@?$AAp?$AAl?$AA?9?$AAp?$AAl@ 000000018001e4f8     libucrt:lcidtoname_downlevel.obj
 0002:0000a508       ??_C@_1M@LJLLCMEH@?$AAp?$AAt?$AA?9?$AAb?$AAr@ 000000018001e508     libucrt:lcidtoname_downlevel.obj
 0002:0000a518       ??_C@_1M@NCMONAAL@?$AAp?$AAt?$AA?9?$AAp?$AAt@ 000000018001e518     libucrt:lcidtoname_downlevel.obj
 0002:0000a528       ??_C@_1O@EAKMAJDN@?$AAq?$AAu?$AAz?$AA?9?$AAb?$AAo@ 000000018001e528     libucrt:lcidtoname_downlevel.obj
 0002:0000a538       ??_C@_1O@BHHPIGDN@?$AAq?$AAu?$AAz?$AA?9?$AAe?$AAc@ 000000018001e538     libucrt:lcidtoname_downlevel.obj
 0002:0000a548       ??_C@_1O@GBAPEKMJ@?$AAq?$AAu?$AAz?$AA?9?$AAp?$AAe@ 000000018001e548     libucrt:lcidtoname_downlevel.obj
 0002:0000a558       ??_C@_1M@CLGLEFBO@?$AAr?$AAo?$AA?9?$AAr?$AAo@ 000000018001e558     libucrt:lcidtoname_downlevel.obj
 0002:0000a568       ??_C@_1M@CEEDODME@?$AAr?$AAu?$AA?9?$AAr?$AAu@ 000000018001e568     libucrt:lcidtoname_downlevel.obj
 0002:0000a578       ??_C@_1M@HPKKKMPP@?$AAs?$AAa?$AA?9?$AAi?$AAn@ 000000018001e578     libucrt:lcidtoname_downlevel.obj
 0002:0000a588       ??_C@_1M@BKMAIGOJ@?$AAs?$AAe?$AA?9?$AAf?$AAi@ 000000018001e588     libucrt:lcidtoname_downlevel.obj
 0002:0000a598       ??_C@_1M@NDPIFLFI@?$AAs?$AAe?$AA?9?$AAn?$AAo@ 000000018001e598     libucrt:lcidtoname_downlevel.obj
 0002:0000a5a8       ??_C@_1M@DANKKHJ@?$AAs?$AAe?$AA?9?$AAs?$AAe@ 000000018001e5a8     libucrt:lcidtoname_downlevel.obj
 0002:0000a5b8       ??_C@_1M@PNBLONPJ@?$AAs?$AAk?$AA?9?$AAs?$AAk@ 000000018001e5b8     libucrt:lcidtoname_downlevel.obj
 0002:0000a5c8       ??_C@_1M@LFMODOAL@?$AAs?$AAl?$AA?9?$AAs?$AAi@ 000000018001e5c8     libucrt:lcidtoname_downlevel.obj
 0002:0000a5d8       ??_C@_1O@DFKOMPG@?$AAs?$AAm?$AAa?$AA?9?$AAn?$AAo@ 000000018001e5d8     libucrt:lcidtoname_downlevel.obj
 0002:0000a5e8       ??_C@_1O@NDKPBNNH@?$AAs?$AAm?$AAa?$AA?9?$AAs?$AAe@ 000000018001e5e8     libucrt:lcidtoname_downlevel.obj
 0002:0000a5f8       ??_C@_1O@PLLKBHAB@?$AAs?$AAm?$AAj?$AA?9?$AAn?$AAo@ 000000018001e5f8     libucrt:lcidtoname_downlevel.obj
 0002:0000a608       ??_C@_1O@CLEPOGCA@?$AAs?$AAm?$AAj?$AA?9?$AAs?$AAe@ 000000018001e608     libucrt:lcidtoname_downlevel.obj
 0002:0000a618       ??_C@_1O@DLGJGKMK@?$AAs?$AAm?$AAn?$AA?9?$AAf?$AAi@ 000000018001e618     libucrt:lcidtoname_downlevel.obj
 0002:0000a628       ??_C@_1O@OJDJGAJC@?$AAs?$AAm?$AAs?$AA?9?$AAf?$AAi@ 000000018001e628     libucrt:lcidtoname_downlevel.obj
 0002:0000a638       ??_C@_1M@BOFOGHPB@?$AAs?$AAq?$AA?9?$AAa?$AAl@ 000000018001e638     libucrt:lcidtoname_downlevel.obj
 0002:0000a648       ??_C@_1BG@LJBBIPGB@?$AAs?$AAr?$AA?9?$AAb?$AAa?$AA?9?$AAc?$AAy?$AAr?$AAl@ 000000018001e648     libucrt:lcidtoname_downlevel.obj
 0002:0000a660       ??_C@_1BG@JLBENFOE@?$AAs?$AAr?$AA?9?$AAb?$AAa?$AA?9?$AAl?$AAa?$AAt?$AAn@ 000000018001e660     libucrt:lcidtoname_downlevel.obj
 0002:0000a678       ??_C@_1BG@KODPNHE@?$AAs?$AAr?$AA?9?$AAs?$AAp?$AA?9?$AAc?$AAy?$AAr?$AAl@ 000000018001e678     libucrt:lcidtoname_downlevel.obj
 0002:0000a690       ??_C@_1BG@CIOGKHPB@?$AAs?$AAr?$AA?9?$AAs?$AAp?$AA?9?$AAl?$AAa?$AAt?$AAn@ 000000018001e690     libucrt:lcidtoname_downlevel.obj
 0002:0000a6a8       ??_C@_1M@NGFJLMAC@?$AAs?$AAv?$AA?9?$AAf?$AAi@ 000000018001e6a8     libucrt:lcidtoname_downlevel.obj
 0002:0000a6b8       ??_C@_1M@MPJEJAJC@?$AAs?$AAv?$AA?9?$AAs?$AAe@ 000000018001e6b8     libucrt:lcidtoname_downlevel.obj
 0002:0000a6c8       ??_C@_1M@MPNDHLFK@?$AAs?$AAw?$AA?9?$AAk?$AAe@ 000000018001e6c8     libucrt:lcidtoname_downlevel.obj
 0002:0000a6d8       ??_C@_1O@KOHBJJI@?$AAs?$AAy?$AAr?$AA?9?$AAs?$AAy@ 000000018001e6d8     libucrt:lcidtoname_downlevel.obj
 0002:0000a6e8       ??_C@_1M@LDCEFHA@?$AAt?$AAa?$AA?9?$AAi?$AAn@ 000000018001e6e8     libucrt:lcidtoname_downlevel.obj
 0002:0000a6f8       ??_C@_1M@CNJOFAK@?$AAt?$AAe?$AA?9?$AAi?$AAn@ 000000018001e6f8     libucrt:lcidtoname_downlevel.obj
 0002:0000a708       ??_C@_1M@GNAECACD@?$AAt?$AAh?$AA?9?$AAt?$AAh@ 000000018001e708     libucrt:lcidtoname_downlevel.obj
 0002:0000a718       ??_C@_1M@CHBIHOJO@?$AAt?$AAn?$AA?9?$AAz?$AAa@ 000000018001e718     libucrt:lcidtoname_downlevel.obj
 0002:0000a728       ??_C@_1M@GCCMIGPJ@?$AAt?$AAr?$AA?9?$AAt?$AAr@ 000000018001e728     libucrt:lcidtoname_downlevel.obj
 0002:0000a738       ??_C@_1M@CELMCNBK@?$AAt?$AAt?$AA?9?$AAr?$AAu@ 000000018001e738     libucrt:lcidtoname_downlevel.obj
 0002:0000a748       ??_C@_1M@KLMCELGA@?$AAu?$AAk?$AA?9?$AAu?$AAa@ 000000018001e748     libucrt:lcidtoname_downlevel.obj
 0002:0000a758       ??_C@_1M@EPAJJAJF@?$AAu?$AAr?$AA?9?$AAp?$AAk@ 000000018001e758     libucrt:lcidtoname_downlevel.obj
 0002:0000a768       ??_C@_1BG@GEGPMCDJ@?$AAu?$AAz?$AA?9?$AAu?$AAz?$AA?9?$AAc?$AAy?$AAr?$AAl@ 000000018001e768     libucrt:lcidtoname_downlevel.obj
 0002:0000a780       ??_C@_1BG@EGGKJILM@?$AAu?$AAz?$AA?9?$AAu?$AAz?$AA?9?$AAl?$AAa?$AAt?$AAn@ 000000018001e780     libucrt:lcidtoname_downlevel.obj
 0002:0000a798       ??_C@_1M@GFOCLFF@?$AAv?$AAi?$AA?9?$AAv?$AAn@ 000000018001e798     libucrt:lcidtoname_downlevel.obj
 0002:0000a7a8       ??_C@_1M@CPAMEDFI@?$AAx?$AAh?$AA?9?$AAz?$AAa@ 000000018001e7a8     libucrt:lcidtoname_downlevel.obj
 0002:0000a7b8       ??_C@_1O@EBKIFIGN@?$AAz?$AAh?$AA?9?$AAc?$AAh?$AAs@ 000000018001e7b8     libucrt:lcidtoname_downlevel.obj
 0002:0000a7c8       ??_C@_1O@NMHPGANE@?$AAz?$AAh?$AA?9?$AAc?$AAh?$AAt@ 000000018001e7c8     libucrt:lcidtoname_downlevel.obj
 0002:0000a7d8       ??_C@_1M@LPINJOMC@?$AAz?$AAh?$AA?9?$AAc?$AAn@ 000000018001e7d8     libucrt:lcidtoname_downlevel.obj
 0002:0000a7e8       ??_C@_1M@OCJEJODD@?$AAz?$AAh?$AA?9?$AAh?$AAk@ 000000018001e7e8     libucrt:lcidtoname_downlevel.obj
 0002:0000a7f8       ??_C@_1M@DNDLJINH@?$AAz?$AAh?$AA?9?$AAm?$AAo@ 000000018001e7f8     libucrt:lcidtoname_downlevel.obj
 0002:0000a808       ??_C@_1M@MBFDNDND@?$AAz?$AAh?$AA?9?$AAs?$AAg@ 000000018001e808     libucrt:lcidtoname_downlevel.obj
 0002:0000a818       ??_C@_1M@IMEPLEPE@?$AAz?$AAh?$AA?9?$AAt?$AAw@ 000000018001e818     libucrt:lcidtoname_downlevel.obj
 0002:0000a828       ??_C@_1M@BBGHNHJP@?$AAz?$AAu?$AA?9?$AAz?$AAa@ 000000018001e828     libucrt:lcidtoname_downlevel.obj
 0002:0000a838       ??_C@_1BA@BALFACEM@?$AAC?$AAO?$AAN?$AAO?$AAU?$AAT?$AA$@ 000000018001e838     libucrt:initcon.obj
 0002:0000aab0       __log10_256_lead           000000018001eab0     libucrt:log10_256_lead_tail_table.obj
 0002:0000b2c0       __log10_256_tail           000000018001f2c0     libucrt:log10_256_lead_tail_table.obj
 0002:0000bac8       ??_C@_00CNPNBAHC@@         000000018001fac8     format.obj
 0002:0000bad0       ??_C@_0BF@KINCDENJ@bad?5array?5new?5length@ 000000018001fad0     format.obj
 0002:0000bae8       ??_C@_0BC@EOODALEL@Unknown?5exception@ 000000018001fae8     format.obj
 0002:0000bafc       ??_C@_01MNNFJEPP@?$DM@     000000018001fafc     imgui.obj
 0002:0000bb00       ??_C@_01PPODPGHN@?$DO@     000000018001fb00     imgui.obj
 0002:0000bb04       ??_C@_02DPKJAMEF@?$CFd@    000000018001fb04     imgui.obj
 0002:0000fd98       ??_C@_01NBENCBCI@?$CK@     0000000180023d98     imgui.obj
 0002:0000fd9c       ??_C@_02NJPGOMH@?$CFf@     0000000180023d9c     imguivariouscontrols.obj
 0002:0000fda0       ??_C@_02GMHACPFF@?$CFu@    0000000180023da0     imgui_demo.obj
 0002:0000fda4       ??_C@_05LLAMLEHD@?$CFI64d@ 0000000180023da4     imgui_demo.obj
 0002:0000fdac       ??_C@_02FODMEDOG@?$DM?$DM@ 0000000180023dac     imgui_demo.obj
 0002:0000fdb0       ??_C@_02GPIOPFAK@?$DO?$DO@ 0000000180023db0     imgui_demo.obj
 0002:0000fdb4       ??_C@_05OINFJHGD@?$CFI64u@ 0000000180023db4     imgui_rangeslider.obj
 0002:0000fdbc       ??_C@_03DLDNIBIK@?$CFlf@   0000000180023dbc     imgui_rangeslider.obj
 0002:0000fdc0       ??_C@_01JOAMLHOP@?9@       0000000180023dc0     imgui_widgets.obj
 0002:0000fdc4       ??_C@_01MIFGBAGJ@?$CL@     0000000180023dc4     imgui_widgets.obj
 0002:0000fdc8       ??_C@_08DPNBKDCK@1?40?40?415@ 0000000180023dc8     SixMansPlugin-Rework.obj
 0002:0000fde0       ??_C@_0GG@DAJCNKFO@C?3?2Users?2tyler?2Documents?2C?$CL?$CL?5Re@ 0000000180023de0     SixMansPlugin-Rework.obj
 0002:0000fe48       ??_C@_0O@DMNBIIDE@SixMansPlugin@ 0000000180023e48     SixMansPlugin-Rework.obj
 0002:0000fe58       ??_C@_0CA@PNFBMIOA@write?5a?5plugin?5description?5here@ 0000000180023e58     SixMansPlugin-Rework.obj
 0002:0000fe80       ??_7?$_Ref_count@VSixMansPlugin@@@std@@6B@ 0000000180023e80     SixMansPlugin-Rework.obj
 0002:0000fea8       ??_7SixMansPlugin@@6B@     0000000180023ea8     SixMansPlugin-Rework.obj
 0002:0000fec0       ??_7BakkesModPlugin@Plugin@BakkesMod@@6B@ 0000000180023ec0     SixMansPlugin-Rework.obj
 0002:00010000       __Lcosfarray               0000000180024000     libucrt:lsincosf_array.obj
 0002:00010030       __Lsinfarray               0000000180024030     libucrt:lsincosf_array.obj
 0002:00010050       __L_2_by_pi_bits           0000000180024050     libucrt:l2_by_pi_bits.obj
 0002:000101a0       ??_C@_04LAGPAAHP@sinf@     00000001800241a0     libucrt:sincos_special.obj
 0002:000101b0       _load_config_used          00000001800241b0     LIBCMT:loadcfg.obj
 0002:00010380       _tls_used                  0000000180024380     LIBCMT:tlssup.obj
 0002:000103a8       ??_R4type_info@@6B@        00000001800243a8     LIBCMT:std_type_info_static.obj
 0002:000103d0       ??_R3type_info@@8          00000001800243d0     LIBCMT:std_type_info_static.obj
 0002:000103e8       ??_R2type_info@@8          00000001800243e8     LIBCMT:std_type_info_static.obj
 0002:000103f8       ??_R1A@?0A@EA@type_info@@8 00000001800243f8     LIBCMT:std_type_info_static.obj
 0002:00010420       ??_R4bad_exception@std@@6B@ 0000000180024420     libvcruntime:frame.obj
 0002:00010448       ??_R3bad_exception@std@@8  0000000180024448     libvcruntime:frame.obj
 0002:00010460       ??_R2bad_exception@std@@8  0000000180024460     libvcruntime:frame.obj
 0002:00010478       ??_R1A@?0A@EA@bad_exception@std@@8 0000000180024478     libvcruntime:frame.obj
 0002:000104a0       ??_R1A@?0A@EA@bad_array_new_length@std@@8 00000001800244a0     format.obj
 0002:000104c8       ??_R2bad_array_new_length@std@@8 00000001800244c8     format.obj
 0002:000104e8       ??_R3bad_array_new_length@std@@8 00000001800244e8     format.obj
 0002:00010500       ??_R4bad_array_new_length@std@@6B@ 0000000180024500     format.obj
 0002:00010528       ??_R1A@?0A@EA@bad_alloc@std@@8 0000000180024528     format.obj
 0002:00010550       ??_R2bad_alloc@std@@8      0000000180024550     format.obj
 0002:00010568       ??_R3bad_alloc@std@@8      0000000180024568     format.obj
 0002:00010580       ??_R4bad_alloc@std@@6B@    0000000180024580     format.obj
 0002:000105a8       ??_R1A@?0A@EA@exception@std@@8 00000001800245a8     format.obj
 0002:000105d0       ??_R2exception@std@@8      00000001800245d0     format.obj
 0002:000105e0       ??_R3exception@std@@8      00000001800245e0     format.obj
 0002:000105f8       ??_R4exception@std@@6B@    00000001800245f8     format.obj
 0002:00010620       ??_R2?$_Ref_count@VSixMansPlugin@@@std@@8 0000000180024620     SixMansPlugin-Rework.obj
 0002:00010638       ??_R2SixMansPlugin@@8      0000000180024638     SixMansPlugin-Rework.obj
 0002:00010650       ??_R2_Ref_count_base@std@@8 0000000180024650     SixMansPlugin-Rework.obj
 0002:00010660       ??_R3_Ref_count_base@std@@8 0000000180024660     SixMansPlugin-Rework.obj
 0002:00010678       ??_R1A@?0A@EA@_Ref_count_base@std@@8 0000000180024678     SixMansPlugin-Rework.obj
 0002:000106a0       ??_R1A@?0A@EA@?$_Ref_count@VSixMansPlugin@@@std@@8 00000001800246a0     SixMansPlugin-Rework.obj
 0002:000106c8       ??_R1A@?0A@EA@SixMansPlugin@@8 00000001800246c8     SixMansPlugin-Rework.obj
 0002:000106f0       ??_R3?$_Ref_count@VSixMansPlugin@@@std@@8 00000001800246f0     SixMansPlugin-Rework.obj
 0002:00010708       ??_R3SixMansPlugin@@8      0000000180024708     SixMansPlugin-Rework.obj
 0002:00010720       ??_R4?$_Ref_count@VSixMansPlugin@@@std@@6B@ 0000000180024720     SixMansPlugin-Rework.obj
 0002:00010748       ??_R4SixMansPlugin@@6B@    0000000180024748     SixMansPlugin-Rework.obj
 0002:00010770       ??_R1A@?0A@EA@BakkesModPlugin@Plugin@BakkesMod@@8 0000000180024770     SixMansPlugin-Rework.obj
 0002:00010798       ??_R2BakkesModPlugin@Plugin@BakkesMod@@8 0000000180024798     SixMansPlugin-Rework.obj
 0002:000107a8       ??_R3BakkesModPlugin@Plugin@BakkesMod@@8 00000001800247a8     SixMansPlugin-Rework.obj
 0002:000107c0       ??_R4BakkesModPlugin@Plugin@BakkesMod@@6B@ 00000001800247c0     SixMansPlugin-Rework.obj
 0002:000107e4       __volatile_metadata        00000001800247e4     <linker-defined>
 0002:00010d38       __rtc_iaa                  0000000180024d38     LIBCMT:initsect.obj
 0002:00010d40       __rtc_izz                  0000000180024d40     LIBCMT:initsect.obj
 0002:00010d48       __rtc_taa                  0000000180024d48     LIBCMT:initsect.obj
 0002:00010d50       __rtc_tzz                  0000000180024d50     LIBCMT:initsect.obj
 0002:00010d58       _tls_start                 0000000180024d58     LIBCMT:tlssup.obj
 0002:00010d5c       _Init_thread_epoch         0000000180024d5c     LIBCMT:thread_safe_statics.obj
 0002:00010d60       _tls_end                   0000000180024d60     LIBCMT:tlssup.obj
 0002:00011cf0       _TI2?AVbad_alloc@std@@     0000000180025cf0     libcpmt:xthrow.obj
 0002:00011d10       _CTA2?AVbad_alloc@std@@    0000000180025d10     libcpmt:xthrow.obj
 0002:00011d28       _TI2?AVbad_exception@std@@ 0000000180025d28     libvcruntime:frame.obj
 0002:00011d48       _CTA2?AVbad_exception@std@@ 0000000180025d48     libvcruntime:frame.obj
 0002:00011d60       _CT??_R0?AVbad_exception@std@@@8??0bad_exception@std@@QEAA@AEBV01@@Z24 0000000180025d60     libvcruntime:frame.obj
 0002:00011d88       _CT??_R0?AVbad_array_new_length@std@@@8??0bad_array_new_length@std@@QEAA@AEBV01@@Z24 0000000180025d88     format.obj
 0002:00011db0       _CT??_R0?AVbad_alloc@std@@@8??0bad_alloc@std@@QEAA@AEBV01@@Z24 0000000180025db0     format.obj
 0002:00011dd8       _CT??_R0?AVexception@std@@@8??0exception@std@@QEAA@AEBV01@@Z24 0000000180025dd8     format.obj
 0002:00011e00       _CTA3?AVbad_array_new_length@std@@ 0000000180025e00     format.obj
 0002:00011e20       _TI3?AVbad_array_new_length@std@@ 0000000180025e20     format.obj
 0002:0001212c       __IMPORT_DESCRIPTOR_KERNEL32 000000018002612c     kernel32:KERNEL32.dll
 0002:00012140       __NULL_IMPORT_DESCRIPTOR   0000000180026140     kernel32:KERNEL32.dll
 0003:00000010       _Init_global_epoch         0000000180027010     LIBCMT:thread_safe_statics.obj
 0003:00000014       __scrt_native_dllmain_reason 0000000180027014     LIBCMT:utility.obj
 0003:00000018       __security_cookie          0000000180027018     LIBCMT:gs_cookie.obj
 0003:00000020       __security_cookie_complement 0000000180027020     LIBCMT:gs_cookie.obj
 0003:00000028       _fltused                   0000000180027028     LIBCMT:fltused.obj
 0003:00000030       __isa_available            0000000180027030     LIBCMT:cpu_disp.obj
 0003:00000034       __isa_enabled              0000000180027034     LIBCMT:cpu_disp.obj
 0003:00000038       __memset_fast_string_threshold 0000000180027038     LIBCMT:cpu_disp.obj
 0003:00000040       __memset_nt_threshold      0000000180027040     LIBCMT:cpu_disp.obj
 0003:00000060       _iob                       0000000180027060     libucrt:_file.obj
 0003:00000170       __acrt_lconv_c             0000000180027170     libucrt:localeconv.obj
 0003:00000208       __acrt_lconv_static_decimal 0000000180027208     libucrt:localeconv.obj
 0003:0000020c       __acrt_lconv_static_W_decimal 000000018002720c     libucrt:localeconv.obj
 0003:00000210       _lookuptrailbytes          0000000180027210     libucrt:read.obj
 0003:00000310       __abort_behavior           0000000180027310     libucrt:abort.obj
 0003:00000320       __acrt_initial_locale_data 0000000180027320     libucrt:nlsdata.obj
 0003:00000478       __acrt_initial_locale_pointers 0000000180027478     libucrt:nlsdata.obj
 0003:00000488       __acrt_wide_c_locale_string 0000000180027488     libucrt:nlsdata.obj
 0003:0000048c       __globallocalestatus       000000018002748c     libucrt:glstatus.obj
 0003:00000640       __acrt_initial_multibyte_data 0000000180027640     libucrt:mbctype.obj
 0003:00000b90       ?ButtonTooltips@InputComboWithAutoCompletionData@ImGui@@2PAY0IA@DA 0000000180027b90     imguivariouscontrols.obj
 0003:00000d10       ?ButtonCharcters@InputComboWithAutoCompletionData@ImGui@@2PAY04DA 0000000180027d10     imguivariouscontrols.obj
 0003:00000d20       exports                    0000000180027d20     SixMansPlugin-Rework.obj
 0003:00000d60       ??_R0?AVbad_exception@std@@@8 0000000180027d60     libvcruntime:frame.obj
 0003:00000d88       ??_R0?AVbad_array_new_length@std@@@8 0000000180027d88     format.obj
 0003:00000db8       ??_R0?AVbad_alloc@std@@@8  0000000180027db8     format.obj
 0003:00000de0       ??_R0?AVexception@std@@@8  0000000180027de0     format.obj
 0003:00000e10       ??_R0?AVtype_info@@@8      0000000180027e10     LIBCMT:std_type_info_static.obj
 0003:00000e30       ??_R0?AV_Ref_count_base@std@@@8 0000000180027e30     SixMansPlugin-Rework.obj
 0003:00000e60       ??_R0?AV?$_Ref_count@VSixMansPlugin@@@std@@@8 0000000180027e60     SixMansPlugin-Rework.obj
 0003:00000e98       ??_R0?AVSixMansPlugin@@@8  0000000180027e98     SixMansPlugin-Rework.obj
 0003:00000ec0       ??_R0?AVBakkesModPlugin@Plugin@BakkesMod@@@8 0000000180027ec0     SixMansPlugin-Rework.obj
 0003:00000f00       ?_Id_cnt@id@locale@std@@0HA 0000000180027f00     libcpmt:locale0.obj
 0003:00000f08       ?_Clocptr@_Locimp@locale@std@@0PEAV123@EA 0000000180027f08     libcpmt:locale0.obj
 0003:00000f10       ?id@?$ctype@_W@std@@2V0locale@2@A 0000000180027f10     libcpmt:locale0.obj
 0003:00000f18       ?id@?$ctype@D@std@@2V0locale@2@A 0000000180027f18     libcpmt:locale0.obj
 0003:00000f20       ?id@?$codecvt@GDU_Mbstatet@@@std@@2V0locale@2@A 0000000180027f20     libcpmt:locale0.obj
 0003:00000f28       ?id@?$ctype@G@std@@2V0locale@2@A 0000000180027f28     libcpmt:locale0.obj
 0003:00000f40       ?id@?$codecvt@_WDU_Mbstatet@@@std@@2V0locale@2@A 0000000180027f40     libcpmt:locale0.obj
 0003:000010b0       ?id@?$num_get@DV?$istreambuf_iterator@DU?$char_traits@D@std@@@std@@@std@@2V0locale@2@A 00000001800280b0     libcpmt:locale.obj
 0003:000010b8       ?id@?$num_put@DV?$ostreambuf_iterator@DU?$char_traits@D@std@@@std@@@std@@2V0locale@2@A 00000001800280b8     libcpmt:locale.obj
 0003:000010c0       ?id@?$codecvt@DDU_Mbstatet@@@std@@2V0locale@2@A 00000001800280c0     libcpmt:locale.obj
 0003:000010d0       ?_Ptr_cin@std@@3PEAV?$basic_istream@DU?$char_traits@D@std@@@1@EA 00000001800280d0     libcpmt:iosptrs.obj
 0003:000010d8       ?_Ptr_cout@std@@3PEAV?$basic_ostream@DU?$char_traits@D@std@@@1@EA 00000001800280d8     libcpmt:iosptrs.obj
 0003:000010e0       ?_Ptr_cerr@std@@3PEAV?$basic_ostream@DU?$char_traits@D@std@@@1@EA 00000001800280e0     libcpmt:iosptrs.obj
 0003:000010e8       ?_Ptr_clog@std@@3PEAV?$basic_ostream@DU?$char_traits@D@std@@@1@EA 00000001800280e8     libcpmt:iosptrs.obj
 0003:000010f0       ?_Ptr_wcin@std@@3PEAV?$basic_istream@_WU?$char_traits@_W@std@@@1@EA 00000001800280f0     libcpmt:iosptrs.obj
 0003:000010f8       ?_Ptr_wcout@std@@3PEAV?$basic_ostream@_WU?$char_traits@_W@std@@@1@EA 00000001800280f8     libcpmt:iosptrs.obj
 0003:00001100       ?_Ptr_wcerr@std@@3PEAV?$basic_ostream@_WU?$char_traits@_W@std@@@1@EA 0000000180028100     libcpmt:iosptrs.obj
 0003:00001108       ?_Ptr_wclog@std@@3PEAV?$basic_ostream@_WU?$char_traits@_W@std@@@1@EA 0000000180028108     libcpmt:iosptrs.obj
 0003:00001170       ?id@?$time_put@_WV?$ostreambuf_iterator@_WU?$char_traits@_W@std@@@std@@@std@@2V0locale@2@A 0000000180028170     libcpmt:wlocale.obj
 0003:00001178       ?id@?$num_get@_WV?$istreambuf_iterator@_WU?$char_traits@_W@std@@@std@@@std@@2V0locale@2@A 0000000180028178     libcpmt:wlocale.obj
 0003:00001180       ?id@?$num_put@_WV?$ostreambuf_iterator@_WU?$char_traits@_W@std@@@std@@@std@@2V0locale@2@A 0000000180028180     libcpmt:wlocale.obj
 0003:00001188       ?id@?$collate@_W@std@@2V0locale@2@A 0000000180028188     libcpmt:wlocale.obj
 0003:00001190       ?id@?$messages@_W@std@@2V0locale@2@A 0000000180028190     libcpmt:wlocale.obj
 0003:00001198       ?id@?$money_get@_WV?$istreambuf_iterator@_WU?$char_traits@_W@std@@@std@@@std@@2V0locale@2@A 0000000180028198     libcpmt:wlocale.obj
 0003:000011a0       ?id@?$money_put@_WV?$ostreambuf_iterator@_WU?$char_traits@_W@std@@@std@@@std@@2V0locale@2@A 00000001800281a0     libcpmt:wlocale.obj
 0003:000011a8       ?id@?$moneypunct@_W$0A@@std@@2V0locale@2@A 00000001800281a8     libcpmt:wlocale.obj
 0003:000011b0       ?id@?$moneypunct@_W$00@std@@2V0locale@2@A 00000001800281b0     libcpmt:wlocale.obj
 0003:000011b8       ?id@?$time_get@_WV?$istreambuf_iterator@_WU?$char_traits@_W@std@@@std@@@std@@2V0locale@2@A 00000001800281b8     libcpmt:wlocale.obj
 0003:000011c0       ?id@?$num_get@GV?$istreambuf_iterator@GU?$char_traits@G@std@@@std@@@std@@2V0locale@2@A 00000001800281c0     libcpmt:wlocale.obj
 0003:000011c8       ?id@?$num_put@GV?$ostreambuf_iterator@GU?$char_traits@G@std@@@std@@@std@@2V0locale@2@A 00000001800281c8     libcpmt:wlocale.obj
 0003:000011d0       ?id@?$numpunct@G@std@@2V0locale@2@A 00000001800281d0     libcpmt:wlocale.obj
 0003:000011d8       ?id@?$collate@G@std@@2V0locale@2@A 00000001800281d8     libcpmt:wlocale.obj
 0003:000011e0       ?id@?$messages@G@std@@2V0locale@2@A 00000001800281e0     libcpmt:wlocale.obj
 0003:000011e8       ?id@?$money_get@GV?$istreambuf_iterator@GU?$char_traits@G@std@@@std@@@std@@2V0locale@2@A 00000001800281e8     libcpmt:wlocale.obj
 0003:000011f0       ?id@?$money_put@GV?$ostreambuf_iterator@GU?$char_traits@G@std@@@std@@@std@@2V0locale@2@A 00000001800281f0     libcpmt:wlocale.obj
 0003:000011f8       ?id@?$moneypunct@G$0A@@std@@2V0locale@2@A 00000001800281f8     libcpmt:wlocale.obj
 0003:00001200       ?id@?$moneypunct@G$00@std@@2V0locale@2@A 0000000180028200     libcpmt:wlocale.obj
 0003:00001208       ?id@?$time_get@GV?$istreambuf_iterator@GU?$char_traits@G@std@@@std@@@std@@2V0locale@2@A 0000000180028208     libcpmt:wlocale.obj
 0003:00001210       ?id@?$time_put@GV?$ostreambuf_iterator@GU?$char_traits@G@std@@@std@@@std@@2V0locale@2@A 0000000180028210     libcpmt:wlocale.obj
 0003:00001218       ?id@?$collate@D@std@@2V0locale@2@A 0000000180028218     libcpmt:xlocale.obj
 0003:00001220       ?id@?$messages@D@std@@2V0locale@2@A 0000000180028220     libcpmt:xlocale.obj
 0003:00001228       ?id@?$money_get@DV?$istreambuf_iterator@DU?$char_traits@D@std@@@std@@@std@@2V0locale@2@A 0000000180028228     libcpmt:xlocale.obj
 0003:00001230       ?id@?$money_put@DV?$ostreambuf_iterator@DU?$char_traits@D@std@@@std@@@std@@2V0locale@2@A 0000000180028230     libcpmt:xlocale.obj
 0003:00001238       ?id@?$moneypunct@D$0A@@std@@2V0locale@2@A 0000000180028238     libcpmt:xlocale.obj
 0003:00001240       ?id@?$moneypunct@D$00@std@@2V0locale@2@A 0000000180028240     libcpmt:xlocale.obj
 0003:00001248       ?id@?$time_get@DV?$istreambuf_iterator@DU?$char_traits@D@std@@@std@@@std@@2V0locale@2@A 0000000180028248     libcpmt:xlocale.obj
 0003:00001250       ?id@?$time_put@DV?$ostreambuf_iterator@DU?$char_traits@D@std@@@std@@@std@@2V0locale@2@A 0000000180028250     libcpmt:xlocale.obj
 0003:000012a0       __scrt_current_native_startup_state 00000001800282a0     LIBCMT:utility.obj
 0003:000012a8       __scrt_native_startup_lock 00000001800282a8     LIBCMT:utility.obj
 0003:00001864       __scrt_debugger_hook_flag  0000000180028864     LIBCMT:utility_desktop.obj
 0003:00001868       _tls_index                 0000000180028868     LIBCMT:tlssup.obj
 0003:0000186c       __favor                    000000018002886c     LIBCMT:cpu_disp.obj
 0003:00001870       ?__type_info_root_node@@3U__type_info_node@@A 0000000180028870     LIBCMT:tncleanup.obj
 0003:00001880       ?__WinRTOutOfMemoryExceptionCallback@@3P6APEAXXZEA 0000000180028880     libvcruntime:ehhelpers.obj
 0003:00001910       __pPurecall                0000000180028910     libvcruntime:purevirt_data.obj
 0003:00001948       ?pArgList@UnDecorator@@0PEAVReplicator@@EA 0000000180028948     libvcruntime:undname.obj
 0003:00001950       ?pZNameList@UnDecorator@@0PEAVReplicator@@EA 0000000180028950     libvcruntime:undname.obj
 0003:00001958       ?pTemplateArgList@UnDecorator@@0PEAVReplicator@@EA 0000000180028958     libvcruntime:undname.obj
 0003:00001960       ?gName@UnDecorator@@0PEBDEB 0000000180028960     libvcruntime:undname.obj
 0003:00001968       ?name@UnDecorator@@0PEBDEB 0000000180028968     libvcruntime:undname.obj
 0003:00001970       ?disableFlags@UnDecorator@@0KA 0000000180028970     libvcruntime:undname.obj
 0003:00001974       ?fExplicitTemplateParams@UnDecorator@@0_NA 0000000180028974     libvcruntime:undname.obj
 0003:00001975       ?fGetTemplateArgumentList@UnDecorator@@0_NA 0000000180028975     libvcruntime:undname.obj
 0003:00001978       ?m_pGetParameter@UnDecorator@@0P6APEADJ@ZEA 0000000180028978     libvcruntime:undname.obj
 0003:00001980       ?m_CHPENameOffset@UnDecorator@@0KA 0000000180028980     libvcruntime:undname.obj
 0003:00001984       ?m_recursionLevel@UnDecorator@@0KA 0000000180028984     libvcruntime:undname.obj
 0003:000019f0       _nstream                   00000001800289f0     libucrt:_file.obj
 0003:000019f8       __piob                     00000001800289f8     libucrt:_file.obj
 0003:00001a08       __acrt_lconv_static_null   0000000180028a08     libucrt:localeconv.obj
 0003:00001a0c       __acrt_lconv_static_W_null 0000000180028a0c     libucrt:localeconv.obj
 0003:00001c60       ?c_exit_complete@?1???R<lambda_6e4b09c48022b2350581041d5f6b0c4c>@@QEBA@XZ@4_NA 0000000180028c60     libucrt:exit.obj
 0003:00001d78       _environ_table             0000000180028d78     libucrt:environment_initialization.obj
 0003:00001d80       _wenviron_table            0000000180028d80     libucrt:environment_initialization.obj
 0003:00001d88       __dcrt_initial_wide_environment 0000000180028d88     libucrt:environment_initialization.obj
 0003:00001d90       __dcrt_initial_narrow_environment 0000000180028d90     libucrt:environment_initialization.obj
 0003:00001d98       __acrt_atexit_table        0000000180028d98     libucrt:onexit.obj
 0003:00001db0       __acrt_at_quick_exit_table 0000000180028db0     libucrt:onexit.obj
 0003:00001dd0       __acrt_stdout_buffer       0000000180028dd0     libucrt:_sftbuf.obj
 0003:00001dd8       __acrt_stderr_buffer       0000000180028dd8     libucrt:_sftbuf.obj
 0003:00001de0       __acrt_locale_changed_data 0000000180028de0     libucrt:wsetlocale.obj
 0003:00001de8       __acrt_current_locale_data 0000000180028de8     libucrt:nlsdata.obj
 0003:00001df0       __pioinfo                  0000000180028df0     libucrt:ioinit.obj
 0003:000021f0       _nhandle                   00000001800291f0     libucrt:ioinit.obj
 0003:000023b4       __fma3_is_available        00000001800293b4     libucrt:fma3_available.obj
 0003:000023b8       __use_fma3_lib             00000001800293b8     libucrt:fma3_available.obj
 0003:000023e0       ?_timezone@@3V?$dual_state_global@J@__crt_state_management@@A 00000001800293e0     libucrt:timeset.obj
 0003:000023e4       ?_daylight@@3V?$dual_state_global@H@__crt_state_management@@A 00000001800293e4     libucrt:timeset.obj
 0003:000023e8       ?_dstbias@@3V?$dual_state_global@J@__crt_state_management@@A 00000001800293e8     libucrt:timeset.obj
 0003:000024c0       _mbctype                   00000001800294c0     libucrt:mbctype.obj
 0003:000024c8       _mbcasemap                 00000001800294c8     libucrt:mbctype.obj
 0003:000024d0       __acrt_current_multibyte_data 00000001800294d0     libucrt:mbctype.obj
 0003:000024e0       _pgmptr                    00000001800294e0     libucrt:argv_data.obj
 0003:000024e8       __argc                     00000001800294e8     libucrt:argv_data.obj
 0003:000024f0       __argv                     00000001800294f0     libucrt:argv_data.obj
 0003:000024f8       __wargv                    00000001800294f8     libucrt:argv_data.obj
 0003:00002500       _acmdln                    0000000180029500     libucrt:argv_data.obj
 0003:00002508       _wcmdln                    0000000180029508     libucrt:argv_data.obj
 0003:00002510       __acrt_heap                0000000180029510     libucrt:heap_handle.obj
 0003:00002524       _fmode                     0000000180029524     libucrt:txtmode.obj
 0003:00002530       ?_OptionsStorage@?1??__local_stdio_printf_options@@9@4_KA 0000000180029530     format.obj
 0003:00002538       ?_OptionsStorage@?1??__local_stdio_scanf_options@@9@4_KA 0000000180029538     imgui.obj
 0003:00002540       ?EmptyString@ImGuiTextBuffer@@2PADA 0000000180029540     imgui.obj
 0003:00002550       ?GImGui@@3PEAUImGuiContext@@EA 0000000180029550     imgui.obj
 0003:00002558       ?FontArrowGlyphs@TreeView@ImGui@@1PAY04DA 0000000180029558     imguivariouscontrols.obj
 0003:00002568       ?FontCheckBoxGlyphs@TreeView@ImGui@@1PAY04DA 0000000180029568     imguivariouscontrols.obj
 0003:00002588       ?ContextMenuData@MyTreeViewHelperStruct@ImGui@@2UContextMenuDataStruct@12@A 0000000180029588     imguivariouscontrols.obj
 0003:000025a0       ?NameEditing@MyTreeViewHelperStruct@ImGui@@2UNameEditingStruct@12@A 00000001800295a0     imguivariouscontrols.obj
 0003:000026c0       ?_globalCvarManager@@3V?$shared_ptr@VCVarManagerWrapper@@@std@@A 00000001800296c0     SixMansPlugin-Rework.obj
 0003:000026d0       __@@_PchSym_@00@UfhvihUgboviUwlxfnvmghUxQQLivklhUhrcnzmhkoftrmRivdlipUyfrowUOrmgvinvwrzgvhUivovzhvUkxsOlyq@4B2008FD98C1DD4 00000001800296d0     pch.obj
 0003:000026d8       ?id@?$numpunct@_W@std@@2V0locale@2@A 00000001800296d8     format.obj
 0003:000026e0       ?id@?$numpunct@D@std@@2V0locale@2@A 00000001800296e0     format.obj
 0003:000026e8       __dyn_tls_init_callback    00000001800296e8     <common>
 0003:000026f0       __scrt_ucrt_dll_is_in_use  00000001800296f0     <common>

 entry point at        0001:000013c4

 Static symbols

 0000:fffd1000       .debug$S                   0000000180000000     SixMansPlugin-Rework.exp
 0000:fffd1000       .debug$S                   0000000180000000     d3dcompiler:D3DCOMPILER_47.dll
 0002:fffec000       .idata$6                   0000000180000000     d3dcompiler:D3DCOMPILER_47.dll
 0000:fffd1000       .debug$S                   0000000180000000     imm32:IMM32.dll
 0000:fffd1000       .debug$S                   0000000180000000     imm32:IMM32.dll
 0000:fffd1000       .debug$S                   0000000180000000     imm32:IMM32.dll
 0002:fffec000       .idata$6                   0000000180000000     imm32:IMM32.dll
 0000:fffd1000       .debug$S                   0000000180000000     kernel32:KERNEL32.dll
 0000:fffd1000       .debug$S                   0000000180000000     kernel32:KERNEL32.dll
 0000:fffd1000       .debug$S                   0000000180000000     kernel32:KERNEL32.dll
 0000:fffd1000       .debug$S                   0000000180000000     kernel32:KERNEL32.dll
 0000:fffd1000       .debug$S                   0000000180000000     kernel32:KERNEL32.dll
 0000:fffd1000       .debug$S                   0000000180000000     kernel32:KERNEL32.dll
 0000:fffd1000       .debug$S                   0000000180000000     kernel32:KERNEL32.dll
 0000:fffd1000       .debug$S                   0000000180000000     kernel32:KERNEL32.dll
 0000:fffd1000       .debug$S                   0000000180000000     kernel32:KERNEL32.dll
 0000:fffd1000       .debug$S                   0000000180000000     kernel32:KERNEL32.dll
 0000:fffd1000       .debug$S                   0000000180000000     kernel32:KERNEL32.dll
 0000:fffd1000       .debug$S                   0000000180000000     kernel32:KERNEL32.dll
 0000:fffd1000       .debug$S                   0000000180000000     kernel32:KERNEL32.dll
 0000:fffd1000       .debug$S                   0000000180000000     kernel32:KERNEL32.dll
 0000:fffd1000       .debug$S                   0000000180000000     kernel32:KERNEL32.dll
 0000:fffd1000       .debug$S                   0000000180000000     kernel32:KERNEL32.dll
 0000:fffd1000       .debug$S                   0000000180000000     kernel32:KERNEL32.dll
 0000:fffd1000       .debug$S                   0000000180000000     kernel32:KERNEL32.dll
 0000:fffd1000       .debug$S                   0000000180000000     kernel32:KERNEL32.dll
 0000:fffd1000       .debug$S                   0000000180000000     kernel32:KERNEL32.dll
 0000:fffd1000       .debug$S                   0000000180000000     kernel32:KERNEL32.dll
 0000:fffd1000       .debug$S                   0000000180000000     kernel32:KERNEL32.dll
 0000:fffd1000       .debug$S                   0000000180000000     kernel32:KERNEL32.dll
 0000:fffd1000       .debug$S                   0000000180000000     kernel32:KERNEL32.dll
 0000:fffd1000       .debug$S                   0000000180000000     kernel32:KERNEL32.dll
 0000:fffd1000       .debug$S                   0000000180000000     kernel32:KERNEL32.dll
 0000:fffd1000       .debug$S                   0000000180000000     kernel32:KERNEL32.dll
 0000:fffd1000       .debug$S                   0000000180000000     kernel32:KERNEL32.dll
 0000:fffd1000       .debug$S                   0000000180000000     kernel32:KERNEL32.dll
 0000:fffd1000       .debug$S                   0000000180000000     kernel32:KERNEL32.dll
 0000:fffd1000       .debug$S                   0000000180000000     kernel32:KERNEL32.dll
 0000:fffd1000       .debug$S                   0000000180000000     kernel32:KERNEL32.dll
 0000:fffd1000       .debug$S                   0000000180000000     kernel32:KERNEL32.dll
 0000:fffd1000       .debug$S                   0000000180000000     kernel32:KERNEL32.dll
 0000:fffd1000       .debug$S                   0000000180000000     kernel32:KERNEL32.dll
 0000:fffd1000       .debug$S                   0000000180000000     kernel32:KERNEL32.dll
 0000:fffd1000       .debug$S                   0000000180000000     kernel32:KERNEL32.dll
 0000:fffd1000       .debug$S                   0000000180000000     kernel32:KERNEL32.dll
 0000:fffd1000       .debug$S                   0000000180000000     kernel32:KERNEL32.dll
 0000:fffd1000       .debug$S                   0000000180000000     kernel32:KERNEL32.dll
 0000:fffd1000       .debug$S                   0000000180000000     kernel32:KERNEL32.dll
 0000:fffd1000       .debug$S                   0000000180000000     kernel32:KERNEL32.dll
 0000:fffd1000       .debug$S                   0000000180000000     kernel32:KERNEL32.dll
 0000:fffd1000       .debug$S                   0000000180000000     kernel32:KERNEL32.dll
 0000:fffd1000       .debug$S                   0000000180000000     kernel32:KERNEL32.dll
 0000:fffd1000       .debug$S                   0000000180000000     kernel32:KERNEL32.dll
 0000:fffd1000       .debug$S                   0000000180000000     kernel32:KERNEL32.dll
 0000:fffd1000       .debug$S                   0000000180000000     kernel32:KERNEL32.dll
 0000:fffd1000       .debug$S                   0000000180000000     kernel32:KERNEL32.dll
 0000:fffd1000       .debug$S                   0000000180000000     kernel32:KERNEL32.dll
 0000:fffd1000       .debug$S                   0000000180000000     kernel32:KERNEL32.dll
 0000:fffd1000       .debug$S                   0000000180000000     kernel32:KERNEL32.dll
 0000:fffd1000       .debug$S                   0000000180000000     kernel32:KERNEL32.dll
 0000:fffd1000       .debug$S                   0000000180000000     kernel32:KERNEL32.dll
 0000:fffd1000       .debug$S                   0000000180000000     kernel32:KERNEL32.dll
 0000:fffd1000       .debug$S                   0000000180000000     kernel32:KERNEL32.dll
 0000:fffd1000       .debug$S                   0000000180000000     kernel32:KERNEL32.dll
 0000:fffd1000       .debug$S                   0000000180000000     kernel32:KERNEL32.dll
 0000:fffd1000       .debug$S                   0000000180000000     kernel32:KERNEL32.dll
 0000:fffd1000       .debug$S                   0000000180000000     kernel32:KERNEL32.dll
 0000:fffd1000       .debug$S                   0000000180000000     kernel32:KERNEL32.dll
 0000:fffd1000       .debug$S                   0000000180000000     kernel32:KERNEL32.dll
 0000:fffd1000       .debug$S                   0000000180000000     kernel32:KERNEL32.dll
 0000:fffd1000       .debug$S                   0000000180000000     kernel32:KERNEL32.dll
 0000:fffd1000       .debug$S                   0000000180000000     kernel32:KERNEL32.dll
 0000:fffd1000       .debug$S                   0000000180000000     kernel32:KERNEL32.dll
 0000:fffd1000       .debug$S                   0000000180000000     kernel32:KERNEL32.dll
 0000:fffd1000       .debug$S                   0000000180000000     kernel32:KERNEL32.dll
 0000:fffd1000       .debug$S                   0000000180000000     kernel32:KERNEL32.dll
 0000:fffd1000       .debug$S                   0000000180000000     kernel32:KERNEL32.dll
 0000:fffd1000       .debug$S                   0000000180000000     kernel32:KERNEL32.dll
 0000:fffd1000       .debug$S                   0000000180000000     kernel32:KERNEL32.dll
 0000:fffd1000       .debug$S                   0000000180000000     kernel32:KERNEL32.dll
 0000:fffd1000       .debug$S                   0000000180000000     kernel32:KERNEL32.dll
 0000:fffd1000       .debug$S                   0000000180000000     kernel32:KERNEL32.dll
 0000:fffd1000       .debug$S                   0000000180000000     kernel32:KERNEL32.dll
 0000:fffd1000       .debug$S                   0000000180000000     kernel32:KERNEL32.dll
 0000:fffd1000       .debug$S                   0000000180000000     kernel32:KERNEL32.dll
 0000:fffd1000       .debug$S                   0000000180000000     kernel32:KERNEL32.dll
 0000:fffd1000       .debug$S                   0000000180000000     kernel32:KERNEL32.dll
 0000:fffd1000       .debug$S                   0000000180000000     kernel32:KERNEL32.dll
 0000:fffd1000       .debug$S                   0000000180000000     kernel32:KERNEL32.dll
 0000:fffd1000       .debug$S                   0000000180000000     kernel32:KERNEL32.dll
 0000:fffd1000       .debug$S                   0000000180000000     kernel32:KERNEL32.dll
 0000:fffd1000       .debug$S                   0000000180000000     kernel32:KERNEL32.dll
 0000:fffd1000       .debug$S                   0000000180000000     kernel32:KERNEL32.dll
 0000:fffd1000       .debug$S                   0000000180000000     kernel32:KERNEL32.dll
 0000:fffd1000       .debug$S                   0000000180000000     kernel32:KERNEL32.dll
 0000:fffd1000       .debug$S                   0000000180000000     kernel32:KERNEL32.dll
 0000:fffd1000       .debug$S                   0000000180000000     kernel32:KERNEL32.dll
 0000:fffd1000       .debug$S                   0000000180000000     kernel32:KERNEL32.dll
 0000:fffd1000       .debug$S                   0000000180000000     kernel32:KERNEL32.dll
 0000:fffd1000       .debug$S                   0000000180000000     kernel32:KERNEL32.dll
 0000:fffd1000       .debug$S                   0000000180000000     kernel32:KERNEL32.dll
 0000:fffd1000       .debug$S                   0000000180000000     kernel32:KERNEL32.dll
 0000:fffd1000       .debug$S                   0000000180000000     kernel32:KERNEL32.dll
 0000:fffd1000       .debug$S                   0000000180000000     kernel32:KERNEL32.dll
 0000:fffd1000       .debug$S                   0000000180000000     kernel32:KERNEL32.dll
 0000:fffd1000       .debug$S                   0000000180000000     kernel32:KERNEL32.dll
 0000:fffd1000       .debug$S                   0000000180000000     kernel32:KERNEL32.dll
 0000:fffd1000       .debug$S                   0000000180000000     kernel32:KERNEL32.dll
 0000:fffd1000       .debug$S                   0000000180000000     kernel32:KERNEL32.dll
 0000:fffd1000       .debug$S                   0000000180000000     kernel32:KERNEL32.dll
 0000:fffd1000       .debug$S                   0000000180000000     kernel32:KERNEL32.dll
 0000:fffd1000       .debug$S                   0000000180000000     kernel32:KERNEL32.dll
 0000:fffd1000       .debug$S                   0000000180000000     kernel32:KERNEL32.dll
 0000:fffd1000       .debug$S                   0000000180000000     kernel32:KERNEL32.dll
 0000:fffd1000       .debug$S                   0000000180000000     user32:USER32.dll
 0000:fffd1000       .debug$S                   0000000180000000     user32:USER32.dll
 0000:fffd1000       .debug$S                   0000000180000000     user32:USER32.dll
 0000:fffd1000       .debug$S                   0000000180000000     user32:USER32.dll
 0000:fffd1000       .debug$S                   0000000180000000     user32:USER32.dll
 0000:fffd1000       .debug$S                   0000000180000000     user32:USER32.dll
 0000:fffd1000       .debug$S                   0000000180000000     user32:USER32.dll
 0000:fffd1000       .debug$S                   0000000180000000     user32:USER32.dll
 0000:fffd1000       .debug$S                   0000000180000000     user32:USER32.dll
 0000:fffd1000       .debug$S                   0000000180000000     user32:USER32.dll
 0000:fffd1000       .debug$S                   0000000180000000     user32:USER32.dll
 0000:fffd1000       .debug$S                   0000000180000000     user32:USER32.dll
 0000:fffd1000       .debug$S                   0000000180000000     user32:USER32.dll
 0000:fffd1000       .debug$S                   0000000180000000     user32:USER32.dll
 0000:fffd1000       .debug$S                   0000000180000000     user32:USER32.dll
 0000:fffd1000       .debug$S                   0000000180000000     user32:USER32.dll
 0000:fffd1000       .debug$S                   0000000180000000     user32:USER32.dll
 0000:fffd1000       .debug$S                   0000000180000000     user32:USER32.dll
 0002:fffec000       .idata$6                   0000000180000000     user32:USER32.dll
 0001:00000000       ??__Fsingleton@@YAXXZ      0000000180001000 f   SixMansPlugin-Rework.obj
 0001:00000010       ??__F_globalCvarManager@@YAXXZ 0000000180001010 f   SixMansPlugin-Rework.obj
 0001:0000001c       ??__Eclassic_locale@std@@YAXXZ 000000018000101c f   libcpmt:locale0.obj
 0001:00000028       ??__F_Fac_tidy_reg@std@@YAXXZ 0000000180001028 f   libcpmt:locale0.obj
 0001:00000034       ??__Einitlocks@std@@YAXXZ  0000000180001034 f   libcpmt:xlock.obj
 0001:00000054       ??__Einitlocks@std@@YAXXZ  0000000180001054 f   libcpmt:iosptrs.obj
 0001:00000074       ??__Finit_atexit@@YAXXZ    0000000180001074 f   libcpmt:iosptrs.obj
 0001:00000210       ?MallocWrapper@@YAPEAX_KPEAX@Z 0000000180001210 f   imgui.obj
 0001:00000220       ?FreeWrapper@@YAXPEAX0@Z   0000000180001220 f   imgui.obj
 0001:000008f0       $$000000                   00000001800018f0     LIBCMT:amdsecgs.obj
 0001:00000990       ?__scrt_initialize_thread_safe_statics@@YAHXZ 0000000180001990 f   LIBCMT:thread_safe_statics.obj
 0001:00000a60       ?__scrt_uninitialize_thread_safe_statics@@YAXXZ 0000000180001a60 f   LIBCMT:thread_safe_statics.obj
 0001:00000fc0       capture_current_context    0000000180001fc0 f   LIBCMT:gs_report.obj
 0001:00001030       capture_previous_context   0000000180002030 f   LIBCMT:gs_report.obj
 0001:000010a4       ?dllmain_crt_dispatch@@YAHQEAUHINSTANCE__@@KQEAX@Z 00000001800020a4 f   LIBCMT:dll_dllmain.obj
 0001:000010f4       ?dllmain_crt_process_attach@@YAHQEAUHINSTANCE__@@QEAX@Z 00000001800020f4 f   LIBCMT:dll_dllmain.obj
 0001:0000120c       ?dllmain_crt_process_detach@@YAH_N@Z 000000018000220c f   LIBCMT:dll_dllmain.obj
 0001:00001290       ?dllmain_dispatch@@YAHQEAUHINSTANCE__@@KQEAX@Z 0000000180002290 f   LIBCMT:dll_dllmain.obj
 0001:00001480       $$000000                   0000000180002480     LIBCMT:chkstk.obj
 0001:00002410       $$000000                   0000000180003410     libvcruntime:memcpy.obj
 0001:00002ac0       $$000000                   0000000180003ac0     libvcruntime:memchr.obj
 0001:00002b40       $$000000                   0000000180003b40     libvcruntime:memset.obj
 0001:00002f00       $$000000                   0000000180003f00     libvcruntime:memcmp.obj
 0001:00003550       ??$BuildCatchObjectHelperInternal@V__FrameHandler4@@@@YAHPEAUEHExceptionRecord@@PEAXPEAUHandlerType4@FH4@@PEBU_s_CatchableType@@@Z 0000000180004550 f   libvcruntime:frame.obj
 0001:00003754       ??$BuildCatchObjectInternal@V__FrameHandler4@@@@YAXPEAUEHExceptionRecord@@PEAXPEAUHandlerType4@FH4@@PEBU_s_CatchableType@@@Z 0000000180004754 f   libvcruntime:frame.obj
 0001:00003818       ??$CatchIt@V__FrameHandler4@@@@YAXPEAUEHExceptionRecord@@PEA_KPEAU_CONTEXT@@PEAU_xDISPATCHER_CONTEXT@@PEAUFuncInfo4@FH4@@PEAUHandlerType4@4@PEBU_s_CatchableType@@PEAUTryBlockMapEntry4@4@H1EE@Z 0000000180004818 f   libvcruntime:frame.obj
 0001:000038ec       ??$FindHandler@V__FrameHandler4@@@@YAXPEAUEHExceptionRecord@@PEA_KPEAU_CONTEXT@@PEAU_xDISPATCHER_CONTEXT@@PEAUFuncInfo4@FH4@@EH1@Z 00000001800048ec f   libvcruntime:frame.obj
 0001:00003de8       ??$FindHandlerForForeignException@V__FrameHandler4@@@@YAXPEAUEHExceptionRecord@@PEA_KPEAU_CONTEXT@@PEAU_xDISPATCHER_CONTEXT@@PEAUFuncInfo4@FH4@@HH1@Z 0000000180004de8 f   libvcruntime:frame.obj
 0001:00004b84       ?ExFilterRethrow@@YAHPEAU_EXCEPTION_POINTERS@@PEAUEHExceptionRecord@@PEAH@Z 0000000180005b84 f   libvcruntime:frame.obj
 0001:00004c0c       ?ExFilterRethrowFH4@@YAHPEAU_EXCEPTION_POINTERS@@PEAUEHExceptionRecord@@HPEAH@Z 0000000180005c0c f   libvcruntime:frame.obj
 0001:00004f38       ?IsInExceptionSpec@@YAEPEAUEHExceptionRecord@@PEBU_s_ESTypeList@@@Z 0000000180005f38 f   libvcruntime:frame.obj
 0001:00005028       ?Is_bad_exception_allowed@@YAEPEBU_s_ESTypeList@@@Z 0000000180006028 f   libvcruntime:frame.obj
 0001:00005310       $$000000                   0000000180006310     libvcruntime:notify.obj
 0001:0000540c       ?try_get_function@@YAPEAXW4function_id@?A0x5d44c8f9@@QEBDQEBW4module_id@2@2@Z 000000018000640c f   libvcruntime:winapi_downlevel.obj
 0001:000056f0       $$000000                   00000001800066f0     libvcruntime:handlers.obj
 0001:000063c4       ??$?RV<lambda_751a882b2c74d4b022dec766aa51a29a>@@AEAV<lambda_628dfdc04ba53c8bfc02c9951375f3f5>@@V<lambda_f6c7be5f7998530c34de24c7437d6b54>@@@?$__crt_seh_guarded_call@H@@QEAAH$$QEAV<lambda_751a882b2c74d4b022dec766aa51a29a>@@AEAV<lambda_628dfdc04ba53c8bfc02c9951375f3f5>@@$$QEAV<lambda_f6c7be5f7998530c34de24c7437d6b54>@@@Z 00000001800073c4 f   libucrt:close.obj
 0001:0000659c       ?write_double_translated_ansi_nolock@@YA?AUwrite_result@?A0x17268360@@HQEBDI@Z 000000018000759c f   libucrt:write.obj
 0001:00006a88       ?write_text_ansi_nolock@@YA?AUwrite_result@?A0x17268360@@HQEBDI@Z 0000000180007a88 f   libucrt:write.obj
 0001:00006b8c       ?write_text_utf16le_nolock@@YA?AUwrite_result@?A0x17268360@@HQEBDI@Z 0000000180007b8c f   libucrt:write.obj
 0001:00006ca8       ?write_text_utf8_nolock@@YA?AUwrite_result@?A0x17268360@@HQEBDI@Z 0000000180007ca8 f   libucrt:write.obj
 0001:000071f0       $$000000                   00000001800081f0     libucrt:strncpy.obj
 0001:00007710       ??$?RV<lambda_842d9ff0dc9ef11c61343bbaebe7f885>@@AEAV<lambda_c5860995281e5c4ce005b3de8f5874ee>@@V<lambda_d90129c13df834fdcbf8d2b88dafcf2d>@@@?$__crt_seh_guarded_call@X@@QEAAX$$QEAV<lambda_842d9ff0dc9ef11c61343bbaebe7f885>@@AEAV<lambda_c5860995281e5c4ce005b3de8f5874ee>@@$$QEAV<lambda_d90129c13df834fdcbf8d2b88dafcf2d>@@@Z 0000000180008710 f   libucrt:fflush.obj
 0001:000077ac       ??$?RV<lambda_886d6c58226a84441f68b9f2b8217b83>@@AEAV<lambda_ab61a845afdef5b7c387490eaf3616ee>@@V<lambda_f7f22ab5edc0698d5f6905b0d3f44752>@@@?$__crt_seh_guarded_call@X@@QEAAX$$QEAV<lambda_886d6c58226a84441f68b9f2b8217b83>@@AEAV<lambda_ab61a845afdef5b7c387490eaf3616ee>@@$$QEAV<lambda_f7f22ab5edc0698d5f6905b0d3f44752>@@@Z 00000001800087ac f   libucrt:fflush.obj
 0001:0000788c       ?common_flush_all@@YAH_N@Z 000000018000888c f   libucrt:fflush.obj
 0001:000079c0       $$000000                   00000001800089c0     libucrt:strncmp.obj
 0001:00007b40       $$000000                   0000000180008b40     libucrt:pow.obj
 0001:000091e0       $$000000                   000000018000a1e0     libucrt:powf.obj
 0001:0000a430       ??$?RV<lambda_d80eeec6fff315bfe5c115232f3240e3>@@AEAV<lambda_6e4b09c48022b2350581041d5f6b0c4c>@@V<lambda_2358e3775559c9db80273638284d5e45>@@@?$__crt_seh_guarded_call@X@@QEAAX$$QEAV<lambda_d80eeec6fff315bfe5c115232f3240e3>@@AEAV<lambda_6e4b09c48022b2350581041d5f6b0c4c>@@$$QEAV<lambda_2358e3775559c9db80273638284d5e45>@@@Z 000000018000b430 f   libucrt:exit.obj
 0001:0000a468       ??R<lambda_6e4b09c48022b2350581041d5f6b0c4c>@@QEBA@XZ 000000018000b468 f   libucrt:exit.obj
 0001:0000a52c       ?atexit_exception_filter@@YAHK@Z 000000018000b52c f   libucrt:exit.obj
 0001:0000a538       ?common_exit@@YAXHW4_crt_exit_cleanup_mode@@W4_crt_exit_return_mode@@@Z 000000018000b538 f   libucrt:exit.obj
 0001:0000a5f4       ?exit_or_terminate_process@@YAXI@Z 000000018000b5f4 f   libucrt:exit.obj
 0001:0000a640       ?try_cor_exit_process@@YAXI@Z 000000018000b640 f   libucrt:exit.obj
 0001:0000a6c8       ??$parse_command_line@D@@YAXPEADPEAPEAD0PEA_K2@Z 000000018000b6c8 f   libucrt:argv_parsing.obj
 0001:0000aa70       ??$common_initialize_environment_nolock@D@@YAHXZ 000000018000ba70 f   libucrt:environment_initialization.obj
 0001:0000aadc       ??$create_environment@D@@YAQEAPEADQEAD@Z 000000018000badc f   libucrt:environment_initialization.obj
 0001:0000abe4       ??$free_environment@D@@YAXQEAPEAD@Z 000000018000bbe4 f   libucrt:environment_initialization.obj
 0001:0000abe4       ??$free_environment@_W@@YAXQEAPEA_W@Z 000000018000bbe4 f   libucrt:environment_initialization.obj
 0001:0000ac28       ??$uninitialize_environment_internal@D@@YAXAEAPEAPEAD@Z 000000018000bc28 f   libucrt:environment_initialization.obj
 0001:0000ac44       ??$uninitialize_environment_internal@_W@@YAXAEAPEAPEA_W@Z 000000018000bc44 f   libucrt:environment_initialization.obj
 0001:0000aca0       ??$?RV<lambda_638799b9deba96c50f710eeac98168cd>@@AEAV<lambda_22ebabd17bc4fa466a2aca6d8deb888d>@@V<lambda_a6f7d7db0129f75315ebf26d50c089f1>@@@?$__crt_seh_guarded_call@H@@QEAAH$$QEAV<lambda_638799b9deba96c50f710eeac98168cd>@@AEAV<lambda_22ebabd17bc4fa466a2aca6d8deb888d>@@$$QEAV<lambda_a6f7d7db0129f75315ebf26d50c089f1>@@@Z 000000018000bca0 f   libucrt:onexit.obj
 0001:0000acdc       ??$?RV<lambda_7777bce6b2f8c936911f934f8298dc43>@@AEAV<lambda_f03950bc5685219e0bcd2087efbe011e>@@V<lambda_3883c3dff614d5e0c5f61bb1ac94921c>@@@?$__crt_seh_guarded_call@H@@QEAAH$$QEAV<lambda_7777bce6b2f8c936911f934f8298dc43>@@AEAV<lambda_f03950bc5685219e0bcd2087efbe011e>@@$$QEAV<lambda_3883c3dff614d5e0c5f61bb1ac94921c>@@@Z 000000018000bcdc f   libucrt:onexit.obj
 0001:0000ad18       ??R<lambda_22ebabd17bc4fa466a2aca6d8deb888d>@@QEBAHXZ 000000018000bd18 f   libucrt:onexit.obj
 0001:0000aec8       ??R<lambda_f03950bc5685219e0bcd2087efbe011e>@@QEBAHXZ 000000018000bec8 f   libucrt:onexit.obj
 0001:0000b09c       initialize_global_variables 000000018000c09c f   libucrt:initialization.obj
 0001:0000b0b0       initialize_c               000000018000c0b0 f   libucrt:initialization.obj
 0001:0000b0d4       initialize_environment     000000018000c0d4 f   libucrt:initialization.obj
 0001:0000b0d4       initialize_global_state_isolation 000000018000c0d4 f   libucrt:initialization.obj
 0001:0000b0d4       report_memory_leaks        000000018000c0d4 f   libucrt:initialization.obj
 0001:0000b0d4       uninitialize_c             000000018000c0d4 f   libucrt:initialization.obj
 0001:0000b0d4       uninitialize_global_state_isolation 000000018000c0d4 f   libucrt:initialization.obj
 0001:0000b0d8       uninitialize_environment   000000018000c0d8 f   libucrt:initialization.obj
 0001:0000b0e8       initialize_pointers        000000018000c0e8 f   libucrt:initialization.obj
 0001:0000b128       uninitialize_vcruntime     000000018000c128 f   libucrt:initialization.obj
 0001:0000b130       uninitialize_allocated_memory 000000018000c130 f   libucrt:initialization.obj
 0001:0000b170       uninitialize_allocated_io_buffers 000000018000c170 f   libucrt:initialization.obj
 0001:0000b5a4       ??$?RV<lambda_0ae27a3a962d80f24befdcbee591983d>@@AEAV<lambda_8d0ee55de4b1038c4002e0adecdf1839>@@V<lambda_dc504788e8f1664fe9b84e20bfb512f2>@@@?$__crt_seh_guarded_call@X@@QEAAX$$QEAV<lambda_0ae27a3a962d80f24befdcbee591983d>@@AEAV<lambda_8d0ee55de4b1038c4002e0adecdf1839>@@$$QEAV<lambda_dc504788e8f1664fe9b84e20bfb512f2>@@@Z 000000018000c5a4 f   libucrt:per_thread_data.obj
 0001:0000b5e4       ??$?RV<lambda_2d41944a1d46af3157314b8a01080d33>@@AEAV<lambda_8f455de75cd7d7f24b4096f044d8b9e6>@@V<lambda_aa500f224e6afead328df44964fe2772>@@@?$__crt_seh_guarded_call@X@@QEAAX$$QEAV<lambda_2d41944a1d46af3157314b8a01080d33>@@AEAV<lambda_8f455de75cd7d7f24b4096f044d8b9e6>@@$$QEAV<lambda_aa500f224e6afead328df44964fe2772>@@@Z 000000018000c5e4 f   libucrt:per_thread_data.obj
 0001:0000b624       ??$?RV<lambda_aa87e3671a710a21b5dc78c0bdf72e11>@@AEAV<lambda_92619d2358a28f41a33ba319515a20b9>@@V<lambda_6992ecaafeb10aed2b74cb1fae11a551>@@@?$__crt_seh_guarded_call@X@@QEAAX$$QEAV<lambda_aa87e3671a710a21b5dc78c0bdf72e11>@@AEAV<lambda_92619d2358a28f41a33ba319515a20b9>@@$$QEAV<lambda_6992ecaafeb10aed2b74cb1fae11a551>@@@Z 000000018000c624 f   libucrt:per_thread_data.obj
 0001:0000b66c       ??$?RV<lambda_f2e299630e499de9f9a165e60fcd3db5>@@AEAV<lambda_2ae9d31cdba2644fcbeaf08da7c24588>@@V<lambda_40d01ff24d0e7b3814fdbdcee8eab3c7>@@@?$__crt_seh_guarded_call@X@@QEAAX$$QEAV<lambda_f2e299630e499de9f9a165e60fcd3db5>@@AEAV<lambda_2ae9d31cdba2644fcbeaf08da7c24588>@@$$QEAV<lambda_40d01ff24d0e7b3814fdbdcee8eab3c7>@@@Z 000000018000c66c f   libucrt:per_thread_data.obj
 0001:0000b6cc       ?construct_ptd_array@@YAXQEAU__acrt_ptd@@@Z 000000018000c6cc f   libucrt:per_thread_data.obj
 0001:0000b79c       ?destroy_fls@@YAXPEAX@Z    000000018000c79c f   libucrt:per_thread_data.obj
 0001:0000b7bc       ?destroy_ptd_array@@YAXQEAU__acrt_ptd@@@Z 000000018000c7bc f   libucrt:per_thread_data.obj
 0001:0000b8b4       ?replace_current_thread_locale_nolock@@YAXQEAU__acrt_ptd@@QEAU__crt_locale_data@@@Z 000000018000c8b4 f   libucrt:per_thread_data.obj
 0001:0000bc70       ??$?RV<lambda_410d79af7f07d98d83a3f525b3859a53>@@AEAV<lambda_3e16ef9562a7dcce91392c22ab16ea36>@@V<lambda_38119f0e861e05405d8a144b9b982f0a>@@@?$__crt_seh_guarded_call@X@@QEAAX$$QEAV<lambda_410d79af7f07d98d83a3f525b3859a53>@@AEAV<lambda_3e16ef9562a7dcce91392c22ab16ea36>@@$$QEAV<lambda_38119f0e861e05405d8a144b9b982f0a>@@@Z 000000018000cc70 f   libucrt:wsetlocale.obj
 0001:0000bd1c       ?initialize_inherited_file_handles_nolock@@YAXXZ 000000018000cd1c f   libucrt:ioinit.obj
 0001:0000be0c       ?initialize_stdio_handles_nolock@@YAXXZ 000000018000ce0c f   libucrt:ioinit.obj
 0001:0000c00c       ?try_get_function@@YAPEAXW4function_id@?A0x391cf84c@@QEBDQEBW4module_id@2@2@Z 000000018000d00c f   libucrt:winapi_thunks.obj
 0001:0000c7ec       ??$common_lseek_nolock@_J@@YA_JH_JH@Z 000000018000d7ec f   libucrt:lseek.obj
 0001:0000cbc8       ?__acrt_LCMapStringA_stat@@YAHPEAU__crt_locale_pointers@@PEB_WKPEBDHPEADHHH@Z 000000018000dbc8 f   libucrt:lcmapstringa.obj
 0001:0000cf78       ??$?RV<lambda_a37b2b86f63e897a80ea819b0eb08c01>@@AEAV<lambda_38ce7e780aa69e748d6df282ebc68efe>@@V<lambda_99fb1378e971ab6e7edea83e3a7a83a2>@@@?$__crt_seh_guarded_call@H@@QEAAH$$QEAV<lambda_a37b2b86f63e897a80ea819b0eb08c01>@@AEAV<lambda_38ce7e780aa69e748d6df282ebc68efe>@@$$QEAV<lambda_99fb1378e971ab6e7edea83e3a7a83a2>@@@Z 000000018000df78 f   libucrt:commit.obj
 0001:0000da30       ??$?RV<lambda_450d765d439847d4c735a33c368b5fc0>@@AEAV<lambda_44731a7d0e6d81c3e6aa82d741081786>@@V<lambda_601a2a7da3b7a96e9554ac7215c4b07c>@@@?$__crt_seh_guarded_call@P6AXH@Z@@QEAAP6AXH@Z$$QEAV<lambda_450d765d439847d4c735a33c368b5fc0>@@AEAV<lambda_44731a7d0e6d81c3e6aa82d741081786>@@$$QEAV<lambda_601a2a7da3b7a96e9554ac7215c4b07c>@@@Z 000000018000ea30 f   libucrt:signal.obj
 0001:0000ddc0       ?<lambda_invoker_cdecl>@<lambda_a1ce4c8ae42411fd470c77163914f50e>@@CAHPEBX0@Z 000000018000edc0 f   libucrt:argv_wildcards.obj
 0001:0000df60       ??$common_expand_argv_wildcards@D@@YAHQEAPEADQEAPEAPEAD@Z 000000018000ef60 f   libucrt:argv_wildcards.obj
 0001:0000e16c       ??$copy_and_add_argument_to_buffer@D@@YAHQEBD0_KAEAV?$argument_list@D@?A0x5f5c8891@@@Z 000000018000f16c f   libucrt:argv_wildcards.obj
 0001:0000e2f4       ??$expand_argument_wildcards@D@@YAHQEAD0AEAV?$argument_list@D@?A0x5f5c8891@@@Z 000000018000f2f4 f   libucrt:argv_wildcards.obj
 0001:0000e72c       ??$?RV<lambda_efdfa57d1f175319df784efa44bb7b81>@@AEAV<lambda_5f0a4c1567f8adc6734073e5d1e1b35c>@@V<lambda_2e8a7d3640ea6ccb4c2413664c2db6fd>@@@?$__crt_seh_guarded_call@X@@QEAAX$$QEAV<lambda_efdfa57d1f175319df784efa44bb7b81>@@AEAV<lambda_5f0a4c1567f8adc6734073e5d1e1b35c>@@$$QEAV<lambda_2e8a7d3640ea6ccb4c2413664c2db6fd>@@@Z 000000018000f72c f   libucrt:mbctype.obj
 0001:0000e8e8       ?getSystemCP@@YAHH@Z       000000018000f8e8 f   libucrt:mbctype.obj
 0001:0000e968       ?setSBCS@@YAXPEAU__crt_multibyte_data@@@Z 000000018000f968 f   libucrt:mbctype.obj
 0001:0000e9f8       ?setSBUpLow@@YAXPEAU__crt_multibyte_data@@@Z 000000018000f9f8 f   libucrt:mbctype.obj
 0001:0000ebdc       ?setmbcp_internal@@YAHH_NQEAU__acrt_ptd@@QEAPEAU__crt_multibyte_data@@@Z 000000018000fbdc f   libucrt:mbctype.obj
 0001:0000ed9c       ?update_thread_multibyte_data_internal@@YAPEAU__crt_multibyte_data@@QEAU__acrt_ptd@@QEAPEAU1@@Z 000000018000fd9c f   libucrt:mbctype.obj
 0001:0000f18c       ?x_ismbbtype_l@@YAHPEAU__crt_locale_pointers@@IHH@Z 000000018001018c f   libucrt:ismbbyte.obj
 0001:0000faa4       ?free_crt_array_internal@@YAXQEAPEBX_K@Z 0000000180010aa4 f   libucrt:inittime.obj
 0001:0000ffe0       $$000000                   0000000180010fe0     libucrt:fpsr.obj
 0001:00010040       _call_matherr              0000000180011040 f   libucrt:libm_error.obj
 0001:000100a8       _exception_enabled         00000001800110a8 f   libucrt:libm_error.obj
 0001:000103ec       fallbackMethod             00000001800113ec f   libucrt:strpbrk.obj
 0001:0001079c       $LN78                      000000018001179c     libucrt:strpbrk.obj
 0001:000107d8       $LN77                      00000001800117d8     libucrt:strpbrk.obj
 0001:00010818       $LN76                      0000000180011818     libucrt:strpbrk.obj
 0001:000108f4       ?initialize_multibyte@@YAHXZ 00000001800118f4 f   libucrt:multibyte_initializer.obj
 0001:00010950       $$000000                   0000000180011950     libucrt:log10.obj
 0001:00010f20       _log_special_common        0000000180011f20 f   libucrt:log_special.obj
 0001:00011120       $$000000                   0000000180012120     libucrt:sinf.obj
 0001:00011820       $$000000                   0000000180012820     libucrt:remainder_piby2f_forc.obj
 0001:000119ac       _sincosf_special           00000001800129ac f   libucrt:sincos_special.obj
 0001:00011a50       $$000000                   0000000180012a50     LIBCMT:guard_dispatch.obj
 0001:00011a70       $$000000                   0000000180012a70     LIBCMT:guard_xfg_dispatch.obj
 0001:00011a90       __scrt_is_nonwritable_in_current_image$filt$0 0000000180012a90 f   LIBCMT:utility.obj
 0001:00011aa8       ?fin$0@?0??dllmain_crt_process_attach@@YAHQEAUHINSTANCE__@@QEAX@Z@4HA 0000000180012aa8 f   LIBCMT:dll_dllmain.obj
 0001:00011abf       ?fin$0@?0??dllmain_crt_process_detach@@YAH_N@Z@4HA 0000000180012abf f   LIBCMT:dll_dllmain.obj
 0001:00011ad8       ?fin$1@?0??dllmain_crt_process_detach@@YAH_N@Z@4HA 0000000180012ad8 f   LIBCMT:dll_dllmain.obj
 0001:00011aec       ?filt$0@?0??dllmain_dispatch@@YAHQEAUHINSTANCE__@@KQEAX@Z@4HA 0000000180012aec f   LIBCMT:dll_dllmain.obj
 0001:00011b22       ?filt$0@?0???$_CallSETranslator@V__FrameHandler4@@@@YAHPEAUEHExceptionRecord@@PEA_KPEAU_CONTEXT@@PEAU_xDISPATCHER_CONTEXT@@PEAUFuncInfo4@FH4@@K1H@Z@4HA 0000000180012b22 f   libvcruntime:risctrnsctrl.obj
 0001:00011bc1       __DestructExceptionObject$filt$0 0000000180012bc1 f   libvcruntime:ehhelpers.obj
 0001:00011c57       ?filt$0@?0??CxxCallCatchBlock@__FrameHandler4@@SAPEAXPEAU_EXCEPTION_RECORD@@@Z@4HA 0000000180012c57 f   libvcruntime:frame.obj
 0001:00011c86       ?fin$1@?0??CxxCallCatchBlock@__FrameHandler4@@SAPEAXPEAU_EXCEPTION_RECORD@@@Z@4HA 0000000180012c86 f   libvcruntime:frame.obj
 0001:00011d17       ?filt$0@?0??FrameUnwindToState@__FrameHandler4@@SAXPEA_KPEAU_xDISPATCHER_CONTEXT@@PEAUFuncInfo4@FH4@@H@Z@4HA 0000000180012d17 f   libvcruntime:frame.obj
 0001:00011d2d       ?fin$1@?0??FrameUnwindToState@__FrameHandler4@@SAXPEA_KPEAU_xDISPATCHER_CONTEXT@@PEAUFuncInfo4@FH4@@H@Z@4HA 0000000180012d2d f   libvcruntime:frame.obj
 0001:00011d50       __acrt_initialize_lowio$fin$0 0000000180012d50 f   libucrt:ioinit.obj
 0001:00011d50       __acrt_lowio_ensure_fh_exists$fin$0 0000000180012d50 f   libucrt:osfinfo.obj
 0001:00011d69       fclose$fin$0               0000000180012d69 f   libucrt:fclose.obj
 0001:00011d81       ?fin$0@?0???$?RV<lambda_751a882b2c74d4b022dec766aa51a29a>@@AEAV<lambda_628dfdc04ba53c8bfc02c9951375f3f5>@@V<lambda_f6c7be5f7998530c34de24c7437d6b54>@@@?$__crt_seh_guarded_call@H@@QEAAH$$QEAV<lambda_751a882b2c74d4b022dec766aa51a29a>@@AEAV<lambda_628dfdc04ba53c8bfc02c9951375f3f5>@@$$QEAV<lambda_f6c7be5f7998530c34de24c7437d6b54>@@@Z@4HA 0000000180012d81 f   libucrt:close.obj
 0001:00011d81       ?fin$0@?0???$?RV<lambda_a37b2b86f63e897a80ea819b0eb08c01>@@AEAV<lambda_38ce7e780aa69e748d6df282ebc68efe>@@V<lambda_99fb1378e971ab6e7edea83e3a7a83a2>@@@?$__crt_seh_guarded_call@H@@QEAAH$$QEAV<lambda_a37b2b86f63e897a80ea819b0eb08c01>@@AEAV<lambda_38ce7e780aa69e748d6df282ebc68efe>@@$$QEAV<lambda_99fb1378e971ab6e7edea83e3a7a83a2>@@@Z@4HA 0000000180012d81 f   libucrt:commit.obj
 0001:00011d9b       _write$fin$0               0000000180012d9b f   libucrt:write.obj
 0001:00011db2       ?fin$0@?0???$?RV<lambda_842d9ff0dc9ef11c61343bbaebe7f885>@@AEAV<lambda_c5860995281e5c4ce005b3de8f5874ee>@@V<lambda_d90129c13df834fdcbf8d2b88dafcf2d>@@@?$__crt_seh_guarded_call@X@@QEAAX$$QEAV<lambda_842d9ff0dc9ef11c61343bbaebe7f885>@@AEAV<lambda_c5860995281e5c4ce005b3de8f5874ee>@@$$QEAV<lambda_d90129c13df834fdcbf8d2b88dafcf2d>@@@Z@4HA 0000000180012db2 f   libucrt:fflush.obj
 0001:00011dcd       ?fin$0@?0???$?RV<lambda_886d6c58226a84441f68b9f2b8217b83>@@AEAV<lambda_ab61a845afdef5b7c387490eaf3616ee>@@V<lambda_f7f22ab5edc0698d5f6905b0d3f44752>@@@?$__crt_seh_guarded_call@X@@QEAAX$$QEAV<lambda_886d6c58226a84441f68b9f2b8217b83>@@AEAV<lambda_ab61a845afdef5b7c387490eaf3616ee>@@$$QEAV<lambda_f7f22ab5edc0698d5f6905b0d3f44752>@@@Z@4HA 0000000180012dcd f   libucrt:fflush.obj
 0001:00011dea       _query_new_handler$fin$0   0000000180012dea f   libucrt:new_handler.obj
 0001:00011e00       ?fin$0@?0???$?RV<lambda_0ae27a3a962d80f24befdcbee591983d>@@AEAV<lambda_8d0ee55de4b1038c4002e0adecdf1839>@@V<lambda_dc504788e8f1664fe9b84e20bfb512f2>@@@?$__crt_seh_guarded_call@X@@QEAAX$$QEAV<lambda_0ae27a3a962d80f24befdcbee591983d>@@AEAV<lambda_8d0ee55de4b1038c4002e0adecdf1839>@@$$QEAV<lambda_dc504788e8f1664fe9b84e20bfb512f2>@@@Z@4HA 0000000180012e00 f   libucrt:per_thread_data.obj
 0001:00011e00       ?fin$0@?0???$?RV<lambda_2d41944a1d46af3157314b8a01080d33>@@AEAV<lambda_8f455de75cd7d7f24b4096f044d8b9e6>@@V<lambda_aa500f224e6afead328df44964fe2772>@@@?$__crt_seh_guarded_call@X@@QEAAX$$QEAV<lambda_2d41944a1d46af3157314b8a01080d33>@@AEAV<lambda_8f455de75cd7d7f24b4096f044d8b9e6>@@$$QEAV<lambda_aa500f224e6afead328df44964fe2772>@@@Z@4HA 0000000180012e00 f   libucrt:per_thread_data.obj
 0001:00011e00       ?fin$0@?0???$?RV<lambda_aa87e3671a710a21b5dc78c0bdf72e11>@@AEAV<lambda_92619d2358a28f41a33ba319515a20b9>@@V<lambda_6992ecaafeb10aed2b74cb1fae11a551>@@@?$__crt_seh_guarded_call@X@@QEAAX$$QEAV<lambda_aa87e3671a710a21b5dc78c0bdf72e11>@@AEAV<lambda_92619d2358a28f41a33ba319515a20b9>@@$$QEAV<lambda_6992ecaafeb10aed2b74cb1fae11a551>@@@Z@4HA 0000000180012e00 f   libucrt:per_thread_data.obj
 0001:00011e00       ?fin$0@?0???$?RV<lambda_f2e299630e499de9f9a165e60fcd3db5>@@AEAV<lambda_2ae9d31cdba2644fcbeaf08da7c24588>@@V<lambda_40d01ff24d0e7b3814fdbdcee8eab3c7>@@@?$__crt_seh_guarded_call@X@@QEAAX$$QEAV<lambda_f2e299630e499de9f9a165e60fcd3db5>@@AEAV<lambda_2ae9d31cdba2644fcbeaf08da7c24588>@@$$QEAV<lambda_40d01ff24d0e7b3814fdbdcee8eab3c7>@@@Z@4HA 0000000180012e00 f   libucrt:per_thread_data.obj
 0001:00011e00       ?fin$0@?0???$?RV<lambda_efdfa57d1f175319df784efa44bb7b81>@@AEAV<lambda_5f0a4c1567f8adc6734073e5d1e1b35c>@@V<lambda_2e8a7d3640ea6ccb4c2413664c2db6fd>@@@?$__crt_seh_guarded_call@X@@QEAAX$$QEAV<lambda_efdfa57d1f175319df784efa44bb7b81>@@AEAV<lambda_5f0a4c1567f8adc6734073e5d1e1b35c>@@$$QEAV<lambda_2e8a7d3640ea6ccb4c2413664c2db6fd>@@@Z@4HA 0000000180012e00 f   libucrt:mbctype.obj
 0001:00011e00       ?fin$0@?0???$?RV<lambda_450d765d439847d4c735a33c368b5fc0>@@AEAV<lambda_44731a7d0e6d81c3e6aa82d741081786>@@V<lambda_601a2a7da3b7a96e9554ac7215c4b07c>@@@?$__crt_seh_guarded_call@P6AXH@Z@@QEAAP6AXH@Z$$QEAV<lambda_450d765d439847d4c735a33c368b5fc0>@@AEAV<lambda_44731a7d0e6d81c3e6aa82d741081786>@@$$QEAV<lambda_601a2a7da3b7a96e9554ac7215c4b07c>@@@Z@4HA 0000000180012e00 f   libucrt:signal.obj
 0001:00011e00       ?fin$0@?0???$?RV<lambda_d80eeec6fff315bfe5c115232f3240e3>@@AEAV<lambda_6e4b09c48022b2350581041d5f6b0c4c>@@V<lambda_2358e3775559c9db80273638284d5e45>@@@?$__crt_seh_guarded_call@X@@QEAAX$$QEAV<lambda_d80eeec6fff315bfe5c115232f3240e3>@@AEAV<lambda_6e4b09c48022b2350581041d5f6b0c4c>@@$$QEAV<lambda_2358e3775559c9db80273638284d5e45>@@@Z@4HA 0000000180012e00 f   libucrt:exit.obj
 0001:00011e00       ?fin$0@?0???$?RV<lambda_638799b9deba96c50f710eeac98168cd>@@AEAV<lambda_22ebabd17bc4fa466a2aca6d8deb888d>@@V<lambda_a6f7d7db0129f75315ebf26d50c089f1>@@@?$__crt_seh_guarded_call@H@@QEAAH$$QEAV<lambda_638799b9deba96c50f710eeac98168cd>@@AEAV<lambda_22ebabd17bc4fa466a2aca6d8deb888d>@@$$QEAV<lambda_a6f7d7db0129f75315ebf26d50c089f1>@@@Z@4HA 0000000180012e00 f   libucrt:onexit.obj
 0001:00011e00       ?fin$0@?0???$?RV<lambda_7777bce6b2f8c936911f934f8298dc43>@@AEAV<lambda_f03950bc5685219e0bcd2087efbe011e>@@V<lambda_3883c3dff614d5e0c5f61bb1ac94921c>@@@?$__crt_seh_guarded_call@H@@QEAAH$$QEAV<lambda_7777bce6b2f8c936911f934f8298dc43>@@AEAV<lambda_f03950bc5685219e0bcd2087efbe011e>@@$$QEAV<lambda_3883c3dff614d5e0c5f61bb1ac94921c>@@@Z@4HA 0000000180012e00 f   libucrt:onexit.obj
 0001:00011e1a       ?filt$0@?0???R<lambda_6e4b09c48022b2350581041d5f6b0c4c>@@QEBA@XZ@4HA 0000000180012e1a f   libucrt:exit.obj
 0001:00011e35       ?fin$0@?0???$?RV<lambda_410d79af7f07d98d83a3f525b3859a53>@@AEAV<lambda_3e16ef9562a7dcce91392c22ab16ea36>@@V<lambda_38119f0e861e05405d8a144b9b982f0a>@@@?$__crt_seh_guarded_call@X@@QEAAX$$QEAV<lambda_410d79af7f07d98d83a3f525b3859a53>@@AEAV<lambda_3e16ef9562a7dcce91392c22ab16ea36>@@$$QEAV<lambda_38119f0e861e05405d8a144b9b982f0a>@@@Z@4HA 0000000180012e35 f   libucrt:wsetlocale.obj
 0001:00011e4f       _fcloseall$fin$0           0000000180012e4f f   libucrt:closeall.obj
 0001:00011e68       _ctrlfp$filt$0             0000000180012e68 f   libucrt:fpctrl.obj
 0001:00011e94       raise$fin$0                0000000180012e94 f   libucrt:signal.obj
 0001:00011eb5       ?fin$0@?0??update_thread_multibyte_data_internal@@YAPEAU__crt_multibyte_data@@QEAU__acrt_ptd@@QEAPEAU1@@Z@4HA 0000000180012eb5 f   libucrt:mbctype.obj
 0001:00011ece       __acrt_update_thread_locale_data$fin$0 0000000180012ece f   libucrt:locale_refcounting.obj
 0001:00011ef0       _IsNonwritableInCurrentImage$filt$0 0000000180012ef0 f   LIBCMT:pesect.obj
 0001:00011f10       ??__Fsingleton@@YAXXZ      0000000180012f10 f   SixMansPlugin-Rework.obj
 0001:00011f60       ??__F_globalCvarManager@@YAXXZ 0000000180012f60 f   SixMansPlugin-Rework.obj
 0001:00011fb0       ??__F_Fac_tidy_reg@std@@YAXXZ 0000000180012fb0 f   libcpmt:locale0.obj
 0001:0001200c       ??__Fclassic_locale@std@@YAXXZ 000000018001300c f   libcpmt:locale0.obj
 0001:0001204c       ??__Finitlocks@std@@YAXXZ  000000018001304c f   libcpmt:xlock.obj
 0001:00012058       ??__Finit_atexit@@YAXXZ    0000000180013058 f   libcpmt:iosptrs.obj
 0001:00012098       ??__Finitlocks@std@@YAXXZ  0000000180013098 f   libcpmt:iosptrs.obj
 0002:00000280       ?initlocks$initializer$@std@@3P6AXXZEA 0000000180014280     libcpmt:xlock.obj
 0002:00000288       ?initlocks$initializer$@std@@3P6AXXZEA 0000000180014288     libcpmt:iosptrs.obj
 0002:00000290       ?init_atexit$initializer$@@3P6AXXZEA 0000000180014290     libcpmt:iosptrs.obj
 0002:00000298       ?_Fac_tidy_reg$initializer$@std@@3P6AXXZEA 0000000180014298     libcpmt:locale0.obj
 0002:000002a0       ?classic_locale$initializer$@std@@3P6AXXZEA 00000001800142a0     libcpmt:locale0.obj
 0002:000002a8       ?singleton$initializer$@@3P6AXXZEA 00000001800142a8     SixMansPlugin-Rework.obj
 0002:000002b0       ?_globalCvarManager$initializer$@@3P6AXXZEA 00000001800142b0     SixMansPlugin-Rework.obj
 0002:000002c8       ?__scrt_initialize_tss_var@@3P6AHXZEA 00000001800142c8     LIBCMT:thread_safe_statics.obj
 0002:000003b0       digits                     00000001800143b0     libcpmt:xstoul.obj
 0002:000003d8       ndigs                      00000001800143d8     libcpmt:xstoul.obj
 0002:00000400       digits                     0000000180014400     libcpmt:xstoull.obj
 0002:00000428       ndigs                      0000000180014428     libcpmt:xstoull.obj
 0002:00000450       ?_Win_errtab@?A0x8174bdc8@@3QBU_Win_errtab_t@1@B 0000000180014450     libcpmt:syserror.obj
 0002:000006d0       ?_Sys_errtab@?A0x8174bdc8@@3QBU_Sys_errtab_t@1@B 00000001800146d0     libcpmt:syserror.obj
 0002:00001260       ?_Whitespace_bitmap@?A0xcbceb03b@@3U_Whitespace_bitmap_t@1@B 0000000180015260     libcpmt:syserror_import_lib.obj
 0002:00001430       GS_ExceptionPointers       0000000180015430     LIBCMT:gs_report.obj
 0002:00001470       ?ExceptionTemplate@?1??UnwindNestedFrames@__FrameHandler4@@SAXPEA_KPEAUEHExceptionRecord@@PEAU_CONTEXT@@0PEAXPEAUFuncInfo4@FH4@@HHPEAUHandlerType4@6@PEAU_xDISPATCHER_CONTEXT@@E@Z@4U_EXCEPTION_RECORD@@B 0000000180015470     libvcruntime:risctrnsctrl.obj
 0002:00001540       ?tokenTable@@3QBUStringLiteral@@B 0000000180015540     libvcruntime:undname.obj
 0002:00001650       ?nameTable@@3QBUStringLiteral@@B 0000000180015650     libvcruntime:undname.obj
 0002:00001b80       ?rttiTable@@3QBUStringLiteral@@B 0000000180015b80     libvcruntime:undname.obj
 0002:00001bd0       ?IndirectionName@@3QBUStringLiteral@@B 0000000180015bd0     libvcruntime:undname.obj
 0002:00001c30       ?PrefixName@@3QBUStringLiteral@@B 0000000180015c30     libvcruntime:undname.obj
 0002:00002300       ?module_names@?A0x5d44c8f9@@3QBQEB_WB 0000000180016300     libvcruntime:winapi_downlevel.obj
 0002:000023c0       ?candidate_modules@?1??try_get_FlsAlloc@@YAP6AKP6AXPEAX@Z@ZXZ@4QBW4module_id@?A0x5d44c8f9@@B 00000001800163c0     libvcruntime:winapi_downlevel.obj
 0002:000023d8       ?candidate_modules@?1??try_get_FlsFree@@YAP6AHK@ZXZ@4QBW4module_id@?A0x5d44c8f9@@B 00000001800163d8     libvcruntime:winapi_downlevel.obj
 0002:000023e8       ?candidate_modules@?1??try_get_FlsGetValue@@YAP6APEAXK@ZXZ@4QBW4module_id@?A0x5d44c8f9@@B 00000001800163e8     libvcruntime:winapi_downlevel.obj
 0002:00002400       ?candidate_modules@?1??try_get_FlsSetValue@@YAP6AHKPEAX@ZXZ@4QBW4module_id@?A0x5d44c8f9@@B 0000000180016400     libvcruntime:winapi_downlevel.obj
 0002:00002418       ?candidate_modules@?1??try_get_InitializeCriticalSectionEx@@YAP6AHPEAU_RTL_CRITICAL_SECTION@@KK@ZXZ@4QBW4module_id@?A0x5d44c8f9@@B 0000000180016418     libvcruntime:winapi_downlevel.obj
 0002:00002440       ?errtable@@3QBUerrentry@?A0x31fdb9ec@@B 0000000180016440     libucrt:errno.obj
 0002:00002bb0       __flag_x_one_y_snan        0000000180016bb0     libucrt:pow.obj
 0002:00002bb4       __flag_x_zero_z_inf        0000000180016bb4     libucrt:pow.obj
 0002:00002bb8       __flag_x_nan               0000000180016bb8     libucrt:pow.obj
 0002:00002bbc       __flag_y_nan               0000000180016bbc     libucrt:pow.obj
 0002:00002bc0       __flag_x_nan_y_nan         0000000180016bc0     libucrt:pow.obj
 0002:00002bc4       __flag_x_neg_y_notint      0000000180016bc4     libucrt:pow.obj
 0002:00002bc8       __flag_z_zero              0000000180016bc8     libucrt:pow.obj
 0002:00002bcc       __flag_z_denormal          0000000180016bcc     libucrt:pow.obj
 0002:00002bd0       __flag_z_inf               0000000180016bd0     libucrt:pow.obj
 0002:00002be0       __ay_max_bound             0000000180016be0     libucrt:pow.obj
 0002:00002be8       __ay_min_bound             0000000180016be8     libucrt:pow.obj
 0002:00002bf0       __sign_mask                0000000180016bf0     libucrt:pow.obj
 0002:00002bf8       __sign_and_exp_mask        0000000180016bf8     libucrt:pow.obj
 0002:00002c00       __exp_mask                 0000000180016c00     libucrt:pow.obj
 0002:00002c08       __neg_inf                  0000000180016c08     libucrt:pow.obj
 0002:00002c10       __pos_inf                  0000000180016c10     libucrt:pow.obj
 0002:00002c18       __pos_one                  0000000180016c18     libucrt:pow.obj
 0002:00002c20       __pos_zero                 0000000180016c20     libucrt:pow.obj
 0002:00002c28       __exp_mant_mask            0000000180016c28     libucrt:pow.obj
 0002:00002c30       __mant_mask                0000000180016c30     libucrt:pow.obj
 0002:00002c38       __ind_pattern              0000000180016c38     libucrt:pow.obj
 0002:00002c40       __neg_qnan                 0000000180016c40     libucrt:pow.obj
 0002:00002c48       __qnan                     0000000180016c48     libucrt:pow.obj
 0002:00002c50       __qnan_set                 0000000180016c50     libucrt:pow.obj
 0002:00002c58       __neg_one                  0000000180016c58     libucrt:pow.obj
 0002:00002c60       __neg_zero                 0000000180016c60     libucrt:pow.obj
 0002:00002c68       __exp_shift                0000000180016c68     libucrt:pow.obj
 0002:00002c70       __exp_bias                 0000000180016c70     libucrt:pow.obj
 0002:00002c78       __exp_bias_m1              0000000180016c78     libucrt:pow.obj
 0002:00002c80       __yexp_53                  0000000180016c80     libucrt:pow.obj
 0002:00002c88       __mant_full                0000000180016c88     libucrt:pow.obj
 0002:00002c90       __1_before_mant            0000000180016c90     libucrt:pow.obj
 0002:00002c98       __mask_mant_all8           0000000180016c98     libucrt:pow.obj
 0002:00002ca0       __mask_mant9               0000000180016ca0     libucrt:pow.obj
 0002:00002cb0       __real_fffffffff8000000    0000000180016cb0     libucrt:pow.obj
 0002:00002cc0       __mask_8000000000000000    0000000180016cc0     libucrt:pow.obj
 0002:00002cd0       __real_4090040000000000    0000000180016cd0     libucrt:pow.obj
 0002:00002ce0       __real_C090C80000000000    0000000180016ce0     libucrt:pow.obj
 0002:00002cf0       __real_ninf                0000000180016cf0     libucrt:pow.obj
 0002:00002d00       __real_inf                 0000000180016d00     libucrt:pow.obj
 0002:00002d10       __real_nan                 0000000180016d10     libucrt:pow.obj
 0002:00002d20       __real_mant                0000000180016d20     libucrt:pow.obj
 0002:00002d30       __mask_1023                0000000180016d30     libucrt:pow.obj
 0002:00002d40       __mask_001                 0000000180016d40     libucrt:pow.obj
 0002:00002d50       __real_log2_lead           0000000180016d50     libucrt:pow.obj
 0002:00002d60       __real_log2_tail           0000000180016d60     libucrt:pow.obj
 0002:00002d70       __real_two                 0000000180016d70     libucrt:pow.obj
 0002:00002d80       __real_one                 0000000180016d80     libucrt:pow.obj
 0002:00002d90       __real_half                0000000180016d90     libucrt:pow.obj
 0002:00002da0       __mask_100                 0000000180016da0     libucrt:pow.obj
 0002:00002db0       __real_1_over_2            0000000180016db0     libucrt:pow.obj
 0002:00002dc0       __real_1_over_3            0000000180016dc0     libucrt:pow.obj
 0002:00002dd0       __real_1_over_4            0000000180016dd0     libucrt:pow.obj
 0002:00002de0       __real_1_over_5            0000000180016de0     libucrt:pow.obj
 0002:00002df0       __real_1_over_6            0000000180016df0     libucrt:pow.obj
 0002:00002e00       __real_1_over_7            0000000180016e00     libucrt:pow.obj
 0002:00002e10       __mask_1023_f              0000000180016e10     libucrt:pow.obj
 0002:00002e20       __mask_2045                0000000180016e20     libucrt:pow.obj
 0002:00002e30       __real_threshold           0000000180016e30     libucrt:pow.obj
 0002:00002e40       __real_notsign             0000000180016e40     libucrt:pow.obj
 0002:00002e50       __log_F_inv_head           0000000180016e50     libucrt:pow.obj
 0002:00003660       __log_F_inv_tail           0000000180017660     libucrt:pow.obj
 0002:00003e70       __denormal_threshold       0000000180017e70     libucrt:pow.obj
 0002:00003e80       __enable_almost_inf        0000000180017e80     libucrt:pow.obj
 0002:00003e90       __real_zero                0000000180017e90     libucrt:pow.obj
 0002:00003ea0       __real_smallest_denormal   0000000180017ea0     libucrt:pow.obj
 0002:00003eb0       __denormal_tiny_threshold  0000000180017eb0     libucrt:pow.obj
 0002:00003ec0       __real_p65536              0000000180017ec0     libucrt:pow.obj
 0002:00003ed0       __real_m68800              0000000180017ed0     libucrt:pow.obj
 0002:00003ee0       __real_64_by_log2          0000000180017ee0     libucrt:pow.obj
 0002:00003ef0       __real_log2_by_64_head     0000000180017ef0     libucrt:pow.obj
 0002:00003f00       __real_log2_by_64_tail     0000000180017f00     libucrt:pow.obj
 0002:00003f10       __real_1_by_720            0000000180017f10     libucrt:pow.obj
 0002:00003f20       __real_1_by_120            0000000180017f20     libucrt:pow.obj
 0002:00003f30       __real_1_by_24             0000000180017f30     libucrt:pow.obj
 0002:00003f40       __real_1_by_6              0000000180017f40     libucrt:pow.obj
 0002:00003f50       __real_1_by_2              0000000180017f50     libucrt:pow.obj
 0002:00003f60       __flag_x_one_y_snan        0000000180017f60     libucrt:powf.obj
 0002:00003f64       __flag_x_zero_z_inf        0000000180017f64     libucrt:powf.obj
 0002:00003f68       __flag_x_nan               0000000180017f68     libucrt:powf.obj
 0002:00003f6c       __flag_y_nan               0000000180017f6c     libucrt:powf.obj
 0002:00003f70       __flag_x_nan_y_nan         0000000180017f70     libucrt:powf.obj
 0002:00003f74       __flag_x_neg_y_notint      0000000180017f74     libucrt:powf.obj
 0002:00003f78       __flag_z_zero              0000000180017f78     libucrt:powf.obj
 0002:00003f7c       __flag_z_denormal          0000000180017f7c     libucrt:powf.obj
 0002:00003f80       __flag_z_inf               0000000180017f80     libucrt:powf.obj
 0002:00003f84       L__1_by_3                  0000000180017f84     libucrt:powf.obj
 0002:00003f8c       L__log2                    0000000180017f8c     libucrt:powf.obj
 0002:00003f94       L__max_exp_arg             0000000180017f94     libucrt:powf.obj
 0002:00003f9c       L__min_exp_arg             0000000180017f9c     libucrt:powf.obj
 0002:00003fa4       L__real_log2_by_64         0000000180017fa4     libucrt:powf.obj
 0002:00003fac       L__1_by_6                  0000000180017fac     libucrt:powf.obj
 0002:00003fb4       L__real_threshold          0000000180017fb4     libucrt:powf.obj
 0002:00003fbc       L__real_one                0000000180017fbc     libucrt:powf.obj
 0002:00003fc4       L__real_two                0000000180017fc4     libucrt:powf.obj
 0002:00003fcc       L__neg_zero                0000000180017fcc     libucrt:powf.obj
 0002:00003fe0       L__real_ca42               0000000180017fe0     libucrt:powf.obj
 0002:00003fe8       L__real_ca4                0000000180017fe8     libucrt:powf.obj
 0002:00003ff0       L__real_ca31               0000000180017ff0     libucrt:powf.obj
 0002:00003ff8       L__real_ca3                0000000180017ff8     libucrt:powf.obj
 0002:00004000       L__clear_sign              0000000180018000     libucrt:powf.obj
 0002:00004010       L__real_64_by_log2         0000000180018010     libucrt:powf.obj
 0002:00004020       L__1_by_2                  0000000180018020     libucrt:powf.obj
 0002:00004030       L__1023                    0000000180018030     libucrt:powf.obj
 0002:00004040       L__xexp_bits_xmantissa_bits 0000000180018040     libucrt:powf.obj
 0002:00004960       __acrt_initializers        0000000180018960     libucrt:initialization.obj
 0002:000050e0       ?module_names@?A0x391cf84c@@3QBQEB_WB 00000001800190e0     libucrt:winapi_thunks.obj
 0002:000055e8       ?candidate_modules@?1??try_get_AreFileApisANSI@@YAP6AHXZXZ@4QBW4module_id@?A0x391cf84c@@B 00000001800195e8     libucrt:winapi_thunks.obj
 0002:00005600       ?candidate_modules@?1??try_get_FlsAlloc@@YAP6AKP6AXPEAX@Z@ZXZ@4QBW4module_id@?A0x391cf84c@@B 0000000180019600     libucrt:winapi_thunks.obj
 0002:00005608       ?candidate_modules@?1??try_get_FlsFree@@YAP6AHK@ZXZ@4QBW4module_id@?A0x391cf84c@@B 0000000180019608     libucrt:winapi_thunks.obj
 0002:00005610       ?candidate_modules@?1??try_get_FlsGetValue@@YAP6APEAXK@ZXZ@4QBW4module_id@?A0x391cf84c@@B 0000000180019610     libucrt:winapi_thunks.obj
 0002:00005618       ?candidate_modules@?1??try_get_FlsSetValue@@YAP6AHKPEAX@ZXZ@4QBW4module_id@?A0x391cf84c@@B 0000000180019618     libucrt:winapi_thunks.obj
 0002:00005620       ?candidate_modules@?1??try_get_InitializeCriticalSectionEx@@YAP6AHPEAU_RTL_CRITICAL_SECTION@@KK@ZXZ@4QBW4module_id@?A0x391cf84c@@B 0000000180019620     libucrt:winapi_thunks.obj
 0002:00005628       ?candidate_modules@?1??try_get_LCMapStringEx@@YAP6AHPEB_WK0HPEA_WHPEAU_nlsversioninfo@@PEAX_J@ZXZ@4QBW4module_id@?A0x391cf84c@@B 0000000180019628     libucrt:winapi_thunks.obj
 0002:00005640       ?candidate_modules@?1??try_get_LocaleNameToLCID@@YAP6AKPEB_WK@ZXZ@4QBW4module_id@?A0x391cf84c@@B 0000000180019640     libucrt:winapi_thunks.obj
 0002:0000565c       ?candidate_modules@?1??try_get_AppPolicyGetProcessTerminationMethod@@YAP6AJPEAXPEAW4AppPolicyProcessTerminationMethod@@@ZXZ@4QBW4module_id@?A0x391cf84c@@B 000000018001965c     libucrt:winapi_thunks.obj
 0002:000074e0       ?_mb_locale_names@@3QBQEB_WB 000000018001b4e0     libucrt:mbctype.obj
 0002:00007550       ?LcidToLocaleNameTable@?A0x881e4c05@@3QBULcidToLocaleName@1@B 000000018001b550     libucrt:lcidtoname_downlevel.obj
 0002:00008fa0       ?LocaleNameToIndexTable@?A0x881e4c05@@3QBULocaleNameIndex@1@B 000000018001cfa0     libucrt:lcidtoname_downlevel.obj
 0002:0000a850       __real@433fffffffffffff    000000018001e850     libucrt:fpsr.obj
 0002:0000a858       __real@c33fffffffffffff    000000018001e858     libucrt:fpsr.obj
 0002:0000a860       __real_ninf                000000018001e860     libucrt:log10.obj
 0002:0000a870       __real_inf                 000000018001e870     libucrt:log10.obj
 0002:0000a880       __real_neg_qnan            000000018001e880     libucrt:log10.obj
 0002:0000a890       __real_qnanbit             000000018001e890     libucrt:log10.obj
 0002:0000a8a0       __int_1023                 000000018001e8a0     libucrt:log10.obj
 0002:0000a8b0       __mask_001                 000000018001e8b0     libucrt:log10.obj
 0002:0000a8c0       __mask_mant                000000018001e8c0     libucrt:log10.obj
 0002:0000a8d0       __mask_mant_top8           000000018001e8d0     libucrt:log10.obj
 0002:0000a8e0       __mask_mant9               000000018001e8e0     libucrt:log10.obj
 0002:0000a8f0       __real_log10_e             000000018001e8f0     libucrt:log10.obj
 0002:0000a900       __real_log10_e_lead        000000018001e900     libucrt:log10.obj
 0002:0000a910       __real_log10_e_tail        000000018001e910     libucrt:log10.obj
 0002:0000a920       __real_log10_2_lead        000000018001e920     libucrt:log10.obj
 0002:0000a930       __real_log10_2_tail        000000018001e930     libucrt:log10.obj
 0002:0000a940       __real_two                 000000018001e940     libucrt:log10.obj
 0002:0000a950       __real_one                 000000018001e950     libucrt:log10.obj
 0002:0000a960       __real_half                000000018001e960     libucrt:log10.obj
 0002:0000a970       __mask_100                 000000018001e970     libucrt:log10.obj
 0002:0000a980       __real_1_over_512          000000018001e980     libucrt:log10.obj
 0002:0000a990       __real_1_over_2            000000018001e990     libucrt:log10.obj
 0002:0000a9a0       __real_1_over_3            000000018001e9a0     libucrt:log10.obj
 0002:0000a9b0       __real_1_over_4            000000018001e9b0     libucrt:log10.obj
 0002:0000a9c0       __real_1_over_5            000000018001e9c0     libucrt:log10.obj
 0002:0000a9d0       __real_1_over_6            000000018001e9d0     libucrt:log10.obj
 0002:0000a9e0       __real_neg_1023            000000018001e9e0     libucrt:log10.obj
 0002:0000a9f0       __mask_2045                000000018001e9f0     libucrt:log10.obj
 0002:0000aa00       __real_threshold           000000018001ea00     libucrt:log10.obj
 0002:0000aa10       __real_near_one_lt         000000018001ea10     libucrt:log10.obj
 0002:0000aa20       __real_near_one_gt         000000018001ea20     libucrt:log10.obj
 0002:0000aa30       __real_min_norm            000000018001ea30     libucrt:log10.obj
 0002:0000aa40       __real_notsign             000000018001ea40     libucrt:log10.obj
 0002:0000aa50       __real_ca1                 000000018001ea50     libucrt:log10.obj
 0002:0000aa60       __real_ca2                 000000018001ea60     libucrt:log10.obj
 0002:0000aa70       __real_ca3                 000000018001ea70     libucrt:log10.obj
 0002:0000aa80       __real_ca4                 000000018001ea80     libucrt:log10.obj
 0002:0000aa90       __mask_lower               000000018001ea90     libucrt:log10.obj
 0002:0000aaa0       __flag_x_zero              000000018001eaa0     libucrt:log10.obj
 0002:0000aaa4       __flag_x_neg               000000018001eaa4     libucrt:log10.obj
 0002:0000aaa8       __flag_x_nan               000000018001eaa8     libucrt:log10.obj
 0002:0000bb10       ?GStyleVarInfo@@3QBUImGuiStyleVarInfo@@B 000000018001fb10     imgui.obj
 0002:0000bc24       ?STB_TEXTEDIT_NEWLINE@ImStb@@3GA 000000018001fc24     imgui_widgets.obj
 0002:0000bc30       ?GCrc32LookupTable@@3QBIB  000000018001fc30     imgui.obj
 0002:0000c030       ?GImAllocatorFreeFunc@@3P6AXPEAX0@ZEA 0000000180020030     imgui.obj
 0002:0000c038       ?GImAllocatorAllocFunc@@3P6APEAX_KPEAX@ZEA 0000000180020038     imgui.obj
 0002:0000c040       ?proggy_clean_ttf_compressed_data_base85@@3QBDB 0000000180020040     imgui_draw.obj
 0002:0000ef10       ?FONT_ATLAS_DEFAULT_TEX_DATA_PIXELS@@3QBDB 0000000180022f10     imgui_draw.obj
 0002:0000fa80       ?GDataTypeInfo@ImGui@@3QBUImGuiDataTypeInfo@@B 0000000180023a80     imgui_rangeslider.obj
 0002:0000fb70       ?GDataTypeInfo@@3QBUImGuiDataTypeInfo@@B 0000000180023b70     imgui_widgets.obj
 0002:0000fc60       ?resize_grip_def@@3QBUImGuiResizeGripDef@@B 0000000180023c60     imgui.obj
 0002:0000fcc0       ?FONT_ATLAS_DEFAULT_TEX_CURSOR_DATA@@3QAY02$$CBUImVec2@@A 0000000180023cc0     imgui_draw.obj
 0002:0000fed0       L_signbit                  0000000180023ed0     libucrt:sinf.obj
 0002:0000fee0       L_sign_mask                0000000180023ee0     libucrt:sinf.obj
 0002:0000fef0       L_one                      0000000180023ef0     libucrt:sinf.obj
 0002:0000ff00       L_int_three                0000000180023f00     libucrt:sinf.obj
 0002:0000ff10       L_one_half                 0000000180023f10     libucrt:sinf.obj
 0002:0000ff20       L_twobypi                  0000000180023f20     libucrt:sinf.obj
 0002:0000ff30       L_piby2_1                  0000000180023f30     libucrt:sinf.obj
 0002:0000ff40       L_one_sixth                0000000180023f40     libucrt:sinf.obj
 0002:0000ff50       L_piby2_1tail              0000000180023f50     libucrt:sinf.obj
 0002:0000ff60       L_piby2_2                  0000000180023f60     libucrt:sinf.obj
 0002:0000ff70       L_piby2_2tail              0000000180023f70     libucrt:sinf.obj
 0002:0000ff80       L_inf_mask_32              0000000180023f80     libucrt:sinf.obj
 0002:0000ff90       L_int_two                  0000000180023f90     libucrt:sinf.obj
 0002:0000ffa0       L_piby2_lead               0000000180023fa0     libucrt:sinf.obj
 0002:0000ffb0       L_piby4                    0000000180023fb0     libucrt:sinf.obj
 0002:0000ffc0       L_mask_3f2                 0000000180023fc0     libucrt:sinf.obj
 0002:0000ffd0       L_mask_3f8                 0000000180023fd0     libucrt:sinf.obj
 0002:0000ffe0       L_large_x_fma3             0000000180023fe0     libucrt:sinf.obj
 0002:0000ffe8       L_large_x_sse2             0000000180023fe8     libucrt:sinf.obj
 0002:0000fff0       L_near_one                 0000000180023ff0     libucrt:sinf.obj
 0002:0000fff8       L_two_to_32                0000000180023ff8     libucrt:sinf.obj
 0002:000100f0       L__piby2                   00000001800240f0     libucrt:remainder_piby2f_forc.obj
 0002:00010100       L__2_by_pi_bits            0000000180024100     libucrt:remainder_piby2f_forc.obj
 0002:00010d68       $unwind$??_Gbad_alloc@std@@UEAAPEAXI@Z 0000000180024d68     format.obj
 0002:00010d68       $unwind$??_Gbad_array_new_length@std@@UEAAPEAXI@Z 0000000180024d68     format.obj
 0002:00010d68       $unwind$??_Gexception@std@@UEAAPEAXI@Z 0000000180024d68     format.obj
 0002:00010d68       $unwind$??$common_initialize_environment_nolock@D@@YAHXZ 0000000180024d68     libucrt:environment_initialization.obj
 0002:00010d68       $unwind$_realloc_base      0000000180024d68     libucrt:realloc_base.obj
 0002:00010d68       $unwind$?replace_current_thread_locale_nolock@@YAXQEAU__acrt_ptd@@QEAU__crt_locale_data@@@Z 0000000180024d68     libucrt:per_thread_data.obj
 0002:00010d68       $unwind$__acrt_execute_uninitializers 0000000180024d68     libucrt:shared_initialization.obj
 0002:00010d68       $unwind$__acrt_FlsSetValue 0000000180024d68     libucrt:winapi_thunks.obj
 0002:00010d68       $unwind$__acrt_LocaleNameToLCID 0000000180024d68     libucrt:winapi_thunks.obj
 0002:00010d68       $unwind$_updatetlocinfoEx_nolock 0000000180024d68     libucrt:locale_refcounting.obj
 0002:00010d68       $unwind$_close_nolock      0000000180024d68     libucrt:close.obj
 0002:00010d68       $unwind$__acrt_uninitialize_lowio 0000000180024d68     libucrt:ioinit.obj
 0002:00010d68       $unwind$__acrt_errno_map_os_error 0000000180024d68     libucrt:errno.obj
 0002:00010d68       $unwind$_initterm_e        0000000180024d68     libucrt:initterm.obj
 0002:00010d68       $unwind$_fclose_nolock     0000000180024d68     libucrt:fclose.obj
 0002:00010d68       $unwind$strncpy_s          0000000180024d68     libucrt:strncpy_s.obj
 0002:00010d68       $unwind$_RTC_Initialize    0000000180024d68     LIBCMT:initsect.obj
 0002:00010d68       $unwind$_RTC_Terminate     0000000180024d68     LIBCMT:initsect.obj
 0002:00010d68       $unwind$?__scrt_initialize_thread_safe_statics@@YAHXZ 0000000180024d68     LIBCMT:thread_safe_statics.obj
 0002:00010d68       $unwind$??0_Init_locks@std@@QEAA@XZ 0000000180024d68     libcpmt:xlock.obj
 0002:00010d68       $unwind$__FrameUnwindFilter 0000000180024d68     libvcruntime:ehhelpers.obj
 0002:00010d68       $unwind$??_Gbad_exception@std@@UEAAPEAXI@Z 0000000180024d68     libvcruntime:frame.obj
 0002:00010d68       $unwind$?ExFilterRethrow@@YAHPEAU_EXCEPTION_POINTERS@@PEAUEHExceptionRecord@@PEAH@Z 0000000180024d68     libvcruntime:frame.obj
 0002:00010d68       $unwind$?ExFilterRethrowFH4@@YAHPEAU_EXCEPTION_POINTERS@@PEAUEHExceptionRecord@@HPEAH@Z 0000000180024d68     libvcruntime:frame.obj
 0002:00010d68       $unwind$_FindAndUnlinkFrame 0000000180024d68     libvcruntime:risctrnsctrl.obj
 0002:00010d68       $unwind$__vcrt_FlsSetValue 0000000180024d68     libvcruntime:winapi_downlevel.obj
 0002:00010d74       $unwind$??_G?$_Ref_count@VSixMansPlugin@@@std@@UEAAPEAXI@Z 0000000180024d74     SixMansPlugin-Rework.obj
 0002:00010d74       $unwind$??__F_globalCvarManager@@YAXXZ 0000000180024d74     SixMansPlugin-Rework.obj
 0002:00010d74       $unwind$??__Fsingleton@@YAXXZ 0000000180024d74     SixMansPlugin-Rework.obj
 0002:00010d74       $unwind$?_Destroy@?$_Ref_count@VSixMansPlugin@@@std@@EEAAXXZ 0000000180024d74     SixMansPlugin-Rework.obj
 0002:00010d74       $unwind$?onLoad@SixMansPlugin@@EEAAXXZ 0000000180024d74     SixMansPlugin-Rework.obj
 0002:00010d74       $unwind$??0bad_alloc@std@@QEAA@AEBV01@@Z 0000000180024d74     format.obj
 0002:00010d74       $unwind$??0bad_array_new_length@std@@QEAA@AEBV01@@Z 0000000180024d74     format.obj
 0002:00010d74       $unwind$??0exception@std@@QEAA@AEBV01@@Z 0000000180024d74     format.obj
 0002:00010d74       $unwind$_calloc_base       0000000180024d74     libucrt:calloc_base.obj
 0002:00010d74       $unwind$_malloc_base       0000000180024d74     libucrt:malloc_base.obj
 0002:00010d74       $unwind$_callnewh          0000000180024d74     libucrt:new_handler.obj
 0002:00010d74       $unwind$initialize_pointers 0000000180024d74     libucrt:initialization.obj
 0002:00010d74       $unwind$uninitialize_allocated_memory 0000000180024d74     libucrt:initialization.obj
 0002:00010d74       $unwind$__acrt_initialize_locks 0000000180024d74     libucrt:locks.obj
 0002:00010d74       $unwind$__acrt_uninitialize_locks 0000000180024d74     libucrt:locks.obj
 0002:00010d74       $unwind$__acrt_freeptd     0000000180024d74     libucrt:per_thread_data.obj
 0002:00010d74       $unwind$__acrt_getptd_head 0000000180024d74     libucrt:per_thread_data.obj
 0002:00010d74       $unwind$__acrt_get_process_end_policy 0000000180024d74     libucrt:win_policies.obj
 0002:00010d74       $unwind$__acrt_AppPolicyGetProcessTerminationMethodInternal 0000000180024d74     libucrt:winapi_thunks.obj
 0002:00010d74       $unwind$__acrt_FlsAlloc    0000000180024d74     libucrt:winapi_thunks.obj
 0002:00010d74       $unwind$__acrt_FlsFree     0000000180024d74     libucrt:winapi_thunks.obj
 0002:00010d74       $unwind$__acrt_FlsGetValue 0000000180024d74     libucrt:winapi_thunks.obj
 0002:00010d74       $unwind$__acrt_uninitialize_winapi_thunks 0000000180024d74     libucrt:winapi_thunks.obj
 0002:00010d74       $unwind$__acrt_update_locale_info 0000000180024d74     libucrt:locale_update.obj
 0002:00010d74       $unwind$__acrt_update_multibyte_info 0000000180024d74     libucrt:locale_update.obj
 0002:00010d74       $unwind$__acrt_allocate_buffer_for_argv 0000000180024d74     libucrt:argv_parsing.obj
 0002:00010d74       $unwind$?exit_or_terminate_process@@YAXI@Z 0000000180024d74     libucrt:exit.obj
 0002:00010d74       $unwind$?try_cor_exit_process@@YAXI@Z 0000000180024d74     libucrt:exit.obj
 0002:00010d74       $unwind$__acrt_uninitialize_stdio 0000000180024d74     libucrt:_file.obj
 0002:00010d74       $unwind$__acrt_stdio_free_buffer_nolock 0000000180024d74     libucrt:_freebuf.obj
 0002:00010d74       $unwind$_fflush_nolock     0000000180024d74     libucrt:fflush.obj
 0002:00010d74       $unwind$strcpy_s           0000000180024d74     libucrt:strcpy_s.obj
 0002:00010d74       $unwind$_clrfp             0000000180024d74     libucrt:fpctrl.obj
 0002:00010d74       $unwind$_set_statfp        0000000180024d74     libucrt:fpctrl.obj
 0002:00010d74       $unwind$__raise_securityfailure 0000000180024d74     LIBCMT:gs_report.obj
 0002:00010d74       $unwind$??2@YAPEAX_K@Z     0000000180024d74     LIBCMT:new_scalar.obj
 0002:00010d74       $unwind$??_Gtype_info@@UEAAPEAXI@Z 0000000180024d74     LIBCMT:std_type_info_static.obj
 0002:00010d74       $unwind$__scrt_initialize_crt 0000000180024d74     LIBCMT:utility.obj
 0002:00010d74       $unwind$__scrt_initialize_onexit_tables 0000000180024d74     LIBCMT:utility.obj
 0002:00010d74       $unwind$__scrt_release_startup_lock 0000000180024d74     LIBCMT:utility.obj
 0002:00010d74       $unwind$__scrt_uninitialize_crt 0000000180024d74     LIBCMT:utility.obj
 0002:00010d74       $unwind$_onexit            0000000180024d74     LIBCMT:utility.obj
 0002:00010d74       $unwind$??__F_Fac_tidy_reg@std@@YAXXZ 0000000180024d74     libcpmt:locale0.obj
 0002:00010d74       $unwind$??1_Init_locks@std@@QEAA@XZ 0000000180024d74     libcpmt:xlock.obj
 0002:00010d74       $unwind$_IsExceptionObjectToBeDestroyed 0000000180024d74     libvcruntime:ehhelpers.obj
 0002:00010d74       $unwind$??0HandlerMap4@FH4@@QEAA@PEBUTryBlockMapEntry4@1@_KH@Z 0000000180024d74     libvcruntime:frame.obj
 0002:00010d74       $unwind$??0bad_exception@std@@QEAA@AEBV01@@Z 0000000180024d74     libvcruntime:frame.obj
 0002:00010d74       $unwind$__vcrt_initialize_locks 0000000180024d74     libvcruntime:locks.obj
 0002:00010d74       $unwind$__vcrt_uninitialize_locks 0000000180024d74     libvcruntime:locks.obj
 0002:00010d74       $unwind$__vcrt_freeptd     0000000180024d74     libvcruntime:per_thread_data.obj
 0002:00010d74       $unwind$_CreateFrameInfo   0000000180024d74     libvcruntime:risctrnsctrl.obj
 0002:00010d74       $unwind$_SetImageBase      0000000180024d74     libvcruntime:risctrnsctrl.obj
 0002:00010d74       $unwind$_SetThrowImageBase 0000000180024d74     libvcruntime:risctrnsctrl.obj
 0002:00010d74       $unwind$__std_exception_destroy 0000000180024d74     libvcruntime:std_exception.obj
 0002:00010d74       $unwind$__std_type_info_destroy_list 0000000180024d74     libvcruntime:std_type_info.obj
 0002:00010d74       $unwind$__vcrt_FlsAlloc    0000000180024d74     libvcruntime:winapi_downlevel.obj
 0002:00010d74       $unwind$__vcrt_FlsFree     0000000180024d74     libvcruntime:winapi_downlevel.obj
 0002:00010d74       $unwind$__vcrt_FlsGetValue 0000000180024d74     libvcruntime:winapi_downlevel.obj
 0002:00010d7c       $chain$0$??__Fsingleton@@YAXXZ 0000000180024d7c     SixMansPlugin-Rework.obj
 0002:00010d90       $chain$1$??__Fsingleton@@YAXXZ 0000000180024d90     SixMansPlugin-Rework.obj
 0002:00010da0       $unwind$deleteMe           0000000180024da0     SixMansPlugin-Rework.obj
 0002:00010da0       $unwind$getPlugin          0000000180024da0     SixMansPlugin-Rework.obj
 0002:00010da0       $unwind$__dcrt_terminate_console_output 0000000180024da0     libucrt:initcon.obj
 0002:00010da0       $unwind$??$uninitialize_environment_internal@D@@YAXAEAPEAPEAD@Z 0000000180024da0     libucrt:environment_initialization.obj
 0002:00010da0       $unwind$??$uninitialize_environment_internal@_W@@YAXAEAPEAPEA_W@Z 0000000180024da0     libucrt:environment_initialization.obj
 0002:00010da0       $unwind$__dcrt_uninitialize_environments_nolock 0000000180024da0     libucrt:environment_initialization.obj
 0002:00010da0       $unwind$__acrt_initialize_heap 0000000180024da0     libucrt:heap_handle.obj
 0002:00010da0       $unwind$_msize_base        0000000180024da0     libucrt:msize.obj
 0002:00010da0       $unwind$?initialize_multibyte@@YAHXZ 0000000180024da0     libucrt:multibyte_initializer.obj
 0002:00010da0       $unwind$__acrt_thread_attach 0000000180024da0     libucrt:initialization.obj
 0002:00010da0       $unwind$__acrt_thread_detach 0000000180024da0     libucrt:initialization.obj
 0002:00010da0       $unwind$__acrt_uninitialize 0000000180024da0     libucrt:initialization.obj
 0002:00010da0       $unwind$__acrt_uninitialize_critical 0000000180024da0     libucrt:initialization.obj
 0002:00010da0       $unwind$initialize_c       0000000180024da0     libucrt:initialization.obj
 0002:00010da0       $unwind$uninitialize_allocated_io_buffers 0000000180024da0     libucrt:initialization.obj
 0002:00010da0       $unwind$uninitialize_environment 0000000180024da0     libucrt:initialization.obj
 0002:00010da0       $unwind$__acrt_initialize_ptd 0000000180024da0     libucrt:per_thread_data.obj
 0002:00010da0       $unwind$__acrt_uninitialize_ptd 0000000180024da0     libucrt:per_thread_data.obj
 0002:00010da0       $unwind$__acrt_AreFileApisANSI 0000000180024da0     libucrt:winapi_thunks.obj
 0002:00010da0       $unwind$__pctype_func      0000000180024da0     libucrt:ctype.obj
 0002:00010da0       $unwind$__acrt_release_locale_ref 0000000180024da0     libucrt:locale_refcounting.obj
 0002:00010da0       $unwind$_isatty            0000000180024da0     libucrt:isatty.obj
 0002:00010da0       $unwind$_get_osfhandle     0000000180024da0     libucrt:osfinfo.obj
 0002:00010da0       $unwind$__acrt_initialize_multibyte 0000000180024da0     libucrt:mbctype.obj
 0002:00010da0       $unwind$__acrt_update_thread_multibyte_data 0000000180024da0     libucrt:mbctype.obj
 0002:00010da0       $unwind$__doserrno         0000000180024da0     libucrt:errno.obj
 0002:00010da0       $unwind$_errno             0000000180024da0     libucrt:errno.obj
 0002:00010da0       $unwind$_invoke_watson     0000000180024da0     libucrt:invalid_parameter.obj
 0002:00010da0       $unwind$abort              0000000180024da0     libucrt:abort.obj
 0002:00010da0       $unwind$__acrt_initialize_command_line 0000000180024da0     libucrt:argv_data.obj
 0002:00010da0       $unwind$_fileno            0000000180024da0     libucrt:fileno.obj
 0002:00010da0       $unwind$_statfp            0000000180024da0     libucrt:fpctrl.obj
 0002:00010da0       $unwind$_set_errno_from_matherr 0000000180024da0     libucrt:fpexcept.obj
 0002:00010da0       $unwind$__scrt_initialize_default_local_stdio_options 0000000180024da0     LIBCMT:default_local_stdio_options.obj
 0002:00010da0       $unwind$?dllmain_crt_dispatch@@YAHQEAUHINSTANCE__@@KQEAX@Z 0000000180024da0     LIBCMT:dll_dllmain.obj
 0002:00010da0       $unwind$__report_rangecheckfailure 0000000180024da0     LIBCMT:gs_report.obj
 0002:00010da0       $unwind$__GSHandlerCheck   0000000180024da0     LIBCMT:gshandler.obj
 0002:00010da0       $unwind$?__scrt_uninitialize_thread_safe_statics@@YAXXZ 0000000180024da0     LIBCMT:thread_safe_statics.obj
 0002:00010da0       $unwind$__scrt_acquire_startup_lock 0000000180024da0     LIBCMT:utility.obj
 0002:00010da0       $unwind$__scrt_dllmain_after_initialize_c 0000000180024da0     LIBCMT:utility.obj
 0002:00010da0       $unwind$__scrt_dllmain_before_initialize_c 0000000180024da0     LIBCMT:utility.obj
 0002:00010da0       $unwind$__scrt_dllmain_crt_thread_attach 0000000180024da0     LIBCMT:utility.obj
 0002:00010da0       $unwind$__scrt_dllmain_crt_thread_detach 0000000180024da0     LIBCMT:utility.obj
 0002:00010da0       $unwind$__scrt_dllmain_uninitialize_c 0000000180024da0     LIBCMT:utility.obj
 0002:00010da0       $unwind$__scrt_dllmain_uninitialize_critical 0000000180024da0     LIBCMT:utility.obj
 0002:00010da0       $unwind$atexit             0000000180024da0     LIBCMT:utility.obj
 0002:00010da0       $unwind$??__Einitlocks@std@@YAXXZ 0000000180024da0     libcpmt:iosptrs.obj
 0002:00010da0       $unwind$??__Fclassic_locale@std@@YAXXZ 0000000180024da0     libcpmt:locale0.obj
 0002:00010da0       $unwind$??__Einitlocks@std@@YAXXZ 0000000180024da0     libcpmt:xlock.obj
 0002:00010da0       $unwind$__std_terminate    0000000180024da0     libvcruntime:ehhelpers.obj
 0002:00010da0       $unwind$__vcrt_initialize  0000000180024da0     libvcruntime:initialization.obj
 0002:00010da0       $unwind$__vcrt_thread_attach 0000000180024da0     libvcruntime:initialization.obj
 0002:00010da0       $unwind$__vcrt_thread_detach 0000000180024da0     libvcruntime:initialization.obj
 0002:00010da0       $unwind$__vcrt_uninitialize 0000000180024da0     libvcruntime:initialization.obj
 0002:00010da0       $unwind$__vcrt_uninitialize_critical 0000000180024da0     libvcruntime:initialization.obj
 0002:00010da0       $unwind$__vcrt_freefls     0000000180024da0     libvcruntime:per_thread_data.obj
 0002:00010da0       $unwind$__vcrt_getptd      0000000180024da0     libvcruntime:per_thread_data.obj
 0002:00010da0       $unwind$__vcrt_initialize_ptd 0000000180024da0     libvcruntime:per_thread_data.obj
 0002:00010da0       $unwind$__vcrt_uninitialize_ptd 0000000180024da0     libvcruntime:per_thread_data.obj
 0002:00010da0       $unwind$?FrameUnwindToEmptyState@__FrameHandler4@@SAXPEA_KPEAU_xDISPATCHER_CONTEXT@@PEAUFuncInfo4@FH4@@@Z 0000000180024da0     libvcruntime:risctrnsctrl.obj
 0002:00010da0       $unwind$_GetImageBase      0000000180024da0     libvcruntime:risctrnsctrl.obj
 0002:00010da0       $unwind$_GetThrowImageBase 0000000180024da0     libvcruntime:risctrnsctrl.obj
 0002:00010da8       $chain$0$getPlugin         0000000180024da8     SixMansPlugin-Rework.obj
 0002:00010dbc       $chain$1$getPlugin         0000000180024dbc     SixMansPlugin-Rework.obj
 0002:00010dd0       $chain$2$getPlugin         0000000180024dd0     SixMansPlugin-Rework.obj
 0002:00010de0       $chain$3$getPlugin         0000000180024de0     SixMansPlugin-Rework.obj
 0002:00010df0       $chain$0$deleteMe          0000000180024df0     SixMansPlugin-Rework.obj
 0002:00010e04       $chain$1$deleteMe          0000000180024e04     SixMansPlugin-Rework.obj
 0002:00010e18       $chain$2$deleteMe          0000000180024e18     SixMansPlugin-Rework.obj
 0002:00010e28       $chain$3$deleteMe          0000000180024e28     SixMansPlugin-Rework.obj
 0002:00010e38       $chain$0$??__F_globalCvarManager@@YAXXZ 0000000180024e38     SixMansPlugin-Rework.obj
 0002:00010e4c       $chain$1$??__F_globalCvarManager@@YAXXZ 0000000180024e4c     SixMansPlugin-Rework.obj
 0002:00010e5c       $chain$0$?onLoad@SixMansPlugin@@EEAAXXZ 0000000180024e5c     SixMansPlugin-Rework.obj
 0002:00010e70       $chain$1$?onLoad@SixMansPlugin@@EEAAXXZ 0000000180024e70     SixMansPlugin-Rework.obj
 0002:00010e80       $unwind$??4?$shared_ptr@VCVarManagerWrapper@@@std@@QEAAAEAV01@AEBV01@@Z 0000000180024e80     SixMansPlugin-Rework.obj
 0002:00010e80       $unwind$??4BakkesModPlugin@Plugin@BakkesMod@@QEAAAEAV012@AEBV012@@Z 0000000180024e80     pch.obj
 0002:00010e8c       $chain$0$??4?$shared_ptr@VCVarManagerWrapper@@@std@@QEAAAEAV01@AEBV01@@Z 0000000180024e8c     SixMansPlugin-Rework.obj
 0002:00010ea0       $chain$1$??4?$shared_ptr@VCVarManagerWrapper@@@std@@QEAAAEAV01@AEBV01@@Z 0000000180024ea0     SixMansPlugin-Rework.obj
 0002:00010eb0       $unwind$??1BakkesModPlugin@Plugin@BakkesMod@@QEAA@XZ 0000000180024eb0     SixMansPlugin-Rework.obj
 0002:00010eb0       $unwind$__acrt_getptd      0000000180024eb0     libucrt:per_thread_data.obj
 0002:00010eb0       $unwind$__acrt_getptd_noexit 0000000180024eb0     libucrt:per_thread_data.obj
 0002:00010eb0       $unwind$__acrt_execute_initializers 0000000180024eb0     libucrt:shared_initialization.obj
 0002:00010eb0       $unwind$__acrt_InitializeCriticalSectionEx 0000000180024eb0     libucrt:winapi_thunks.obj
 0002:00010eb0       $unwind$?free_crt_array_internal@@YAXQEAPEBX_K@Z 0000000180024eb0     libucrt:inittime.obj
 0002:00010eb0       $unwind$??$common_lseek_nolock@_J@@YA_JH_JH@Z 0000000180024eb0     libucrt:lseek.obj
 0002:00010eb0       $unwind$__acrt_stdio_flush_nolock 0000000180024eb0     libucrt:fflush.obj
 0002:00010eb0       $unwind$??0_LocaleUpdate@@QEAA@QEAU__crt_locale_pointers@@@Z 0000000180024eb0     libucrt:output.obj
 0002:00010eb0       $unwind$_exception_enabled 0000000180024eb0     libucrt:libm_error.obj
 0002:00010eb0       $unwind$_DllMainCRTStartup 0000000180024eb0     LIBCMT:dll_dllmain.obj
 0002:00010eb0       $unwind$__vcrt_getptd_noexit 0000000180024eb0     libvcruntime:per_thread_data.obj
 0002:00010eb0       $unwind$__vcrt_InitializeCriticalSectionEx 0000000180024eb0     libvcruntime:winapi_downlevel.obj
 0002:00010ec0       $chain$0$??4BakkesModPlugin@Plugin@BakkesMod@@QEAAAEAV012@AEBV012@@Z 0000000180024ec0     pch.obj
 0002:00010ed4       $chain$1$??4BakkesModPlugin@Plugin@BakkesMod@@QEAAAEAV012@AEBV012@@Z 0000000180024ed4     pch.obj
 0002:00010ee4       $unwind$??4BakkesModPlugin@Plugin@BakkesMod@@QEAAAEAV012@$$QEAV012@@Z 0000000180024ee4     pch.obj
 0002:00010efc       $unwind$??__Finit_atexit@@YAXXZ 0000000180024efc     libcpmt:iosptrs.obj
 0002:00010f0c       $cppxdata$??__Finit_atexit@@YAXXZ 0000000180024f0c     libcpmt:iosptrs.obj
 0002:00010f15       $stateUnwindMap$??__Finit_atexit@@YAXXZ 0000000180024f15     libcpmt:iosptrs.obj
 0002:00010f1b       $ip2state$??__Finit_atexit@@YAXXZ 0000000180024f1b     libcpmt:iosptrs.obj
 0002:00010f20       $xdatasym                  0000000180024f20     LIBCMT:amdsecgs.obj
 0002:00010f24       $unwind$__scrt_is_nonwritable_in_current_image 0000000180024f24     LIBCMT:utility.obj
 0002:00010f44       $unwind$__scrt_is_nonwritable_in_current_image$filt$0 0000000180024f44     LIBCMT:utility.obj
 0002:00010f4c       $unwind$_recalloc_base     0000000180024f4c     libucrt:recalloc.obj
 0002:00010f4c       $unwind$__acrt_free_locale 0000000180024f4c     libucrt:locale_refcounting.obj
 0002:00010f4c       $unwind$__acrt_lowio_create_handle_array 0000000180024f4c     libucrt:osfinfo.obj
 0002:00010f4c       $unwind$?setSBCS@@YAXPEAU__crt_multibyte_data@@@Z 0000000180024f4c     libucrt:mbctype.obj
 0002:00010f4c       $unwind$_seh_filter_exe    0000000180024f4c     libucrt:exception_filter.obj
 0002:00010f4c       $unwind$_initterm          0000000180024f4c     libucrt:initterm.obj
 0002:00010f4c       $unwind$__scrt_dllmain_exception_filter 0000000180024f4c     LIBCMT:utility.obj
 0002:00010f4c       $unwind$?Is_bad_exception_allowed@@YAEPEBU_s_ESTypeList@@@Z 0000000180024f4c     libvcruntime:frame.obj
 0002:00010f60       $unwind$__report_securityfailure 0000000180024f60     LIBCMT:gs_report.obj
 0002:00010f68       $unwind$__report_gsfailure 0000000180024f68     LIBCMT:gs_report.obj
 0002:00010f70       $unwind$capture_current_context 0000000180024f70     LIBCMT:gs_report.obj
 0002:00010f7c       $unwind$capture_previous_context 0000000180024f7c     LIBCMT:gs_report.obj
 0002:00010f88       $unwind$?dllmain_crt_process_attach@@YAHQEAUHINSTANCE__@@QEAX@Z 0000000180024f88     LIBCMT:dll_dllmain.obj
 0002:00010fc4       $unwind$_query_new_handler$fin$0 0000000180024fc4     libucrt:new_handler.obj
 0002:00010fc4       $unwind$?fin$0@?0???$?RV<lambda_0ae27a3a962d80f24befdcbee591983d>@@AEAV<lambda_8d0ee55de4b1038c4002e0adecdf1839>@@V<lambda_dc504788e8f1664fe9b84e20bfb512f2>@@@?$__crt_seh_guarded_call@X@@QEAAX$$QEAV<lambda_0ae27a3a962d80f24befdcbee591983d>@@AEAV<lambda_8d0ee55de4b1038c4002e0adecdf1839>@@$$QEAV<lambda_dc504788e8f1664fe9b84e20bfb512f2>@@@Z@4HA 0000000180024fc4     libucrt:per_thread_data.obj
 0002:00010fc4       $unwind$?fin$0@?0???$?RV<lambda_2d41944a1d46af3157314b8a01080d33>@@AEAV<lambda_8f455de75cd7d7f24b4096f044d8b9e6>@@V<lambda_aa500f224e6afead328df44964fe2772>@@@?$__crt_seh_guarded_call@X@@QEAAX$$QEAV<lambda_2d41944a1d46af3157314b8a01080d33>@@AEAV<lambda_8f455de75cd7d7f24b4096f044d8b9e6>@@$$QEAV<lambda_aa500f224e6afead328df44964fe2772>@@@Z@4HA 0000000180024fc4     libucrt:per_thread_data.obj
 0002:00010fc4       $unwind$?fin$0@?0???$?RV<lambda_aa87e3671a710a21b5dc78c0bdf72e11>@@AEAV<lambda_92619d2358a28f41a33ba319515a20b9>@@V<lambda_6992ecaafeb10aed2b74cb1fae11a551>@@@?$__crt_seh_guarded_call@X@@QEAAX$$QEAV<lambda_aa87e3671a710a21b5dc78c0bdf72e11>@@AEAV<lambda_92619d2358a28f41a33ba319515a20b9>@@$$QEAV<lambda_6992ecaafeb10aed2b74cb1fae11a551>@@@Z@4HA 0000000180024fc4     libucrt:per_thread_data.obj
 0002:00010fc4       $unwind$?fin$0@?0???$?RV<lambda_f2e299630e499de9f9a165e60fcd3db5>@@AEAV<lambda_2ae9d31cdba2644fcbeaf08da7c24588>@@V<lambda_40d01ff24d0e7b3814fdbdcee8eab3c7>@@@?$__crt_seh_guarded_call@X@@QEAAX$$QEAV<lambda_f2e299630e499de9f9a165e60fcd3db5>@@AEAV<lambda_2ae9d31cdba2644fcbeaf08da7c24588>@@$$QEAV<lambda_40d01ff24d0e7b3814fdbdcee8eab3c7>@@@Z@4HA 0000000180024fc4     libucrt:per_thread_data.obj
 0002:00010fc4       $unwind$__acrt_update_thread_locale_data$fin$0 0000000180024fc4     libucrt:locale_refcounting.obj
 0002:00010fc4       $unwind$?fin$0@?0???$?RV<lambda_410d79af7f07d98d83a3f525b3859a53>@@AEAV<lambda_3e16ef9562a7dcce91392c22ab16ea36>@@V<lambda_38119f0e861e05405d8a144b9b982f0a>@@@?$__crt_seh_guarded_call@X@@QEAAX$$QEAV<lambda_410d79af7f07d98d83a3f525b3859a53>@@AEAV<lambda_3e16ef9562a7dcce91392c22ab16ea36>@@$$QEAV<lambda_38119f0e861e05405d8a144b9b982f0a>@@@Z@4HA 0000000180024fc4     libucrt:wsetlocale.obj
 0002:00010fc4       $unwind$?fin$0@?0???$?RV<lambda_751a882b2c74d4b022dec766aa51a29a>@@AEAV<lambda_628dfdc04ba53c8bfc02c9951375f3f5>@@V<lambda_f6c7be5f7998530c34de24c7437d6b54>@@@?$__crt_seh_guarded_call@H@@QEAAH$$QEAV<lambda_751a882b2c74d4b022dec766aa51a29a>@@AEAV<lambda_628dfdc04ba53c8bfc02c9951375f3f5>@@$$QEAV<lambda_f6c7be5f7998530c34de24c7437d6b54>@@@Z@4HA 0000000180024fc4     libucrt:close.obj
 0002:00010fc4       $unwind$?fin$0@?0???$?RV<lambda_a37b2b86f63e897a80ea819b0eb08c01>@@AEAV<lambda_38ce7e780aa69e748d6df282ebc68efe>@@V<lambda_99fb1378e971ab6e7edea83e3a7a83a2>@@@?$__crt_seh_guarded_call@H@@QEAAH$$QEAV<lambda_a37b2b86f63e897a80ea819b0eb08c01>@@AEAV<lambda_38ce7e780aa69e748d6df282ebc68efe>@@$$QEAV<lambda_99fb1378e971ab6e7edea83e3a7a83a2>@@@Z@4HA 0000000180024fc4     libucrt:commit.obj
 0002:00010fc4       $unwind$__acrt_initialize_lowio$fin$0 0000000180024fc4     libucrt:ioinit.obj
 0002:00010fc4       $unwind$__acrt_lowio_ensure_fh_exists$fin$0 0000000180024fc4     libucrt:osfinfo.obj
 0002:00010fc4       $unwind$_write$fin$0       0000000180024fc4     libucrt:write.obj
 0002:00010fc4       $unwind$?fin$0@?0???$?RV<lambda_efdfa57d1f175319df784efa44bb7b81>@@AEAV<lambda_5f0a4c1567f8adc6734073e5d1e1b35c>@@V<lambda_2e8a7d3640ea6ccb4c2413664c2db6fd>@@@?$__crt_seh_guarded_call@X@@QEAAX$$QEAV<lambda_efdfa57d1f175319df784efa44bb7b81>@@AEAV<lambda_5f0a4c1567f8adc6734073e5d1e1b35c>@@$$QEAV<lambda_2e8a7d3640ea6ccb4c2413664c2db6fd>@@@Z@4HA 0000000180024fc4     libucrt:mbctype.obj
 0002:00010fc4       $unwind$?fin$0@?0??update_thread_multibyte_data_internal@@YAPEAU__crt_multibyte_data@@QEAU__acrt_ptd@@QEAPEAU1@@Z@4HA 0000000180024fc4     libucrt:mbctype.obj
 0002:00010fc4       $unwind$?fin$0@?0???$?RV<lambda_450d765d439847d4c735a33c368b5fc0>@@AEAV<lambda_44731a7d0e6d81c3e6aa82d741081786>@@V<lambda_601a2a7da3b7a96e9554ac7215c4b07c>@@@?$__crt_seh_guarded_call@P6AXH@Z@@QEAAP6AXH@Z$$QEAV<lambda_450d765d439847d4c735a33c368b5fc0>@@AEAV<lambda_44731a7d0e6d81c3e6aa82d741081786>@@$$QEAV<lambda_601a2a7da3b7a96e9554ac7215c4b07c>@@@Z@4HA 0000000180024fc4     libucrt:signal.obj
 0002:00010fc4       $unwind$raise$fin$0        0000000180024fc4     libucrt:signal.obj
 0002:00010fc4       $unwind$?filt$0@?0???R<lambda_6e4b09c48022b2350581041d5f6b0c4c>@@QEBA@XZ@4HA 0000000180024fc4     libucrt:exit.obj
 0002:00010fc4       $unwind$?fin$0@?0???$?RV<lambda_d80eeec6fff315bfe5c115232f3240e3>@@AEAV<lambda_6e4b09c48022b2350581041d5f6b0c4c>@@V<lambda_2358e3775559c9db80273638284d5e45>@@@?$__crt_seh_guarded_call@X@@QEAAX$$QEAV<lambda_d80eeec6fff315bfe5c115232f3240e3>@@AEAV<lambda_6e4b09c48022b2350581041d5f6b0c4c>@@$$QEAV<lambda_2358e3775559c9db80273638284d5e45>@@@Z@4HA 0000000180024fc4     libucrt:exit.obj
 0002:00010fc4       $unwind$?fin$0@?0???$?RV<lambda_638799b9deba96c50f710eeac98168cd>@@AEAV<lambda_22ebabd17bc4fa466a2aca6d8deb888d>@@V<lambda_a6f7d7db0129f75315ebf26d50c089f1>@@@?$__crt_seh_guarded_call@H@@QEAAH$$QEAV<lambda_638799b9deba96c50f710eeac98168cd>@@AEAV<lambda_22ebabd17bc4fa466a2aca6d8deb888d>@@$$QEAV<lambda_a6f7d7db0129f75315ebf26d50c089f1>@@@Z@4HA 0000000180024fc4     libucrt:onexit.obj
 0002:00010fc4       $unwind$?fin$0@?0???$?RV<lambda_7777bce6b2f8c936911f934f8298dc43>@@AEAV<lambda_f03950bc5685219e0bcd2087efbe011e>@@V<lambda_3883c3dff614d5e0c5f61bb1ac94921c>@@@?$__crt_seh_guarded_call@H@@QEAAH$$QEAV<lambda_7777bce6b2f8c936911f934f8298dc43>@@AEAV<lambda_f03950bc5685219e0bcd2087efbe011e>@@$$QEAV<lambda_3883c3dff614d5e0c5f61bb1ac94921c>@@@Z@4HA 0000000180024fc4     libucrt:onexit.obj
 0002:00010fc4       $unwind$_fcloseall$fin$0   0000000180024fc4     libucrt:closeall.obj
 0002:00010fc4       $unwind$fclose$fin$0       0000000180024fc4     libucrt:fclose.obj
 0002:00010fc4       $unwind$?fin$0@?0???$?RV<lambda_842d9ff0dc9ef11c61343bbaebe7f885>@@AEAV<lambda_c5860995281e5c4ce005b3de8f5874ee>@@V<lambda_d90129c13df834fdcbf8d2b88dafcf2d>@@@?$__crt_seh_guarded_call@X@@QEAAX$$QEAV<lambda_842d9ff0dc9ef11c61343bbaebe7f885>@@AEAV<lambda_c5860995281e5c4ce005b3de8f5874ee>@@$$QEAV<lambda_d90129c13df834fdcbf8d2b88dafcf2d>@@@Z@4HA 0000000180024fc4     libucrt:fflush.obj
 0002:00010fc4       $unwind$?fin$0@?0???$?RV<lambda_886d6c58226a84441f68b9f2b8217b83>@@AEAV<lambda_ab61a845afdef5b7c387490eaf3616ee>@@V<lambda_f7f22ab5edc0698d5f6905b0d3f44752>@@@?$__crt_seh_guarded_call@X@@QEAAX$$QEAV<lambda_886d6c58226a84441f68b9f2b8217b83>@@AEAV<lambda_ab61a845afdef5b7c387490eaf3616ee>@@$$QEAV<lambda_f7f22ab5edc0698d5f6905b0d3f44752>@@@Z@4HA 0000000180024fc4     libucrt:fflush.obj
 0002:00010fc4       $unwind$_ctrlfp$filt$0     0000000180024fc4     libucrt:fpctrl.obj
 0002:00010fc4       $unwind$?fin$0@?0??dllmain_crt_process_attach@@YAHQEAUHINSTANCE__@@QEAX@Z@4HA 0000000180024fc4     LIBCMT:dll_dllmain.obj
 0002:00010fc4       $unwind$?fin$0@?0??dllmain_crt_process_detach@@YAH_N@Z@4HA 0000000180024fc4     LIBCMT:dll_dllmain.obj
 0002:00010fc4       $unwind$?fin$1@?0??dllmain_crt_process_detach@@YAH_N@Z@4HA 0000000180024fc4     LIBCMT:dll_dllmain.obj
 0002:00010fc4       $unwind$_IsNonwritableInCurrentImage$filt$0 0000000180024fc4     LIBCMT:pesect.obj
 0002:00010fc4       $unwind$?filt$0@?0??CxxCallCatchBlock@__FrameHandler4@@SAPEAXPEAU_EXCEPTION_RECORD@@@Z@4HA 0000000180024fc4     libvcruntime:frame.obj
 0002:00010fcc       $unwind$?dllmain_crt_process_detach@@YAH_N@Z 0000000180024fcc     LIBCMT:dll_dllmain.obj
 0002:00011020       $unwind$?dllmain_dispatch@@YAHQEAUHINSTANCE__@@KQEAX@Z 0000000180025020     LIBCMT:dll_dllmain.obj
 0002:00011048       $unwind$?filt$0@?0??dllmain_dispatch@@YAHQEAUHINSTANCE__@@KQEAX@Z@4HA 0000000180025048     LIBCMT:dll_dllmain.obj
 0002:00011048       $unwind$?filt$0@?0??FrameUnwindToState@__FrameHandler4@@SAXPEA_KPEAU_xDISPATCHER_CONTEXT@@PEAUFuncInfo4@FH4@@H@Z@4HA 0000000180025048     libvcruntime:frame.obj
 0002:00011048       $unwind$?fin$1@?0??FrameUnwindToState@__FrameHandler4@@SAXPEA_KPEAU_xDISPATCHER_CONTEXT@@PEAUFuncInfo4@FH4@@H@Z@4HA 0000000180025048     libvcruntime:frame.obj
 0002:00011050       $unwind$__GSHandlerCheckCommon 0000000180025050     LIBCMT:gshandler.obj
 0002:00011058       $xdatasym                  0000000180025058     LIBCMT:chkstk.obj
 0002:00011060       $unwind$_raise_exc         0000000180025060     libucrt:fpexcept.obj
 0002:00011060       $unwind$_raise_excf        0000000180025060     libucrt:fpexcept.obj
 0002:00011060       $unwind$?__scrt_throw_std_bad_alloc@@YAXXZ 0000000180025060     LIBCMT:throw_bad_alloc.obj
 0002:00011060       $unwind$?__scrt_throw_std_bad_array_new_length@@YAXXZ 0000000180025060     LIBCMT:throw_bad_alloc.obj
 0002:00011068       $unwind$__scrt_fastfail    0000000180025068     LIBCMT:utility_desktop.obj
 0002:00011078       $unwind$__isa_available_init 0000000180025078     LIBCMT:cpu_disp.obj
 0002:00011088       $unwind$__security_init_cookie 0000000180025088     LIBCMT:gs_support.obj
 0002:00011098       $xdatasym                  0000000180025098     LIBCMT:guard_dispatch.obj
 0002:000110a0       $xdatasym                  00000001800250a0     LIBCMT:guard_xfg_dispatch.obj
 0002:000110a4       $unwind$?StateFromIp@__FrameHandler4@@SAHPEAUFuncInfo4@FH4@@PEAU_xDISPATCHER_CONTEXT@@_K@Z 00000001800250a4     libvcruntime:ehstate.obj
 0002:000110a4       $unwind$?DecompFuncInfo@FH4@@YA_JPEAEAEAUFuncInfo4@1@_KH_N@Z 00000001800250a4     libvcruntime:risctrnsctrl.obj
 0002:000110bc       $unwind$?UnwindNestedFrames@__FrameHandler4@@SAXPEA_KPEAUEHExceptionRecord@@PEAU_CONTEXT@@0PEAXPEAUFuncInfo4@FH4@@HHPEAUHandlerType4@5@PEAU_xDISPATCHER_CONTEXT@@E@Z 00000001800250bc     libvcruntime:risctrnsctrl.obj
 0002:000110d0       $unwind$?GetRangeOfTrysToCheck@__FrameHandler4@@SA?AU?$pair@Viterator@TryBlockMap4@FH4@@V123@@std@@AEAVTryBlockMap4@FH4@@HPEAU_xDISPATCHER_CONTEXT@@PEAUFuncInfo4@5@H@Z 00000001800250d0     libvcruntime:risctrnsctrl.obj
 0002:000110ec       $unwind$__CxxFrameHandler4 00000001800250ec     libvcruntime:risctrnsctrl.obj
 0002:00011100       $unwind$??$_CallSETranslator@V__FrameHandler4@@@@YAHPEAUEHExceptionRecord@@PEA_KPEAU_CONTEXT@@PEAU_xDISPATCHER_CONTEXT@@PEAUFuncInfo4@FH4@@K1H@Z 0000000180025100     libvcruntime:risctrnsctrl.obj
 0002:00011120       $unwind$?filt$0@?0???$_CallSETranslator@V__FrameHandler4@@@@YAHPEAUEHExceptionRecord@@PEA_KPEAU_CONTEXT@@PEAU_xDISPATCHER_CONTEXT@@PEAUFuncInfo4@FH4@@K1H@Z@4HA 0000000180025120     libvcruntime:risctrnsctrl.obj
 0002:0001112c       $unwind$__DestructExceptionObject 000000018002512c     libvcruntime:ehhelpers.obj
 0002:0001114c       $unwind$__DestructExceptionObject$filt$0 000000018002514c     libvcruntime:ehhelpers.obj
 0002:0001114c       $unwind$?fin$1@?0??CxxCallCatchBlock@__FrameHandler4@@SAPEAXPEAU_EXCEPTION_RECORD@@@Z@4HA 000000018002514c     libvcruntime:frame.obj
 0002:00011158       $unwind$_free_osfhnd       0000000180025158     libucrt:osfinfo.obj
 0002:00011158       $unwind$__std_exception_copy 0000000180025158     libvcruntime:std_exception.obj
 0002:0001116c       $unwind$_CxxThrowException 000000018002516c     libvcruntime:throw.obj
 0002:00011180       $xdatasym                  0000000180025180     libvcruntime:memcpy.obj
 0002:00011190       $xdatasym                  0000000180025190     libvcruntime:memchr.obj
 0002:00011198       $xdatasym                  0000000180025198     libvcruntime:memset.obj
 0002:000111a8       $xdatasym                  00000001800251a8     libvcruntime:memcmp.obj
 0002:000111ac       $unwind$__C_specific_handler 00000001800251ac     libvcruntime:riscchandler.obj
 0002:000111c8       $unwind$?getStartStop@UWMap4@FH4@@QEAAXHHAEAViterator@12@0@Z 00000001800251c8     libvcruntime:frame.obj
 0002:000111e0       $unwind$?getStateFromIterators@UWMap4@FH4@@SAHAEBViterator@12@H0H0@Z 00000001800251e0     libvcruntime:frame.obj
 0002:000111f0       $unwind$?FrameUnwindToState@__FrameHandler4@@SAXPEA_KPEAU_xDISPATCHER_CONTEXT@@PEAUFuncInfo4@FH4@@H@Z 00000001800251f0     libvcruntime:frame.obj
 0002:00011238       $unwind$?CxxCallCatchBlock@__FrameHandler4@@SAPEAXPEAU_EXCEPTION_RECORD@@@Z 0000000180025238     libvcruntime:frame.obj
 0002:00011294       $unwind$?IsInExceptionSpec@@YAEPEAUEHExceptionRecord@@PEBU_s_ESTypeList@@@Z 0000000180025294     libvcruntime:frame.obj
 0002:000112b0       $unwind$??$__InternalCxxFrameHandler@V__FrameHandler4@@@@YA?AW4_EXCEPTION_DISPOSITION@@PEAUEHExceptionRecord@@PEA_KPEAU_CONTEXT@@PEAU_xDISPATCHER_CONTEXT@@PEAUFuncInfo4@FH4@@H1E@Z 00000001800252b0     libvcruntime:frame.obj
 0002:000112c8       $unwind$?initialize_stdio_handles_nolock@@YAXXZ 00000001800252c8     libucrt:ioinit.obj
 0002:000112c8       $unwind$__acrt_initialize_stdio 00000001800252c8     libucrt:_file.obj
 0002:000112c8       $unwind$__GSHandlerCheck_SEH 00000001800252c8     LIBCMT:gshandlerseh.obj
 0002:000112c8       $unwind$??$TypeMatchHelper@V__FrameHandler3@@@@YAHPEBU_s_HandlerType@@PEBU_s_CatchableType@@PEBU_s_ThrowInfo@@@Z 00000001800252c8     libvcruntime:frame.obj
 0002:000112c8       $unwind$??$TypeMatchHelper@V__FrameHandler4@@@@YAHPEAUHandlerType4@FH4@@PEBU_s_CatchableType@@PEBU_s_ThrowInfo@@@Z 00000001800252c8     libvcruntime:frame.obj
 0002:000112e0       $unwind$??$BuildCatchObjectHelperInternal@V__FrameHandler4@@@@YAHPEAUEHExceptionRecord@@PEAXPEAUHandlerType4@FH4@@PEBU_s_CatchableType@@@Z 00000001800252e0     libvcruntime:frame.obj
 0002:00011320       $unwind$??$BuildCatchObjectInternal@V__FrameHandler4@@@@YAXPEAUEHExceptionRecord@@PEAXPEAUHandlerType4@FH4@@PEBU_s_CatchableType@@@Z 0000000180025320     libvcruntime:frame.obj
 0002:0001134c       $unwind$??$FindHandler@V__FrameHandler4@@@@YAXPEAUEHExceptionRecord@@PEA_KPEAU_CONTEXT@@PEAU_xDISPATCHER_CONTEXT@@PEAUFuncInfo4@FH4@@EH1@Z 000000018002534c     libvcruntime:frame.obj
 0002:0001136c       $unwind$??$CatchIt@V__FrameHandler4@@@@YAXPEAUEHExceptionRecord@@PEA_KPEAU_CONTEXT@@PEAU_xDISPATCHER_CONTEXT@@PEAUFuncInfo4@FH4@@PEAUHandlerType4@4@PEBU_s_CatchableType@@PEAUTryBlockMapEntry4@4@H1EE@Z 000000018002536c     libvcruntime:frame.obj
 0002:00011384       $unwind$??$FindHandlerForForeignException@V__FrameHandler4@@@@YAXPEAUEHExceptionRecord@@PEA_KPEAU_CONTEXT@@PEAU_xDISPATCHER_CONTEXT@@PEAUFuncInfo4@FH4@@HH1@Z 0000000180025384     libvcruntime:frame.obj
 0002:000113a8       $xdatasym                  00000001800253a8     libvcruntime:notify.obj
 0002:000113b4       $unwind$?try_get_function@@YAPEAXW4function_id@?A0x391cf84c@@QEBDQEBW4module_id@2@2@Z 00000001800253b4     libucrt:winapi_thunks.obj
 0002:000113b4       $unwind$?try_get_function@@YAPEAXW4function_id@?A0x5d44c8f9@@QEBDQEBW4module_id@2@2@Z 00000001800253b4     libvcruntime:winapi_downlevel.obj
 0002:000113d0       $xdatasym                  00000001800253d0     libvcruntime:handlers.obj
 0002:000113f0       $unwind$terminate          00000001800253f0     libucrt:terminate.obj
 0002:00011410       $unwind$_invalid_parameter_noinfo 0000000180025410     libucrt:invalid_parameter.obj
 0002:00011410       $unwind$_log10_special     0000000180025410     libucrt:log_special.obj
 0002:00011418       $unwind$__acrt_call_reportfault 0000000180025418     libucrt:invalid_parameter.obj
 0002:00011438       $unwind$_invalid_parameter 0000000180025438     libucrt:invalid_parameter.obj
 0002:0001144c       $unwind$__acrt_lowio_destroy_handle_array 000000018002544c     libucrt:osfinfo.obj
 0002:0001145c       $unwind$__acrt_lowio_ensure_fh_exists 000000018002545c     libucrt:osfinfo.obj
 0002:00011488       $unwind$fclose             0000000180025488     libucrt:fclose.obj
 0002:000114ac       $unwind$??$__acrt_mbs_to_wcs_cp@U__crt_win32_buffer_internal_dynamic_resizing@@@@YAHQEBDAEAV?$__crt_win32_buffer@_WU__crt_win32_buffer_internal_dynamic_resizing@@@@I@Z 00000001800254ac     libucrt:open.obj
 0002:000114c4       $unwind$_close             00000001800254c4     libucrt:close.obj
 0002:000114c4       $unwind$_commit            00000001800254c4     libucrt:commit.obj
 0002:000114cc       $unwind$??$?RV<lambda_751a882b2c74d4b022dec766aa51a29a>@@AEAV<lambda_628dfdc04ba53c8bfc02c9951375f3f5>@@V<lambda_f6c7be5f7998530c34de24c7437d6b54>@@@?$__crt_seh_guarded_call@H@@QEAAH$$QEAV<lambda_751a882b2c74d4b022dec766aa51a29a>@@AEAV<lambda_628dfdc04ba53c8bfc02c9951375f3f5>@@$$QEAV<lambda_f6c7be5f7998530c34de24c7437d6b54>@@@Z 00000001800254cc     libucrt:close.obj
 0002:000114f0       $unwind$_write             00000001800254f0     libucrt:write.obj
 0002:00011520       $unwind$_write_nolock      0000000180025520     libucrt:write.obj
 0002:00011538       $unwind$?write_double_translated_ansi_nolock@@YA?AUwrite_result@?A0x17268360@@HQEBDI@Z 0000000180025538     libucrt:write.obj
 0002:0001155c       $unwind$?write_text_ansi_nolock@@YA?AUwrite_result@?A0x17268360@@HQEBDI@Z 000000018002555c     libucrt:write.obj
 0002:0001155c       $unwind$?write_text_utf16le_nolock@@YA?AUwrite_result@?A0x17268360@@HQEBDI@Z 000000018002555c     libucrt:write.obj
 0002:0001157c       $unwind$?write_text_utf8_nolock@@YA?AUwrite_result@?A0x17268360@@HQEBDI@Z 000000018002557c     libucrt:write.obj
 0002:000115a0       $xdatasym                  00000001800255a0     libucrt:strncpy.obj
 0002:000115a4       $unwind$qsort              00000001800255a4     libucrt:qsort.obj
 0002:000115bc       $chain$4$qsort             00000001800255bc     libucrt:qsort.obj
 0002:000115e0       $chain$5$qsort             00000001800255e0     libucrt:qsort.obj
 0002:000115f0       $unwind$?common_flush_all@@YAH_N@Z 00000001800255f0     libucrt:fflush.obj
 0002:000115f8       $unwind$??$?RV<lambda_842d9ff0dc9ef11c61343bbaebe7f885>@@AEAV<lambda_c5860995281e5c4ce005b3de8f5874ee>@@V<lambda_d90129c13df834fdcbf8d2b88dafcf2d>@@@?$__crt_seh_guarded_call@X@@QEAAX$$QEAV<lambda_842d9ff0dc9ef11c61343bbaebe7f885>@@AEAV<lambda_c5860995281e5c4ce005b3de8f5874ee>@@$$QEAV<lambda_d90129c13df834fdcbf8d2b88dafcf2d>@@@Z 00000001800255f8     libucrt:fflush.obj
 0002:0001161c       $unwind$??$?RV<lambda_886d6c58226a84441f68b9f2b8217b83>@@AEAV<lambda_ab61a845afdef5b7c387490eaf3616ee>@@V<lambda_f7f22ab5edc0698d5f6905b0d3f44752>@@@?$__crt_seh_guarded_call@X@@QEAAX$$QEAV<lambda_886d6c58226a84441f68b9f2b8217b83>@@AEAV<lambda_ab61a845afdef5b7c387490eaf3616ee>@@$$QEAV<lambda_f7f22ab5edc0698d5f6905b0d3f44752>@@@Z 000000018002561c     libucrt:fflush.obj
 0002:00011648       $xdatasym                  0000000180025648     libucrt:strncmp.obj
 0002:00011650       $xdatasym                  0000000180025650     libucrt:pow.obj
 0002:00011660       $xdatasym                  0000000180025660     libucrt:powf.obj
 0002:00011670       $unwind$__dcrt_write_console 0000000180025670     libucrt:initcon.obj
 0002:00011670       $unwind$??$__acrt_wcs_to_mbs_cp@U__crt_win32_buffer_no_resizing@@@@YAHQEB_WAEAV?$__crt_win32_buffer@DU__crt_win32_buffer_no_resizing@@@@I@Z 0000000180025670     libucrt:strftime.obj
 0002:00011684       $unwind$_query_new_handler 0000000180025684     libucrt:new_handler.obj
 0002:000116a4       $unwind$?common_exit@@YAXHW4_crt_exit_cleanup_mode@@W4_crt_exit_return_mode@@@Z 00000001800256a4     libucrt:exit.obj
 0002:000116b0       $unwind$??R<lambda_6e4b09c48022b2350581041d5f6b0c4c>@@QEBA@XZ 00000001800256b0     libucrt:exit.obj
 0002:000116d0       $unwind$??$?RV<lambda_d80eeec6fff315bfe5c115232f3240e3>@@AEAV<lambda_6e4b09c48022b2350581041d5f6b0c4c>@@V<lambda_2358e3775559c9db80273638284d5e45>@@@?$__crt_seh_guarded_call@X@@QEAAX$$QEAV<lambda_d80eeec6fff315bfe5c115232f3240e3>@@AEAV<lambda_6e4b09c48022b2350581041d5f6b0c4c>@@$$QEAV<lambda_2358e3775559c9db80273638284d5e45>@@@Z 00000001800256d0     libucrt:exit.obj
 0002:000116f4       $unwind$_configure_narrow_argv 00000001800256f4     libucrt:argv_parsing.obj
 0002:00011708       $unwind$??$parse_command_line@D@@YAXPEADPEAPEAD0PEA_K2@Z 0000000180025708     libucrt:argv_parsing.obj
 0002:00011724       $unwind$??$free_environment@D@@YAXQEAPEAD@Z 0000000180025724     libucrt:environment_initialization.obj
 0002:00011724       $unwind$??$free_environment@_W@@YAXQEAPEA_W@Z 0000000180025724     libucrt:environment_initialization.obj
 0002:00011730       $unwind$??$create_environment@D@@YAQEAPEADQEAD@Z 0000000180025730     libucrt:environment_initialization.obj
 0002:00011748       $unwind$_register_onexit_function 0000000180025748     libucrt:onexit.obj
 0002:00011750       $unwind$_execute_onexit_table 0000000180025750     libucrt:onexit.obj
 0002:00011758       $unwind$??R<lambda_22ebabd17bc4fa466a2aca6d8deb888d>@@QEBAHXZ 0000000180025758     libucrt:onexit.obj
 0002:00011770       $unwind$__acrt_DownlevelLocaleNameToLCID 0000000180025770     libucrt:lcidtoname_downlevel.obj
 0002:00011770       $unwind$??R<lambda_f03950bc5685219e0bcd2087efbe011e>@@QEBAHXZ 0000000180025770     libucrt:onexit.obj
 0002:00011788       $unwind$??$?RV<lambda_638799b9deba96c50f710eeac98168cd>@@AEAV<lambda_22ebabd17bc4fa466a2aca6d8deb888d>@@V<lambda_a6f7d7db0129f75315ebf26d50c089f1>@@@?$__crt_seh_guarded_call@H@@QEAAH$$QEAV<lambda_638799b9deba96c50f710eeac98168cd>@@AEAV<lambda_22ebabd17bc4fa466a2aca6d8deb888d>@@$$QEAV<lambda_a6f7d7db0129f75315ebf26d50c089f1>@@@Z 0000000180025788     libucrt:onexit.obj
 0002:000117ac       $unwind$??$?RV<lambda_7777bce6b2f8c936911f934f8298dc43>@@AEAV<lambda_f03950bc5685219e0bcd2087efbe011e>@@V<lambda_3883c3dff614d5e0c5f61bb1ac94921c>@@@?$__crt_seh_guarded_call@H@@QEAAH$$QEAV<lambda_7777bce6b2f8c936911f934f8298dc43>@@AEAV<lambda_f03950bc5685219e0bcd2087efbe011e>@@$$QEAV<lambda_3883c3dff614d5e0c5f61bb1ac94921c>@@@Z 00000001800257ac     libucrt:onexit.obj
 0002:000117d0       $unwind$_free_base         00000001800257d0     libucrt:free_base.obj
 0002:000117d0       $unwind$?destroy_fls@@YAXPEAX@Z 00000001800257d0     libucrt:per_thread_data.obj
 0002:000117d0       $unwind$__acrt_locale_free_numeric 00000001800257d0     libucrt:initnum.obj
 0002:000117d0       $unwind$__acrt_locale_free_lc_time_if_unreferenced 00000001800257d0     libucrt:locale_refcounting.obj
 0002:000117d8       $unwind$_mbtowc_l          00000001800257d8     libucrt:mbtowc.obj
 0002:000117d8       $unwind$__acrt_LCMapStringEx 00000001800257d8     libucrt:winapi_thunks.obj
 0002:000117ec       $unwind$?construct_ptd_array@@YAXQEAU__acrt_ptd@@@Z 00000001800257ec     libucrt:per_thread_data.obj
 0002:000117f4       $unwind$?destroy_ptd_array@@YAXQEAU__acrt_ptd@@@Z 00000001800257f4     libucrt:per_thread_data.obj
 0002:000117fc       $unwind$??$?RV<lambda_0ae27a3a962d80f24befdcbee591983d>@@AEAV<lambda_8d0ee55de4b1038c4002e0adecdf1839>@@V<lambda_dc504788e8f1664fe9b84e20bfb512f2>@@@?$__crt_seh_guarded_call@X@@QEAAX$$QEAV<lambda_0ae27a3a962d80f24befdcbee591983d>@@AEAV<lambda_8d0ee55de4b1038c4002e0adecdf1839>@@$$QEAV<lambda_dc504788e8f1664fe9b84e20bfb512f2>@@@Z 00000001800257fc     libucrt:per_thread_data.obj
 0002:00011820       $unwind$??$?RV<lambda_aa87e3671a710a21b5dc78c0bdf72e11>@@AEAV<lambda_92619d2358a28f41a33ba319515a20b9>@@V<lambda_6992ecaafeb10aed2b74cb1fae11a551>@@@?$__crt_seh_guarded_call@X@@QEAAX$$QEAV<lambda_aa87e3671a710a21b5dc78c0bdf72e11>@@AEAV<lambda_92619d2358a28f41a33ba319515a20b9>@@$$QEAV<lambda_6992ecaafeb10aed2b74cb1fae11a551>@@@Z 0000000180025820     libucrt:per_thread_data.obj
 0002:00011844       $unwind$??$?RV<lambda_f2e299630e499de9f9a165e60fcd3db5>@@AEAV<lambda_2ae9d31cdba2644fcbeaf08da7c24588>@@V<lambda_40d01ff24d0e7b3814fdbdcee8eab3c7>@@@?$__crt_seh_guarded_call@X@@QEAAX$$QEAV<lambda_f2e299630e499de9f9a165e60fcd3db5>@@AEAV<lambda_2ae9d31cdba2644fcbeaf08da7c24588>@@$$QEAV<lambda_40d01ff24d0e7b3814fdbdcee8eab3c7>@@@Z 0000000180025844     libucrt:per_thread_data.obj
 0002:00011868       $unwind$??$?RV<lambda_2d41944a1d46af3157314b8a01080d33>@@AEAV<lambda_8f455de75cd7d7f24b4096f044d8b9e6>@@V<lambda_aa500f224e6afead328df44964fe2772>@@@?$__crt_seh_guarded_call@X@@QEAAX$$QEAV<lambda_2d41944a1d46af3157314b8a01080d33>@@AEAV<lambda_8f455de75cd7d7f24b4096f044d8b9e6>@@$$QEAV<lambda_aa500f224e6afead328df44964fe2772>@@@Z 0000000180025868     libucrt:per_thread_data.obj
 0002:0001188c       $unwind$__acrt_uninitialize_locale 000000018002588c     libucrt:wsetlocale.obj
 0002:0001188c       $unwind$__acrt_get_sigabrt_handler 000000018002588c     libucrt:signal.obj
 0002:00011894       $unwind$??$?RV<lambda_410d79af7f07d98d83a3f525b3859a53>@@AEAV<lambda_3e16ef9562a7dcce91392c22ab16ea36>@@V<lambda_38119f0e861e05405d8a144b9b982f0a>@@@?$__crt_seh_guarded_call@X@@QEAAX$$QEAV<lambda_410d79af7f07d98d83a3f525b3859a53>@@AEAV<lambda_3e16ef9562a7dcce91392c22ab16ea36>@@$$QEAV<lambda_38119f0e861e05405d8a144b9b982f0a>@@@Z 0000000180025894     libucrt:wsetlocale.obj
 0002:000118bc       $unwind$__acrt_initialize_lowio 00000001800258bc     libucrt:ioinit.obj
 0002:000118dc       $unwind$?initialize_inherited_file_handles_nolock@@YAXXZ 00000001800258dc     libucrt:ioinit.obj
 0002:000118f8       $unwind$__acrt_initialize_winapi_thunks 00000001800258f8     libucrt:winapi_thunks.obj
 0002:00011900       $unwind$_fcloseall         0000000180025900     libucrt:closeall.obj
 0002:00011924       $unwind$__acrt_WideCharToMultiByte 0000000180025924     libucrt:widechartomultibyte.obj
 0002:00011930       $unwind$?__mbrtowc_utf8@__crt_mbstring@@YA_KPEA_WPEBD_KPEAU_Mbstatet@@@Z 0000000180025930     libucrt:mbrtowc.obj
 0002:00011938       $unwind$?__mbsrtowcs_utf8@__crt_mbstring@@YA_KPEA_WPEAPEBD_KPEAU_Mbstatet@@@Z 0000000180025938     libucrt:mbrtowc.obj
 0002:00011950       $unwind$_putwch_nolock     0000000180025950     libucrt:putwch.obj
 0002:00011958       $unwind$__dcrt_lowio_ensure_console_output_initialized 0000000180025958     libucrt:initcon.obj
 0002:00011958       $unwind$_isleadbyte_l      0000000180025958     libucrt:_wctype.obj
 0002:00011958       $unwind$?getSystemCP@@YAHH@Z 0000000180025958     libucrt:mbctype.obj
 0002:00011960       $unwind$__acrt_LCMapStringA 0000000180025960     libucrt:lcmapstringa.obj
 0002:00011970       $unwind$?__acrt_LCMapStringA_stat@@YAHPEAU__crt_locale_pointers@@PEB_WKPEBDHPEADHHH@Z 0000000180025970     libucrt:lcmapstringa.obj
 0002:00011998       $unwind$??$?RV<lambda_a37b2b86f63e897a80ea819b0eb08c01>@@AEAV<lambda_38ce7e780aa69e748d6df282ebc68efe>@@V<lambda_99fb1378e971ab6e7edea83e3a7a83a2>@@@?$__crt_seh_guarded_call@H@@QEAAH$$QEAV<lambda_a37b2b86f63e897a80ea819b0eb08c01>@@AEAV<lambda_38ce7e780aa69e748d6df282ebc68efe>@@$$QEAV<lambda_99fb1378e971ab6e7edea83e3a7a83a2>@@@Z 0000000180025998     libucrt:commit.obj
 0002:000119bc       $unwind$__acrt_GetStringTypeA 00000001800259bc     libucrt:getstringtypea.obj
 0002:000119e4       $unwind$_raise_exc_ex      00000001800259e4     libucrt:fpexcept.obj
 0002:000119f8       $unwind$_ctrlfp            00000001800259f8     libucrt:fpctrl.obj
 0002:00011a20       $unwind$__acrt_initialize_fma3 0000000180025a20     libucrt:fma3_available.obj
 0002:00011a28       $unwind$_powf_special      0000000180025a28     libucrt:pow_special.obj
 0002:00011a38       $unwind$_pow_special       0000000180025a38     libucrt:pow_special.obj
 0002:00011a44       $unwind$raise              0000000180025a44     libucrt:signal.obj
 0002:00011a80       $unwind$??$?RV<lambda_450d765d439847d4c735a33c368b5fc0>@@AEAV<lambda_44731a7d0e6d81c3e6aa82d741081786>@@V<lambda_601a2a7da3b7a96e9554ac7215c4b07c>@@@?$__crt_seh_guarded_call@P6AXH@Z@@QEAAP6AXH@Z$$QEAV<lambda_450d765d439847d4c735a33c368b5fc0>@@AEAV<lambda_44731a7d0e6d81c3e6aa82d741081786>@@$$QEAV<lambda_601a2a7da3b7a96e9554ac7215c4b07c>@@@Z 0000000180025a80     libucrt:signal.obj
 0002:00011aa4       $unwind$__dcrt_get_narrow_environment_from_os 0000000180025aa4     libucrt:get_environment_from_os.obj
 0002:00011aa4       $unwind$??$__acrt_wcs_to_mbs_cp@U__crt_win32_buffer_internal_dynamic_resizing@@@@YAHQEB_WAEAV?$__crt_win32_buffer@DU__crt_win32_buffer_internal_dynamic_resizing@@@@I@Z 0000000180025aa4     libucrt:argv_wildcards.obj
 0002:00011abc       $unwind$??$common_expand_argv_wildcards@D@@YAHQEAPEADQEAPEAPEAD@Z 0000000180025abc     libucrt:argv_wildcards.obj
 0002:00011ad4       $unwind$??$copy_and_add_argument_to_buffer@D@@YAHQEBD0_KAEAV?$argument_list@D@?A0x5f5c8891@@@Z 0000000180025ad4     libucrt:argv_wildcards.obj
 0002:00011af0       $unwind$??$expand_argument_wildcards@D@@YAHQEAD0AEAV?$argument_list@D@?A0x5f5c8891@@@Z 0000000180025af0     libucrt:argv_wildcards.obj
 0002:00011b14       $unwind$__acrt_GetModuleFileNameA 0000000180025b14     libucrt:getmodulefilenamea.obj
 0002:00011b30       $unwind$_setmbcp_nolock    0000000180025b30     libucrt:mbctype.obj
 0002:00011b50       $unwind$?update_thread_multibyte_data_internal@@YAPEAU__crt_multibyte_data@@QEAU__acrt_ptd@@QEAPEAU1@@Z 0000000180025b50     libucrt:mbctype.obj
 0002:00011b78       $unwind$?setmbcp_internal@@YAHH_NQEAU__acrt_ptd@@QEAPEAU__crt_multibyte_data@@@Z 0000000180025b78     libucrt:mbctype.obj
 0002:00011b88       $unwind$?setSBUpLow@@YAXPEAU__crt_multibyte_data@@@Z 0000000180025b88     libucrt:mbctype.obj
 0002:00011ba4       $unwind$??$?RV<lambda_efdfa57d1f175319df784efa44bb7b81>@@AEAV<lambda_5f0a4c1567f8adc6734073e5d1e1b35c>@@V<lambda_2e8a7d3640ea6ccb4c2413664c2db6fd>@@@?$__crt_seh_guarded_call@X@@QEAAX$$QEAV<lambda_efdfa57d1f175319df784efa44bb7b81>@@AEAV<lambda_5f0a4c1567f8adc6734073e5d1e1b35c>@@$$QEAV<lambda_2e8a7d3640ea6ccb4c2413664c2db6fd>@@@Z 0000000180025ba4     libucrt:mbctype.obj
 0002:00011bc8       $unwind$?x_ismbbtype_l@@YAHPEAU__crt_locale_pointers@@IHH@Z 0000000180025bc8     libucrt:ismbbyte.obj
 0002:00011bd8       $unwind$__acrt_update_thread_locale_data 0000000180025bd8     libucrt:locale_refcounting.obj
 0002:00011bfc       $unwind$__acrt_locale_free_monetary 0000000180025bfc     libucrt:initmon.obj
 0002:00011c04       $unwind$__acrt_locale_free_time 0000000180025c04     libucrt:inittime.obj
 0002:00011c14       $unwind$?__mbrtoc32_utf8@__crt_mbstring@@YA_KPEA_UPEBD_KPEAU_Mbstatet@@@Z 0000000180025c14     libucrt:mbrtoc32.obj
 0002:00011c30       $xdatasym                  0000000180025c30     libucrt:fpsr.obj
 0002:00011c38       $unwind$_call_matherr      0000000180025c38     libucrt:libm_error.obj
 0002:00011c40       $unwind$_handle_error      0000000180025c40     libucrt:libm_error.obj
 0002:00011c40       $unwind$_handle_errorf     0000000180025c40     libucrt:libm_error.obj
 0002:00011c60       $unwind$strpbrk            0000000180025c60     libucrt:strpbrk.obj
 0002:00011c70       $unwind$fallbackMethod     0000000180025c70     libucrt:strpbrk.obj
 0002:00011c80       $unwind$_mbsdec_l          0000000180025c80     libucrt:mbsdec.obj
 0002:00011c90       $xdatasym                  0000000180025c90     libucrt:log10.obj
 0002:00011c9c       $unwind$_log_special_common 0000000180025c9c     libucrt:log_special.obj
 0002:00011ca8       $unwind$_IsNonwritableInCurrentImage 0000000180025ca8     LIBCMT:pesect.obj
 0002:00011cd0       $xdatasym                  0000000180025cd0     libucrt:sinf.obj
 0002:00011cd8       $xdatasym                  0000000180025cd8     libucrt:remainder_piby2f_forc.obj
 0002:00011ce8       $unwind$_sincosf_special   0000000180025ce8     libucrt:sincos_special.obj
 0002:00011e40       .edata                     0000000180025e40     SixMansPlugin-Rework.exp
 0002:00011e68       rgpv                       0000000180025e68     SixMansPlugin-Rework.exp
 0002:00011e9c       rgszName                   0000000180025e9c     SixMansPlugin-Rework.exp
 0002:00011ed0       rgwOrd                     0000000180025ed0     SixMansPlugin-Rework.exp
 0002:00011eea       szName                     0000000180025eea     SixMansPlugin-Rework.exp
 0002:00011f03       $N00001                    0000000180025f03     SixMansPlugin-Rework.exp
 0002:00011f3a       $N00002                    0000000180025f3a     SixMansPlugin-Rework.exp
 0002:00011f6f       $N00003                    0000000180025f6f     SixMansPlugin-Rework.exp
 0002:00011f9c       $N00004                    0000000180025f9c     SixMansPlugin-Rework.exp
 0002:00011fc9       $N00005                    0000000180025fc9     SixMansPlugin-Rework.exp
 0002:00012007       $N00006                    0000000180026007     SixMansPlugin-Rework.exp
 0002:00012043       $N00007                    0000000180026043     SixMansPlugin-Rework.exp
 0002:0001206d       $N00008                    000000018002606d     SixMansPlugin-Rework.exp
 0002:000120ab       $N00009                    00000001800260ab     SixMansPlugin-Rework.exp
 0002:000120dd       $N00010                    00000001800260dd     SixMansPlugin-Rework.exp
 0002:00012111       $N00011                    0000000180026111     SixMansPlugin-Rework.exp
 0002:0001211a       $N00012                    000000018002611a     SixMansPlugin-Rework.exp
 0002:00012122       $N00013                    0000000180026122     SixMansPlugin-Rework.exp
 0002:000123e8       .idata$6                   00000001800263e8     kernel32:KERNEL32.dll
 0003:00000000       ?init@std@@3JA             0000000180027000     libcpmt:xlock.obj
 0003:00000008       ?atcount_cdecl@@3_KA       0000000180027008     libcpmt:iosptrs.obj
 0003:00000050       ?__vcrt_flsindex@@3KA      0000000180027050     libvcruntime:per_thread_data.obj
 0003:00000168       ?errno_no_memory@@3HA      0000000180027168     libucrt:errno.obj
 0003:0000016c       ?doserrno_no_memory@@3KA   000000018002716c     libucrt:errno.obj
 0003:00000314       ?__acrt_flsindex@@3KA      0000000180027314     libucrt:per_thread_data.obj
 0003:00000490       ?dazSupported@?1??_ctrlfp@@9@9 0000000180027490     libucrt:fpctrl.obj
 0003:000004a0       ?tzstd_program@@3PADA      00000001800274a0     libucrt:timeset.obj
 0003:000004e0       ?tzdst_program@@3PADA      00000001800274e0     libucrt:timeset.obj
 0003:00000520       ?w_tzstd_program@@3PA_WA   0000000180027520     libucrt:timeset.obj
 0003:000005a0       ?w_tzdst_program@@3PA_WA   00000001800275a0     libucrt:timeset.obj
 0003:00000620       ?tzname_states@@3PAY01PEADA 0000000180027620     libucrt:timeset.obj
 0003:00000630       ?w_tzname_states@@3PAY01PEA_WA 0000000180027630     libucrt:timeset.obj
 0003:00000870       _mbctypes                  0000000180027870     libucrt:mbctype.obj
 0003:00000980       _mbcasemaps                0000000180027980     libucrt:mbctype.obj
 0003:00000a80       ?__rgctypeflag@@3PADA      0000000180027a80     libucrt:mbctype.obj
 0003:00000a90       ?__rgcode_page_info@@3PAUcode_page_info@@A 0000000180027a90     libucrt:mbctype.obj
 0003:00000b80       ?__dcrt_lowio_console_output_handle@@3PEAXEA 0000000180027b80     libucrt:initcon.obj
 0003:00000f30       ?classic_locale@std@@3Vlocale@1@A 0000000180027f30     libcpmt:locale0.obj
 0003:00000f48       ?_Fac_head@std@@3PEAU_Fac_node@1@EA 0000000180027f48     libcpmt:locale0.obj
 0003:00000f50       ?_Fac_tidy_reg@std@@3U_Fac_tidy_reg_t@1@B 0000000180027f50     libcpmt:locale0.obj
 0003:00000f58       global_locale              0000000180027f58     libcpmt:locale0.obj
 0003:00000f60       ?initlocks@std@@3V_Init_locks@1@A 0000000180027f60     libcpmt:xlock.obj
 0003:00000f70       ?mtx@std@@3PAU_RTL_CRITICAL_SECTION@@A 0000000180027f70     libcpmt:xlock.obj
 0003:00001110       ?initlocks@std@@3V_Init_locks@1@A 0000000180028110     libcpmt:iosptrs.obj
 0003:00001111       ?init_atexit@@3U_Init_atexit@@A 0000000180028111     libcpmt:iosptrs.obj
 0003:00001120       ?atfuns_cdecl@@3PAP6AXXZA  0000000180028120     libcpmt:iosptrs.obj
 0003:00001258       ?g_tss_cv@@3U_RTL_CONDITION_VARIABLE@@A 0000000180028258     LIBCMT:thread_safe_statics.obj
 0003:00001260       ?g_tss_event@@3PEAXEA      0000000180028260     LIBCMT:thread_safe_statics.obj
 0003:00001268       ?g_tss_mutex@@3U_RTL_CRITICAL_SECTION@@A 0000000180028268     LIBCMT:thread_safe_statics.obj
 0003:00001290       ?g_sleep_condition_variable_cs@@3P6AHPEAU_RTL_CONDITION_VARIABLE@@PEAU_RTL_CRITICAL_SECTION@@K@ZEA 0000000180028290     LIBCMT:thread_safe_statics.obj
 0003:00001298       ?g_wake_all_condition_variable@@3P6AXPEAU_RTL_CONDITION_VARIABLE@@@ZEA 0000000180028298     LIBCMT:thread_safe_statics.obj
 0003:000012b0       ?is_initialized_as_dll@@3_NA 00000001800282b0     LIBCMT:utility.obj
 0003:000012b1       ?module_local_atexit_table_initialized@@3_NA 00000001800282b1     LIBCMT:utility.obj
 0003:000012b8       ?module_local_atexit_table@@3U_onexit_table_t@@A 00000001800282b8     LIBCMT:utility.obj
 0003:000012d0       ?module_local_at_quick_exit_table@@3U_onexit_table_t@@A 00000001800282d0     LIBCMT:utility.obj
 0003:000012f0       GS_ExceptionRecord         00000001800282f0     LIBCMT:gs_report.obj
 0003:00001390       GS_ContextRecord           0000000180028390     LIBCMT:gs_report.obj
 0003:00001860       ?__proc_attached@@3HA      0000000180028860     LIBCMT:dll_dllmain.obj
 0003:00001890       ?__vcrt_startup_thread_ptd@@3U__vcrt_ptd@@A 0000000180028890     libvcruntime:per_thread_data.obj
 0003:00001918       __vcrt_lock_table          0000000180028918     libvcruntime:locks.obj
 0003:00001940       __vcrt_locks_initialized   0000000180028940     libvcruntime:locks.obj
 0003:00001988       ?heap@@3V_HeapManager@@A   0000000180028988     libvcruntime:undname.obj
 0003:000019b0       ?module_handles@@3PAPEAUHINSTANCE__@@A 00000001800289b0     libvcruntime:winapi_downlevel.obj
 0003:000019c8       ?function_pointers@@3PAPEAXA 00000001800289c8     libvcruntime:winapi_downlevel.obj
 0003:00001a00       ?__acrt_invalid_parameter_handler@@3V?$dual_state_global@P6AXPEB_W00I_K@Z@__crt_state_management@@A 0000000180028a00     libucrt:invalid_parameter.obj
 0003:00001a10       ?__acrt_lock_table@@3PAU_RTL_CRITICAL_SECTION@@A 0000000180028a10     libucrt:locks.obj
 0003:00001c40       ?__acrt_locks_initialized@@3IA 0000000180028c40     libucrt:locks.obj
 0003:00001c48       ?__acrt_new_handler@@3V?$dual_state_global@P6AH_K@Z@__crt_state_management@@A 0000000180028c48     libucrt:new_handler.obj
 0003:00001c50       ?c_termination_complete@@3JA 0000000180028c50     libucrt:exit.obj
 0003:00001c58       ?thread_local_exit_callback_func@@3P6AXPEAXK0@ZEA 0000000180028c58     libucrt:exit.obj
 0003:00001c70       ?program_name@?1???$common_configure_argv@D@@YAHW4_crt_argv_mode@@@Z@4PADA 0000000180028c70     libucrt:argv_parsing.obj
 0003:00001dc8       ?internal_state@?1??_mbtowc_l@@9@4U_Mbstatet@@A 0000000180028dc8     libucrt:mbtowc.obj
 0003:00002200       ?module_handles@@3PAPEAUHINSTANCE__@@A 0000000180029200     libucrt:winapi_thunks.obj
 0003:000022a0       ?encoded_function_pointers@@3PAPEAXA 00000001800292a0     libucrt:winapi_thunks.obj
 0003:000023b0       ?__acrt_app_type@@3W4_crt_app_type@@A 00000001800293b0     libucrt:report_runtime_error.obj
 0003:000023c0       ?ctrlc_action@@3V?$dual_state_global@P6AXH@Z@__crt_state_management@@A 00000001800293c0     libucrt:signal.obj
 0003:000023c8       ?ctrlbreak_action@@3V?$dual_state_global@P6AXH@Z@__crt_state_management@@A 00000001800293c8     libucrt:signal.obj
 0003:000023d0       ?abort_action@@3V?$dual_state_global@P6AXH@Z@__crt_state_management@@A 00000001800293d0     libucrt:signal.obj
 0003:000023d8       ?term_action@@3V?$dual_state_global@P6AXH@Z@__crt_state_management@@A 00000001800293d8     libucrt:signal.obj
 0003:000023f0       ?_tzname@@3V?$dual_state_global@PEAPEAD@__crt_state_management@@A 00000001800293f0     libucrt:timeset.obj
 0003:000023f8       ?w_tzname@@3V?$dual_state_global@PEAPEA_W@__crt_state_management@@A 00000001800293f8     libucrt:timeset.obj
 0003:00002400       ?tz_api_used@@3HA          0000000180029400     libucrt:tzset.obj
 0003:00002404       ?tzset_init_state@@3V?$dual_state_global@J@__crt_state_management@@A 0000000180029404     libucrt:tzset.obj
 0003:00002410       ?tz_info@@3U_TIME_ZONE_INFORMATION@@A 0000000180029410     libucrt:tzset.obj
 0003:000024d8       ?fSystemSet@@3HA           00000001800294d8     libucrt:mbctype.obj
 0003:000024dc       ?initialized@?1??__acrt_initialize_multibyte@@9@4_NA 00000001800294dc     libucrt:mbctype.obj
 0003:00002518       ?user_matherr@@3V?$dual_state_global@P6AHPEAU_exception@@@Z@__crt_state_management@@A 0000000180029518     libucrt:matherr.obj
 0003:00002520       ?__acrt_global_new_mode@@3V?$dual_state_global@J@__crt_state_management@@A 0000000180029520     libucrt:new_mode.obj
 0003:00002528       ?internal_pst@?1??__mbrtoc32_utf8@__crt_mbstring@@YA_KPEA_UPEBD_KPEAU_Mbstatet@@@Z@4U3@A 0000000180029528     libucrt:mbrtoc32.obj
 0003:00002548       ?GImAllocatorUserData@@3PEAXEA 0000000180029548     imgui.obj
 0003:00002578       ?g_pd3dDevice@@3PEAUID3D11Device@@EA 0000000180029578     imgui_impl_dx11.obj
 0003:00002580       ?g_hWnd@@3PEAUHWND__@@EA   0000000180029580     imgui_impl_win32.obj
 0003:000026b0       ?singleton@@3V?$shared_ptr@VSixMansPlugin@@@std@@A 00000001800296b0     SixMansPlugin-Rework.obj
 0005:00000000       MoveSmall                  000000018002c000     libvcruntime:memcpy.obj
 0005:00000040       MoveSmallYmm               000000018002c040     libvcruntime:memcpy.obj
 0005:00000064       MoveSmallYmmNT             000000018002c064     libvcruntime:memcpy.obj
 0005:00000088       MoveSmallXmm               000000018002c088     libvcruntime:memcpy.obj
 0005:000000b0       SetSmall                   000000018002c0b0     libvcruntime:memset.obj
 0005:000000f0       SetSmallYmm                000000018002c0f0     libvcruntime:memset.obj
 0005:00000114       SetSmallYmmNT              000000018002c114     libvcruntime:memset.obj
 0005:00000138       SetSmallXmm                000000018002c138     libvcruntime:memset.obj
 0006:000000a0       $R000000                   000000018002d0a0     SixMansPlugin-Rework.res
 0006:000003d8       $R000338                   000000018002d3d8     SixMansPlugin-Rework.res
