 SixMansPlugin-Rework

 Timestamp is 62244482 (Sun Mar  6 00:20:02 2022)

 Preferred load address is 0000000180000000

 Start         Length     Name                   Class
 0001:00000000 00001080H .text$di                CODE
 0001:00001080 0002abd0H .text$mn                CODE
 0001:0002bc50 00000040H .text$mn$00             CODE
 0001:0002bc90 000010b0H .text$x                 CODE
 0001:0002cd40 000002b8H .text$yd                CODE
 0002:00000000 000002f0H .idata$5                DATA
 0002:000002f0 00000038H .00cfg                  DATA
 0002:00000328 00000008H .CRT$XCA                DATA
 0002:00000330 00000018H .CRT$XCC                DATA
 0002:00000348 00000010H .CRT$XCL                DATA
 0002:00000358 00000088H .CRT$XCU                DATA
 0002:000003e0 00000008H .CRT$XCZ                DATA
 0002:000003e8 00000008H .CRT$XIA                DATA
 0002:000003f0 00000038H .CRT$XIC                DATA
 0002:00000428 00000008H .CRT$XIZ                DATA
 0002:00000430 00000008H .CRT$XLA                DATA
 0002:00000438 00000008H .CRT$XLZ                DATA
 0002:00000440 00000008H .CRT$XPA                DATA
 0002:00000448 00000010H .CRT$XPX                DATA
 0002:00000458 00000008H .CRT$XPXA               DATA
 0002:00000460 00000008H .CRT$XPZ                DATA
 0002:00000468 00000008H .CRT$XTA                DATA
 0002:00000470 00000010H .CRT$XTZ                DATA
 0002:00000478 00000000H .gehcont$y              DATA
 0002:00000478 00000000H .gfids$y                DATA
 0002:00000480 00013900H .rdata                  DATA
 0002:00013d80 00000000H .rdata$CastGuardVftablesA DATA
 0002:00013d80 00000000H .rdata$CastGuardVftablesC DATA
 0002:00013d80 00000028H .rdata$T                DATA
 0002:00013da8 000018dcH .rdata$r                DATA
 0002:00015684 00000144H .rdata$voltmd           DATA
 0002:000157c8 00000450H .rdata$zzzdbg           DATA
 0002:00015c18 00000008H .rtc$IAA                DATA
 0002:00015c20 00000008H .rtc$IZZ                DATA
 0002:00015c28 00000008H .rtc$TAA                DATA
 0002:00015c30 00000008H .rtc$TZZ                DATA
 0002:00015c38 00000004H .tls                    DATA
 0002:00015c3c 00000004H .tls$                   DATA
 0002:00015c40 00000008H .tls$ZZZ                DATA
 0002:00015c48 00002f38H .xdata                  DATA
 0002:00018b80 000005e0H .xdata$x                DATA
 0002:00019160 000002ecH .edata                  DATA
 0002:0001944c 0000003cH .idata$2                DATA
 0002:00019488 00000018H .idata$3                DATA
 0002:000194a0 000002f0H .idata$4                DATA
 0002:00019790 000006d6H .idata$6                DATA
 0003:00000000 00001760H .data                   DATA
 0003:00001760 00000340H .data$r                 DATA
 0003:00001aa0 00000670H .data$rs                DATA
 0003:00002110 00001a54H .bss                    DATA
 0004:00000000 000028b0H .pdata                  DATA
 0005:00000000 0000015cH _RDATA                  DATA
 0006:00000000 000000a0H .rsrc$01                DATA
 0006:000000a0 000004b8H .rsrc$02                DATA

  Address         Publics by Value              Rva+Base               Lib:Object

 0000:00000000       __guard_fids_count         0000000000000000     <absolute>
 0000:00000000       __x64_code_ranges_to_entry_points 0000000000000000     <absolute>
 0000:00000000       __guard_longjmp_table      0000000000000000     <absolute>
 0000:00000000       __hybrid_code_map          0000000000000000     <absolute>
 0000:00000000       ___safe_se_handler_table   0000000000000000     <absolute>
 0000:00000000       __arm64x_extra_rfe_table_size 0000000000000000     <absolute>
 0000:00000000       __x64_code_ranges_to_entry_points_count 0000000000000000     <absolute>
 0000:00000000       ___safe_se_handler_count   0000000000000000     <absolute>
 0000:00000000       __arm64x_redirection_metadata 0000000000000000     <absolute>
 0000:00000000       __guard_iat_table          0000000000000000     <absolute>
 0000:00000000       __arm64x_extra_rfe_table   0000000000000000     <absolute>
 0000:00000000       __guard_iat_count          0000000000000000     <absolute>
 0000:00000000       __guard_longjmp_count      0000000000000000     <absolute>
 0000:00000000       __dynamic_value_reloc_table 0000000000000000     <absolute>
 0000:00000000       __guard_eh_cont_count      0000000000000000     <absolute>
 0000:00000000       __hybrid_auxiliary_iat     0000000000000000     <absolute>
 0000:00000000       __hybrid_auxiliary_iat_copy 0000000000000000     <absolute>
 0000:00000000       __AbsoluteZero             0000000000000000     <absolute>
 0000:00000000       __guard_check_icall_a64n_fptr 0000000000000000     <absolute>
 0000:00000000       __guard_fids_table         0000000000000000     <absolute>
 0000:00000000       __arm64x_redirection_metadata_count 0000000000000000     <absolute>
 0000:00000000       __enclave_config           0000000000000000     <absolute>
 0000:00000000       __guard_eh_cont_table      0000000000000000     <absolute>
 0000:00000000       __arm64x_native_entrypoint 0000000000000000     <absolute>
 0000:00000000       __hybrid_code_map_count    0000000000000000     <absolute>
 0000:00000100       __guard_flags              0000000000000100     <absolute>
 0000:00000000       __ImageBase                0000000180000000     <linker-defined>
 0001:00001080       ??$_Reallocate_grow_by@V<lambda_1>@?1??append@?$basic_string@DU?$char_traits@D@std@@V?$allocator@D@2@@std@@QEAAAEAV34@_KD@Z@_KD@?$basic_string@DU?$char_traits@D@std@@V?$allocator@D@2@@std@@AEAAAEAV01@_KV<lambda_1>@?1??append@01@QEAAAEAV01@0D@Z@_KD@Z 0000000180002080 f i format.obj
 0001:00001220       ?resize@?$basic_string@DU?$char_traits@D@std@@V?$allocator@D@2@@std@@QEAAX_KD@Z 0000000180002220 f i format.obj
 0001:000012c0       ??$_Reallocate_for@V<lambda_1>@?1??assign@?$basic_string@_WU?$char_traits@_W@std@@V?$allocator@_W@2@@std@@QEAAAEAV34@QEB_W_K@Z@PEB_W@?$basic_string@_WU?$char_traits@_W@std@@V?$allocator@_W@2@@std@@AEAAAEAV01@_KV<lambda_1>@?1??assign@01@QEAAAEAV01@QEB_W0@Z@PEB_W@Z 00000001800022c0 f i format.obj
 0001:00001420       ??1?$basic_string@_WU?$char_traits@_W@std@@V?$allocator@_W@2@@std@@QEAA@XZ 0000000180002420 f i format.obj
 0001:00001420       ??1path@filesystem@std@@QEAA@XZ 0000000180002420 f i logsys.obj
 0001:00001490       ??0runtime_error@std@@QEAA@AEBV01@@Z 0000000180002490 f i format.obj
 0001:000014d0       ??1?$_Yarn@_W@std@@QEAA@XZ 00000001800024d0 f i format.obj
 0001:000014d0       ??1?$_Yarn@D@std@@QEAA@XZ  00000001800024d0 f i format.obj
 0001:00001500       ??0bad_cast@std@@QEAA@XZ   0000000180002500 f i format.obj
 0001:00001530       ??1failure@ios_base@std@@UEAA@XZ 0000000180002530 f i logsys.obj
 0001:00001530       ??1exception@std@@UEAA@XZ  0000000180002530 f i format.obj
 0001:00001530       ??1bad_array_new_length@std@@UEAA@XZ 0000000180002530 f i format.obj
 0001:00001530       ??1runtime_error@std@@UEAA@XZ 0000000180002530 f i format.obj
 0001:00001530       ??1length_error@std@@UEAA@XZ 0000000180002530 f i server.obj
 0001:00001530       ??1bad_alloc@std@@UEAA@XZ  0000000180002530 f i format.obj
 0001:00001530       ??1out_of_range@std@@UEAA@XZ 0000000180002530 f i libcpmt:xthrow.obj
 0001:00001530       ??1system_error@std@@UEAA@XZ 0000000180002530 f i logsys.obj
 0001:00001530       ??1bad_cast@std@@UEAA@XZ   0000000180002530 f i format.obj
 0001:00001550       ??_Gruntime_error@std@@UEAAPEAXI@Z 0000000180002550 f i format.obj
 0001:00001550       ??_Gbad_cast@std@@UEAAPEAXI@Z 0000000180002550 f i format.obj
 0001:00001550       ??_Elogic_error@std@@UEAAPEAXI@Z 0000000180002550 f i * CIL library *:* CIL module *
 0001:00001550       ??_Gexception@std@@UEAAPEAXI@Z 0000000180002550 f i format.obj
 0001:00001550       ??_Gout_of_range@std@@UEAAPEAXI@Z 0000000180002550 f i libcpmt:xthrow.obj
 0001:00001550       ??_Eruntime_error@std@@UEAAPEAXI@Z 0000000180002550 f i * CIL library *:* CIL module *
 0001:00001550       ??_Glogic_error@std@@UEAAPEAXI@Z 0000000180002550 f i server.obj
 0001:00001550       ??_Elength_error@std@@UEAAPEAXI@Z 0000000180002550 f i * CIL library *:* CIL module *
 0001:00001550       ??_Ebad_cast@std@@UEAAPEAXI@Z 0000000180002550 f i * CIL library *:* CIL module *
 0001:00001550       ??_Eout_of_range@std@@UEAAPEAXI@Z 0000000180002550 f i libcpmt:xthrow.obj
 0001:00001550       ??_Ebad_array_new_length@std@@UEAAPEAXI@Z 0000000180002550 f i * CIL library *:* CIL module *
 0001:00001550       ??_Gbad_array_new_length@std@@UEAAPEAXI@Z 0000000180002550 f i format.obj
 0001:00001550       ??_Eexception@std@@UEAAPEAXI@Z 0000000180002550 f i * CIL library *:* CIL module *
 0001:00001550       ??_Ebad_alloc@std@@UEAAPEAXI@Z 0000000180002550 f i * CIL library *:* CIL module *
 0001:00001550       ??_Gbad_alloc@std@@UEAAPEAXI@Z 0000000180002550 f i format.obj
 0001:00001550       ??_Glength_error@std@@UEAAPEAXI@Z 0000000180002550 f i server.obj
 0001:000015a0       ??0bad_cast@std@@QEAA@AEBV01@@Z 00000001800025a0 f i format.obj
 0001:000015e0       ?_Throw_bad_cast@std@@YAXXZ 00000001800025e0 f i format.obj
 0001:00001600       ??1?$unique_ptr@V_Facet_base@std@@U?$default_delete@V_Facet_base@std@@@2@@std@@QEAA@XZ 0000000180002600 f i format.obj
 0001:00001620       ?_Incref@facet@locale@std@@UEAAXXZ 0000000180002620 f i format.obj
 0001:00001630       ?_Xlen_string@std@@YAXXZ   0000000180002630 f i format.obj
 0001:00001650       ?assign@?$basic_string@DU?$char_traits@D@std@@V?$allocator@D@2@@std@@QEAAAEAV12@QEBD_K@Z 0000000180002650 f i format.obj
 0001:000017b0       ??0?$basic_string@DU?$char_traits@D@std@@V?$allocator@D@2@@std@@QEAA@QEBD@Z 00000001800027b0 f i format.obj
 0001:000017f0       ?_Decref@facet@locale@std@@UEAAPEAV_Facet_base@3@XZ 00000001800027f0 f i format.obj
 0001:00001800       ??_E_Facet_base@std@@UEAAPEAXI@Z 0000000180002800 f i * CIL library *:* CIL module *
 0001:00001800       ??_G_Facet_base@std@@UEAAPEAXI@Z 0000000180002800 f i format.obj
 0001:00001830       ??1locale@std@@QEAA@XZ     0000000180002830 f i format.obj
 0001:00001860       ??0runtime_error@std@@QEAA@PEBD@Z 0000000180002860 f i format.obj
 0001:000018d0       ??1?$basic_string@DU?$char_traits@D@std@@V?$allocator@D@2@@std@@QEAA@XZ 00000001800028d0 f i format.obj
 0001:00001930       ??0bad_array_new_length@std@@QEAA@XZ 0000000180002930 f i format.obj
 0001:00001960       ??0bad_array_new_length@std@@QEAA@AEBV01@@Z 0000000180002960 f i format.obj
 0001:000019a0       ??0bad_alloc@std@@QEAA@AEBV01@@Z 00000001800029a0 f i format.obj
 0001:000019e0       ?what@exception@std@@UEBAPEBDXZ 00000001800029e0 f i format.obj
 0001:00001a00       ??0exception@std@@QEAA@AEBV01@@Z 0000000180002a00 f i format.obj
 0001:00001a40       ?_Throw_bad_array_new_length@std@@YAXXZ 0000000180002a40 f i format.obj
 0001:00001a40       ?__scrt_throw_std_bad_array_new_length@@YAXXZ 0000000180002a40 f i LIBCMT:throw_bad_alloc.obj
 0001:00001a60       __local_stdio_printf_options 0000000180002a60 f i format.obj
 0001:00001a80       ??3@YAXPEAX@Z              0000000180002a80 f   LIBCMT:delete_scalar.obj
 0001:00001a90       __local_stdio_scanf_options 0000000180002a90 f i imgui.obj
 0001:00001aa0       ??$_Reallocate_grow_by@V<lambda_1>@?1??append@?$basic_string@DU?$char_traits@D@std@@V?$allocator@D@2@@std@@QEAAAEAV34@QEBD_K@Z@PEBD_K@?$basic_string@DU?$char_traits@D@std@@V?$allocator@D@2@@std@@AEAAAEAV01@_KV<lambda_1>@?1??append@01@QEAAAEAV01@QEBD0@Z@PEBD_K@Z 0000000180002aa0 f i imgui_rangeslider.obj
 0001:00001c30       ?append@?$basic_string@DU?$char_traits@D@std@@V?$allocator@D@2@@std@@QEAAAEAV12@QEBD_K@Z 0000000180002c30 f i imgui_rangeslider.obj
 0001:00001cc0       ??0?$basic_string@DU?$char_traits@D@std@@V?$allocator@D@2@@std@@QEAA@AEBV01@@Z 0000000180002cc0 f i imgui_searchablecombo.obj
 0001:00001da0       ??_D?$basic_ifstream@DU?$char_traits@D@std@@@std@@QEAAXXZ 0000000180002da0 f i logsys.obj
 0001:00001e40       ??_D?$basic_ofstream@DU?$char_traits@D@std@@@std@@QEAAXXZ 0000000180002e40 f i logsys.obj
 0001:00001ee0       ??0LogSys@@QEAA@Vpath@filesystem@std@@@Z 0000000180002ee0 f   logsys.obj
 0001:000022e0       ??0?$basic_ofstream@DU?$char_traits@D@std@@@std@@QEAA@XZ 00000001800032e0 f i logsys.obj
 0001:000023b0       ?imbue@?$basic_filebuf@DU?$char_traits@D@std@@@std@@MEAAXAEBVlocale@2@@Z 00000001800033b0 f i logsys.obj
 0001:000023e0       ?sync@?$basic_filebuf@DU?$char_traits@D@std@@@std@@MEAAHXZ 00000001800033e0 f i logsys.obj
 0001:00002430       ?setbuf@?$basic_filebuf@DU?$char_traits@D@std@@@std@@MEAAPEAV?$basic_streambuf@DU?$char_traits@D@std@@@2@PEAD_J@Z 0000000180003430 f i logsys.obj
 0001:00002490       ?seekpos@?$basic_filebuf@DU?$char_traits@D@std@@@std@@MEAA?AV?$fpos@U_Mbstatet@@@2@V32@H@Z 0000000180003490 f i logsys.obj
 0001:00002570       ?seekoff@?$basic_filebuf@DU?$char_traits@D@std@@@std@@MEAA?AV?$fpos@U_Mbstatet@@@2@_JHH@Z 0000000180003570 f i logsys.obj
 0001:00002680       ?xsputn@?$basic_filebuf@DU?$char_traits@D@std@@@std@@MEAA_JPEBD_J@Z 0000000180003680 f i logsys.obj
 0001:000027b0       ?xsgetn@?$basic_filebuf@DU?$char_traits@D@std@@@std@@MEAA_JPEAD_J@Z 00000001800037b0 f i logsys.obj
 0001:00002950       ?uflow@?$basic_filebuf@DU?$char_traits@D@std@@@std@@MEAAHXZ 0000000180003950 f i logsys.obj
 0001:00002c20       ?underflow@?$basic_filebuf@DU?$char_traits@D@std@@@std@@MEAAHXZ 0000000180003c20 f i logsys.obj
 0001:00002c90       ?pbackfail@?$basic_filebuf@DU?$char_traits@D@std@@@std@@MEAAHH@Z 0000000180003c90 f i logsys.obj
 0001:00002d70       ?overflow@?$basic_filebuf@DU?$char_traits@D@std@@@std@@MEAAHH@Z 0000000180003d70 f i logsys.obj
 0001:00002f10       ?_Unlock@?$basic_filebuf@DU?$char_traits@D@std@@@std@@UEAAXXZ 0000000180003f10 f i logsys.obj
 0001:00002f30       ?_Lock@?$basic_filebuf@DU?$char_traits@D@std@@@std@@UEAAXXZ 0000000180003f30 f i logsys.obj
 0001:00002f50       ??1?$basic_filebuf@DU?$char_traits@D@std@@@std@@UEAA@XZ 0000000180003f50 f i logsys.obj
 0001:00003000       ??0?$basic_ifstream@DU?$char_traits@D@std@@@std@@QEAA@XZ 0000000180004000 f i logsys.obj
 0001:000030d0       ??_G?$basic_ofstream@DU?$char_traits@D@std@@@std@@UEAAPEAXI@Z 00000001800040d0 f i logsys.obj
 0001:000030d0       ??_E?$basic_ofstream@DU?$char_traits@D@std@@@std@@UEAAPEAXI@Z 00000001800040d0 f i * CIL library *:* CIL module *
 0001:00003110       ??_G?$basic_filebuf@DU?$char_traits@D@std@@@std@@UEAAPEAXI@Z 0000000180004110 f i logsys.obj
 0001:00003110       ??_E?$basic_filebuf@DU?$char_traits@D@std@@@std@@UEAAPEAXI@Z 0000000180004110 f i * CIL library *:* CIL module *
 0001:00003150       ??_G?$basic_ifstream@DU?$char_traits@D@std@@@std@@UEAAPEAXI@Z 0000000180004150 f i logsys.obj
 0001:00003150       ??_E?$basic_ifstream@DU?$char_traits@D@std@@@std@@UEAAPEAXI@Z 0000000180004150 f i * CIL library *:* CIL module *
 0001:00003190       ?do_length@?$codecvt@DDU_Mbstatet@@@std@@MEBAHAEAU_Mbstatet@@PEBD1_K@Z 0000000180004190 f i logsys.obj
 0001:000031b0       ?do_unshift@?$codecvt@DDU_Mbstatet@@@std@@MEBAHAEAU_Mbstatet@@PEAD1AEAPEAD@Z 00000001800041b0 f i logsys.obj
 0001:000031c0       ?do_out@?$codecvt@DDU_Mbstatet@@@std@@MEBAHAEAU_Mbstatet@@PEBD1AEAPEBDPEAD3AEAPEAD@Z 00000001800041c0 f i logsys.obj
 0001:000031c0       ?do_in@?$codecvt@DDU_Mbstatet@@@std@@MEBAHAEAU_Mbstatet@@PEBD1AEAPEBDPEAD3AEAPEAD@Z 00000001800041c0 f i logsys.obj
 0001:000031e0       __acrt_uninitialize_command_line 00000001800041e0 f i libucrt:argv_data.obj
 0001:000031e0       ?do_always_noconv@?$codecvt@DDU_Mbstatet@@@std@@MEBA_NXZ 00000001800041e0 f i logsys.obj
 0001:000031f0       ?_Initcvt@?$basic_filebuf@DU?$char_traits@D@std@@@std@@IEAAXAEBV?$codecvt@DDU_Mbstatet@@@2@@Z 00000001800041f0 f i logsys.obj
 0001:00003270       ?_Endwrite@?$basic_filebuf@DU?$char_traits@D@std@@@std@@IEAA_NXZ 0000000180004270 f i logsys.obj
 0001:00003360       ?_Init@?$basic_filebuf@DU?$char_traits@D@std@@@std@@IEAAXPEAU_iobuf@@W4_Initfl@12@@Z 0000000180004360 f i logsys.obj
 0001:00003460       ?close@?$basic_filebuf@DU?$char_traits@D@std@@@std@@QEAAPEAV12@XZ 0000000180004460 f i logsys.obj
 0001:00003560       ??0?$basic_filebuf@DU?$char_traits@D@std@@@std@@QEAA@XZ 0000000180004560 f i logsys.obj
 0001:000035f0       ??_G?$codecvt@DDU_Mbstatet@@@std@@MEAAPEAXI@Z 00000001800045f0 f i logsys.obj
 0001:000035f0       ??_E?$codecvt@DDU_Mbstatet@@@std@@MEAAPEAXI@Z 00000001800045f0 f i * CIL library *:* CIL module *
 0001:00003620       ?swap@?$basic_filebuf@DU?$char_traits@D@std@@@std@@QEAAXAEAV12@@Z 0000000180004620 f i logsys.obj
 0001:000038d0       ?swap@?$basic_ios@DU?$char_traits@D@std@@@std@@QEAAXAEAV12@@Z 00000001800048d0 f i logsys.obj
 0001:00003980       ??$use_facet@V?$codecvt@DDU_Mbstatet@@@std@@@std@@YAAEBV?$codecvt@DDU_Mbstatet@@@0@AEBVlocale@0@@Z 0000000180004980 f i logsys.obj
 0001:00003ac0       ?_Getcat@?$codecvt@DDU_Mbstatet@@@std@@SA_KPEAPEBVfacet@locale@2@PEBV42@@Z 0000000180004ac0 f i logsys.obj
 0001:00003c40       ??0?$basic_ofstream@DU?$char_traits@D@std@@@std@@QEAA@PEB_WHH@Z 0000000180004c40 f i logsys.obj
 0001:00003db8       ??_E?$basic_ifstream@DU?$char_traits@D@std@@@std@@$4PPPPPPPM@A@EAAPEAXI@Z 0000000180004db8 f i logsys.obj
 0001:00003dc4       ??_E?$basic_ofstream@DU?$char_traits@D@std@@@std@@$4PPPPPPPM@A@EAAPEAXI@Z 0000000180004dc4 f i logsys.obj
 0001:00003dd0       ??$_Reallocate_grow_by@V<lambda_1>@?1??append@?$basic_string@_WU?$char_traits@_W@std@@V?$allocator@_W@2@@std@@QEAAAEAV34@_K_W@Z@_K_W@?$basic_string@_WU?$char_traits@_W@std@@V?$allocator@_W@2@@std@@AEAAAEAV01@_KV<lambda_1>@?1??append@01@QEAAAEAV01@0_W@Z@_K_W@Z 0000000180004dd0 f i logsys.obj
 0001:00003f90       ?_Convert_narrow_to_wide@filesystem@std@@YA?AV?$basic_string@_WU?$char_traits@_W@std@@V?$allocator@_W@2@@2@W4__std_code_page@@V?$basic_string_view@DU?$char_traits@D@std@@@2@@Z 0000000180004f90 f i logsys.obj
 0001:000040e0       ??0?$basic_streambuf@DU?$char_traits@D@std@@@std@@IEAA@XZ 00000001800050e0 f i logsys.obj
 0001:00004170       DllMain                    0000000180005170 f i LIBCMT:dll_dllmain_stub.obj
 0001:00004170       ?do_max_length@codecvt_base@std@@MEBAHXZ 0000000180005170 f i logsys.obj
 0001:00004170       _get_startup_argv_mode     0000000180005170 f i LIBCMT:argv_mode.obj
 0001:00004170       ?do_encoding@codecvt_base@std@@MEBAHXZ 0000000180005170 f i logsys.obj
 0001:00004180       ??_E?$basic_istream@DU?$char_traits@D@std@@@std@@UEAAPEAXI@Z 0000000180005180 f i * CIL library *:* CIL module *
 0001:00004180       ??_G?$basic_istream@DU?$char_traits@D@std@@@std@@UEAAPEAXI@Z 0000000180005180 f i logsys.obj
 0001:000041e4       ??_E?$basic_istream@DU?$char_traits@D@std@@@std@@$4PPPPPPPM@A@EAAPEAXI@Z 00000001800051e4 f i logsys.obj
 0001:000041f0       ??1?$basic_istream@DU?$char_traits@D@std@@@std@@UEAA@XZ 00000001800051f0 f i logsys.obj
 0001:00004220       ??_E?$basic_streambuf@DU?$char_traits@D@std@@@std@@UEAAPEAXI@Z 0000000180005220 f i * CIL library *:* CIL module *
 0001:00004220       ??_G?$basic_streambuf@DU?$char_traits@D@std@@@std@@UEAAPEAXI@Z 0000000180005220 f i logsys.obj
 0001:000042a0       ?pbackfail@?$basic_streambuf@DU?$char_traits@D@std@@@std@@MEAAHH@Z 00000001800052a0 f i logsys.obj
 0001:000042a0       ?underflow@?$basic_streambuf@DU?$char_traits@D@std@@@std@@MEAAHXZ 00000001800052a0 f i logsys.obj
 0001:000042a0       ?overflow@?$basic_streambuf@DU?$char_traits@D@std@@@std@@MEAAHH@Z 00000001800052a0 f i logsys.obj
 0001:000042b0       ?showmanyc@?$basic_streambuf@DU?$char_traits@D@std@@@std@@MEAA_JXZ 00000001800052b0 f i logsys.obj
 0001:000042b0       ?sync@?$basic_streambuf@DU?$char_traits@D@std@@@std@@MEAAHXZ 00000001800052b0 f i logsys.obj
 0001:000042b0       ?_Get_deleter@_Ref_count_base@std@@UEBAPEAXAEBVtype_info@@@Z 00000001800052b0 f i server.obj
 0001:000042c0       ?seekoff@?$basic_streambuf@DU?$char_traits@D@std@@@std@@MEAA?AV?$fpos@U_Mbstatet@@@2@_JHH@Z 00000001800052c0 f i logsys.obj
 0001:000042c0       ?seekpos@?$basic_streambuf@DU?$char_traits@D@std@@@std@@MEAA?AV?$fpos@U_Mbstatet@@@2@V32@H@Z 00000001800052c0 f i logsys.obj
 0001:000042e0       ?setbuf@?$basic_streambuf@DU?$char_traits@D@std@@@std@@MEAAPEAV12@PEAD_J@Z 00000001800052e0 f i logsys.obj
 0001:000042f0       ?imbue@?$basic_streambuf@DU?$char_traits@D@std@@@std@@MEAAXAEBVlocale@2@@Z 00000001800052f0 f i logsys.obj
 0001:000042f0       _guard_check_icall_nop     00000001800052f0 f i LIBCMT:guard_support.obj
 0001:000042f0       ?_Lock@?$basic_streambuf@DU?$char_traits@D@std@@@std@@UEAAXXZ 00000001800052f0 f i logsys.obj
 0001:000042f0       ?onLoad@BakkesModPlugin@Plugin@BakkesMod@@UEAAXXZ 00000001800052f0 f i SixMansPlugin-Rework.obj
 0001:000042f0       ?_Unlock@?$basic_streambuf@DU?$char_traits@D@std@@@std@@UEAAXXZ 00000001800052f0 f i logsys.obj
 0001:000042f0       ?onUnload@SixMansPlugin@@EEAAXXZ 00000001800052f0 f i SixMansPlugin-Rework.obj
 0001:000042f0       ?onUnload@BakkesModPlugin@Plugin@BakkesMod@@UEAAXXZ 00000001800052f0 f i SixMansPlugin-Rework.obj
 0001:00004300       ?_Gnavail@?$basic_streambuf@DU?$char_traits@D@std@@@std@@IEBA_JXZ 0000000180005300 f i logsys.obj
 0001:00004320       ?uflow@?$basic_streambuf@DU?$char_traits@D@std@@@std@@MEAAHXZ 0000000180005320 f i logsys.obj
 0001:00004360       ?xsgetn@?$basic_streambuf@DU?$char_traits@D@std@@@std@@MEAA_JPEAD_J@Z 0000000180005360 f i logsys.obj
 0001:00004410       ??_E?$ctype@D@std@@MEAAPEAXI@Z 0000000180005410 f i * CIL library *:* CIL module *
 0001:00004410       ??_G?$ctype@D@std@@MEAAPEAXI@Z 0000000180005410 f i logsys.obj
 0001:00004480       ?do_tolower@?$ctype@D@std@@MEBAPEBDPEADPEBD@Z 0000000180005480 f i logsys.obj
 0001:000044d0       ?do_tolower@?$ctype@D@std@@MEBADD@Z 00000001800054d0 f i logsys.obj
 0001:000044e0       ?do_toupper@?$ctype@D@std@@MEBAPEBDPEADPEBD@Z 00000001800054e0 f i logsys.obj
 0001:00004530       ?do_toupper@?$ctype@D@std@@MEBADD@Z 0000000180005530 f i logsys.obj
 0001:00004540       ?do_widen@?$ctype@D@std@@MEBAPEBDPEBD0PEAD@Z 0000000180005540 f i logsys.obj
 0001:00004560       ?do_widen@?$ctype@D@std@@MEBADD@Z 0000000180005560 f i logsys.obj
 0001:00004560       ?do_narrow@?$ctype@D@std@@MEBADDD@Z 0000000180005560 f i logsys.obj
 0001:00004570       ?do_narrow@?$ctype@D@std@@MEBAPEBDPEBD0DPEAD@Z 0000000180005570 f i logsys.obj
 0001:00004590       ?_Getcat@?$ctype@D@std@@SA_KPEAPEBVfacet@locale@2@PEBV42@@Z 0000000180005590 f i logsys.obj
 0001:00004720       ??$use_facet@V?$ctype@D@std@@@std@@YAAEBV?$ctype@D@0@AEBVlocale@0@@Z 0000000180005720 f i logsys.obj
 0001:00004860       ?init@?$basic_ios@DU?$char_traits@D@std@@@std@@IEAAXPEAV?$basic_streambuf@DU?$char_traits@D@std@@@2@_N@Z 0000000180005860 f i logsys.obj
 0001:00004950       ??_E?$basic_ostream@DU?$char_traits@D@std@@@std@@UEAAPEAXI@Z 0000000180005950 f i * CIL library *:* CIL module *
 0001:00004950       ??_G?$basic_ostream@DU?$char_traits@D@std@@@std@@UEAAPEAXI@Z 0000000180005950 f i logsys.obj
 0001:000049b4       ??_E?$basic_ostream@DU?$char_traits@D@std@@@std@@$4PPPPPPPM@A@EAAPEAXI@Z 00000001800059b4 f i logsys.obj
 0001:000049c0       ??1?$basic_ostream@DU?$char_traits@D@std@@@std@@UEAA@XZ 00000001800059c0 f i logsys.obj
 0001:000049f0       ?xsputn@?$basic_streambuf@DU?$char_traits@D@std@@@std@@MEAA_JPEBD_J@Z 00000001800059f0 f i logsys.obj
 0001:00004aa0       ?_Pnavail@?$basic_streambuf@DU?$char_traits@D@std@@@std@@IEBA_JXZ 0000000180005aa0 f i logsys.obj
 0001:00004ac0       ??0failure@ios_base@std@@QEAA@PEBDAEBVerror_code@2@@Z 0000000180005ac0 f i logsys.obj
 0001:00004b90       ??_G_System_error_category@std@@UEAAPEAXI@Z 0000000180005b90 f i logsys.obj
 0001:00004b90       ??_E_Iostream_error_category2@std@@UEAAPEAXI@Z 0000000180005b90 f i * CIL library *:* CIL module *
 0001:00004b90       ??_E_Generic_error_category@std@@UEAAPEAXI@Z 0000000180005b90 f i * CIL library *:* CIL module *
 0001:00004b90       ??_E_System_error_category@std@@UEAAPEAXI@Z 0000000180005b90 f i * CIL library *:* CIL module *
 0001:00004b90       ??_G_Generic_error_category@std@@UEAAPEAXI@Z 0000000180005b90 f i logsys.obj
 0001:00004b90       ??_G_Iostream_error_category2@std@@UEAAPEAXI@Z 0000000180005b90 f i logsys.obj
 0001:00004bc0       ?name@_Iostream_error_category2@std@@UEBAPEBDXZ 0000000180005bc0 f i logsys.obj
 0001:00004bd0       ?message@_Iostream_error_category2@std@@UEBA?AV?$basic_string@DU?$char_traits@D@std@@V?$allocator@D@2@@2@H@Z 0000000180005bd0 f i logsys.obj
 0001:00004c60       ?make_error_code@std@@YA?AVerror_code@1@W4io_errc@1@@Z 0000000180005c60 f i logsys.obj
 0001:00004c80       ??_E_System_error@std@@UEAAPEAXI@Z 0000000180005c80 f i * CIL library *:* CIL module *
 0001:00004c80       ??_Gsystem_error@std@@UEAAPEAXI@Z 0000000180005c80 f i logsys.obj
 0001:00004c80       ??_Esystem_error@std@@UEAAPEAXI@Z 0000000180005c80 f i * CIL library *:* CIL module *
 0001:00004c80       ??_Efailure@ios_base@std@@UEAAPEAXI@Z 0000000180005c80 f i * CIL library *:* CIL module *
 0001:00004c80       ??_Gfailure@ios_base@std@@UEAAPEAXI@Z 0000000180005c80 f i logsys.obj
 0001:00004c80       ??_G_System_error@std@@UEAAPEAXI@Z 0000000180005c80 f i logsys.obj
 0001:00004cd0       ??0failure@ios_base@std@@QEAA@AEBV012@@Z 0000000180005cd0 f i logsys.obj
 0001:00004d30       ?clear@ios_base@std@@QEAAXH_N@Z 0000000180005d30 f i logsys.obj
 0001:00004dc0       ?_Find_root_name_end@filesystem@std@@YAPEB_WQEB_W0@Z 0000000180005dc0 f i logsys.obj
 0001:00004eb0       ?_Xran@?$_String_val@U?$_Simple_types@_W@std@@@std@@SAXXZ 0000000180005eb0 f i logsys.obj
 0001:00004ed0       ??$_Reallocate_grow_by@V<lambda_1>@?1??push_back@?$basic_string@_WU?$char_traits@_W@std@@V?$allocator@_W@2@@std@@QEAAX_W@Z@_W@?$basic_string@_WU?$char_traits@_W@std@@V?$allocator@_W@2@@std@@AEAAAEAV01@_KV<lambda_1>@?1??push_back@01@QEAAX_W@Z@_W@Z 0000000180005ed0 f i logsys.obj
 0001:00005070       ??$_Reallocate_grow_by@V<lambda_1>@?1??append@?$basic_string@_WU?$char_traits@_W@std@@V?$allocator@_W@2@@std@@QEAAAEAV34@QEB_W_K@Z@PEB_W_K@?$basic_string@_WU?$char_traits@_W@std@@V?$allocator@_W@2@@std@@AEAAAEAV01@_KV<lambda_1>@?1??append@01@QEAAAEAV01@QEB_W0@Z@PEB_W_K@Z 0000000180006070 f i logsys.obj
 0001:00005240       ??_0path@filesystem@std@@QEAAAEAV012@AEBV012@@Z 0000000180006240 f i logsys.obj
 0001:00005570       ??Kfilesystem@std@@YA?AVpath@01@AEBV201@0@Z 0000000180006570 f i logsys.obj
 0001:000055c0       ?_Throw_fs_error@filesystem@std@@YAXPEBDW4__std_win_error@@AEBVpath@12@@Z 00000001800065c0 f i logsys.obj
 0001:00005630       ?make_error_code@std@@YA?AVerror_code@1@W4errc@1@@Z 0000000180006630 f i logsys.obj
 0001:00005650       ?_Throw_system_error@std@@YAXW4errc@1@@Z 0000000180006650 f i logsys.obj
 0001:00005690       ??0_System_error@std@@IEAA@Verror_code@1@AEBV?$basic_string@DU?$char_traits@D@std@@V?$allocator@D@2@@1@@Z 0000000180006690 f i logsys.obj
 0001:00005850       ??0system_error@std@@QEAA@Verror_code@1@@Z 0000000180006850 f i logsys.obj
 0001:00005910       ?name@system_error_category@detail@system@boost@@UEBAPEBDXZ 0000000180006910 f i server.obj
 0001:00005910       ?name@_System_error_category@std@@UEBAPEBDXZ 0000000180006910 f i logsys.obj
 0001:00005920       ??1_System_error_message@std@@QEAA@XZ 0000000180006920 f i logsys.obj
 0001:00005930       ?message@_System_error_category@std@@UEBA?AV?$basic_string@DU?$char_traits@D@std@@V?$allocator@D@2@@2@H@Z 0000000180006930 f i logsys.obj
 0001:000059e0       ?name@_Generic_error_category@std@@UEBAPEBDXZ 00000001800069e0 f i logsys.obj
 0001:000059e0       ?name@generic_error_category@detail@system@boost@@UEBAPEBDXZ 00000001800069e0 f i server.obj
 0001:000059f0       ?message@_Generic_error_category@std@@UEBA?AV?$basic_string@DU?$char_traits@D@std@@V?$allocator@D@2@@2@H@Z 00000001800069f0 f i logsys.obj
 0001:00005a50       ?default_error_condition@_System_error_category@std@@UEBA?AVerror_condition@2@H@Z 0000000180006a50 f i logsys.obj
 0001:00005ab0       ?equivalent@error_category@std@@UEBA_NAEBVerror_code@2@H@Z 0000000180006ab0 f i logsys.obj
 0001:00005ad0       ?default_error_condition@error_category@std@@UEBA?AVerror_condition@2@H@Z 0000000180006ad0 f i logsys.obj
 0001:00005ae0       ?equivalent@error_category@std@@UEBA_NHAEBVerror_condition@2@@Z 0000000180006ae0 f i logsys.obj
 0001:00005b20       ?_Make_ec@filesystem@std@@YA?AVerror_code@2@W4__std_win_error@@@Z 0000000180006b20 f i logsys.obj
 0001:00005b40       ?_Throw_system_error_from_std_win_error@filesystem@std@@YAXW4__std_win_error@@@Z 0000000180006b40 f i logsys.obj
 0001:00005b80       ??$_Convert_wide_to_narrow_replace_chars@U?$char_traits@D@std@@V?$allocator@D@2@@filesystem@std@@YA?AV?$basic_string@DU?$char_traits@D@std@@V?$allocator@D@2@@1@W4__std_code_page@@V?$basic_string_view@_WU?$char_traits@_W@std@@@1@AEBV?$allocator@D@1@@Z 0000000180006b80 f i logsys.obj
 0001:00005c50       ??$_Reallocate_grow_by@V<lambda_1>@?1??reserve@?$basic_string@DU?$char_traits@D@std@@V?$allocator@D@2@@std@@QEAAX_K@Z@$$V@?$basic_string@DU?$char_traits@D@std@@V?$allocator@D@2@@std@@AEAAAEAV01@_KV<lambda_1>@?1??reserve@01@QEAAX0@Z@@Z 0000000180006c50 f i logsys.obj
 0001:00005da0       ??$_Reallocate_grow_by@V<lambda_1>@?1??push_back@?$basic_string@DU?$char_traits@D@std@@V?$allocator@D@2@@std@@QEAAXD@Z@D@?$basic_string@DU?$char_traits@D@std@@V?$allocator@D@2@@std@@AEAAAEAV01@_KV<lambda_1>@?1??push_back@01@QEAAXD@Z@D@Z 0000000180006da0 f i logsys.obj
 0001:00005f10       ?_Pretty_message@filesystem_error@filesystem@std@@CA?AV?$basic_string@DU?$char_traits@D@std@@V?$allocator@D@2@@3@V?$basic_string_view@DU?$char_traits@D@std@@@3@AEBVpath@23@1@Z 0000000180006f10 f i logsys.obj
 0001:00006190       ??0filesystem_error@filesystem@std@@QEAA@AEBV?$basic_string@DU?$char_traits@D@std@@V?$allocator@D@2@@2@AEBVpath@12@Verror_code@2@@Z 0000000180007190 f i logsys.obj
 0001:000062b0       ??1filesystem_error@filesystem@std@@UEAA@XZ 00000001800072b0 f i logsys.obj
 0001:000063d0       ??_Gfilesystem_error@filesystem@std@@UEAAPEAXI@Z 00000001800073d0 f i logsys.obj
 0001:000063d0       ??_Efilesystem_error@filesystem@std@@UEAAPEAXI@Z 00000001800073d0 f i * CIL library *:* CIL module *
 0001:00006520       ?what@filesystem_error@filesystem@std@@UEBAPEBDXZ 0000000180007520 f i logsys.obj
 0001:00006530       ??0path@filesystem@std@@QEAA@AEBV012@@Z 0000000180007530 f i logsys.obj
 0001:00006620       ??0filesystem_error@filesystem@std@@QEAA@AEBV012@@Z 0000000180007620 f i logsys.obj
 0001:000066b0       ??0system_error@std@@QEAA@AEBV01@@Z 00000001800076b0 f i logsys.obj
 0001:00006710       ??0_System_error@std@@QEAA@AEBV01@@Z 0000000180007710 f i logsys.obj
 0001:00006760       ?_Throw_fs_error@filesystem@std@@YAXPEBDAEBVerror_code@2@AEBVpath@12@@Z 0000000180007760 f i logsys.obj
 0001:000067c0       ??_E?$basic_ios@DU?$char_traits@D@std@@@std@@UEAAPEAXI@Z 00000001800077c0 f i * CIL library *:* CIL module *
 0001:000067c0       ??_G?$basic_ios@DU?$char_traits@D@std@@@std@@UEAAPEAXI@Z 00000001800077c0 f i logsys.obj
 0001:00006800       ??_Eios_base@std@@UEAAPEAXI@Z 0000000180007800 f i * CIL library *:* CIL module *
 0001:00006800       ??_Gios_base@std@@UEAAPEAXI@Z 0000000180007800 f i logsys.obj
 0001:00006840       ??1?$basic_ios@DU?$char_traits@D@std@@@std@@UEAA@XZ 0000000180007840 f i logsys.obj
 0001:00006860       ??0system_error@system@boost@@QEAA@Verror_code@12@PEBD@Z 0000000180007860 f i server.obj
 0001:000068f0       ??0?$wrapexcept@Vsystem_error@system@boost@@@boost@@QEAA@AEBVsystem_error@system@1@@Z 00000001800078f0 f i server.obj
 0001:000069b0       ??1system_error@system@boost@@UEAA@XZ 00000001800079b0 f i server.obj
 0001:00006a30       ??1?$wrapexcept@Vsystem_error@system@boost@@@boost@@UEAA@XZ 0000000180007a30 f i server.obj
 0001:00006a80       ??_G?$wrapexcept@Vsystem_error@system@boost@@@boost@@UEAAPEAXI@Z 0000000180007a80 f i server.obj
 0001:00006a80       ??_E?$wrapexcept@Vsystem_error@system@boost@@@boost@@UEAAPEAXI@Z 0000000180007a80 f i * CIL library *:* CIL module *
 0001:00006af0       ??1deleter@?$wrapexcept@Vsystem_error@system@boost@@@boost@@QEAA@XZ 0000000180007af0 f i server.obj
 0001:00006b10       ?clone@?$wrapexcept@Vsystem_error@system@boost@@@boost@@UEBAPEBVclone_base@exception_detail@2@XZ 0000000180007b10 f i server.obj
 0001:00006b70       ?rethrow@?$wrapexcept@Vsystem_error@system@boost@@@boost@@UEBAXXZ 0000000180007b70 f i server.obj
 0001:00006b98       ??_E?$wrapexcept@Vsystem_error@system@boost@@@boost@@W7EAAPEAXI@Z 0000000180007b98 f i server.obj
 0001:00006ba4       ??_E?$wrapexcept@Vsystem_error@system@boost@@@boost@@WFI@EAAPEAXI@Z 0000000180007ba4 f i server.obj
 0001:00006bb0       ??0?$wrapexcept@Vsystem_error@system@boost@@@boost@@QEAA@AEBU01@@Z 0000000180007bb0 f i server.obj
 0001:00006c90       ??_Esystem_error@system@boost@@UEAAPEAXI@Z 0000000180007c90 f i * CIL library *:* CIL module *
 0001:00006c90       ??_Gsystem_error@system@boost@@UEAAPEAXI@Z 0000000180007c90 f i server.obj
 0001:00006cd0       ?what@system_error@system@boost@@UEBAPEBDXZ 0000000180007cd0 f i server.obj
 0001:00006e10       ??0system_error@system@boost@@QEAA@AEBV012@@Z 0000000180007e10 f i server.obj
 0001:00006e80       ??$throw_exception@Vsystem_error@system@boost@@@boost@@YAXAEBVsystem_error@system@0@@Z 0000000180007e80 f i server.obj
 0001:00006eb0       ?do_throw_error@detail@asio@boost@@YAXAEBVerror_code@system@3@PEBD@Z 0000000180007eb0 f i server.obj
 0001:00006f00       ??0length_error@std@@QEAA@PEBD@Z 0000000180007f00 f i server.obj
 0001:00006f70       ??0length_error@std@@QEAA@AEBV01@@Z 0000000180007f70 f i server.obj
 0001:00006fb0       ??0logic_error@std@@QEAA@AEBV01@@Z 0000000180007fb0 f i server.obj
 0001:00006ff0       ??1clone_base@exception_detail@boost@@UEAA@XZ 0000000180007ff0 f i server.obj
 0001:00007000       ?copy_boost_exception@exception_detail@boost@@YAXPEAVexception@2@PEBV32@@Z 0000000180008000 f i server.obj
 0001:000070d0       ??_Gclone_base@exception_detail@boost@@UEAAPEAXI@Z 00000001800080d0 f i server.obj
 0001:000070d0       ??_Eclone_base@exception_detail@boost@@UEAAPEAXI@Z 00000001800080d0 f i * CIL library *:* CIL module *
 0001:00007100       ??0clone_base@exception_detail@boost@@QEAA@AEBV012@@Z 0000000180008100 f i server.obj
 0001:00007110       ??1?$refcount_ptr@Uerror_info_container@exception_detail@boost@@@exception_detail@boost@@QEAA@XZ 0000000180008110 f i server.obj
 0001:00007140       ??0exception@boost@@QEAA@AEBV01@@Z 0000000180008140 f i server.obj
 0001:000071a0       ?win_tss_ptr_create@detail@asio@boost@@YAKXZ 00000001800081a0 f i server.obj
 0001:00007280       ?system_category_condition_win32@detail@system@boost@@YAHH@Z 0000000180008280 f i server.obj
 0001:00007640       ?default_error_condition@system_error_category@detail@system@boost@@UEBA?AVerror_condition@34@H@Z 0000000180008640 f i server.obj
 0001:000076e0       ?name@interop_error_category@detail@system@boost@@UEBAPEBDXZ 00000001800086e0 f i server.obj
 0001:000076f0       ?message@interop_error_category@detail@system@boost@@UEBAPEBDHPEAD_K@Z 00000001800086f0 f i server.obj
 0001:00007720       ?message@interop_error_category@detail@system@boost@@UEBA?AV?$basic_string@DU?$char_traits@D@std@@V?$allocator@D@2@@std@@H@Z 0000000180008720 f i server.obj
 0001:000077b0       ?equivalent@error_category@system@boost@@UEBA_NAEBVerror_code@23@H@Z 00000001800087b0 f i server.obj
 0001:00007840       ?message@generic_error_category@detail@system@boost@@UEBAPEBDHPEAD_K@Z 0000000180008840 f i server.obj
 0001:000078b0       ?message@generic_error_category@detail@system@boost@@UEBA?AV?$basic_string@DU?$char_traits@D@std@@V?$allocator@D@2@@std@@H@Z 00000001800088b0 f i server.obj
 0001:00007920       ?default_error_condition@error_category@system@boost@@UEBA?AVerror_condition@23@H@Z 0000000180008920 f i server.obj
 0001:00007980       ?equivalent@error_category@system@boost@@UEBA_NHAEBVerror_condition@23@@Z 0000000180008980 f i server.obj
 0001:000079f0       ?message@system_error_category@detail@system@boost@@UEBAPEBDHPEAD_K@Z 00000001800089f0 f i server.obj
 0001:00007ab0       ??1local_free@detail@system@boost@@QEAA@XZ 0000000180008ab0 f i server.obj
 0001:00007ac0       ?assign@?$basic_string@DU?$char_traits@D@std@@V?$allocator@D@2@@std@@QEAAAEAV12@_KD@Z 0000000180008ac0 f i server.obj
 0001:00007c30       ?snprintf@detail@system@boost@@YAXPEAD_KPEBDZZ 0000000180008c30 f i server.obj
 0001:00007c90       ?unknown_message_win32@detail@system@boost@@YA?AV?$basic_string@DU?$char_traits@D@std@@V?$allocator@D@2@@std@@H@Z 0000000180008c90 f i server.obj
 0001:00007d30       ?system_category_message_win32@detail@system@boost@@YA?AV?$basic_string@DU?$char_traits@D@std@@V?$allocator@D@2@@std@@H@Z 0000000180008d30 f i server.obj
 0001:00007fd0       ?message@system_error_category@detail@system@boost@@UEBA?AV?$basic_string@DU?$char_traits@D@std@@V?$allocator@D@2@@std@@H@Z 0000000180008fd0 f i server.obj
 0001:00007ff0       ?failed@error_category@system@boost@@UEBA_NH@Z 0000000180008ff0 f i server.obj
 0001:00008000       getPlugin                  0000000180009000 f   SixMansPlugin-Rework.obj
 0001:00008100       ??1LogSys@@QEAA@XZ         0000000180009100 f i SixMansPlugin-Rework.obj
 0001:00008180       deleteMe                   0000000180009180 f   SixMansPlugin-Rework.obj
 0001:000081f0       ?onLoad@SixMansPlugin@@EEAAXXZ 00000001800091f0 f   SixMansPlugin-Rework.obj
 0001:00008530       ?_Delete_this@?$_Ref_count@VSixMansPlugin@@@std@@EEAAXXZ 0000000180009530 f i SixMansPlugin-Rework.obj
 0001:00008550       ?_Destroy@?$_Ref_count@VSixMansPlugin@@@std@@EEAAXXZ 0000000180009550 f i SixMansPlugin-Rework.obj
 0001:00008590       ??_E?$_Ref_count@VSixMansPlugin@@@std@@UEAAPEAXI@Z 0000000180009590 f i * CIL library *:* CIL module *
 0001:00008590       ??_G?$_Ref_count@VSixMansPlugin@@@std@@UEAAPEAXI@Z 0000000180009590 f i SixMansPlugin-Rework.obj
 0001:000085c0       ??4?$shared_ptr@VCVarManagerWrapper@@@std@@QEAAAEAV01@AEBV01@@Z 00000001800095c0 f i SixMansPlugin-Rework.obj
 0001:00008650       ??1BakkesModPlugin@Plugin@BakkesMod@@QEAA@XZ 0000000180009650 f i SixMansPlugin-Rework.obj
 0001:000086e0       ??0BakkesModPlugin@Plugin@BakkesMod@@QEAA@XZ 00000001800096e0 f i SixMansPlugin-Rework.obj
 0001:00008700       ??0BakkesModPlugin@Plugin@BakkesMod@@QEAA@AEBV012@@Z 0000000180009700 f i pch.obj
 0001:00008760       ??0BakkesModPlugin@Plugin@BakkesMod@@QEAA@$$QEAV012@@Z 0000000180009760 f i pch.obj
 0001:000087c0       ??4BakkesModPlugin@Plugin@BakkesMod@@QEAAAEAV012@AEBV012@@Z 00000001800097c0 f i pch.obj
 0001:00008860       ??4BakkesModPlugin@Plugin@BakkesMod@@QEAAAEAV012@$$QEAV012@@Z 0000000180009860 f i pch.obj
 0001:00008940       ?__autoclassinit2@BakkesModPlugin@Plugin@BakkesMod@@QEAAX_K@Z 0000000180009940 f i pch.obj
 0001:0000894c       ??0bad_alloc@std@@QEAA@XZ  000000018000994c f i libcpmt:xthrow.obj
 0001:0000896c       ??0out_of_range@std@@QEAA@AEBV01@@Z 000000018000996c f i libcpmt:xthrow.obj
 0001:000089a8       ??0out_of_range@std@@QEAA@PEBD@Z 00000001800099a8 f i libcpmt:xthrow.obj
 0001:000089f0       ?_Xlength_error@std@@YAXPEBD@Z 00000001800099f0 f   libcpmt:xthrow.obj
 0001:00008a14       ?_Xout_of_range@std@@YAXPEBD@Z 0000000180009a14 f   libcpmt:xthrow.obj
 0001:00008a38       ?_Xruntime_error@std@@YAXPEBD@Z 0000000180009a38 f   libcpmt:xthrow.obj
 0001:00008a5c       ??0_Locimp@locale@std@@AEAA@_N@Z 0000000180009a5c f i libcpmt:locale0.obj
 0001:00008ae4       ??4?$_Yarn@D@std@@QEAAAEAV01@PEBD@Z 0000000180009ae4 f i libcpmt:locale0.obj
 0001:00008b5c       ??_E_Locimp@locale@std@@MEAAPEAXI@Z 0000000180009b5c f i libcpmt:locale0.obj
 0001:00008b5c       ??_G_Locimp@locale@std@@MEAAPEAXI@Z 0000000180009b5c f i libcpmt:locale0.obj
 0001:00008bb8       ?_Facet_Register@std@@YAXPEAV_Facet_base@1@@Z 0000000180009bb8 f   libcpmt:locale0.obj
 0001:00008bf0       ?_Getgloballocale@locale@std@@CAPEAV_Locimp@12@XZ 0000000180009bf0 f   libcpmt:locale0.obj
 0001:00008bf8       ?_Init@locale@std@@CAPEAV_Locimp@12@_N@Z 0000000180009bf8 f   libcpmt:locale0.obj
 0001:00008cf0       ?_Locimp_dtor@_Locimp@locale@std@@CAXPEAV123@@Z 0000000180009cf0 f   libcpmt:locale0.obj
 0001:00008d6c       ?_Locinfo_ctor@_Locinfo@std@@SAXPEAV12@PEBD@Z 0000000180009d6c f   libcpmt:locale0.obj
 0001:00008dd8       ?_Locinfo_dtor@_Locinfo@std@@SAXPEAV12@@Z 0000000180009dd8 f   libcpmt:locale0.obj
 0001:00008df4       ?_New_Locimp@_Locimp@locale@std@@CAPEAV123@_N@Z 0000000180009df4 f   libcpmt:locale0.obj
 0001:00008e24       ?_Setgloballocale@locale@std@@CAXPEAX@Z 0000000180009e24 f   libcpmt:locale0.obj
 0001:00008e58       _Deletegloballocale        0000000180009e58 f   libcpmt:locale0.obj
 0001:00008ec8       ??0_Init_locks@std@@QEAA@XZ 0000000180009ec8 f   libcpmt:xlock.obj
 0001:00008f0c       ??0_Lockit@std@@QEAA@H@Z   0000000180009f0c f   libcpmt:xlock.obj
 0001:00008f48       ??1_Init_locks@std@@QEAA@XZ 0000000180009f48 f   libcpmt:xlock.obj
 0001:00008f84       ??1_Lockit@std@@QEAA@XZ    0000000180009f84 f   libcpmt:xlock.obj
 0001:00008fb8       ?_Ios_base_dtor@ios_base@std@@CAXPEAV12@@Z 0000000180009fb8 f   libcpmt:ios.obj
 0001:00009030       ?_Tidy@ios_base@std@@AEAAXXZ 000000018000a030 f i libcpmt:ios.obj
 0001:000090b0       __std_fs_code_page         000000018000a0b0 f   libcpmt:filesystem.obj
 0001:000090d8       __std_fs_convert_narrow_to_wide 000000018000a0d8 f   libcpmt:filesystem.obj
 0001:00009120       __std_fs_convert_wide_to_narrow_replace_chars 000000018000a120 f   libcpmt:filesystem.obj
 0001:000091ec       __std_fs_create_directory  000000018000a1ec f   libcpmt:filesystem.obj
 0001:00009264       __std_fs_get_stats         000000018000a264 f   libcpmt:filesystem.obj
 0001:00009500       __std_fs_open_handle       000000018000a500 f   libcpmt:filesystem.obj
 0001:00009558       ?_Syserror_map@std@@YAPEBDH@Z 000000018000a558 f   libcpmt:syserror.obj
 0001:00009580       ?_Winerror_map@std@@YAHH@Z 000000018000a580 f   libcpmt:syserror.obj
 0001:000095a4       __std_system_error_allocate_message 000000018000a5a4 f   libcpmt:syserror_import_lib.obj
 0001:00009604       __std_system_error_deallocate_message 000000018000a604 f   libcpmt:syserror_import_lib.obj
 0001:0000960c       _Getctype                  000000018000a60c f   libcpmt:_tolower.obj
 0001:000096cc       _Tolower                   000000018000a6cc f   libcpmt:_tolower.obj
 0001:00009800       _Toupper                   000000018000a800 f   libcpmt:_toupper.obj
 0001:00009944       ??$_Xfiopen@_W@std@@YAPEAU_iobuf@@PEB_WHH@Z 000000018000a944 f i libcpmt:fiopen.obj
 0001:00009a50       ?_Fiopen@std@@YAPEAU_iobuf@@PEB_WHH@Z 000000018000aa50 f   libcpmt:fiopen.obj
 0001:00009a58       ??0bad_exception@std@@QEAA@AEBV01@@Z 000000018000aa58 f i libcpmt:excptptr.obj
 0001:00009a9c       ??0bad_exception@std@@QEAA@XZ 000000018000aa9c f i libcpmt:excptptr.obj
 0001:00009acc       ??1bad_exception@std@@UEAA@XZ 000000018000aacc f i libcpmt:excptptr.obj
 0001:00009af0       ??_Ebad_exception@std@@UEAAPEAXI@Z 000000018000aaf0 f i libcpmt:excptptr.obj
 0001:00009af0       ??_Gbad_exception@std@@UEAAPEAXI@Z 000000018000aaf0 f i libcpmt:excptptr.obj
 0001:00009b38       ?_CallMemberFunction0@@YAXQEAX0@Z 000000018000ab38 f i libcpmt:excptptr.obj
 0001:00009b3c       ?_CallMemberFunction1@@YAXQEAX00@Z 000000018000ab3c f i libcpmt:excptptr.obj
 0001:00009b48       ?_CallMemberFunction2@@YAXQEAX00H@Z 000000018000ab48 f i libcpmt:excptptr.obj
 0001:00009b58       ?_Atexit@@YAXP6AXXZ@Z      000000018000ab58 f   libcpmt:iosptrs.obj
 0001:00009b94       _Mtxdst                    000000018000ab94 f   libcpmt:xmtx.obj
 0001:00009b9c       _Mtxinit                   000000018000ab9c f   libcpmt:xmtx.obj
 0001:00009bac       _Mtxlock                   000000018000abac f   libcpmt:xmtx.obj
 0001:00009bb4       _Mtxunlock                 000000018000abb4 f   libcpmt:xmtx.obj
 0001:00009bbc       __crtLCMapStringA          000000018000abbc f   libcpmt:StlLCMapStringA.obj
 0001:0000a280       __security_check_cookie    000000018000b280 f   LIBCMT:amdsecgs.obj
 0001:0000a2a0       ??_V@YAXPEAX@Z             000000018000b2a0 f   LIBCMT:delete_array.obj
 0001:0000a2a0       ??3@YAXPEAX_K@Z            000000018000b2a0 f   LIBCMT:delete_scalar_size.obj
 0001:0000a2a8       ??2@YAPEAX_K@Z             000000018000b2a8 f   LIBCMT:new_scalar.obj
 0001:0000a2e4       ??_Etype_info@@UEAAPEAXI@Z 000000018000b2e4 f i LIBCMT:std_type_info_static.obj
 0001:0000a2e4       ??_Gtype_info@@UEAAPEAXI@Z 000000018000b2e4 f i LIBCMT:std_type_info_static.obj
 0001:0000a310       ??_M@YAXPEAX_K1P6AX0@Z@Z   000000018000b310 f   LIBCMT:ehvecdtr.obj
 0001:0000a37c       ?__ArrayUnwind@@YAXPEAX_K1P6AX0@Z@Z 000000018000b37c f   LIBCMT:ehvecdtr.obj
 0001:0000a4d8       __scrt_acquire_startup_lock 000000018000b4d8 f   LIBCMT:utility.obj
 0001:0000a514       __scrt_dllmain_after_initialize_c 000000018000b514 f   LIBCMT:utility.obj
 0001:0000a548       __scrt_dllmain_before_initialize_c 000000018000b548 f   LIBCMT:utility.obj
 0001:0000a560       __scrt_dllmain_crt_thread_attach 000000018000b560 f   LIBCMT:utility.obj
 0001:0000a588       __scrt_dllmain_crt_thread_detach 000000018000b588 f   LIBCMT:utility.obj
 0001:0000a5a0       __scrt_dllmain_exception_filter 000000018000b5a0 f   LIBCMT:utility.obj
 0001:0000a600       __scrt_dllmain_uninitialize_c 000000018000b600 f   LIBCMT:utility.obj
 0001:0000a630       __scrt_dllmain_uninitialize_critical 000000018000b630 f   LIBCMT:utility.obj
 0001:0000a644       __scrt_initialize_crt      000000018000b644 f   LIBCMT:utility.obj
 0001:0000a690       __scrt_initialize_onexit_tables 000000018000b690 f   LIBCMT:utility.obj
 0001:0000a71c       __scrt_is_nonwritable_in_current_image 000000018000b71c f   LIBCMT:utility.obj
 0001:0000a7b4       __scrt_release_startup_lock 000000018000b7b4 f   LIBCMT:utility.obj
 0001:0000a7d8       __scrt_uninitialize_crt    000000018000b7d8 f   LIBCMT:utility.obj
 0001:0000a804       _onexit                    000000018000b804 f   LIBCMT:utility.obj
 0001:0000a840       atexit                     000000018000b840 f   LIBCMT:utility.obj
 0001:0000a858       __raise_securityfailure    000000018000b858 f   LIBCMT:gs_report.obj
 0001:0000a88c       __report_gsfailure         000000018000b88c f   LIBCMT:gs_report.obj
 0001:0000a960       __report_rangecheckfailure 000000018000b960 f   LIBCMT:gs_report.obj
 0001:0000a974       __report_securityfailure   000000018000b974 f   LIBCMT:gs_report.obj
 0001:0000ae14       _DllMainCRTStartup         000000018000be14 f   LIBCMT:dll_dllmain.obj
 0001:0000ae54       __GSHandlerCheck           000000018000be54 f   LIBCMT:gshandler.obj
 0001:0000ae74       __GSHandlerCheckCommon     000000018000be74 f   LIBCMT:gshandler.obj
 0001:0000aed0       __GSHandlerCheck_EH4       000000018000bed0 f   LIBCMT:gshandlereh4.obj
 0001:0000af60       __chkstk                   000000018000bf60 f   LIBCMT:chkstk.obj
 0001:0000af60       _alloca_probe              000000018000bf60 f   LIBCMT:chkstk.obj
 0001:0000afb0       ?__scrt_throw_std_bad_alloc@@YAXXZ 000000018000bfb0 f   LIBCMT:throw_bad_alloc.obj
 0001:0000afd0       __crt_debugger_hook        000000018000bfd0 f   LIBCMT:utility_desktop.obj
 0001:0000afd8       __scrt_fastfail            000000018000bfd8 f   LIBCMT:utility_desktop.obj
 0001:0000b124       __isa_available_init       000000018000c124 f   LIBCMT:cpu_disp.obj
 0001:0000b2d0       __scrt_is_ucrt_dll_in_use  000000018000c2d0 f   LIBCMT:ucrt_detection.obj
 0001:0000b2dc       __security_init_cookie     000000018000c2dc f   LIBCMT:gs_support.obj
 0001:0000b388       ?__scrt_initialize_type_info@@YAXXZ 000000018000c388 f   LIBCMT:tncleanup.obj
 0001:0000b398       ?__scrt_uninitialize_type_info@@YAXXZ 000000018000c398 f   LIBCMT:tncleanup.obj
 0001:0000b3a4       __scrt_initialize_default_local_stdio_options 000000018000c3a4 f   LIBCMT:default_local_stdio_options.obj
 0001:0000b3c0       __scrt_get_dyn_tls_init_callback 000000018000c3c0 f   LIBCMT:dyn_tls_init.obj
 0001:0000b3c8       _RTC_Initialize            000000018000c3c8 f   LIBCMT:initsect.obj
 0001:0000b404       _RTC_Terminate             000000018000c404 f   LIBCMT:initsect.obj
 0001:0000b440       ??$_CallSETranslator@V__FrameHandler3@@@@YAHPEAUEHExceptionRecord@@PEA_KPEAU_CONTEXT@@PEAU_xDISPATCHER_CONTEXT@@PEBU_s_FuncInfo@@K1H@Z 000000018000c440 f i libvcruntime:risctrnsctrl.obj
 0001:0000b494       ??$_CallSETranslator@V__FrameHandler4@@@@YAHPEAUEHExceptionRecord@@PEA_KPEAU_CONTEXT@@PEAU_xDISPATCHER_CONTEXT@@PEAUFuncInfo4@FH4@@K1H@Z 000000018000c494 f i libvcruntime:risctrnsctrl.obj
 0001:0000b4e8       ?CatchTryBlock@__FrameHandler3@@SAPEBU_s_TryBlockMapEntry@@PEBU_s_FuncInfo@@H@Z 000000018000c4e8 f   libvcruntime:risctrnsctrl.obj
 0001:0000b54c       ?DecompFuncInfo@FH4@@YA_JPEAEAEAUFuncInfo4@1@_KH_N@Z 000000018000c54c f i libvcruntime:risctrnsctrl.obj
 0001:0000b670       ?ExecutionInCatch@__FrameHandler3@@SA_NPEAU_xDISPATCHER_CONTEXT@@PEBU_s_FuncInfo@@@Z 000000018000c670 f   libvcruntime:risctrnsctrl.obj
 0001:0000b69c       ?ExecutionInCatch@__FrameHandler4@@SA_NPEAU_xDISPATCHER_CONTEXT@@PEAUFuncInfo4@FH4@@@Z 000000018000c69c f   libvcruntime:risctrnsctrl.obj
 0001:0000b6a4       ?FrameUnwindToEmptyState@__FrameHandler3@@SAXPEA_KPEAU_xDISPATCHER_CONTEXT@@PEBU_s_FuncInfo@@@Z 000000018000c6a4 f   libvcruntime:risctrnsctrl.obj
 0001:0000b708       ?FrameUnwindToEmptyState@__FrameHandler4@@SAXPEA_KPEAU_xDISPATCHER_CONTEXT@@PEAUFuncInfo4@FH4@@@Z 000000018000c708 f   libvcruntime:risctrnsctrl.obj
 0001:0000b73c       ?GetEstablisherFrame@__FrameHandler3@@SAPEA_KPEA_KPEAU_xDISPATCHER_CONTEXT@@PEBU_s_FuncInfo@@0@Z 000000018000c73c f   libvcruntime:risctrnsctrl.obj
 0001:0000b808       ?GetEstablisherFrame@__FrameHandler4@@SAPEA_KPEA_KPEAU_xDISPATCHER_CONTEXT@@PEAUFuncInfo4@FH4@@0@Z 000000018000c808 f   libvcruntime:risctrnsctrl.obj
 0001:0000b82c       ?GetRangeOfTrysToCheck@__FrameHandler3@@SA?AU?$pair@Viterator@TryBlockMap@__FrameHandler3@@V123@@std@@AEAVTryBlockMap@1@HPEAU_xDISPATCHER_CONTEXT@@PEBU_s_FuncInfo@@H@Z 000000018000c82c f   libvcruntime:risctrnsctrl.obj
 0001:0000b96c       ?GetRangeOfTrysToCheck@__FrameHandler4@@SA?AU?$pair@Viterator@TryBlockMap4@FH4@@V123@@std@@AEAVTryBlockMap4@FH4@@HPEAU_xDISPATCHER_CONTEXT@@PEAUFuncInfo4@5@H@Z 000000018000c96c f   libvcruntime:risctrnsctrl.obj
 0001:0000bad8       ?UnwindNestedFrames@__FrameHandler3@@SAXPEA_KPEAUEHExceptionRecord@@PEAU_CONTEXT@@0PEAXPEBU_s_FuncInfo@@HHPEBU_s_HandlerType@@PEAU_xDISPATCHER_CONTEXT@@E@Z 000000018000cad8 f   libvcruntime:risctrnsctrl.obj
 0001:0000bbdc       ?UnwindNestedFrames@__FrameHandler4@@SAXPEA_KPEAUEHExceptionRecord@@PEAU_CONTEXT@@0PEAXPEAUFuncInfo4@FH4@@HHPEAUHandlerType4@5@PEAU_xDISPATCHER_CONTEXT@@E@Z 000000018000cbdc f   libvcruntime:risctrnsctrl.obj
 0001:0000bcfc       ?setBuffer@TryBlockMap4@FH4@@QEAAXViterator@12@@Z 000000018000ccfc f i libvcruntime:risctrnsctrl.obj
 0001:0000bec0       _CreateFrameInfo           000000018000cec0 f   libvcruntime:risctrnsctrl.obj
 0001:0000befc       _FindAndUnlinkFrame        000000018000cefc f   libvcruntime:risctrnsctrl.obj
 0001:0000bf50       _GetImageBase              000000018000cf50 f   libvcruntime:risctrnsctrl.obj
 0001:0000bf64       _GetThrowImageBase         000000018000cf64 f   libvcruntime:risctrnsctrl.obj
 0001:0000bf78       _SetImageBase              000000018000cf78 f   libvcruntime:risctrnsctrl.obj
 0001:0000bf90       _SetThrowImageBase         000000018000cf90 f   libvcruntime:risctrnsctrl.obj
 0001:0000bfa8       __CxxFrameHandler3         000000018000cfa8 f   libvcruntime:risctrnsctrl.obj
 0001:0000c030       __CxxFrameHandler4         000000018000d030 f   libvcruntime:risctrnsctrl.obj
 0001:0000c0f0       __DestructExceptionObject  000000018000d0f0 f   libvcruntime:ehhelpers.obj
 0001:0000c160       _IsExceptionObjectToBeDestroyed 000000018000d160 f   libvcruntime:ehhelpers.obj
 0001:0000c190       __AdjustPointer            000000018000d190 f   libvcruntime:ehhelpers.obj
 0001:0000c1b4       __FrameUnwindFilter        000000018000d1b4 f   libvcruntime:ehhelpers.obj
 0001:0000c21c       __current_exception        000000018000d21c f   libvcruntime:ehhelpers.obj
 0001:0000c230       __current_exception_context 000000018000d230 f   libvcruntime:ehhelpers.obj
 0001:0000c244       __std_terminate            000000018000d244 f   libvcruntime:ehhelpers.obj
 0001:0000c250       __std_exception_copy       000000018000d250 f   libvcruntime:std_exception.obj
 0001:0000c2e0       __std_exception_destroy    000000018000d2e0 f   libvcruntime:std_exception.obj
 0001:0000c308       _get_purecall_handler      000000018000d308 f   libvcruntime:purevirt.obj
 0001:0000c314       _purecall                  000000018000d314 f   libvcruntime:purevirt.obj
 0001:0000c330       __C_specific_handler       000000018000d330 f   libvcruntime:riscchandler.obj
 0001:0000c528       __std_type_info_compare    000000018000d528 f   libvcruntime:std_type_info.obj
 0001:0000c550       __std_type_info_destroy_list 000000018000d550 f   libvcruntime:std_type_info.obj
 0001:0000c57c       _CxxThrowException         000000018000d57c f   libvcruntime:throw.obj
 0001:0000c630       memcpy_repmovs             000000018000d630 f   libvcruntime:memcpy.obj
 0001:0000c650       memcpy                     000000018000d650 f   libvcruntime:memcpy.obj
 0001:0000c650       memmove                    000000018000d650 f   libvcruntime:memcpy.obj
 0001:0000cce0       memset_repstos             000000018000dce0 f   libvcruntime:memset.obj
 0001:0000cd00       memset                     000000018000dd00 f   libvcruntime:memset.obj
 0001:0000d0a0       memchr                     000000018000e0a0 f   libvcruntime:memchr.obj
 0001:0000d120       memcmp                     000000018000e120 f   libvcruntime:memcmp.obj
 0001:0000d1e8       __vcrt_initialize          000000018000e1e8 f   libvcruntime:initialization.obj
 0001:0000d210       __vcrt_thread_attach       000000018000e210 f   libvcruntime:initialization.obj
 0001:0000d224       __vcrt_thread_detach       000000018000e224 f   libvcruntime:initialization.obj
 0001:0000d238       __vcrt_uninitialize        000000018000e238 f   libvcruntime:initialization.obj
 0001:0000d254       __vcrt_uninitialize_critical 000000018000e254 f   libvcruntime:initialization.obj
 0001:0000d264       __vcrt_freefls             000000018000e264 f   libvcruntime:per_thread_data.obj
 0001:0000d284       __vcrt_freeptd             000000018000e284 f   libvcruntime:per_thread_data.obj
 0001:0000d2d4       __vcrt_getptd              000000018000e2d4 f   libvcruntime:per_thread_data.obj
 0001:0000d2f0       __vcrt_getptd_noexit       000000018000e2f0 f   libvcruntime:per_thread_data.obj
 0001:0000d3b0       __vcrt_initialize_ptd      000000018000e3b0 f   libvcruntime:per_thread_data.obj
 0001:0000d3f8       __vcrt_uninitialize_ptd    000000018000e3f8 f   libvcruntime:per_thread_data.obj
 0001:0000d41c       ?GetCurrentState@__FrameHandler3@@SAHPEA_KPEAU_xDISPATCHER_CONTEXT@@PEBU_s_FuncInfo@@@Z 000000018000e41c f   libvcruntime:ehstate.obj
 0001:0000d444       ?GetUnwindTryBlock@__FrameHandler3@@SAHPEA_KPEAU_xDISPATCHER_CONTEXT@@PEBU_s_FuncInfo@@@Z 000000018000e444 f   libvcruntime:ehstate.obj
 0001:0000d470       ?SetState@__FrameHandler3@@SAXPEA_KPEBU_s_FuncInfo@@H@Z 000000018000e470 f   libvcruntime:ehstate.obj
 0001:0000d47c       ?SetUnwindTryBlock@__FrameHandler3@@SAXPEA_KPEAU_xDISPATCHER_CONTEXT@@PEBU_s_FuncInfo@@H@Z 000000018000e47c f   libvcruntime:ehstate.obj
 0001:0000d4b8       ?StateFromControlPc@__FrameHandler3@@SAHPEBU_s_FuncInfo@@PEAU_xDISPATCHER_CONTEXT@@@Z 000000018000e4b8 f   libvcruntime:ehstate.obj
 0001:0000d4c0       ?StateFromControlPc@__FrameHandler4@@SAHPEAUFuncInfo4@FH4@@PEAU_xDISPATCHER_CONTEXT@@@Z 000000018000e4c0 f   libvcruntime:ehstate.obj
 0001:0000d4c8       ?StateFromIp@__FrameHandler3@@SAHPEBU_s_FuncInfo@@PEAU_xDISPATCHER_CONTEXT@@_K@Z 000000018000e4c8 f   libvcruntime:ehstate.obj
 0001:0000d530       ?StateFromIp@__FrameHandler4@@SAHPEAUFuncInfo4@FH4@@PEAU_xDISPATCHER_CONTEXT@@_K@Z 000000018000e530 f   libvcruntime:ehstate.obj
 0001:0000ec30       ??$TypeMatchHelper@V__FrameHandler3@@@@YAHPEBU_s_HandlerType@@PEBU_s_CatchableType@@PEBU_s_ThrowInfo@@@Z 000000018000fc30 f i libvcruntime:frame.obj
 0001:0000ed70       ??$TypeMatchHelper@V__FrameHandler4@@@@YAHPEAUHandlerType4@FH4@@PEBU_s_CatchableType@@PEBU_s_ThrowInfo@@@Z 000000018000fd70 f i libvcruntime:frame.obj
 0001:0000eeb4       ??$__InternalCxxFrameHandler@V__FrameHandler3@@@@YA?AW4_EXCEPTION_DISPOSITION@@PEAUEHExceptionRecord@@PEA_KPEAU_CONTEXT@@PEAU_xDISPATCHER_CONTEXT@@PEBU_s_FuncInfo@@H1E@Z 000000018000feb4 f i libvcruntime:frame.obj
 0001:0000f0ec       ??$__InternalCxxFrameHandler@V__FrameHandler4@@@@YA?AW4_EXCEPTION_DISPOSITION@@PEAUEHExceptionRecord@@PEA_KPEAU_CONTEXT@@PEAU_xDISPATCHER_CONTEXT@@PEAUFuncInfo4@FH4@@H1E@Z 00000001800100ec f i libvcruntime:frame.obj
 0001:0000f380       ??0HandlerMap4@FH4@@QEAA@PEBUTryBlockMapEntry4@1@_KH@Z 0000000180010380 f i libvcruntime:frame.obj
 0001:0000f3fc       ??0TryBlockMap4@FH4@@QEAA@PEBUFuncInfo4@1@_K@Z 00000001800103fc f i libvcruntime:frame.obj
 0001:0000f4d4       ?CxxCallCatchBlock@__FrameHandler3@@SAPEAXPEAU_EXCEPTION_RECORD@@@Z 00000001800104d4 f   libvcruntime:frame.obj
 0001:0000f6c0       ?CxxCallCatchBlock@__FrameHandler4@@SAPEAXPEAU_EXCEPTION_RECORD@@@Z 00000001800106c0 f   libvcruntime:frame.obj
 0001:0000f910       ?DecompHandler@HandlerMap4@FH4@@AEAAXXZ 0000000180010910 f i libvcruntime:frame.obj
 0001:0000fb5c       ?FrameUnwindToState@__FrameHandler3@@SAXPEA_KPEAU_xDISPATCHER_CONTEXT@@PEBU_s_FuncInfo@@H@Z 0000000180010b5c f   libvcruntime:frame.obj
 0001:0000fce8       ?FrameUnwindToState@__FrameHandler4@@SAXPEA_KPEAU_xDISPATCHER_CONTEXT@@PEAUFuncInfo4@FH4@@H@Z 0000000180010ce8 f   libvcruntime:frame.obj
 0001:0000ffe4       ?GetHandlerSearchState@__FrameHandler3@@SAHPEA_KPEAU_xDISPATCHER_CONTEXT@@PEBU_s_FuncInfo@@@Z 0000000180010fe4 f i libvcruntime:frame.obj
 0001:000101f4       ?ReadEntry@UWMap4@FH4@@AEAAXPEAPEAE@Z 00000001800111f4 f i libvcruntime:frame.obj
 0001:00010290       ?getStartStop@UWMap4@FH4@@QEAAXHHAEAViterator@12@0@Z 0000000180011290 f i libvcruntime:frame.obj
 0001:00010360       ?getStateFromIterators@UWMap4@FH4@@SAHAEBViterator@12@H0H0@Z 0000000180011360 f i libvcruntime:frame.obj
 0001:00010440       _NLG_Notify                0000000180011440 f   libvcruntime:notify.obj
 0001:00010460       __NLG_Dispatch2            0000000180011460 f   libvcruntime:notify.obj
 0001:00010470       __NLG_Return2              0000000180011470 f   libvcruntime:notify.obj
 0001:00010474       __except_validate_context_record 0000000180011474 f   libvcruntime:jbcxrval.obj
 0001:000104ac       __vcrt_initialize_locks    00000001800114ac f   libvcruntime:locks.obj
 0001:000104f4       __vcrt_uninitialize_locks  00000001800114f4 f   libvcruntime:locks.obj
 0001:0001067c       __vcrt_FlsAlloc            000000018001167c f   libvcruntime:winapi_downlevel.obj
 0001:000106c4       __vcrt_FlsFree             00000001800116c4 f   libvcruntime:winapi_downlevel.obj
 0001:0001070c       __vcrt_FlsGetValue         000000018001170c f   libvcruntime:winapi_downlevel.obj
 0001:00010754       __vcrt_FlsSetValue         0000000180011754 f   libvcruntime:winapi_downlevel.obj
 0001:000107a8       __vcrt_InitializeCriticalSectionEx 00000001800117a8 f   libvcruntime:winapi_downlevel.obj
 0001:00010820       _CallSettingFrame          0000000180011820 f   libvcruntime:handlers.obj
 0001:00010870       _CallSettingFrame_LookupContinuationIndex 0000000180011870 f   libvcruntime:handlers.obj
 0001:000108a0       _CallSettingFrame_NotifyContinuationAddr 00000001800118a0 f   libvcruntime:handlers.obj
 0001:000108d0       _CallSettingFrameEncoded   00000001800118d0 f   libvcruntime:handlers.obj
 0001:00010ae4       ??$ensure_buffer_is_big_enough@D@formatting_buffer@__crt_stdio_output@@QEAA_N_K@Z 0000000180011ae4 f i libucrt:output.obj
 0001:00010b8c       ??$type_case_integer_parse_into_buffer@I@?$output_processor@DV?$string_output_adapter@D@__crt_stdio_output@@V?$standard_base@DV?$string_output_adapter@D@__crt_stdio_output@@@2@@__crt_stdio_output@@AEAAXII_N@Z 0000000180011b8c f i libucrt:output.obj
 0001:00010c14       ??$type_case_integer_parse_into_buffer@_K@?$output_processor@DV?$string_output_adapter@D@__crt_stdio_output@@V?$standard_base@DV?$string_output_adapter@D@__crt_stdio_output@@@2@@__crt_stdio_output@@AEAAX_KI_N@Z 0000000180011c14 f i libucrt:output.obj
 0001:00010ca4       ??$write_multiple_characters@V?$string_output_adapter@D@__crt_stdio_output@@D@__crt_stdio_output@@YAXAEBV?$string_output_adapter@D@0@DHQEAH@Z 0000000180011ca4 f i libucrt:output.obj
 0001:00010d1c       ??0_LocaleUpdate@@QEAA@QEAU__crt_locale_pointers@@@Z 0000000180011d1c f i libucrt:output.obj
 0001:00010db8       ??1_LocaleUpdate@@QEAA@XZ  0000000180011db8 f i libucrt:output.obj
 0001:00010dd0       ?crop_zeroes@__crt_stdio_output@@YAXPEADQEAU__crt_locale_pointers@@@Z 0000000180011dd0 f i libucrt:output.obj
 0001:00010e70       ?force_decimal_point@__crt_stdio_output@@YAXPEADQEAU__crt_locale_pointers@@@Z 0000000180011e70 f i libucrt:output.obj
 0001:00010ee8       ?parse_int_from_format_string@?$output_processor@DV?$string_output_adapter@D@__crt_stdio_output@@V?$standard_base@DV?$string_output_adapter@D@__crt_stdio_output@@@2@@__crt_stdio_output@@AEAA_NQEAH@Z 0000000180011ee8 f i libucrt:output.obj
 0001:00010f8c       ?process@?$output_processor@DV?$string_output_adapter@D@__crt_stdio_output@@V?$standard_base@DV?$string_output_adapter@D@__crt_stdio_output@@@2@@__crt_stdio_output@@QEAAHXZ 0000000180011f8c f i libucrt:output.obj
 0001:00011194       ?state_case_normal@?$output_processor@DV?$string_output_adapter@D@__crt_stdio_output@@V?$standard_base@DV?$string_output_adapter@D@__crt_stdio_output@@@2@@__crt_stdio_output@@AEAA_NXZ 0000000180012194 f i libucrt:output.obj
 0001:00011208       ?state_case_normal_tchar@?$output_processor@DV?$string_output_adapter@D@__crt_stdio_output@@V?$standard_base@DV?$string_output_adapter@D@__crt_stdio_output@@@2@@__crt_stdio_output@@AEAA_ND@Z 0000000180012208 f i libucrt:output.obj
 0001:000112b0       ?state_case_size@?$output_processor@DV?$string_output_adapter@D@__crt_stdio_output@@V?$standard_base@DV?$string_output_adapter@D@__crt_stdio_output@@@2@@__crt_stdio_output@@AEAA_NXZ 00000001800122b0 f i libucrt:output.obj
 0001:00011420       ?state_case_type@?$output_processor@DV?$string_output_adapter@D@__crt_stdio_output@@V?$standard_base@DV?$string_output_adapter@D@__crt_stdio_output@@@2@@__crt_stdio_output@@AEAA_NXZ 0000000180012420 f i libucrt:output.obj
 0001:00011690       ?to_integer_size@__crt_stdio_output@@YA_KW4length_modifier@1@@Z 0000000180012690 f i libucrt:output.obj
 0001:000116f8       ?type_case_Z@?$output_processor@DV?$string_output_adapter@D@__crt_stdio_output@@V?$standard_base@DV?$string_output_adapter@D@__crt_stdio_output@@@2@@__crt_stdio_output@@AEAA_NXZ 00000001800126f8 f i libucrt:output.obj
 0001:0001176c       ?type_case_a@?$output_processor@DV?$string_output_adapter@D@__crt_stdio_output@@V?$standard_base@DV?$string_output_adapter@D@__crt_stdio_output@@@2@@__crt_stdio_output@@AEAA_NXZ 000000018001276c f i libucrt:output.obj
 0001:00011928       ?type_case_c_tchar@?$output_processor@DV?$string_output_adapter@D@__crt_stdio_output@@V?$standard_base@DV?$string_output_adapter@D@__crt_stdio_output@@@2@@__crt_stdio_output@@AEAA_ND@Z 0000000180012928 f i libucrt:output.obj
 0001:000119f0       ?type_case_integer@?$output_processor@DV?$string_output_adapter@D@__crt_stdio_output@@V?$standard_base@DV?$string_output_adapter@D@__crt_stdio_output@@@2@@__crt_stdio_output@@AEAA_NI_N@Z 00000001800129f0 f i libucrt:output.obj
 0001:00011b70       ?type_case_n@?$output_processor@DV?$string_output_adapter@D@__crt_stdio_output@@V?$standard_base@DV?$string_output_adapter@D@__crt_stdio_output@@@2@@__crt_stdio_output@@AEAA_NXZ 0000000180012b70 f i libucrt:output.obj
 0001:00011bf8       ?type_case_s@?$output_processor@DV?$string_output_adapter@D@__crt_stdio_output@@V?$standard_base@DV?$string_output_adapter@D@__crt_stdio_output@@@2@@__crt_stdio_output@@AEAA_NXZ 0000000180012bf8 f i libucrt:output.obj
 0001:00011c90       ?write_stored_string_tchar@?$output_processor@DV?$string_output_adapter@D@__crt_stdio_output@@V?$standard_base@DV?$string_output_adapter@D@__crt_stdio_output@@@2@@__crt_stdio_output@@AEAA_ND@Z 0000000180012c90 f i libucrt:output.obj
 0001:00011d6c       ?write_string@?$string_output_adapter@D@__crt_stdio_output@@QEBAXQEBDHQEAHAEAV__crt_deferred_errno_cache@@@Z 0000000180012d6c f i libucrt:output.obj
 0001:00011e10       __stdio_common_vsprintf    0000000180012e10 f   libucrt:output.obj
 0001:00011e18       __acrt_initialize_stdio    0000000180012e18 f   libucrt:_file.obj
 0001:00011f38       __acrt_iob_func            0000000180012f38 f   libucrt:_file.obj
 0001:00011f4c       __acrt_uninitialize_stdio  0000000180012f4c f   libucrt:_file.obj
 0001:00011fa8       _get_stream_buffer_pointers 0000000180012fa8 f   libucrt:_file.obj
 0001:00011ff0       _lock_file                 0000000180012ff0 f   libucrt:_file.obj
 0001:00011ffc       _unlock_file               0000000180012ffc f   libucrt:_file.obj
 0001:00012008       terminate                  0000000180013008 f   libucrt:terminate.obj
 0001:00012028       __acrt_errno_from_os_error 0000000180013028 f   libucrt:errno.obj
 0001:00012070       __acrt_errno_map_os_error  0000000180013070 f   libucrt:errno.obj
 0001:000120c0       __doserrno                 00000001800130c0 f   libucrt:errno.obj
 0001:000120e0       _errno                     00000001800130e0 f   libucrt:errno.obj
 0001:00012100       strerror                   0000000180013100 f   libucrt:strerror.obj
 0001:000121dc       __acrt_call_reportfault    00000001800131dc f   libucrt:invalid_parameter.obj
 0001:00012338       __acrt_initialize_invalid_parameter_handler 0000000180013338 f   libucrt:invalid_parameter.obj
 0001:00012340       _invalid_parameter         0000000180013340 f   libucrt:invalid_parameter.obj
 0001:000123f0       _invalid_parameter_noinfo  00000001800133f0 f   libucrt:invalid_parameter.obj
 0001:00012410       _invalid_parameter_noinfo_noreturn 0000000180013410 f   libucrt:invalid_parameter.obj
 0001:00012440       _invoke_watson             0000000180013440 f   libucrt:invalid_parameter.obj
 0001:0001252c       _fwrite_nolock             000000018001352c f   libucrt:fwrite.obj
 0001:000126d8       fwrite                     00000001800136d8 f   libucrt:fwrite.obj
 0001:0001275c       fputc                      000000018001375c f   libucrt:fputc.obj
 0001:00012880       _fileno                    0000000180013880 f   libucrt:fileno.obj
 0001:000128a8       _isatty                    00000001800138a8 f   libucrt:isatty.obj
 0001:00012908       __acrt_lowio_create_handle_array 0000000180013908 f   libucrt:osfinfo.obj
 0001:000129b0       __acrt_lowio_destroy_handle_array 00000001800139b0 f   libucrt:osfinfo.obj
 0001:00012a00       __acrt_lowio_ensure_fh_exists 0000000180013a00 f   libucrt:osfinfo.obj
 0001:00012aa8       __acrt_lowio_lock_fh       0000000180013aa8 f   libucrt:osfinfo.obj
 0001:00012ad0       __acrt_lowio_set_os_handle 0000000180013ad0 f   libucrt:osfinfo.obj
 0001:00012b90       __acrt_lowio_unlock_fh     0000000180013b90 f   libucrt:osfinfo.obj
 0001:00012bb8       _alloc_osfhnd              0000000180013bb8 f   libucrt:osfinfo.obj
 0001:00012cf8       _free_osfhnd               0000000180013cf8 f   libucrt:osfinfo.obj
 0001:00012db4       _get_osfhandle             0000000180013db4 f   libucrt:osfinfo.obj
 0001:00012e2c       free                       0000000180013e2c f   libucrt:free.obj
 0001:00012e40       calloc                     0000000180013e40 f   libucrt:calloc.obj
 0001:00012e48       _fclose_nolock             0000000180013e48 f   libucrt:fclose.obj
 0001:00012ecc       fclose                     0000000180013ecc f   libucrt:fclose.obj
 0001:00012ffc       _wfsopen                   0000000180013ffc f   libucrt:fopen.obj
 0001:00013004       ??$__acrt_mbs_to_wcs_cp@U__crt_win32_buffer_internal_dynamic_resizing@@@@YAHQEBDAEAV?$__crt_win32_buffer@_WU__crt_win32_buffer_internal_dynamic_resizing@@@@I@Z 0000000180014004 f i libucrt:open.obj
 0001:000137a4       _wsopen_nolock             00000001800147a4 f   libucrt:open.obj
 0001:00013b8c       _wsopen_s                  0000000180014b8c f   libucrt:open.obj
 0001:00013c34       _close                     0000000180014c34 f   libucrt:close.obj
 0001:00013cd8       _close_nolock              0000000180014cd8 f   libucrt:close.obj
 0001:00014300       _read                      0000000180015300 f   libucrt:read.obj
 0001:0001441c       _read_nolock               000000018001541c f   libucrt:read.obj
 0001:000150f0       _write                     00000001800160f0 f   libucrt:write.obj
 0001:000151dc       _write_nolock              00000001800161dc f   libucrt:write.obj
 0001:000154c0       ??$__acrt_stdio_parse_mode@_W@@YA?AU__acrt_stdio_stream_mode@@QEB_W@Z 00000001800164c0 f i libucrt:fdopen.obj
 0001:000157c4       malloc                     00000001800167c4 f   libucrt:malloc.obj
 0001:000157e0       strncpy                    00000001800167e0 f   libucrt:strncpy.obj
 0001:00015e14       _ftelli64                  0000000180016e14 f   libucrt:ftell.obj
 0001:00015e1c       _ftelli64_nolock           0000000180016e1c f   libucrt:ftell.obj
 0001:0001602c       _fseeki64                  000000018001702c f   libucrt:fseek.obj
 0001:00016034       fseek                      0000000180017034 f   libucrt:fseek.obj
 0001:0001603c       _fread_nolock_s            000000018001703c f   libucrt:fread.obj
 0001:0001629c       fread                      000000018001729c f   libucrt:fread.obj
 0001:000162bc       fread_s                    00000001800172bc f   libucrt:fread.obj
 0001:00016370       qsort                      0000000180017370 f   libucrt:qsort.obj
 0001:0001692c       __acrt_stdio_flush_nolock  000000018001792c f   libucrt:fflush.obj
 0001:000169a8       _fflush_nolock             00000001800179a8 f   libucrt:fflush.obj
 0001:000169f4       _flushall                  00000001800179f4 f   libucrt:fflush.obj
 0001:000169fc       fflush                     00000001800179fc f   libucrt:fflush.obj
 0001:00016a70       ?divide@__crt_strtox@@YA_KAEAUbig_integer@1@AEBU21@@Z 0000000180017a70 f i libucrt:input.obj
 0001:00016e9c       _ischartype_l              0000000180017e9c f i libucrt:input.obj
 0001:00016fb0       strncmp                    0000000180017fb0 f   libucrt:strncmp.obj
 0001:00017154       setvbuf                    0000000180018154 f   libucrt:setvbuf.obj
 0001:000171f0       fsetpos                    00000001800181f0 f   libucrt:fsetpos.obj
 0001:00017228       fgetpos                    0000000180018228 f   libucrt:fgetpos.obj
 0001:00017274       _fgetc_nolock              0000000180018274 f   libucrt:fgetc.obj
 0001:000172b8       fgetc                      00000001800182b8 f   libucrt:fgetc.obj
 0001:000173c0       _ungetc_nolock             00000001800183c0 f   libucrt:ungetc.obj
 0001:000174e8       ungetc                     00000001800184e8 f   libucrt:ungetc.obj
 0001:00017540       ??$parse_integer@KV?$c_string_character_source@D@__crt_strtox@@@__crt_strtox@@YAKQEAU__crt_locale_pointers@@V?$c_string_character_source@D@0@H_N@Z 0000000180018540 f i libucrt:strtox.obj
 0001:00017844       ??$parse_integer@KV?$c_string_character_source@_W@__crt_strtox@@@__crt_strtox@@YAKQEAU__crt_locale_pointers@@V?$c_string_character_source@_W@0@H_N@Z 0000000180018844 f i libucrt:strtox.obj
 0001:00017eec       strtol                     0000000180018eec f   libucrt:strtox.obj
 0001:00017f60       __acrt_get_sigabrt_handler 0000000180018f60 f   libucrt:signal.obj
 0001:00017f90       __acrt_initialize_signal_handlers 0000000180018f90 f   libucrt:signal.obj
 0001:00017fb0       raise                      0000000180018fb0 f   libucrt:signal.obj
 0001:000184f8       setlocale                  00000001800194f8 f   libucrt:setlocale.obj
 0001:00018544       __acrt_initialize_locks    0000000180019544 f   libucrt:locks.obj
 0001:0001858c       __acrt_lock                000000018001958c f   libucrt:locks.obj
 0001:000185a8       __acrt_uninitialize_locks  00000001800195a8 f   libucrt:locks.obj
 0001:000185e0       __acrt_unlock              00000001800195e0 f   libucrt:locks.obj
 0001:000185fc       _lock_locales              00000001800195fc f   libucrt:locks.obj
 0001:00018618       _unlock_locales            0000000180019618 f   libucrt:locks.obj
 0001:00018628       ___lc_codepage_func        0000000180019628 f   libucrt:initctype.obj
 0001:00018658       ___lc_locale_name_func     0000000180019658 f   libucrt:initctype.obj
 0001:0001868c       __acrt_locale_initialize_ctype 000000018001968c f   libucrt:initctype.obj
 0001:00018cf0       __pctype_func              0000000180019cf0 f   libucrt:ctype.obj
 0001:00018d20       islower                    0000000180019d20 f   libucrt:_ctype.obj
 0001:00018dd0       isupper                    0000000180019dd0 f   libucrt:_ctype.obj
 0001:00018e78       _wcsdup                    0000000180019e78 f   libucrt:wcsdup.obj
 0001:00018efc       abort                      0000000180019efc f   libucrt:abort.obj
 0001:00018f60       pow                        0000000180019f60 f   libucrt:pow.obj
 0001:0001a600       powf                       000000018001b600 f   libucrt:powf.obj
 0001:0001b4c8       __strncnt                  000000018001c4c8 f   libucrt:strncnt.obj
 0001:0001b4e0       ??$__acrt_wcs_to_mbs_cp@U__crt_win32_buffer_no_resizing@@@@YAHQEB_WAEAV?$__crt_win32_buffer@DU__crt_win32_buffer_no_resizing@@@@I@Z 000000018001c4e0 f i libucrt:strftime.obj
 0001:0001b5f4       strnlen                    000000018001c5f4 f   libucrt:strnlen.obj
 0001:0001b744       wcsnlen                    000000018001c744 f   libucrt:strnlen.obj
 0001:0001b91c       __acrt_initialize_new_handler 000000018001c91c f   libucrt:new_handler.obj
 0001:0001b924       _callnewh                  000000018001c924 f   libucrt:new_handler.obj
 0001:0001b954       _query_new_handler         000000018001c954 f   libucrt:new_handler.obj
 0001:0001b988       _seh_filter_dll            000000018001c988 f   libucrt:exception_filter.obj
 0001:0001b99c       _seh_filter_exe            000000018001c99c f   libucrt:exception_filter.obj
 0001:0001bd8c       __acrt_initialize_thread_local_exit_callback 000000018001cd8c f   libucrt:exit.obj
 0001:0001bd94       _cexit                     000000018001cd94 f   libucrt:exit.obj
 0001:0001bda4       _exit                      000000018001cda4 f   libucrt:exit.obj
 0001:0001bdb0       _is_c_termination_complete 000000018001cdb0 f   libucrt:exit.obj
 0001:0001bf78       __acrt_allocate_buffer_for_argv 000000018001cf78 f   libucrt:argv_parsing.obj
 0001:0001bfd8       _configure_narrow_argv     000000018001cfd8 f   libucrt:argv_parsing.obj
 0001:0001c350       __dcrt_uninitialize_environments_nolock 000000018001d350 f   libucrt:environment_initialization.obj
 0001:0001c388       _initialize_narrow_environment 000000018001d388 f   libucrt:environment_initialization.obj
 0001:0001c6d0       _crt_atexit                000000018001d6d0 f   libucrt:onexit.obj
 0001:0001c6e0       _execute_onexit_table      000000018001d6e0 f   libucrt:onexit.obj
 0001:0001c71c       _initialize_onexit_table   000000018001d71c f   libucrt:onexit.obj
 0001:0001c744       _register_onexit_function  000000018001d744 f   libucrt:onexit.obj
 0001:0001c8b8       __acrt_initialize          000000018001d8b8 f   libucrt:initialization.obj
 0001:0001c8cc       __acrt_thread_attach       000000018001d8cc f   libucrt:initialization.obj
 0001:0001c8e0       __acrt_thread_detach       000000018001d8e0 f   libucrt:initialization.obj
 0001:0001c8f0       __acrt_uninitialize        000000018001d8f0 f   libucrt:initialization.obj
 0001:0001c928       __acrt_uninitialize_critical 000000018001d928 f   libucrt:initialization.obj
 0001:0001c938       _initterm                  000000018001d938 f   libucrt:initterm.obj
 0001:0001c99c       _initterm_e                000000018001d99c f   libucrt:initterm.obj
 0001:0001c9dc       strcpy_s                   000000018001d9dc f   libucrt:strcpy_s.obj
 0001:0001ca3c       _wtol                      000000018001da3c f   libucrt:atox.obj
 0001:0001ca68       wcsncmp                    000000018001da68 f   libucrt:wcsncmp.obj
 0001:0001ca94       _free_base                 000000018001da94 f   libucrt:free_base.obj
 0001:0001cad4       _malloc_base               000000018001dad4 f   libucrt:malloc_base.obj
 0001:0001cb34       _mbtowc_l                  000000018001db34 f   libucrt:mbtowc.obj
 0001:0001ccb4       mbtowc                     000000018001dcb4 f   libucrt:mbtowc.obj
 0001:0001ccbc       _wctomb_s_l                000000018001dcbc f   libucrt:wctomb.obj
 0001:0001d1d0       __acrt_freeptd             000000018001e1d0 f   libucrt:per_thread_data.obj
 0001:0001d214       __acrt_getptd              000000018001e214 f   libucrt:per_thread_data.obj
 0001:0001d2e8       __acrt_getptd_head         000000018001e2e8 f   libucrt:per_thread_data.obj
 0001:0001d390       __acrt_getptd_noexit       000000018001e390 f   libucrt:per_thread_data.obj
 0001:0001d45c       __acrt_initialize_ptd      000000018001e45c f   libucrt:per_thread_data.obj
 0001:0001d498       __acrt_uninitialize_ptd    000000018001e498 f   libucrt:per_thread_data.obj
 0001:0001d4bc       __acrt_update_locale_info  000000018001e4bc f   libucrt:locale_update.obj
 0001:0001d4f0       __acrt_update_multibyte_info 000000018001e4f0 f   libucrt:locale_update.obj
 0001:0001df30       __acrt_fp_format           000000018001ef30 f   libucrt:cvt.obj
 0001:0001e268       _get_printf_count_output   000000018001f268 f   libucrt:printf_count_output.obj
 0001:0001e280       __acrt_should_use_temporary_buffer 000000018001f280 f   libucrt:_sftbuf.obj
 0001:0001e2c8       __acrt_stdio_begin_temporary_buffering_nolock 000000018001f2c8 f   libucrt:_sftbuf.obj
 0001:0001e390       __acrt_stdio_end_temporary_buffering_nolock 000000018001f390 f   libucrt:_sftbuf.obj
 0001:0001e634       ?commit_locale_name@_expandlocale_locale_name_cache@@QEAAXQEB_W_K@Z 000000018001f634 f i libucrt:wsetlocale.obj
 0001:0001e6ac       __acrt_copy_locale_name    000000018001f6ac f   libucrt:wsetlocale.obj
 0001:0001e730       __acrt_set_locale_changed  000000018001f730 f   libucrt:wsetlocale.obj
 0001:0001e73c       __acrt_uninitialize_locale 000000018001f73c f   libucrt:wsetlocale.obj
 0001:0001e76c       __lc_lctowcs               000000018001f76c f   libucrt:wsetlocale.obj
 0001:0001e810       __lc_wcstolc               000000018001f810 f   libucrt:wsetlocale.obj
 0001:0001eeb8       _wcscats                   000000018001feb8 f   libucrt:wsetlocale.obj
 0001:0001ef20       _wsetlocale                000000018001ff20 f   libucrt:wsetlocale.obj
 0001:0001fe6c       __acrt_initialize_lowio    0000000180020e6c f   libucrt:ioinit.obj
 0001:0001fea8       __acrt_uninitialize_lowio  0000000180020ea8 f   libucrt:ioinit.obj
 0001:0001fee8       _calloc_base               0000000180020ee8 f   libucrt:calloc_base.obj
 0001:000201dc       __acrt_AppPolicyGetProcessTerminationMethodInternal 00000001800211dc f   libucrt:winapi_thunks.obj
 0001:0002022c       __acrt_AreFileApisANSI     000000018002122c f   libucrt:winapi_thunks.obj
 0001:00020268       __acrt_EnumSystemLocalesEx 0000000180021268 f   libucrt:winapi_thunks.obj
 0001:00020300       __acrt_FlsAlloc            0000000180021300 f   libucrt:winapi_thunks.obj
 0001:00020348       __acrt_FlsFree             0000000180021348 f   libucrt:winapi_thunks.obj
 0001:00020390       __acrt_FlsGetValue         0000000180021390 f   libucrt:winapi_thunks.obj
 0001:000203d8       __acrt_FlsSetValue         00000001800213d8 f   libucrt:winapi_thunks.obj
 0001:0002042c       __acrt_GetLocaleInfoEx     000000018002142c f   libucrt:winapi_thunks.obj
 0001:000204b0       __acrt_GetUserDefaultLocaleName 00000001800214b0 f   libucrt:winapi_thunks.obj
 0001:00020514       __acrt_InitializeCriticalSectionEx 0000000180021514 f   libucrt:winapi_thunks.obj
 0001:00020578       __acrt_IsValidLocaleName   0000000180021578 f   libucrt:winapi_thunks.obj
 0001:000205d0       __acrt_LCIDToLocaleName    00000001800215d0 f   libucrt:winapi_thunks.obj
 0001:00020640       __acrt_LCMapStringEx       0000000180021640 f   libucrt:winapi_thunks.obj
 0001:0002071c       __acrt_LocaleNameToLCID    000000018002171c f   libucrt:winapi_thunks.obj
 0001:0002076c       __acrt_can_use_vista_locale_apis 000000018002176c f   libucrt:winapi_thunks.obj
 0001:0002079c       __acrt_eagerly_load_locale_apis 000000018002179c f   libucrt:winapi_thunks.obj
 0001:000208f8       __acrt_initialize_winapi_thunks 00000001800218f8 f   libucrt:winapi_thunks.obj
 0001:0002092c       __acrt_uninitialize_winapi_thunks 000000018002192c f   libucrt:winapi_thunks.obj
 0001:00020970       _fcloseall                 0000000180021970 f   libucrt:closeall.obj
 0001:00020a24       __acrt_stdio_free_buffer_nolock 0000000180021a24 f   libucrt:_freebuf.obj
 0001:00020a64       __sys_errlist              0000000180021a64 f   libucrt:syserr.obj
 0001:00020a6c       __sys_nerr                 0000000180021a6c f   libucrt:syserr.obj
 0001:00020c74       _mbstowcs_s_l              0000000180021c74 f   libucrt:mbstowcs.obj
 0001:00020da8       mbstowcs_s                 0000000180021da8 f   libucrt:mbstowcs.obj
 0001:00020dc8       strncpy_s                  0000000180021dc8 f   libucrt:strncpy_s.obj
 0001:00020ffc       __acrt_stdio_flush_and_write_narrow_nolock 0000000180021ffc f   libucrt:_flsbuf.obj
 0001:000210b4       _query_app_type            00000001800220b4 f   libucrt:report_runtime_error.obj
 0001:000210bc       ?__acrt_stdio_allocate_stream@@YA?AV__crt_stdio_stream@@XZ 00000001800220bc f   libucrt:stream.obj
 0001:00021114       ?__acrt_stdio_free_stream@@YAXV__crt_stdio_stream@@@Z 0000000180022114 f   libucrt:stream.obj
 0001:0002121c       _wopenfile                 000000018002221c f   libucrt:openfile.obj
 0001:000212b8       _get_fmode                 00000001800222b8 f   libucrt:setmode.obj
 0001:000212e8       _setmode_nolock            00000001800222e8 f   libucrt:setmode.obj
 0001:000213c8       __acrt_MultiByteToWideChar 00000001800223c8 f   libucrt:multibytetowidechar.obj
 0001:00021424       _chsize_nolock             0000000180022424 f   libucrt:chsize.obj
 0001:0002171c       _lseeki64                  000000018002271c f   libucrt:lseek.obj
 0001:00021724       _lseeki64_nolock           0000000180022724 f   libucrt:lseek.obj
 0001:0002172c       __acrt_WideCharToMultiByte 000000018002272c f   libucrt:widechartomultibyte.obj
 0001:000217dc       ?__mbrtowc_utf8@__crt_mbstring@@YA_KPEA_WPEBD_KPEAU_Mbstatet@@@Z 00000001800227dc f   libucrt:mbrtowc.obj
 0001:00021818       ?__mbsrtowcs_utf8@__crt_mbstring@@YA_KPEA_WPEAPEBD_KPEAU_Mbstatet@@@Z 0000000180022818 f   libucrt:mbrtowc.obj
 0001:00021990       _putwch_nolock             0000000180022990 f   libucrt:putwch.obj
 0001:000219cc       __ascii_wcsnicmp           00000001800229cc f   libucrt:wcsnicmp.obj
 0001:00021a18       _wcsnicmp                  0000000180022a18 f   libucrt:wcsnicmp.obj
 0001:00021a60       _wcsnicmp_l                0000000180022a60 f   libucrt:wcsnicmp.obj
 0001:00021bb0       _isleadbyte_l              0000000180022bb0 f i libucrt:_wctype.obj
 0001:00021f14       __acrt_LCMapStringA        0000000180022f14 f   libucrt:lcmapstringa.obj
 0001:00021fac       __acrt_stdio_refill_and_read_narrow_nolock 0000000180022fac f   libucrt:_filbuf.obj
 0001:000221a4       _commit                    00000001800231a4 f   libucrt:commit.obj
 0001:00022238       iswctype                   0000000180023238 f   libucrt:iswctype.obj
 0001:000222a4       _isctype_l                 00000001800232a4 f   libucrt:isctype.obj
 0001:000223ac       fegetround                 00000001800233ac f   libucrt:fegetround.obj
 0001:000223c0       __acrt_stdio_allocate_buffer_nolock 00000001800233c0 f   libucrt:_getbuf.obj
 0001:0002242c       _raise_exc                 000000018002342c f   libucrt:fpexcept.obj
 0001:00022454       _raise_exc_ex              0000000180023454 f   libucrt:fpexcept.obj
 0001:00022764       _raise_excf                0000000180023764 f   libucrt:fpexcept.obj
 0001:00022790       _set_errno_from_matherr    0000000180023790 f   libucrt:fpexcept.obj
 0001:000227c0       _clrfp                     00000001800237c0 f   libucrt:fpctrl.obj
 0001:000227e0       _ctrlfp                    00000001800237e0 f   libucrt:fpctrl.obj
 0001:0002285c       _set_statfp                000000018002385c f   libucrt:fpctrl.obj
 0001:0002287c       _statfp                    000000018002387c f   libucrt:fpctrl.obj
 0001:00022890       __acrt_get_process_end_policy 0000000180023890 f   libucrt:win_policies.obj
 0001:00022c28       _wcstombs_s_l              0000000180023c28 f   libucrt:wcstombs.obj
 0001:00022e8c       __acrt_GetLocaleInfoA      0000000180023e8c f   libucrt:getlocaleinfoa.obj
 0001:00023054       __acrt_GetStringTypeA      0000000180024054 f   libucrt:getstringtypea.obj
 0001:000231e4       wcscpy_s                   00000001800241e4 f   libucrt:wcscpy_s.obj
 0001:0002324c       _realloc_base              000000018002424c f   libucrt:realloc_base.obj
 0001:000232d0       __acrt_initialize_fma3     00000001800242d0 f   libucrt:fma3_available.obj
 0001:00023340       _pow_special               0000000180024340 f   libucrt:pow_special.obj
 0001:00023464       _powf_special              0000000180024464 f   libucrt:pow_special.obj
 0001:000235f0       __ascii_wcsicmp            00000001800245f0 f   libucrt:wcsicmp.obj
 0001:00023630       _wcsicmp                   0000000180024630 f   libucrt:wcsicmp.obj
 0001:00023678       _wcsicmp_l                 0000000180024678 f   libucrt:wcsicmp.obj
 0001:000237a0       __acrt_initialize_timeset  00000001800247a0 f   libucrt:timeset.obj
 0001:00023804       ??$__acrt_wcs_to_mbs_cp@U__crt_win32_buffer_internal_dynamic_resizing@@@@YAHQEB_WAEAV?$__crt_win32_buffer@DU__crt_win32_buffer_internal_dynamic_resizing@@@@I@Z 0000000180024804 f i libucrt:argv_wildcards.obj
 0001:00024034       __acrt_expand_narrow_argv_wildcards 0000000180025034 f   libucrt:argv_wildcards.obj
 0001:0002403c       __acrt_GetModuleFileNameA  000000018002503c f   libucrt:getmodulefilenamea.obj
 0001:00024884       __acrt_initialize_multibyte 0000000180025884 f   libucrt:mbctype.obj
 0001:000248e4       __acrt_update_thread_multibyte_data 00000001800258e4 f   libucrt:mbctype.obj
 0001:00024900       _setmbcp_nolock            0000000180025900 f   libucrt:mbctype.obj
 0001:00024c34       _ismbblead                 0000000180025c34 f   libucrt:ismbbyte.obj
 0001:00024c48       __acrt_initialize_command_line 0000000180025c48 f   libucrt:argv_data.obj
 0001:00024c70       __dcrt_get_narrow_environment_from_os 0000000180025c70 f   libucrt:get_environment_from_os.obj
 0001:00024d74       _recalloc_base             0000000180025d74 f   libucrt:recalloc.obj
 0001:00024e0c       __acrt_initialize_heap     0000000180025e0c f   libucrt:heap_handle.obj
 0001:00024e28       __acrt_uninitialize_heap   0000000180025e28 f   libucrt:heap_handle.obj
 0001:00024e34       __acrt_execute_initializers 0000000180025e34 f   libucrt:shared_initialization.obj
 0001:00024eb4       __acrt_execute_uninitializers 0000000180025eb4 f   libucrt:shared_initialization.obj
 0001:00024ef0       __acrt_has_user_matherr    0000000180025ef0 f   libucrt:matherr.obj
 0001:00024f10       __acrt_initialize_user_matherr 0000000180025f10 f   libucrt:matherr.obj
 0001:00024f18       __acrt_invoke_user_matherr 0000000180025f18 f   libucrt:matherr.obj
 0001:00024f48       _query_new_mode            0000000180025f48 f   libucrt:new_mode.obj
 0001:00024f50       ?__c32rtomb_utf8@__crt_mbstring@@YA_KPEAD_UPEAU_Mbstatet@@@Z 0000000180025f50 f   libucrt:c32rtomb.obj
 0001:00025004       c32rtomb                   0000000180026004 f   libucrt:c32rtomb.obj
 0001:0002500c       __acrt_add_locale_ref      000000018002600c f   libucrt:locale_refcounting.obj
 0001:00025098       __acrt_free_locale         0000000180026098 f   libucrt:locale_refcounting.obj
 0001:00025210       __acrt_locale_add_lc_time_reference 0000000180026210 f   libucrt:locale_refcounting.obj
 0001:00025238       __acrt_locale_free_lc_time_if_unreferenced 0000000180026238 f   libucrt:locale_refcounting.obj
 0001:00025270       __acrt_locale_release_lc_time_reference 0000000180026270 f   libucrt:locale_refcounting.obj
 0001:00025298       __acrt_release_locale_ref  0000000180026298 f   libucrt:locale_refcounting.obj
 0001:00025340       __acrt_update_thread_locale_data 0000000180026340 f   libucrt:locale_refcounting.obj
 0001:000253b0       _updatetlocinfoEx_nolock   00000001800263b0 f   libucrt:locale_refcounting.obj
 0001:00025418       __acrt_fp_strflt_to_string 0000000180026418 f   libucrt:_fptostr.obj
 0001:00025574       __acrt_fltout              0000000180026574 f   libucrt:cfout.obj
 0001:000267b8       __acrt_locale_free_monetary 00000001800277b8 f   libucrt:initmon.obj
 0001:000268c4       __acrt_locale_initialize_monetary 00000001800278c4 f   libucrt:initmon.obj
 0001:00026df8       __acrt_locale_free_numeric 0000000180027df8 f   libucrt:initnum.obj
 0001:00026e64       __acrt_locale_initialize_numeric 0000000180027e64 f   libucrt:initnum.obj
 0001:000274e4       __acrt_locale_free_time    00000001800284e4 f   libucrt:inittime.obj
 0001:000275ec       __acrt_locale_initialize_time 00000001800285ec f   libucrt:inittime.obj
 0001:00027688       wcscat_s                   0000000180028688 f   libucrt:wcscat_s.obj
 0001:00027708       wcsncat_s                  0000000180028708 f   libucrt:wcsncat_s.obj
 0001:00027808       wcsncpy_s                  0000000180028808 f   libucrt:wcsncpy_s.obj
 0001:000278ec       wcscspn                    00000001800288ec f   libucrt:wcscspn.obj
 0001:0002792c       wcspbrk                    000000018002892c f   libucrt:wcspbrk.obj
 0001:00028114       __acrt_get_qualified_locale 0000000180029114 f   libucrt:get_qualified_locale.obj
 0001:00028b48       __acrt_get_qualified_locale_downlevel 0000000180029b48 f   libucrt:getqloc_downlevel.obj
 0001:00028dc8       __acrt_DownlevelLCIDToLocaleName 0000000180029dc8 f   libucrt:lcidtoname_downlevel.obj
 0001:00028ebc       __acrt_DownlevelLocaleNameToLCID 0000000180029ebc f   libucrt:lcidtoname_downlevel.obj
 0001:00028f6c       __acrt_fenv_get_common_round_control 0000000180029f6c f   libucrt:_fenvutils.obj
 0001:00028f78       __acrt_fenv_get_control    0000000180029f78 f   libucrt:_fenvutils.obj
 0001:0002906c       __acrt_fenv_get_status     000000018002a06c f   libucrt:_fenvutils.obj
 0001:000290c0       __acrt_fenv_set_control    000000018002a0c0 f   libucrt:_fenvutils.obj
 0001:00029208       __acrt_fenv_set_status     000000018002a208 f   libucrt:_fenvutils.obj
 0001:0002928c       __acrt_initialize_fmode    000000018002a28c f   libucrt:txtmode.obj
 0001:000292a8       ?__mbrtoc32_utf8@__crt_mbstring@@YA_KPEA_UPEBD_KPEAU_Mbstatet@@@Z 000000018002a2a8 f   libucrt:mbrtoc32.obj
 0001:00029480       __dcrt_lowio_ensure_console_output_initialized 000000018002a480 f   libucrt:initcon.obj
 0001:000294d4       __dcrt_terminate_console_output 000000018002a4d4 f   libucrt:initcon.obj
 0001:000294f0       __dcrt_write_console       000000018002a4f0 f   libucrt:initcon.obj
 0001:000295b0       _towlower_l                000000018002a5b0 f   libucrt:towlower.obj
 0001:0002966c       __acrt_GetStringTypeW      000000018002a66c f   libucrt:getstringtypew.obj
 0001:00029690       _get_fpsr                  000000018002a690 f   libucrt:fpsr.obj
 0001:000296a0       _set_fpsr                  000000018002a6a0 f   libucrt:fpsr.obj
 0001:000296aa       _fclrf                     000000018002a6aa f   libucrt:fpsr.obj
 0001:000296be       _frnd                      000000018002a6be f   libucrt:fpsr.obj
 0001:000296e0       ?__wcsrtombs_utf8@__crt_mbstring@@YA_KPEADPEAPEB_W_KPEAU_Mbstatet@@@Z 000000018002a6e0 f   libucrt:wcrtomb.obj
 0001:00029920       _handle_error              000000018002a920 f   libucrt:libm_error.obj
 0001:00029a48       _handle_errorf             000000018002aa48 f   libucrt:libm_error.obj
 0001:00029b7c       _handle_nan                000000018002ab7c f   libucrt:libm_error.obj
 0001:00029b98       _handle_nanf               000000018002ab98 f   libucrt:libm_error.obj
 0001:00029c50       strpbrk                    000000018002ac50 f   libucrt:strpbrk.obj
 0001:0002a018       _mbsdec                    000000018002b018 f   libucrt:mbsdec.obj
 0001:0002a020       _mbsdec_l                  000000018002b020 f   libucrt:mbsdec.obj
 0001:0002a0cc       _msize_base                000000018002b0cc f   libucrt:msize.obj
 0001:0002a108       _controlfp_s               000000018002b108 f   libucrt:contrlfp.obj
 0001:0002a16c       fegetenv                   000000018002b16c f   libucrt:fegetenv.obj
 0001:0002a18c       fesetenv                   000000018002b18c f   libucrt:fesetenv.obj
 0001:0002a1d8       feholdexcept               000000018002b1d8 f   libucrt:feholdexcept.obj
 0001:0002a228       ceil                       000000018002b228 f   libucrt:ceil.obj
 0001:0002a2f0       log10                      000000018002b2f0 f   libucrt:log10.obj
 0001:0002a9dc       _itow_s                    000000018002b9dc f   libucrt:xtoa.obj
 0001:0002a9fc       wcscmp                     000000018002b9fc f   libucrt:wcscmp.obj
 0001:0002aa34       __acrt_LCMapStringW        000000018002ba34 f   libucrt:lcmapstringw.obj
 0001:0002aabc       ?__c16rtomb_utf8@__crt_mbstring@@YA_KPEAD_SPEAU_Mbstatet@@@Z 000000018002babc f   libucrt:c16rtomb.obj
 0001:0002ab60       _clearfp                   000000018002bb60 f   libucrt:ieee.obj
 0001:0002abd0       _control87                 000000018002bbd0 f   libucrt:ieee.obj
 0001:0002aea0       _log10_special             000000018002bea0 f   libucrt:log_special.obj
 0001:0002af60       _FindPESection             000000018002bf60 f   LIBCMT:pesect.obj
 0001:0002afb0       _IsNonwritableInCurrentImage 000000018002bfb0 f   LIBCMT:pesect.obj
 0001:0002b000       _ValidateImageBase         000000018002c000 f   LIBCMT:pesect.obj
 0001:0002b02c       __GSHandlerCheck_SEH       000000018002c02c f   LIBCMT:gshandlerseh.obj
 0001:0002b0b4       __GSHandlerCheck_EH        000000018002c0b4 f   LIBCMT:gshandlereh.obj
 0001:0002b134       _local_unwind              000000018002c134 f   libvcruntime:jmpuwind.obj
 0001:0002b160       strrchr                    000000018002c160 f   libvcruntime:strrchr.obj
 0001:0002b29c       wcschr                     000000018002c29c f   libvcruntime:wcschr.obj
 0001:0002b320       sinf                       000000018002c320 f   libucrt:sinf.obj
 0001:0002ba20       __remainder_piby2d2f_forC  000000018002ca20 f   libucrt:remainder_piby2f_forc.obj
 0001:0002bc38       _sinf_special              000000018002cc38 f   libucrt:sincos_special.obj
 0001:0002bc60       _guard_dispatch_icall_nop  000000018002cc60 f   LIBCMT:guard_dispatch.obj
 0001:0002bc80       _guard_xfg_dispatch_icall_nop 000000018002cc80 f   LIBCMT:guard_xfg_dispatch.obj
 0002:00000000       __imp_FormatMessageW       000000018002e000     kernel32:KERNEL32.dll
 0002:00000008       __imp_QueryPerformanceCounter 000000018002e008     kernel32:KERNEL32.dll
 0002:00000010       __imp_LeaveCriticalSection 000000018002e010     kernel32:KERNEL32.dll
 0002:00000018       __imp_EnterCriticalSection 000000018002e018     kernel32:KERNEL32.dll
 0002:00000020       __imp_LocalFree            000000018002e020     kernel32:KERNEL32.dll
 0002:00000028       __imp_FormatMessageA       000000018002e028     kernel32:KERNEL32.dll
 0002:00000030       __imp_TlsFree              000000018002e030     kernel32:KERNEL32.dll
 0002:00000038       __imp_TlsAlloc             000000018002e038     kernel32:KERNEL32.dll
 0002:00000040       __imp_TlsGetValue          000000018002e040     kernel32:KERNEL32.dll
 0002:00000048       __imp_GetProcAddress       000000018002e048     kernel32:KERNEL32.dll
 0002:00000050       __imp_CloseHandle          000000018002e050     kernel32:KERNEL32.dll
 0002:00000058       __imp_CreateEventW         000000018002e058     kernel32:KERNEL32.dll
 0002:00000060       __imp_SetLastError         000000018002e060     kernel32:KERNEL32.dll
 0002:00000068       __imp_TlsSetValue          000000018002e068     kernel32:KERNEL32.dll
 0002:00000070       __imp_DeleteCriticalSection 000000018002e070     kernel32:KERNEL32.dll
 0002:00000078       __imp_InitializeCriticalSectionAndSpinCount 000000018002e078     kernel32:KERNEL32.dll
 0002:00000080       __imp_GetLastError         000000018002e080     kernel32:KERNEL32.dll
 0002:00000088       __imp_GetProcessHeap       000000018002e088     kernel32:KERNEL32.dll
 0002:00000090       __imp_FreeEnvironmentStringsW 000000018002e090     kernel32:KERNEL32.dll
 0002:00000098       __imp_GetEnvironmentStringsW 000000018002e098     kernel32:KERNEL32.dll
 0002:000000a0       __imp_GetCommandLineW      000000018002e0a0     kernel32:KERNEL32.dll
 0002:000000a8       __imp_GetCommandLineA      000000018002e0a8     kernel32:KERNEL32.dll
 0002:000000b0       __imp_GetOEMCP             000000018002e0b0     kernel32:KERNEL32.dll
 0002:000000b8       __imp_GetACP               000000018002e0b8     kernel32:KERNEL32.dll
 0002:000000c0       __imp_IsValidCodePage      000000018002e0c0     kernel32:KERNEL32.dll
 0002:000000c8       __imp_HeapReAlloc          000000018002e0c8     kernel32:KERNEL32.dll
 0002:000000d0       __imp_FlushFileBuffers     000000018002e0d0     kernel32:KERNEL32.dll
 0002:000000d8       __imp_GetFileSizeEx        000000018002e0d8     kernel32:KERNEL32.dll
 0002:000000e0       __imp_EnumSystemLocalesW   000000018002e0e0     kernel32:KERNEL32.dll
 0002:000000e8       __imp_GetUserDefaultLCID   000000018002e0e8     kernel32:KERNEL32.dll
 0002:000000f0       __imp_IsValidLocale        000000018002e0f0     kernel32:KERNEL32.dll
 0002:000000f8       __imp_GetLocaleInfoW       000000018002e0f8     kernel32:KERNEL32.dll
 0002:00000100       __imp_LCMapStringW         000000018002e100     kernel32:KERNEL32.dll
 0002:00000108       __imp_GetStdHandle         000000018002e108     kernel32:KERNEL32.dll
 0002:00000110       __imp_HeapAlloc            000000018002e110     kernel32:KERNEL32.dll
 0002:00000118       __imp_HeapFree             000000018002e118     kernel32:KERNEL32.dll
 0002:00000120       __imp_GetModuleFileNameW   000000018002e120     kernel32:KERNEL32.dll
 0002:00000128       __imp_ExitProcess          000000018002e128     kernel32:KERNEL32.dll
 0002:00000130       __imp_GetModuleHandleExW   000000018002e130     kernel32:KERNEL32.dll
 0002:00000138       __imp_WideCharToMultiByte  000000018002e138     kernel32:KERNEL32.dll
 0002:00000140       __imp_WriteConsoleW        000000018002e140     kernel32:KERNEL32.dll
 0002:00000148       __imp_HeapSize             000000018002e148     kernel32:KERNEL32.dll
 0002:00000150       __imp_MultiByteToWideChar  000000018002e150     kernel32:KERNEL32.dll
 0002:00000158       __imp_CreateDirectoryW     000000018002e158     kernel32:KERNEL32.dll
 0002:00000160       __imp_CreateFileW          000000018002e160     kernel32:KERNEL32.dll
 0002:00000168       __imp_FindClose            000000018002e168     kernel32:KERNEL32.dll
 0002:00000170       __imp_FindFirstFileExW     000000018002e170     kernel32:KERNEL32.dll
 0002:00000178       __imp_FindNextFileW        000000018002e178     kernel32:KERNEL32.dll
 0002:00000180       __imp_GetFileAttributesExW 000000018002e180     kernel32:KERNEL32.dll
 0002:00000188       __imp_SetEndOfFile         000000018002e188     kernel32:KERNEL32.dll
 0002:00000190       __imp_SetFilePointerEx     000000018002e190     kernel32:KERNEL32.dll
 0002:00000198       __imp_AreFileApisANSI      000000018002e198     kernel32:KERNEL32.dll
 0002:000001a0       __imp_RtlUnwind            000000018002e1a0     kernel32:KERNEL32.dll
 0002:000001a8       __imp_GetFileInformationByHandleEx 000000018002e1a8     kernel32:KERNEL32.dll
 0002:000001b0       __imp_InitializeCriticalSectionEx 000000018002e1b0     kernel32:KERNEL32.dll
 0002:000001b8       __imp_GetCurrentThreadId   000000018002e1b8     kernel32:KERNEL32.dll
 0002:000001c0       __imp_RtlPcToFileHeader    000000018002e1c0     kernel32:KERNEL32.dll
 0002:000001c8       __imp_RaiseException       000000018002e1c8     kernel32:KERNEL32.dll
 0002:000001d0       __imp_EncodePointer        000000018002e1d0     kernel32:KERNEL32.dll
 0002:000001d8       __imp_DecodePointer        000000018002e1d8     kernel32:KERNEL32.dll
 0002:000001e0       __imp_LCMapStringEx        000000018002e1e0     kernel32:KERNEL32.dll
 0002:000001e8       __imp_GetSystemTimeAsFileTime 000000018002e1e8     kernel32:KERNEL32.dll
 0002:000001f0       __imp_GetModuleHandleW     000000018002e1f0     kernel32:KERNEL32.dll
 0002:000001f8       __imp_GetStringTypeW       000000018002e1f8     kernel32:KERNEL32.dll
 0002:00000200       __imp_GetCPInfo            000000018002e200     kernel32:KERNEL32.dll
 0002:00000208       __imp_RtlCaptureContext    000000018002e208     kernel32:KERNEL32.dll
 0002:00000210       __imp_RtlLookupFunctionEntry 000000018002e210     kernel32:KERNEL32.dll
 0002:00000218       __imp_RtlVirtualUnwind     000000018002e218     kernel32:KERNEL32.dll
 0002:00000220       __imp_UnhandledExceptionFilter 000000018002e220     kernel32:KERNEL32.dll
 0002:00000228       __imp_SetUnhandledExceptionFilter 000000018002e228     kernel32:KERNEL32.dll
 0002:00000230       __imp_GetCurrentProcess    000000018002e230     kernel32:KERNEL32.dll
 0002:00000238       __imp_TerminateProcess     000000018002e238     kernel32:KERNEL32.dll
 0002:00000240       __imp_IsProcessorFeaturePresent 000000018002e240     kernel32:KERNEL32.dll
 0002:00000248       __imp_IsDebuggerPresent    000000018002e248     kernel32:KERNEL32.dll
 0002:00000250       __imp_GetStartupInfoW      000000018002e250     kernel32:KERNEL32.dll
 0002:00000258       __imp_GetCurrentProcessId  000000018002e258     kernel32:KERNEL32.dll
 0002:00000260       __imp_InitializeSListHead  000000018002e260     kernel32:KERNEL32.dll
 0002:00000268       __imp_RtlUnwindEx          000000018002e268     kernel32:KERNEL32.dll
 0002:00000270       __imp_InterlockedFlushSList 000000018002e270     kernel32:KERNEL32.dll
 0002:00000278       __imp_FreeLibrary          000000018002e278     kernel32:KERNEL32.dll
 0002:00000280       __imp_LoadLibraryExW       000000018002e280     kernel32:KERNEL32.dll
 0002:00000288       __imp_SetStdHandle         000000018002e288     kernel32:KERNEL32.dll
 0002:00000290       __imp_GetFileType          000000018002e290     kernel32:KERNEL32.dll
 0002:00000298       __imp_ReadFile             000000018002e298     kernel32:KERNEL32.dll
 0002:000002a0       __imp_GetConsoleMode       000000018002e2a0     kernel32:KERNEL32.dll
 0002:000002a8       __imp_ReadConsoleW         000000018002e2a8     kernel32:KERNEL32.dll
 0002:000002b0       __imp_WriteFile            000000018002e2b0     kernel32:KERNEL32.dll
 0002:000002b8       __imp_GetConsoleOutputCP   000000018002e2b8     kernel32:KERNEL32.dll
 0002:000002c0       \177KERNEL32_NULL_THUNK_DATA 000000018002e2c0     kernel32:KERNEL32.dll
 0002:000002c8       __imp_WSAStartup           000000018002e2c8     ws2_32:WS2_32.dll
 0002:000002d0       __imp_WSACleanup           000000018002e2d0     ws2_32:WS2_32.dll
 0002:000002d8       \177WS2_32_NULL_THUNK_DATA 000000018002e2d8     ws2_32:WS2_32.dll
 0002:000002e0       __imp_?GetDataFolder@GameWrapper@@QEAA?AVpath@filesystem@std@@XZ 000000018002e2e0     pluginsdk:pluginsdk.dll
 0002:000002e8       \177pluginsdk_NULL_THUNK_DATA 000000018002e2e8     pluginsdk:pluginsdk.dll
 0002:000002f0       __guard_check_icall_fptr   000000018002e2f0     LIBCMT:guard_support.obj
 0002:000002f8       __guard_xfg_check_icall_fptr 000000018002e2f8     LIBCMT:guard_support.obj
 0002:00000300       __guard_dispatch_icall_fptr 000000018002e300     LIBCMT:guard_support.obj
 0002:00000308       __guard_xfg_dispatch_icall_fptr 000000018002e308     LIBCMT:guard_support.obj
 0002:00000310       __guard_xfg_table_dispatch_icall_fptr 000000018002e310     LIBCMT:guard_support.obj
 0002:00000318       __castguard_check_failure_os_handled_fptr 000000018002e318     LIBCMT:guard_support.obj
 0002:00000320       __guard_memcpy_fptr        000000018002e320     libvcruntime:softmemtag.obj
 0002:00000328       __xc_a                     000000018002e328     LIBCMT:initializers.obj
 0002:000003e0       __xc_z                     000000018002e3e0     LIBCMT:initializers.obj
 0002:000003e8       __xi_a                     000000018002e3e8     LIBCMT:initializers.obj
 0002:00000400       __acrt_stdio_initializer   000000018002e400     libucrt:stdio_initializer.obj
 0002:00000408       __acrt_tran_fma3_initializer 000000018002e408     libucrt:fma3_initializer.obj
 0002:00000410       __acrt_timeset_initializer 000000018002e410     libucrt:timeset_initializer.obj
 0002:00000418       __acrt_multibyte_initializer 000000018002e418     libucrt:multibyte_initializer.obj
 0002:00000420       __acrt_fmode_initializer   000000018002e420     libucrt:fmode_initializer.obj
 0002:00000428       __xi_z                     000000018002e428     LIBCMT:initializers.obj
 0002:00000430       __xl_a                     000000018002e430     LIBCMT:tlssup.obj
 0002:00000438       __xl_z                     000000018002e438     LIBCMT:tlssup.obj
 0002:00000440       __xp_a                     000000018002e440     LIBCMT:initializers.obj
 0002:00000448       __acrt_locale_terminator   000000018002e448     libucrt:locale_initializer.obj
 0002:00000450       __dcrt_console_output_terminator 000000018002e450     libucrt:console_output_initializer.obj
 0002:00000458       __acrt_stdio_terminator    000000018002e458     libucrt:stdio_initializer.obj
 0002:00000460       __xp_z                     000000018002e460     LIBCMT:initializers.obj
 0002:00000468       __xt_a                     000000018002e468     LIBCMT:initializers.obj
 0002:00000470       __xt_z                     000000018002e470     LIBCMT:initializers.obj
 0002:00000488       ??_7exception@std@@6B@     000000018002e488     libcpmt:xthrow.obj
 0002:000004a0       ??_7bad_alloc@std@@6B@     000000018002e4a0     libcpmt:xthrow.obj
 0002:000004b0       ??_C@_0P@GHFPNOJB@bad?5allocation@ 000000018002e4b0     libcpmt:xthrow.obj
 0002:000004c8       ??_7logic_error@std@@6B@   000000018002e4c8     libcpmt:xthrow.obj
 0002:000004e0       ??_7length_error@std@@6B@  000000018002e4e0     libcpmt:xthrow.obj
 0002:000004f8       ??_7out_of_range@std@@6B@  000000018002e4f8     libcpmt:xthrow.obj
 0002:00000510       ??_7runtime_error@std@@6B@ 000000018002e510     libcpmt:xthrow.obj
 0002:00000528       ??_7_Facet_base@std@@6B@   000000018002e528     libcpmt:locale0.obj
 0002:00000548       ??_7_Locimp@locale@std@@6B@ 000000018002e548     libcpmt:locale0.obj
 0002:00000560       ??_C@_01GFHCPBMG@C@        000000018002e560     libcpmt:locale0.obj
 0002:00000568       ?_BADOFF@std@@3_JB         000000018002e568     libcpmt:ios.obj
 0002:00000cd0       ??_C@_0BN@LKKBCCDB@address?5family?5not?5supported@ 000000018002ecd0     libcpmt:syserror.obj
 0002:00000cf0       ??_C@_0P@LDMLAFHI@address?5in?5use@ 000000018002ecf0     libcpmt:syserror.obj
 0002:00000d00       ??_C@_0BG@DHPCNBJB@address?5not?5available@ 000000018002ed00     libcpmt:syserror.obj
 0002:00000d18       ??_C@_0BC@DFIBIBIL@already?5connected@ 000000018002ed18     libcpmt:syserror.obj
 0002:00000d30       ??_C@_0BH@CAKOHOMI@argument?5list?5too?5long@ 000000018002ed30     libcpmt:syserror.obj
 0002:00000d48       ??_C@_0BH@CGIMPKIM@argument?5out?5of?5domain@ 000000018002ed48     libcpmt:syserror.obj
 0002:00000d60       ??_C@_0M@KGHGGJGL@bad?5address@ 000000018002ed60     libcpmt:syserror.obj
 0002:00000d70       ??_C@_0BE@MPJPGCEO@bad?5file?5descriptor@ 000000018002ed70     libcpmt:syserror.obj
 0002:00000d88       ??_C@_0M@PMMIEFCP@bad?5message@ 000000018002ed88     libcpmt:syserror.obj
 0002:00000d98       ??_C@_0M@KPHOFDBE@broken?5pipe@ 000000018002ed98     libcpmt:syserror.obj
 0002:00000da8       ??_C@_0BD@MGNDDEGM@connection?5aborted@ 000000018002eda8     libcpmt:syserror.obj
 0002:00000dc0       ??_C@_0BP@KAIHPOGN@connection?5already?5in?5progress@ 000000018002edc0     libcpmt:syserror.obj
 0002:00000de0       ??_C@_0BD@PJLIIJEL@connection?5refused@ 000000018002ede0     libcpmt:syserror.obj
 0002:00000df8       ??_C@_0BB@IECNJNOI@connection?5reset@ 000000018002edf8     libcpmt:syserror.obj
 0002:00000e10       ??_C@_0BC@PPHBOELF@cross?5device?5link@ 000000018002ee10     libcpmt:syserror.obj
 0002:00000e28       ??_C@_0BN@KDMIFEIP@destination?5address?5required@ 000000018002ee28     libcpmt:syserror.obj
 0002:00000e48       ??_C@_0BI@NGCEHDD@device?5or?5resource?5busy@ 000000018002ee48     libcpmt:syserror.obj
 0002:00000e60       ??_C@_0BE@JIDOCPHM@directory?5not?5empty@ 000000018002ee60     libcpmt:syserror.obj
 0002:00000e78       ??_C@_0BI@BNCLIGPB@executable?5format?5error@ 000000018002ee78     libcpmt:syserror.obj
 0002:00000e90       ??_C@_0M@MIDIAGJP@file?5exists@ 000000018002ee90     libcpmt:syserror.obj
 0002:00000ea0       ??_C@_0P@DNAJLBJK@file?5too?5large@ 000000018002eea0     libcpmt:syserror.obj
 0002:00000eb0       ??_C@_0BC@EJHOMAAK@filename?5too?5long@ 000000018002eeb0     libcpmt:syserror.obj
 0002:00000ec8       ??_C@_0BH@KEFGLDAF@function?5not?5supported@ 000000018002eec8     libcpmt:syserror.obj
 0002:00000ee0       ??_C@_0BB@DHFDFGDM@host?5unreachable@ 000000018002eee0     libcpmt:syserror.obj
 0002:00000ef8       ??_C@_0BD@JPHBMONG@identifier?5removed@ 000000018002eef8     libcpmt:syserror.obj
 0002:00000f10       ??_C@_0BG@CDNPAGJK@illegal?5byte?5sequence@ 000000018002ef10     libcpmt:syserror.obj
 0002:00000f28       ??_C@_0CD@BNPLBMNA@inappropriate?5io?5control?5operat@ 000000018002ef28     libcpmt:syserror.obj
 0002:00000f50       ??_C@_0M@EGEKIIMP@interrupted@ 000000018002ef50     libcpmt:syserror.obj
 0002:00000f60       ??_C@_0BB@FCMFBGOM@invalid?5argument@ 000000018002ef60     libcpmt:syserror.obj
 0002:00000f78       ??_C@_0N@OHAFKDEK@invalid?5seek@ 000000018002ef78     libcpmt:syserror.obj
 0002:00000f88       ??_C@_08GLNPIFBN@io?5error@ 000000018002ef88     libcpmt:syserror.obj
 0002:00000f98       ??_C@_0P@FLLDBIDK@is?5a?5directory@ 000000018002ef98     libcpmt:syserror.obj
 0002:00000fa8       ??_C@_0N@IFLPBIOP@message?5size@ 000000018002efa8     libcpmt:syserror.obj
 0002:00000fb8       ??_C@_0N@KIIEAAIO@network?5down@ 000000018002efb8     libcpmt:syserror.obj
 0002:00000fc8       ??_C@_0O@FNPDBHEE@network?5reset@ 000000018002efc8     libcpmt:syserror.obj
 0002:00000fd8       ??_C@_0BE@IFNCKGE@network?5unreachable@ 000000018002efd8     libcpmt:syserror.obj
 0002:00000ff0       ??_C@_0BA@PFFCAOFK@no?5buffer?5space@ 000000018002eff0     libcpmt:syserror.obj
 0002:00001000       ??_C@_0BB@IEPBLJHK@no?5child?5process@ 000000018002f000     libcpmt:syserror.obj
 0002:00001018       ??_C@_07PLECNNKG@no?5link@ 000000018002f018     libcpmt:syserror.obj
 0002:00001020       ??_C@_0BC@NJECKMKE@no?5lock?5available@ 000000018002f020     libcpmt:syserror.obj
 0002:00001038       ??_C@_0BF@PBGGPKKE@no?5message?5available@ 000000018002f038     libcpmt:syserror.obj
 0002:00001050       ??_C@_0L@EDOLMPAK@no?5message@ 000000018002f050     libcpmt:syserror.obj
 0002:00001060       ??_C@_0BD@EAMBFIDF@no?5protocol?5option@ 000000018002f060     libcpmt:syserror.obj
 0002:00001078       ??_C@_0BD@IJDJKDEA@no?5space?5on?5device@ 000000018002f078     libcpmt:syserror.obj
 0002:00001090       ??_C@_0BE@MKFDAFMP@no?5stream?5resources@ 000000018002f090     libcpmt:syserror.obj
 0002:000010a8       ??_C@_0BK@IMCPHCBI@no?5such?5device?5or?5address@ 000000018002f0a8     libcpmt:syserror.obj
 0002:000010c8       ??_C@_0P@FDINDDOK@no?5such?5device@ 000000018002f0c8     libcpmt:syserror.obj
 0002:000010d8       ??_C@_0BK@NDOCBPGE@no?5such?5file?5or?5directory@ 000000018002f0d8     libcpmt:syserror.obj
 0002:000010f8       ??_C@_0BA@ENLPPKBN@no?5such?5process@ 000000018002f0f8     libcpmt:syserror.obj
 0002:00001108       ??_C@_0BA@DOCPFFJG@not?5a?5directory@ 000000018002f108     libcpmt:syserror.obj
 0002:00001118       ??_C@_0N@POEIPGGF@not?5a?5socket@ 000000018002f118     libcpmt:syserror.obj
 0002:00001128       ??_C@_0N@LGAPMMPI@not?5a?5stream@ 000000018002f128     libcpmt:syserror.obj
 0002:00001138       ??_C@_0O@GLMIBBEG@not?5connected@ 000000018002f138     libcpmt:syserror.obj
 0002:00001148       ??_C@_0BC@ENOOLCNF@not?5enough?5memory@ 000000018002f148     libcpmt:syserror.obj
 0002:00001160       ??_C@_0O@NHEDABJP@not?5supported@ 000000018002f160     libcpmt:syserror.obj
 0002:00001170       ??_C@_0BD@MOLBPMEA@operation?5canceled@ 000000018002f170     libcpmt:syserror.obj
 0002:00001188       ??_C@_0BG@KDKHOPCO@operation?5in?5progress@ 000000018002f188     libcpmt:syserror.obj
 0002:000011a0       ??_C@_0BI@OHIEJAAB@operation?5not?5permitted@ 000000018002f1a0     libcpmt:syserror.obj
 0002:000011b8       ??_C@_0BI@LNEGIFLN@operation?5not?5supported@ 000000018002f1b8     libcpmt:syserror.obj
 0002:000011d0       ??_C@_0BG@OEMDKMEE@operation?5would?5block@ 000000018002f1d0     libcpmt:syserror.obj
 0002:000011e8       ??_C@_0L@BLPOFLNJ@owner?5dead@ 000000018002f1e8     libcpmt:syserror.obj
 0002:000011f8       ??_C@_0BC@CIJDGCDI@permission?5denied@ 000000018002f1f8     libcpmt:syserror.obj
 0002:00001210       ??_C@_0P@FNPOCJBE@protocol?5error@ 000000018002f210     libcpmt:syserror.obj
 0002:00001220       ??_C@_0BH@JPPPLHJB@protocol?5not?5supported@ 000000018002f220     libcpmt:syserror.obj
 0002:00001238       ??_C@_0BG@EICBIHDP@read?5only?5file?5system@ 000000018002f238     libcpmt:syserror.obj
 0002:00001250       ??_C@_0BO@BJBOMOEJ@resource?5deadlock?5would?5occur@ 000000018002f250     libcpmt:syserror.obj
 0002:00001270       ??_C@_0BP@LKNGHENJ@resource?5unavailable?5try?5again@ 000000018002f270     libcpmt:syserror.obj
 0002:00001290       ??_C@_0BE@GOIPJJHG@result?5out?5of?5range@ 000000018002f290     libcpmt:syserror.obj
 0002:000012a8       ??_C@_0BG@MPLKFPAE@state?5not?5recoverable@ 000000018002f2a8     libcpmt:syserror.obj
 0002:000012c0       ??_C@_0P@DIIFGFCG@stream?5timeout@ 000000018002f2c0     libcpmt:syserror.obj
 0002:000012d0       ??_C@_0P@IPFDMIFL@text?5file?5busy@ 000000018002f2d0     libcpmt:syserror.obj
 0002:000012e0       ??_C@_09KJPPMAOI@timed?5out@ 000000018002f2e0     libcpmt:syserror.obj
 0002:000012f0       ??_C@_0BO@HACHBEKI@too?5many?5files?5open?5in?5system@ 000000018002f2f0     libcpmt:syserror.obj
 0002:00001310       ??_C@_0BE@GHAFMPAH@too?5many?5files?5open@ 000000018002f310     libcpmt:syserror.obj
 0002:00001328       ??_C@_0P@HCOMKFCC@too?5many?5links@ 000000018002f328     libcpmt:syserror.obj
 0002:00001338       ??_C@_0BO@EFGOJEF@too?5many?5symbolic?5link?5levels@ 000000018002f338     libcpmt:syserror.obj
 0002:00001358       ??_C@_0BA@KGKGOOJA@value?5too?5large@ 000000018002f358     libcpmt:syserror.obj
 0002:00001368       ??_C@_0BE@MIEJDDNH@wrong?5protocol?5type@ 000000018002f368     libcpmt:syserror.obj
 0002:00001380       ??_C@_0O@BFJCFAAK@unknown?5error@ 000000018002f380     libcpmt:syserror.obj
 0002:00001508       ??_C@_13BPINEIPE@?$AAr@    000000018002f508     libcpmt:fiopen.obj
 0002:0000150c       ??_C@_13CIFDLIMG@?$AAw@    000000018002f50c     libcpmt:fiopen.obj
 0002:00001510       ??_C@_13FNCBLAIF@?$AAa@    000000018002f510     libcpmt:fiopen.obj
 0002:00001514       ??_C@_15JJPIMNBO@?$AAr?$AAb@ 000000018002f514     libcpmt:fiopen.obj
 0002:0000151c       ??_C@_15MJDFFMKN@?$AAw?$AAb@ 000000018002f51c     libcpmt:fiopen.obj
 0002:00001524       ??_C@_15BMLKLNCL@?$AAa?$AAb@ 000000018002f524     libcpmt:fiopen.obj
 0002:0000152c       ??_C@_15HPOENKKJ@?$AAr?$AA?$CL@ 000000018002f52c     libcpmt:fiopen.obj
 0002:00001534       ??_C@_15CPCJELBK@?$AAw?$AA?$CL@ 000000018002f534     libcpmt:fiopen.obj
 0002:0000153c       ??_C@_15PKKGKKJM@?$AAa?$AA?$CL@ 000000018002f53c     libcpmt:fiopen.obj
 0002:00001548       ??_C@_17IIOMHMAG@?$AAr?$AA?$CL?$AAb@ 000000018002f548     libcpmt:fiopen.obj
 0002:00001550       ??_C@_17MAAMHCGC@?$AAw?$AA?$CL?$AAb@ 000000018002f550     libcpmt:fiopen.obj
 0002:00001558       ??_C@_17HKNIEKMO@?$AAa?$AA?$CL?$AAb@ 000000018002f558     libcpmt:fiopen.obj
 0002:000015c0       ??_7bad_array_new_length@std@@6B@ 000000018002f5c0     libcpmt:thread0.obj
 0002:000015d8       ??_7_System_error@std@@6B@ 000000018002f5d8     libcpmt:thread0.obj
 0002:000015f0       ??_7system_error@std@@6B@  000000018002f5f0     libcpmt:thread0.obj
 0002:00001608       ??_7_Generic_error_category@std@@6B@ 000000018002f608     libcpmt:thread0.obj
 0002:00001640       ??_7bad_exception@std@@6B@ 000000018002f640     libcpmt:excptptr.obj
 0002:00001650       ??_C@_0O@DPKOEFFH@bad?5exception@ 000000018002f650     libcpmt:excptptr.obj
 0002:00001668       ??_7bad_cast@std@@6B@      000000018002f668     libcpmt:locale.obj
 0002:00001680       ??_7?$ctype@D@std@@6B@     000000018002f680     libcpmt:locale.obj
 0002:000016e0       ??_7?$codecvt@DDU_Mbstatet@@@std@@6B@ 000000018002f6e0     libcpmt:locale.obj
 0002:00001730       ??_C@_1BK@MGMFAEKH@?$AAk?$AAe?$AAr?$AAn?$AAe?$AAl?$AA3?$AA2?$AA?4?$AAd?$AAl?$AAl@ 000000018002f730     libcpmt:winapisupp.obj
 0002:00001750       ??_C@_08KNHFBNJ@FlsAlloc@  000000018002f750     libcpmt:winapisupp.obj
 0002:00001760       ??_C@_07PEJMOBNF@FlsFree@  000000018002f760     libcpmt:winapisupp.obj
 0002:00001768       ??_C@_0M@GDNOONDI@FlsGetValue@ 000000018002f768     libcpmt:winapisupp.obj
 0002:00001778       ??_C@_0M@JCPCPOEF@FlsSetValue@ 000000018002f778     libcpmt:winapisupp.obj
 0002:00001788       ??_C@_0BM@HCFOFFN@InitializeCriticalSectionEx@ 000000018002f788     libcpmt:winapisupp.obj
 0002:000017a8       ??_C@_0BE@GPLMMCMH@InitOnceExecuteOnce@ 000000018002f7a8     libcpmt:winapisupp.obj
 0002:000017c0       ??_C@_0P@DLHPPCNH@CreateEventExW@ 000000018002f7c0     libcpmt:winapisupp.obj
 0002:000017d0       ??_C@_0BB@MEFPJLHN@CreateSemaphoreW@ 000000018002f7d0     libcpmt:winapisupp.obj
 0002:000017e8       ??_C@_0BD@KIEEOEEH@CreateSemaphoreExW@ 000000018002f7e8     libcpmt:winapisupp.obj
 0002:00001800       ??_C@_0BG@OGFAJCKC@CreateThreadpoolTimer@ 000000018002f800     libcpmt:winapisupp.obj
 0002:00001818       ??_C@_0BD@LPLEMMDI@SetThreadpoolTimer@ 000000018002f818     libcpmt:winapisupp.obj
 0002:00001830       ??_C@_0CA@FMNJENH@WaitForThreadpoolTimerCallbacks@ 000000018002f830     libcpmt:winapisupp.obj
 0002:00001850       ??_C@_0BF@DCFCCNOC@CloseThreadpoolTimer@ 000000018002f850     libcpmt:winapisupp.obj
 0002:00001868       ??_C@_0BF@FLABGKKM@CreateThreadpoolWait@ 000000018002f868     libcpmt:winapisupp.obj
 0002:00001880       ??_C@_0BC@MGCOHNA@SetThreadpoolWait@ 000000018002f880     libcpmt:winapisupp.obj
 0002:00001898       ??_C@_0BE@OCIOMIMP@CloseThreadpoolWait@ 000000018002f898     libcpmt:winapisupp.obj
 0002:000018b0       ??_C@_0BJ@LKGHFHBO@FlushProcessWriteBuffers@ 000000018002f8b0     libcpmt:winapisupp.obj
 0002:000018d0       ??_C@_0BP@KALKKPMO@FreeLibraryWhenCallbackReturns@ 000000018002f8d0     libcpmt:winapisupp.obj
 0002:000018f0       ??_C@_0BK@DFNBACLA@GetCurrentProcessorNumber@ 000000018002f8f0     libcpmt:winapisupp.obj
 0002:00001910       ??_C@_0BE@FKKLLFLM@CreateSymbolicLinkW@ 000000018002f910     libcpmt:winapisupp.obj
 0002:00001928       ??_C@_0BE@JOGNEJCI@GetCurrentPackageId@ 000000018002f928     libcpmt:winapisupp.obj
 0002:00001940       ??_C@_0P@CDHHOHKP@GetTickCount64@ 000000018002f940     libcpmt:winapisupp.obj
 0002:00001950       ??_C@_0BN@NEEHBBPO@GetFileInformationByHandleEx@ 000000018002f950     libcpmt:winapisupp.obj
 0002:00001970       ??_C@_0BL@KBBHGKCM@SetFileInformationByHandle@ 000000018002f970     libcpmt:winapisupp.obj
 0002:00001990       ??_C@_0BP@FPNJPEJC@GetSystemTimePreciseAsFileTime@ 000000018002f990     libcpmt:winapisupp.obj
 0002:000019b0       ??_C@_0BM@HLJJNPAH@InitializeConditionVariable@ 000000018002f9b0     libcpmt:winapisupp.obj
 0002:000019d0       ??_C@_0BG@BFNILBLN@WakeConditionVariable@ 000000018002f9d0     libcpmt:winapisupp.obj
 0002:000019e8       ??_C@_0BJ@PGPPEPCC@WakeAllConditionVariable@ 000000018002f9e8     libcpmt:winapisupp.obj
 0002:00001a08       ??_C@_0BJ@JEBJOJFJ@SleepConditionVariableCS@ 000000018002fa08     libcpmt:winapisupp.obj
 0002:00001a28       ??_C@_0BC@MMLHEBPB@InitializeSRWLock@ 000000018002fa28     libcpmt:winapisupp.obj
 0002:00001a40       ??_C@_0BI@OMNLIJDB@AcquireSRWLockExclusive@ 000000018002fa40     libcpmt:winapisupp.obj
 0002:00001a58       ??_C@_0BL@OGHFEMNA@TryAcquireSRWLockExclusive@ 000000018002fa58     libcpmt:winapisupp.obj
 0002:00001a78       ??_C@_0BI@HMIEPCNJ@ReleaseSRWLockExclusive@ 000000018002fa78     libcpmt:winapisupp.obj
 0002:00001a90       ??_C@_0BK@LGACAGIC@SleepConditionVariableSRW@ 000000018002fa90     libcpmt:winapisupp.obj
 0002:00001ab0       ??_C@_0BF@GGPHFPJA@CreateThreadpoolWork@ 000000018002fab0     libcpmt:winapisupp.obj
 0002:00001ac8       ??_C@_0BF@NHDAIMMO@SubmitThreadpoolWork@ 000000018002fac8     libcpmt:winapisupp.obj
 0002:00001ae0       ??_C@_0BE@NPHIPNPD@CloseThreadpoolWork@ 000000018002fae0     libcpmt:winapisupp.obj
 0002:00001af8       ??_C@_0BA@IHGNDAEB@CompareStringEx@ 000000018002faf8     libcpmt:winapisupp.obj
 0002:00001b08       ??_C@_0BA@ONOKGCMP@GetLocaleInfoEx@ 000000018002fb08     libcpmt:winapisupp.obj
 0002:00001b18       ??_C@_0O@KKBNKAPF@LCMapStringEx@ 000000018002fb18     libcpmt:winapisupp.obj
 0002:00001b30       ??_7_Iostream_error_category2@std@@6B@ 000000018002fb30     libcpmt:wlocale.obj
 0002:00001b68       ??_7failure@ios_base@std@@6B@ 000000018002fb68     libcpmt:wlocale.obj
 0002:00001b78       ??_C@_11LOCGONAA@@         000000018002fb78     libcpmt:wlocale.obj
 0002:00001b7c       ??_C@_13IMODFHAA@?$AA?9@   000000018002fb7c     libcpmt:wlocale.obj
 0002:00001c28       ??_7type_info@@6B@         000000018002fc28     LIBCMT:std_type_info_static.obj
 0002:00001c30       ??_C@_1EC@JIJBPKFM@?$AAa?$AAp?$AAi?$AA?9?$AAm?$AAs?$AA?9?$AAw?$AAi?$AAn?$AA?9?$AAc?$AAo?$AAr?$AAe@ 000000018002fc30     LIBCMT:thread_safe_statics.obj
 0002:00001c80       __xmm@ffffffffffffffffffffffffffffffff 000000018002fc80     LIBCMT:utility.obj
 0002:00001ca0       _pDefaultRawDllMain        000000018002fca0     LIBCMT:dll_dllmain.obj
 0002:00001ca0       _pRawDllMain               000000018002fca0     LIBCMT:dll_dllmain.obj
 0002:00001ca8       ?s_negLengthTab@FH4@@3QBCB 000000018002fca8     libvcruntime:risctrnsctrl.obj
 0002:00001cb8       ?s_shiftTab@FH4@@3QBEB     000000018002fcb8     libvcruntime:risctrnsctrl.obj
 0002:00001e08       _pDestructExceptionObject  000000018002fe08     libvcruntime:ehhelpers.obj
 0002:00002520       ??_C@_08EHJDFFNH@__based?$CI@ 0000000180030520     libvcruntime:undname.obj
 0002:00002530       ??_C@_07KOLFKCDI@__cdecl@  0000000180030530     libvcruntime:undname.obj
 0002:00002538       ??_C@_08GHMPAG@__pascal@   0000000180030538     libvcruntime:undname.obj
 0002:00002548       ??_C@_09IFJBGAPI@__stdcall@ 0000000180030548     libvcruntime:undname.obj
 0002:00002558       ??_C@_0L@NPHFGOKO@__thiscall@ 0000000180030558     libvcruntime:undname.obj
 0002:00002568       ??_C@_0L@JMKHOMEK@__fastcall@ 0000000180030568     libvcruntime:undname.obj
 0002:00002578       ??_C@_0N@BCKKPABJ@__vectorcall@ 0000000180030578     libvcruntime:undname.obj
 0002:00002588       ??_C@_09HIJEGCPM@__clrcall@ 0000000180030588     libvcruntime:undname.obj
 0002:00002594       ??_C@_06GHPCKEAG@__eabi@   0000000180030594     libvcruntime:undname.obj
 0002:000025a0       ??_C@_09IOPIDJLG@__swift_1@ 00000001800305a0     libvcruntime:undname.obj
 0002:000025b0       ??_C@_09KFNFGKHF@__swift_2@ 00000001800305b0     libvcruntime:undname.obj
 0002:000025c0       ??_C@_09LMMOFLDE@__swift_3@ 00000001800305c0     libvcruntime:undname.obj
 0002:000025d0       ??_C@_07JOMMBBKO@__ptr64@  00000001800305d0     libvcruntime:undname.obj
 0002:000025d8       ??_C@_0L@PILCLIHE@__restrict@ 00000001800305d8     libvcruntime:undname.obj
 0002:000025e8       ??_C@_0M@GFIIJFMG@__unaligned@ 00000001800305e8     libvcruntime:undname.obj
 0002:000025f8       ??_C@_09DHDLOLLB@restrict?$CI@ 00000001800305f8     libvcruntime:undname.obj
 0002:00002604       ??_C@_04NIHEBCM@?5new@     0000000180030604     libvcruntime:undname.obj
 0002:00002610       ??_C@_07FPCDHGMM@?5delete@ 0000000180030610     libvcruntime:undname.obj
 0002:00002618       ??_C@_01NEMOKFLO@?$DN@     0000000180030618     libvcruntime:undname.obj
 0002:0000261c       ??_C@_01DCLJPIOD@?$CB@     000000018003061c     libvcruntime:undname.obj
 0002:00002620       ??_C@_02EGOFBIJA@?$DN?$DN@ 0000000180030620     libvcruntime:undname.obj
 0002:00002624       ??_C@_02FDNJECIE@?$CB?$DN@ 0000000180030624     libvcruntime:undname.obj
 0002:00002628       ??_C@_02GPECMEKF@?$FL?$FN@ 0000000180030628     libvcruntime:undname.obj
 0002:00002630       ??_C@_08LHJFAFGD@operator@ 0000000180030630     libvcruntime:undname.obj
 0002:0000263c       ??_C@_02HBOOOICD@?9?$DO@   000000018003063c     libvcruntime:undname.obj
 0002:00002640       ??_C@_02ECNGHCIF@?$CL?$CL@ 0000000180030640     libvcruntime:undname.obj
 0002:00002644       ??_C@_02BAABKJLB@?9?9@     0000000180030644     libvcruntime:undname.obj
 0002:00002648       ??_C@_01HNPIGOCE@?$CG@     0000000180030648     libvcruntime:undname.obj
 0002:0000264c       ??_C@_03MNHNFDLC@?9?$DO?$CK@ 000000018003064c     libvcruntime:undname.obj
 0002:00002650       ??_C@_01KMDKNFGN@?1@       0000000180030650     libvcruntime:undname.obj
 0002:00002654       ??_C@_01FGNFDNOH@?$CF@     0000000180030654     libvcruntime:undname.obj
 0002:00002658       ??_C@_02EHCHHCKH@?$DM?$DN@ 0000000180030658     libvcruntime:undname.obj
 0002:0000265c       ??_C@_02EEKDKGMJ@?$DO?$DN@ 000000018003065c     libvcruntime:undname.obj
 0002:00002660       ??_C@_01IHBHIGKO@?0@       0000000180030660     libvcruntime:undname.obj
 0002:00002664       ??_C@_02HCKGKOFO@?$CI?$CJ@ 0000000180030664     libvcruntime:undname.obj
 0002:00002668       ??_C@_01PJKLJHI@?$HO@      0000000180030668     libvcruntime:undname.obj
 0002:0000266c       ??_C@_01JKBOJNNK@?$FO@     000000018003066c     libvcruntime:undname.obj
 0002:00002670       ??_C@_01DNKMNLPK@?$HM@     0000000180030670     libvcruntime:undname.obj
 0002:00002674       ??_C@_02PPKAJPJL@?$CG?$CG@ 0000000180030674     libvcruntime:undname.obj
 0002:00002678       ??_C@_02NONPIBCD@?$HM?$HM@ 0000000180030678     libvcruntime:undname.obj
 0002:0000267c       ??_C@_02FPIMKNGF@?$CK?$DN@ 000000018003067c     libvcruntime:undname.obj
 0002:00002680       ??_C@_02FOEOMHFC@?$CL?$DN@ 0000000180030680     libvcruntime:undname.obj
 0002:00002684       ??_C@_02FKMDLLOA@?9?$DN@   0000000180030684     libvcruntime:undname.obj
 0002:00002688       ??_C@_02FJEHGPIO@?1?$DN@   0000000180030688     libvcruntime:undname.obj
 0002:0000268c       ??_C@_02FENAOKFI@?$CF?$DN@ 000000018003068c     libvcruntime:undname.obj
 0002:00002690       ??_C@_03IKFCCPFF@?$DO?$DO?$DN@ 0000000180030690     libvcruntime:undname.obj
 0002:00002694       ??_C@_03CDNPDDLA@?$DM?$DM?$DN@ 0000000180030694     libvcruntime:undname.obj
 0002:00002698       ??_C@_02FGJGFEAB@?$CG?$DN@ 0000000180030698     libvcruntime:undname.obj
 0002:0000269c       ??_C@_02DHLNPPGH@?$HM?$DN@ 000000018003069c     libvcruntime:undname.obj
 0002:000026a0       ??_C@_02MHEGNOJ@?$FO?$DN@  00000001800306a0     libvcruntime:undname.obj
 0002:000026a8       ??_C@_09IFPLHPGF@?$GAvftable?8@ 00000001800306a8     libvcruntime:undname.obj
 0002:000026b8       ??_C@_09BLBHBJP@?$GAvbtable?8@ 00000001800306b8     libvcruntime:undname.obj
 0002:000026c8       ??_C@_07FEEIOKP@?$GAvcall?8@ 00000001800306c8     libvcruntime:undname.obj
 0002:000026d0       ??_C@_08LLFFHHDJ@?$GAtypeof?8@ 00000001800306d0     libvcruntime:undname.obj
 0002:000026e0       ??_C@_0BF@KDPPACIK@?$GAlocal?5static?5guard?8@ 00000001800306e0     libvcruntime:undname.obj
 0002:000026f8       ??_C@_08OBABFOLI@?$GAstring?8@ 00000001800306f8     libvcruntime:undname.obj
 0002:00002708       ??_C@_0BD@JDLKDPAB@?$GAvbase?5destructor?8@ 0000000180030708     libvcruntime:undname.obj
 0002:00002720       ??_C@_0BN@DEGPLNFK@?$GAvector?5deleting?5destructor?8@ 0000000180030720     libvcruntime:undname.obj
 0002:00002740       ??_C@_0BO@OBMKPJIG@?$GAdefault?5constructor?5closure?8@ 0000000180030740     libvcruntime:undname.obj
 0002:00002760       ??_C@_0BN@IMDCHIKM@?$GAscalar?5deleting?5destructor?8@ 0000000180030760     libvcruntime:undname.obj
 0002:00002780       ??_C@_0BO@PFGOCPJJ@?$GAvector?5constructor?5iterator?8@ 0000000180030780     libvcruntime:undname.obj
 0002:000027a0       ??_C@_0BN@LFPFMEDL@?$GAvector?5destructor?5iterator?8@ 00000001800307a0     libvcruntime:undname.obj
 0002:000027c0       ??_C@_0CE@IKBNEHA@?$GAvector?5vbase?5constructor?5itera@ 00000001800307c0     libvcruntime:undname.obj
 0002:000027e8       ??_C@_0BL@NILFHHPC@?$GAvirtual?5displacement?5map?8@ 00000001800307e8     libvcruntime:undname.obj
 0002:00002808       ??_C@_0CB@JONCMFFK@?$GAeh?5vector?5constructor?5iterator@ 0000000180030808     libvcruntime:undname.obj
 0002:00002830       ??_C@_0CA@GCEOPDGL@?$GAeh?5vector?5destructor?5iterator?8@ 0000000180030830     libvcruntime:undname.obj
 0002:00002850       ??_C@_0CH@OOJPLCPH@?$GAeh?5vector?5vbase?5constructor?5it@ 0000000180030850     libvcruntime:undname.obj
 0002:00002878       ??_C@_0BL@LLKPOHJI@?$GAcopy?5constructor?5closure?8@ 0000000180030878     libvcruntime:undname.obj
 0002:00002898       ??_C@_0BA@KBCDOMBN@?$GAudt?5returning?8@ 0000000180030898     libvcruntime:undname.obj
 0002:000028a8       ??_C@_03KLGMFNMG@?$GAEH@   00000001800308a8     libvcruntime:undname.obj
 0002:000028ac       ??_C@_05KHLCHHI@?$GARTTI@  00000001800308ac     libvcruntime:undname.obj
 0002:000028b8       ??_C@_0BA@KKLDJDLB@?$GAlocal?5vftable?8@ 00000001800308b8     libvcruntime:undname.obj
 0002:000028c8       ??_C@_0CE@IIHCMGGL@?$GAlocal?5vftable?5constructor?5clos@ 00000001800308c8     libvcruntime:undname.obj
 0002:000028ec       ??_C@_06FHBGPFGH@?5new?$FL?$FN@ 00000001800308ec     libvcruntime:undname.obj
 0002:000028f8       ??_C@_09LBNFPBCA@?5delete?$FL?$FN@ 00000001800308f8     libvcruntime:undname.obj
 0002:00002908       ??_C@_0P@HJKNJFNN@?$GAomni?5callsig?8@ 0000000180030908     libvcruntime:undname.obj
 0002:00002918       ??_C@_0BL@CNOONJFP@?$GAplacement?5delete?5closure?8@ 0000000180030918     libvcruntime:undname.obj
 0002:00002938       ??_C@_0BN@CKNJLHMB@?$GAplacement?5delete?$FL?$FN?5closure?8@ 0000000180030938     libvcruntime:undname.obj
 0002:00002958       ??_C@_0CG@CFDHKGGD@?$GAmanaged?5vector?5constructor?5ite@ 0000000180030958     libvcruntime:undname.obj
 0002:00002980       ??_C@_0CF@IMGKMJNO@?$GAmanaged?5vector?5destructor?5iter@ 0000000180030980     libvcruntime:undname.obj
 0002:000029a8       ??_C@_0CG@HLDDJMAG@?$GAeh?5vector?5copy?5constructor?5ite@ 00000001800309a8     libvcruntime:undname.obj
 0002:000029d0       ??_C@_0CM@FCBBDIGB@?$GAeh?5vector?5vbase?5copy?5construct@ 00000001800309d0     libvcruntime:undname.obj
 0002:00002a00       ??_C@_0BL@CLIPGLGB@?$GAdynamic?5initializer?5for?5?8@ 0000000180030a00     libvcruntime:undname.obj
 0002:00002a20       ??_C@_0CB@PDBIFEP@?$GAdynamic?5atexit?5destructor?5for?5@ 0000000180030a20     libvcruntime:undname.obj
 0002:00002a48       ??_C@_0CD@CGAJBKEJ@?$GAvector?5copy?5constructor?5iterat@ 0000000180030a48     libvcruntime:undname.obj
 0002:00002a70       ??_C@_0CJ@GJELGAMM@?$GAvector?5vbase?5copy?5constructor?5@ 0000000180030a70     libvcruntime:undname.obj
 0002:00002aa0       ??_C@_0CL@FGIJHLCE@?$GAmanaged?5vector?5copy?5constructo@ 0000000180030aa0     libvcruntime:undname.obj
 0002:00002ad0       ??_C@_0BM@PMGGMLDN@?$GAlocal?5static?5thread?5guard?8@ 0000000180030ad0     libvcruntime:undname.obj
 0002:00002af0       ??_C@_0N@BDNMDMOL@operator?5?$CC?$CC?5@ 0000000180030af0     libvcruntime:undname.obj
 0002:00002b00       ??_C@_0BC@GGEBGALA@operator?5co_await@ 0000000180030b00     libvcruntime:undname.obj
 0002:00002b18       ??_C@_0M@GAAIMMOH@operator?$DM?$DN?$DO@ 0000000180030b18     libvcruntime:undname.obj
 0002:00002b28       ??_C@_0BC@DAFEJGAK@?5Type?5Descriptor?8@ 0000000180030b28     libvcruntime:undname.obj
 0002:00002b40       ??_C@_0BM@LDKODKLH@?5Base?5Class?5Descriptor?5at?5?$CI@ 0000000180030b40     libvcruntime:undname.obj
 0002:00002b60       ??_C@_0BD@LGICGFMM@?5Base?5Class?5Array?8@ 0000000180030b60     libvcruntime:undname.obj
 0002:00002b78       ??_C@_0BN@MECKDCOJ@?5Class?5Hierarchy?5Descriptor?8@ 0000000180030b78     libvcruntime:undname.obj
 0002:00002b98       ??_C@_0BK@CFCOFLF@?5Complete?5Object?5Locator?8@ 0000000180030b98     libvcruntime:undname.obj
 0002:00002bb8       ??_C@_0BG@JNJLAMPM@?$GAanonymous?5namespace?8@ 0000000180030bb8     libvcruntime:undname.obj
 0002:00002be8       ??_C@_1DM@KHCHBNEB@?$AAa?$AAp?$AAi?$AA?9?$AAm?$AAs?$AA?9?$AAw?$AAi?$AAn?$AA?9?$AAc?$AAo?$AAr?$AAe@ 0000000180030be8     libvcruntime:winapi_downlevel.obj
 0002:00002c28       ??_C@_1DK@LPPGFMPP@?$AAa?$AAp?$AAi?$AA?9?$AAm?$AAs?$AA?9?$AAw?$AAi?$AAn?$AA?9?$AAc?$AAo?$AAr?$AAe@ 0000000180030c28     libvcruntime:winapi_downlevel.obj
 0002:00002c68       ??_C@_1BC@GDMECMAK@?$AAk?$AAe?$AAr?$AAn?$AAe?$AAl?$AA3?$AA2@ 0000000180030c68     libvcruntime:winapi_downlevel.obj
 0002:00002c80       ??_C@_1BA@PFFKHIOG@?$AAa?$AAp?$AAi?$AA?9?$AAm?$AAs?$AA?9@ 0000000180030c80     libvcruntime:winapi_downlevel.obj
 0002:00002cc0       ?standard_lookup_table_spectre@__crt_stdio_output@@3V?$spectre_mitigated_lookup_table@Ustate_transition_pair@__crt_stdio_output@@$0IA@@1@B 0000000180030cc0     libucrt:output.obj
 0002:000030c0       ??_C@_1O@CEDCILHN@?$AA?$CI?$AAn?$AAu?$AAl?$AAl?$AA?$CJ@ 00000001800310c0     libucrt:output.obj
 0002:000030d0       ??_C@_06OJHGLDPL@?$CInull?$CJ@ 00000001800310d0     libucrt:output.obj
 0002:00003250       ??_C@_0EA@FCLIIPNN@Visual?5C?$CL?$CL?5CRT?3?5Not?5enough?5memo@ 0000000180031250     libucrt:strerror.obj
 0002:00003290       ?ccs@?1???$__acrt_stdio_parse_mode@_W@@YA?AU__acrt_stdio_stream_mode@@QEB_W@Z@4QB_WB 0000000180031290     libucrt:fdopen.obj
 0002:00003298       ?utf8_encoding@?1???$__acrt_stdio_parse_mode@_W@@YA?AU__acrt_stdio_stream_mode@@QEB_W@Z@4QB_WB 0000000180031298     libucrt:fdopen.obj
 0002:000032a8       ?utf16_encoding@?1???$__acrt_stdio_parse_mode@_W@@YA?AU__acrt_stdio_stream_mode@@QEB_W@Z@4QB_WB 00000001800312a8     libucrt:fdopen.obj
 0002:000032b8       ?unicode_encoding@?1???$__acrt_stdio_parse_mode@_W@@YA?AU__acrt_stdio_stream_mode@@QEB_W@Z@4QB_WB 00000001800312b8     libucrt:fdopen.obj
 0002:000032d0       ?large_power_data@?1??multiply_by_power_of_ten@__crt_strtox@@YA_NAEAUbig_integer@2@I@Z@4QBIB 00000001800312d0     libucrt:input.obj
 0002:00003be0       ?large_power_indices@?1??multiply_by_power_of_ten@__crt_strtox@@YA_NAEAUbig_integer@2@I@Z@4QBUunpack_index@?1??12@YA_N0I@Z@B 0000000180031be0     libucrt:input.obj
 0002:00003c78       ?small_powers_of_ten@?1??multiply_by_power_of_ten@__crt_strtox@@YA_NAEAUbig_integer@2@I@Z@4QBIB 0000000180031c78     libucrt:input.obj
 0002:00003ca0       __real@3ff0000000000000    0000000180031ca0     libucrt:frexp.obj
 0002:00003cb0       __newctype                 0000000180031cb0     libucrt:ctype.obj
 0002:00003fb0       __newclmap                 0000000180031fb0     libucrt:ctype.obj
 0002:00004130       __newcumap                 0000000180032130     libucrt:ctype.obj
 0002:000042b0       _wctype                    00000001800322b0     libucrt:ctype.obj
 0002:00006170       __acrt_exception_action_table 0000000180034170     libucrt:exception_filter.obj
 0002:00006230       __acrt_signal_action_table_count 0000000180034230     libucrt:exception_filter.obj
 0002:00006238       __acrt_signal_action_first_fpe_index 0000000180034238     libucrt:exception_filter.obj
 0002:00006240       __acrt_signal_action_fpe_count 0000000180034240     libucrt:exception_filter.obj
 0002:00006248       ??_C@_1BI@BGOHAHKC@?$AAm?$AAs?$AAc?$AAo?$AAr?$AAe?$AAe?$AA?4?$AAd?$AAl?$AAl@ 0000000180034248     libucrt:exit.obj
 0002:00006260       ??_C@_0P@MIGLKIOC@CorExitProcess@ 0000000180034260     libucrt:exit.obj
 0002:000063f0       ??_C@_09OFJJIMPC@NAN?$CISNAN?$CJ@ 00000001800343f0     libucrt:cvt.obj
 0002:00006400       ??_C@_09IPFBKMDL@nan?$CIsnan?$CJ@ 0000000180034400     libucrt:cvt.obj
 0002:00006410       ??_C@_08IKHNHAJ@NAN?$CIIND?$CJ@ 0000000180034410     libucrt:cvt.obj
 0002:00006420       ??_C@_08OFCDMILK@nan?$CIind?$CJ@ 0000000180034420     libucrt:cvt.obj
 0002:0000642c       ??_C@_05KLBDPFGC@e?$CL000@ 000000018003442c     libucrt:cvt.obj
 0002:000064c0       __lc_category              00000001800344c0     libucrt:wsetlocale.obj
 0002:00006550       ??_C@_1O@GIFLHMA@?$AAL?$AAC?$AA_?$AAA?$AAL?$AAL@ 0000000180034550     libucrt:wsetlocale.obj
 0002:00006560       ??_C@_1BG@PPOMIBNJ@?$AAL?$AAC?$AA_?$AAC?$AAO?$AAL?$AAL?$AAA?$AAT?$AAE@ 0000000180034560     libucrt:wsetlocale.obj
 0002:00006578       ??_C@_1BC@FFJGAPJM@?$AAL?$AAC?$AA_?$AAC?$AAT?$AAY?$AAP?$AAE@ 0000000180034578     libucrt:wsetlocale.obj
 0002:00006590       ??_C@_1BI@PCKFNJFB@?$AAL?$AAC?$AA_?$AAM?$AAO?$AAN?$AAE?$AAT?$AAA?$AAR?$AAY@ 0000000180034590     libucrt:wsetlocale.obj
 0002:000065a8       ??_C@_1BG@ENIEDKID@?$AAL?$AAC?$AA_?$AAN?$AAU?$AAM?$AAE?$AAR?$AAI?$AAC@ 00000001800345a8     libucrt:wsetlocale.obj
 0002:000065c0       ??_C@_1BA@HAAOMIIG@?$AAL?$AAC?$AA_?$AAT?$AAI?$AAM?$AAE@ 00000001800345c0     libucrt:wsetlocale.obj
 0002:000065d0       ??_C@_15NBPDDFIP@?$AA?$DN?$AA?$DL@ 00000001800345d0     libucrt:wsetlocale.obj
 0002:000065d8       ??_C@_13PJJBFPED@?$AA?$DL@ 00000001800345d8     libucrt:wsetlocale.obj
 0002:000065dc       ??_C@_13NMPKAAJP@?$AA?$DN@ 00000001800345dc     libucrt:wsetlocale.obj
 0002:000065e0       ??_C@_17EFJLDFDO@?$AA?9?$AA_?$AA?4@ 00000001800345e0     libucrt:wsetlocale.obj
 0002:000065e8       ??_C@_13FHBKNHDA@?$AAC@    00000001800345e8     libucrt:wsetlocale.obj
 0002:000065f0       ??_C@_17MBJJLFDM@?$AA_?$AA?4?$AA?0@ 00000001800345f0     libucrt:wsetlocale.obj
 0002:000065f8       ??_C@_13ENNFDPBH@?$AA_@    00000001800345f8     libucrt:wsetlocale.obj
 0002:000065fc       ??_C@_13JOFGPIOO@?$AA?4@   00000001800345fc     libucrt:wsetlocale.obj
 0002:00006600       __lc_time_c                0000000180034600     libucrt:nlsdata.obj
 0002:000068c0       ??_C@_03KOEHGMDN@Sun@      00000001800348c0     libucrt:nlsdata.obj
 0002:000068c4       ??_C@_03PDAGKDH@Mon@       00000001800348c4     libucrt:nlsdata.obj
 0002:000068c8       ??_C@_03NAGEINEP@Tue@      00000001800348c8     libucrt:nlsdata.obj
 0002:000068cc       ??_C@_03MHOMLAJA@Wed@      00000001800348cc     libucrt:nlsdata.obj
 0002:000068d0       ??_C@_03IOFIKPDN@Thu@      00000001800348d0     libucrt:nlsdata.obj
 0002:000068d4       ??_C@_03IDIOELNC@Fri@      00000001800348d4     libucrt:nlsdata.obj
 0002:000068d8       ??_C@_03FEFJNEK@Sat@       00000001800348d8     libucrt:nlsdata.obj
 0002:000068dc       ??_C@_06OOPIFAJ@Sunday@    00000001800348dc     libucrt:nlsdata.obj
 0002:000068e4       ??_C@_06JLEDEDGH@Monday@   00000001800348e4     libucrt:nlsdata.obj
 0002:000068f0       ??_C@_07BAAGCFCM@Tuesday@  00000001800348f0     libucrt:nlsdata.obj
 0002:000068f8       ??_C@_09DLIGFAKA@Wednesday@ 00000001800348f8     libucrt:nlsdata.obj
 0002:00006908       ??_C@_08HACCIKIA@Thursday@ 0000000180034908     libucrt:nlsdata.obj
 0002:00006914       ??_C@_06JECMNKMI@Friday@   0000000180034914     libucrt:nlsdata.obj
 0002:00006920       ??_C@_08INBOOONO@Saturday@ 0000000180034920     libucrt:nlsdata.obj
 0002:0000692c       ??_C@_03JIHJHPIE@Jan@      000000018003492c     libucrt:nlsdata.obj
 0002:00006930       ??_C@_03HJBDCHOM@Feb@      0000000180034930     libucrt:nlsdata.obj
 0002:00006934       ??_C@_03ODNJBKGA@Mar@      0000000180034934     libucrt:nlsdata.obj
 0002:00006938       ??_C@_03LEOLGMJP@Apr@      0000000180034938     libucrt:nlsdata.obj
 0002:0000693c       ??_C@_03CNMDKL@May@        000000018003493c     libucrt:nlsdata.obj
 0002:00006940       ??_C@_03IDFGHECI@Jun@      0000000180034940     libucrt:nlsdata.obj
 0002:00006944       ??_C@_03LBGABGKK@Jul@      0000000180034944     libucrt:nlsdata.obj
 0002:00006948       ??_C@_03IFJFEIGA@Aug@      0000000180034948     libucrt:nlsdata.obj
 0002:0000694c       ??_C@_03GGCAPAJC@Sep@      000000018003494c     libucrt:nlsdata.obj
 0002:00006950       ??_C@_03BMAOKBAD@Oct@      0000000180034950     libucrt:nlsdata.obj
 0002:00006954       ??_C@_03JPJOFNIA@Nov@      0000000180034954     libucrt:nlsdata.obj
 0002:00006958       ??_C@_03MKABNOCG@Dec@      0000000180034958     libucrt:nlsdata.obj
 0002:00006960       ??_C@_07CGJPFGJA@January@  0000000180034960     libucrt:nlsdata.obj
 0002:00006968       ??_C@_08GNJGEPFN@February@ 0000000180034968     libucrt:nlsdata.obj
 0002:00006974       ??_C@_05HPCKOFNC@March@    0000000180034974     libucrt:nlsdata.obj
 0002:0000697c       ??_C@_05DMJDNLEJ@April@    000000018003497c     libucrt:nlsdata.obj
 0002:00006984       ??_C@_04CNLMGBGM@June@     0000000180034984     libucrt:nlsdata.obj
 0002:0000698c       ??_C@_04MIEPOIFP@July@     000000018003498c     libucrt:nlsdata.obj
 0002:00006994       ??_C@_06LBBHFDDG@August@   0000000180034994     libucrt:nlsdata.obj
 0002:000069a0       ??_C@_09BHHEALKD@September@ 00000001800349a0     libucrt:nlsdata.obj
 0002:000069b0       ??_C@_07JJNFCEND@October@  00000001800349b0     libucrt:nlsdata.obj
 0002:000069b8       ??_C@_08HCHEGEOA@November@ 00000001800349b8     libucrt:nlsdata.obj
 0002:000069c8       ??_C@_08EDHMEBNP@December@ 00000001800349c8     libucrt:nlsdata.obj
 0002:000069d4       ??_C@_02DEDBPAFC@AM@       00000001800349d4     libucrt:nlsdata.obj
 0002:000069d8       ??_C@_02CJNFDJBF@PM@       00000001800349d8     libucrt:nlsdata.obj
 0002:000069e0       ??_C@_08BPBNCDIB@MM?1dd?1yy@ 00000001800349e0     libucrt:nlsdata.obj
 0002:000069f0       ??_C@_0BE@CKGJFCPC@dddd?0?5MMMM?5dd?0?5yyyy@ 00000001800349f0     libucrt:nlsdata.obj
 0002:00006a08       ??_C@_08JCCMCCIL@HH?3mm?3ss@ 0000000180034a08     libucrt:nlsdata.obj
 0002:00006a18       ??_C@_17MBGCMIPB@?$AAS?$AAu?$AAn@ 0000000180034a18     libucrt:nlsdata.obj
 0002:00006a20       ??_C@_17KBOMKBF@?$AAM?$AAo?$AAn@ 0000000180034a20     libucrt:nlsdata.obj
 0002:00006a28       ??_C@_17BMKGEGOJ@?$AAT?$AAu?$AAe@ 0000000180034a28     libucrt:nlsdata.obj
 0002:00006a30       ??_C@_17CJEDCEPE@?$AAW?$AAe?$AAd@ 0000000180034a30     libucrt:nlsdata.obj
 0002:00006a38       ??_C@_17PDPHAADD@?$AAT?$AAh?$AAu@ 0000000180034a38     libucrt:nlsdata.obj
 0002:00006a40       ??_C@_17HFOLPPLP@?$AAF?$AAr?$AAi@ 0000000180034a40     libucrt:nlsdata.obj
 0002:00006a48       ??_C@_17GGIBDPIH@?$AAS?$AAa?$AAt@ 0000000180034a48     libucrt:nlsdata.obj
 0002:00006a50       ??_C@_1O@IHNHDHPB@?$AAS?$AAu?$AAn?$AAd?$AAa?$AAy@ 0000000180034a50     libucrt:nlsdata.obj
 0002:00006a60       ??_C@_1O@MMNBFLIA@?$AAM?$AAo?$AAn?$AAd?$AAa?$AAy@ 0000000180034a60     libucrt:nlsdata.obj
 0002:00006a70       ??_C@_1BA@ENFBFFEK@?$AAT?$AAu?$AAe?$AAs?$AAd?$AAa?$AAy@ 0000000180034a70     libucrt:nlsdata.obj
 0002:00006a80       ??_C@_1BE@EBOGMDOH@?$AAW?$AAe?$AAd?$AAn?$AAe?$AAs?$AAd?$AAa?$AAy@ 0000000180034a80     libucrt:nlsdata.obj
 0002:00006a98       ??_C@_1BC@HHMNLIHE@?$AAT?$AAh?$AAu?$AAr?$AAs?$AAd?$AAa?$AAy@ 0000000180034a98     libucrt:nlsdata.obj
 0002:00006ab0       ??_C@_1O@PDICJHAG@?$AAF?$AAr?$AAi?$AAd?$AAa?$AAy@ 0000000180034ab0     libucrt:nlsdata.obj
 0002:00006ac0       ??_C@_1BC@ENMNNPAJ@?$AAS?$AAa?$AAt?$AAu?$AAr?$AAd?$AAa?$AAy@ 0000000180034ac0     libucrt:nlsdata.obj
 0002:00006ad8       ??_C@_17DKNBKCHM@?$AAJ?$AAa?$AAn@ 0000000180034ad8     libucrt:nlsdata.obj
 0002:00006ae0       ??_C@_17LMDJEKJN@?$AAF?$AAe?$AAb@ 0000000180034ae0     libucrt:nlsdata.obj
 0002:00006ae8       ??_C@_17CKNLEDEC@?$AAM?$AAa?$AAr@ 0000000180034ae8     libucrt:nlsdata.obj
 0002:00006af0       ??_C@_17LFPOIHDD@?$AAA?$AAp?$AAr@ 0000000180034af0     libucrt:nlsdata.obj
 0002:00006af8       ??_C@_17PNNKMEED@?$AAM?$AAa?$AAy@ 0000000180034af8     libucrt:nlsdata.obj
 0002:00006b00       ??_C@_17KCJGOCPB@?$AAJ?$AAu?$AAn@ 0000000180034b00     libucrt:nlsdata.obj
 0002:00006b08       ??_C@_17IJPCKHK@?$AAJ?$AAu?$AAl@ 0000000180034b08     libucrt:nlsdata.obj
 0002:00006b10       ??_C@_17ICPELBCN@?$AAA?$AAu?$AAg@ 0000000180034b10     libucrt:nlsdata.obj
 0002:00006b18       ??_C@_17HCHCOKMG@?$AAS?$AAe?$AAp@ 0000000180034b18     libucrt:nlsdata.obj
 0002:00006b20       ??_C@_17FNLKOI@?$AAO?$AAc?$AAt@ 0000000180034b20     libucrt:nlsdata.obj
 0002:00006b28       ??_C@_17BBDMLCIG@?$AAN?$AAo?$AAv@ 0000000180034b28     libucrt:nlsdata.obj
 0002:00006b30       ??_C@_17EGKACKIF@?$AAD?$AAe?$AAc@ 0000000180034b30     libucrt:nlsdata.obj
 0002:00006b38       ??_C@_1BA@EFMEIEBA@?$AAJ?$AAa?$AAn?$AAu?$AAa?$AAr?$AAy@ 0000000180034b38     libucrt:nlsdata.obj
 0002:00006b48       ??_C@_1BC@JGDDFFAM@?$AAF?$AAe?$AAb?$AAr?$AAu?$AAa?$AAr?$AAy@ 0000000180034b48     libucrt:nlsdata.obj
 0002:00006b60       ??_C@_1M@IKEENEDF@?$AAM?$AAa?$AAr?$AAc?$AAh@ 0000000180034b60     libucrt:nlsdata.obj
 0002:00006b70       ??_C@_1M@GJNLMHFD@?$AAA?$AAp?$AAr?$AAi?$AAl@ 0000000180034b70     libucrt:nlsdata.obj
 0002:00006b80       ??_C@_19EPFLPGAP@?$AAJ?$AAu?$AAn?$AAe@ 0000000180034b80     libucrt:nlsdata.obj
 0002:00006b90       ??_C@_19BIFMLPCD@?$AAJ?$AAu?$AAl?$AAy@ 0000000180034b90     libucrt:nlsdata.obj
 0002:00006ba0       ??_C@_1O@PAHLKOAC@?$AAA?$AAu?$AAg?$AAu?$AAs?$AAt@ 0000000180034ba0     libucrt:nlsdata.obj
 0002:00006bb0       ??_C@_1BE@DKAAMBJL@?$AAS?$AAe?$AAp?$AAt?$AAe?$AAm?$AAb?$AAe?$AAr@ 0000000180034bb0     libucrt:nlsdata.obj
 0002:00006bc8       ??_C@_1BA@EPANDLNG@?$AAO?$AAc?$AAt?$AAo?$AAb?$AAe?$AAr@ 0000000180034bc8     libucrt:nlsdata.obj
 0002:00006bd8       ??_C@_1BC@BGLIFPF@?$AAN?$AAo?$AAv?$AAe?$AAm?$AAb?$AAe?$AAr@ 0000000180034bd8     libucrt:nlsdata.obj
 0002:00006bf0       ??_C@_1BC@FEMKIFH@?$AAD?$AAe?$AAc?$AAe?$AAm?$AAb?$AAe?$AAr@ 0000000180034bf0     libucrt:nlsdata.obj
 0002:00006c04       ??_C@_15ODEHAHHF@?$AAA?$AAM@ 0000000180034c04     libucrt:nlsdata.obj
 0002:00006c0c       ??_C@_15CLMNNGEL@?$AAP?$AAM@ 0000000180034c0c     libucrt:nlsdata.obj
 0002:00006c18       ??_C@_1BC@IEBCMHCM@?$AAM?$AAM?$AA?1?$AAd?$AAd?$AA?1?$AAy?$AAy@ 0000000180034c18     libucrt:nlsdata.obj
 0002:00006c30       ??_C@_1CI@KNAKOEBC@?$AAd?$AAd?$AAd?$AAd?$AA?0?$AA?5?$AAM?$AAM?$AAM?$AAM?$AA?5?$AAd?$AAd?$AA?0?$AA?5@ 0000000180034c30     libucrt:nlsdata.obj
 0002:00006c58       ??_C@_1BC@GDGBMEMK@?$AAH?$AAH?$AA?3?$AAm?$AAm?$AA?3?$AAs?$AAs@ 0000000180034c58     libucrt:nlsdata.obj
 0002:00006c70       ??_C@_1M@BMHNFIME@?$AAe?$AAn?$AA?9?$AAU?$AAS@ 0000000180034c70     libucrt:nlsdata.obj
 0002:00006d20       ??_C@_1EA@JGEFHKEI@?$AAa?$AAp?$AAi?$AA?9?$AAm?$AAs?$AA?9?$AAw?$AAi?$AAn?$AA?9?$AAc?$AAo?$AAr?$AAe@ 0000000180034d20     libucrt:winapi_thunks.obj
 0002:00006d60       ??_C@_1DI@IJCEHOCB@?$AAa?$AAp?$AAi?$AA?9?$AAm?$AAs?$AA?9?$AAw?$AAi?$AAn?$AA?9?$AAc?$AAo?$AAr?$AAe@ 0000000180034d60     libucrt:winapi_thunks.obj
 0002:00006da0       ??_C@_1EI@MPIAOHOC@?$AAa?$AAp?$AAi?$AA?9?$AAm?$AAs?$AA?9?$AAw?$AAi?$AAn?$AA?9?$AAc?$AAo?$AAr?$AAe@ 0000000180034da0     libucrt:winapi_thunks.obj
 0002:00006df0       ??_C@_1FK@FPHCKFIE@?$AAa?$AAp?$AAi?$AA?9?$AAm?$AAs?$AA?9?$AAw?$AAi?$AAn?$AA?9?$AAc?$AAo?$AAr?$AAe@ 0000000180034df0     libucrt:winapi_thunks.obj
 0002:00006e50       ??_C@_1EM@DILCGIIO@?$AAa?$AAp?$AAi?$AA?9?$AAm?$AAs?$AA?9?$AAw?$AAi?$AAn?$AA?9?$AAc?$AAo?$AAr?$AAe@ 0000000180034e50     libucrt:winapi_thunks.obj
 0002:00006ea0       ??_C@_1DM@LNCGDDPN@?$AAa?$AAp?$AAi?$AA?9?$AAm?$AAs?$AA?9?$AAw?$AAi?$AAn?$AA?9?$AAc?$AAo?$AAr?$AAe@ 0000000180034ea0     libucrt:winapi_thunks.obj
 0002:00006ee0       ??_C@_1DO@FPAPJEMD@?$AAa?$AAp?$AAi?$AA?9?$AAm?$AAs?$AA?9?$AAw?$AAi?$AAn?$AA?9?$AAc?$AAo?$AAr?$AAe@ 0000000180034ee0     libucrt:winapi_thunks.obj
 0002:00006f20       ??_C@_1DK@NDHNAHIO@?$AAa?$AAp?$AAi?$AA?9?$AAm?$AAs?$AA?9?$AAw?$AAi?$AAn?$AA?9?$AAc?$AAo?$AAr?$AAe@ 0000000180034f20     libucrt:winapi_thunks.obj
 0002:00006f60       ??_C@_1DM@KGHDGBCM@?$AAa?$AAp?$AAi?$AA?9?$AAm?$AAs?$AA?9?$AAw?$AAi?$AAn?$AA?9?$AAc?$AAo?$AAr?$AAe@ 0000000180034f60     libucrt:winapi_thunks.obj
 0002:00006fa0       ??_C@_1EO@IJIOEFOH@?$AAa?$AAp?$AAi?$AA?9?$AAm?$AAs?$AA?9?$AAw?$AAi?$AAn?$AA?9?$AAr?$AAt?$AAc?$AAo@ 0000000180034fa0     libucrt:winapi_thunks.obj
 0002:00006ff0       ??_C@_1FG@HHGEKANL@?$AAa?$AAp?$AAi?$AA?9?$AAm?$AAs?$AA?9?$AAw?$AAi?$AAn?$AA?9?$AAs?$AAe?$AAc?$AAu@ 0000000180034ff0     libucrt:winapi_thunks.obj
 0002:00007050       ??_C@_1EG@DBIOJECG@?$AAe?$AAx?$AAt?$AA?9?$AAm?$AAs?$AA?9?$AAw?$AAi?$AAn?$AA?9?$AAn?$AAt?$AAu?$AAs@ 0000000180035050     libucrt:winapi_thunks.obj
 0002:000070a0       ??_C@_1EO@FIHMJCLF@?$AAe?$AAx?$AAt?$AA?9?$AAm?$AAs?$AA?9?$AAw?$AAi?$AAn?$AA?9?$AAn?$AAt?$AAu?$AAs@ 00000001800350a0     libucrt:winapi_thunks.obj
 0002:000070f0       ??_C@_1BC@DNHGCMLG@?$AAa?$AAd?$AAv?$AAa?$AAp?$AAi?$AA3?$AA2@ 00000001800350f0     libucrt:winapi_thunks.obj
 0002:00007108       ??_C@_1M@OAIMIKLP@?$AAn?$AAt?$AAd?$AAl?$AAl@ 0000000180035108     libucrt:winapi_thunks.obj
 0002:00007120       ??_C@_1EG@DPGNFKGC@?$AAa?$AAp?$AAi?$AA?9?$AAm?$AAs?$AA?9?$AAw?$AAi?$AAn?$AA?9?$AAa?$AAp?$AAp?$AAm@ 0000000180035120     libucrt:winapi_thunks.obj
 0002:00007168       ??_C@_1O@BCCLBEOE@?$AAu?$AAs?$AAe?$AAr?$AA3?$AA2@ 0000000180035168     libucrt:winapi_thunks.obj
 0002:00007178       ??_C@_1BA@IAIFMGEF@?$AAe?$AAx?$AAt?$AA?9?$AAm?$AAs?$AA?9@ 0000000180035178     libucrt:winapi_thunks.obj
 0002:00007190       ??_C@_0BA@FHFNEAED@AreFileApisANSI@ 0000000180035190     libucrt:winapi_thunks.obj
 0002:000071b0       ??_C@_0BE@LJANKFHF@EnumSystemLocalesEx@ 00000001800351b0     libucrt:winapi_thunks.obj
 0002:000071f0       ??_C@_0BA@EPCJIIPD@GetDateFormatEx@ 00000001800351f0     libucrt:winapi_thunks.obj
 0002:00007210       ??_C@_0BA@CIJJKCJJ@GetTimeFormatEx@ 0000000180035210     libucrt:winapi_thunks.obj
 0002:00007228       ??_C@_0BJ@PBCCBIPI@GetUserDefaultLocaleName@ 0000000180035228     libucrt:winapi_thunks.obj
 0002:00007258       ??_C@_0BC@CELBKLLA@IsValidLocaleName@ 0000000180035258     libucrt:winapi_thunks.obj
 0002:00007280       ??_C@_0BB@CDHDDLLP@LCIDToLocaleName@ 0000000180035280     libucrt:winapi_thunks.obj
 0002:000072a0       ??_C@_0BB@HBDEELFH@LocaleNameToLCID@ 00000001800352a0     libucrt:winapi_thunks.obj
 0002:000072b8       ??_C@_0CF@OJOFEIGO@AppPolicyGetProcessTerminationM@ 00000001800352b8     libucrt:winapi_thunks.obj
 0002:000072e0       _sys_first_posix_error     00000001800352e0     libucrt:syserr.obj
 0002:000072e8       _sys_last_posix_error      00000001800352e8     libucrt:syserr.obj
 0002:000072f0       _sys_posix_errlist         00000001800352f0     libucrt:syserr.obj
 0002:00007440       _sys_errlist               0000000180035440     libucrt:syserr.obj
 0002:000075a0       ??_C@_08INEPGKHH@No?5error@ 00000001800355a0     libucrt:syserr.obj
 0002:000075b0       ??_C@_0BI@BJFCGOHL@Operation?5not?5permitted@ 00000001800355b0     libucrt:syserr.obj
 0002:000075c8       ??_C@_0BK@FMDHKPNF@No?5such?5file?5or?5directory@ 00000001800355c8     libucrt:syserr.obj
 0002:000075e8       ??_C@_0BA@FKIAIBGA@No?5such?5process@ 00000001800355e8     libucrt:syserr.obj
 0002:000075f8       ??_C@_0BK@FJBOAFDK@Interrupted?5function?5call@ 00000001800355f8     libucrt:syserr.obj
 0002:00007618       ??_C@_0BD@KKNFOBBD@Input?1output?5error@ 0000000180035618     libucrt:syserr.obj
 0002:00007630       ??_C@_0BK@DPKMCKJ@No?5such?5device?5or?5address@ 0000000180035630     libucrt:syserr.obj
 0002:00007650       ??_C@_0BC@MFFGCDFL@Arg?5list?5too?5long@ 0000000180035650     libucrt:syserr.obj
 0002:00007668       ??_C@_0BC@HKPNECK@Exec?5format?5error@ 0000000180035668     libucrt:syserr.obj
 0002:00007680       ??_C@_0BE@NFGDDCEF@Bad?5file?5descriptor@ 0000000180035680     libucrt:syserr.obj
 0002:00007698       ??_C@_0BD@LOHELEP@No?5child?5processes@ 0000000180035698     libucrt:syserr.obj
 0002:000076b0       ??_C@_0CB@EPFKGNAK@Resource?5temporarily?5unavailabl@ 00000001800356b0     libucrt:syserr.obj
 0002:000076d8       ??_C@_0BB@IMDKMPFB@Not?5enough?5space@ 00000001800356d8     libucrt:syserr.obj
 0002:000076f0       ??_C@_0BC@HFNFNKAI@Permission?5denied@ 00000001800356f0     libucrt:syserr.obj
 0002:00007708       ??_C@_0M@LOEHLCJD@Bad?5address@ 0000000180035708     libucrt:syserr.obj
 0002:00007718       ??_C@_0BA@BIBLIOEK@Resource?5device@ 0000000180035718     libucrt:syserr.obj
 0002:00007728       ??_C@_0M@NAAJNNGH@File?5exists@ 0000000180035728     libucrt:syserr.obj
 0002:00007738       ??_C@_0O@OAMDNOCP@Improper?5link@ 0000000180035738     libucrt:syserr.obj
 0002:00007748       ??_C@_0P@NLEIANHE@No?5such?5device@ 0000000180035748     libucrt:syserr.obj
 0002:00007758       ??_C@_0BA@CJBACOOL@Not?5a?5directory@ 0000000180035758     libucrt:syserr.obj
 0002:00007768       ??_C@_0P@NDHGCGKE@Is?5a?5directory@ 0000000180035768     libucrt:syserr.obj
 0002:00007778       ??_C@_0BB@HMGGCEBG@Invalid?5argument@ 0000000180035778     libucrt:syserr.obj
 0002:00007790       ??_C@_0BO@IIFBODJE@Too?5many?5open?5files?5in?5system@ 0000000180035790     libucrt:syserr.obj
 0002:000077b0       ??_C@_0BE@INBJMKGG@Too?5many?5open?5files@ 00000001800357b0     libucrt:syserr.obj
 0002:000077c8       ??_C@_0CE@ONOKNLPF@Inappropriate?5I?1O?5control?5opera@ 00000001800357c8     libucrt:syserr.obj
 0002:000077f0       ??_C@_0P@LFMMIPAE@File?5too?5large@ 00000001800357f0     libucrt:syserr.obj
 0002:00007800       ??_C@_0BI@FEALHKLD@No?5space?5left?5on?5device@ 0000000180035800     libucrt:syserr.obj
 0002:00007818       ??_C@_0N@FEHLOILP@Invalid?5seek@ 0000000180035818     libucrt:syserr.obj
 0002:00007828       ??_C@_0BG@DDBFNKBH@Read?9only?5file?5system@ 0000000180035828     libucrt:syserr.obj
 0002:00007840       ??_C@_0P@PKCJJLLM@Too?5many?5links@ 0000000180035840     libucrt:syserr.obj
 0002:00007850       ??_C@_0M@LHEPIIOM@Broken?5pipe@ 0000000180035850     libucrt:syserr.obj
 0002:00007860       ??_C@_0N@MMJPGLJK@Domain?5error@ 0000000180035860     libucrt:syserr.obj
 0002:00007870       ??_C@_0BB@FCBJFCAJ@Result?5too?5large@ 0000000180035870     libucrt:syserr.obj
 0002:00007888       ??_C@_0BK@JAEBMJJM@Resource?5deadlock?5avoided@ 0000000180035888     libucrt:syserr.obj
 0002:000078a8       ??_C@_0BC@BEDIHIDK@Filename?5too?5long@ 00000001800358a8     libucrt:syserr.obj
 0002:000078c0       ??_C@_0BD@CLHBCGPB@No?5locks?5available@ 00000001800358c0     libucrt:syserr.obj
 0002:000078d8       ??_C@_0BJ@IHEHINLI@Function?5not?5implemented@ 00000001800358d8     libucrt:syserr.obj
 0002:000078f8       ??_C@_0BE@ICMCHPHH@Directory?5not?5empty@ 00000001800358f8     libucrt:syserr.obj
 0002:00007910       ??_C@_0BG@KLEAJEFJ@Illegal?5byte?5sequence@ 0000000180035910     libucrt:syserr.obj
 0002:00007928       _sys_nerr                  0000000180035928     libucrt:syserr.obj
 0002:0000792c       ??_C@_03JGHBODFD@pow@      000000018003592c     libucrt:fpexcept.obj
 0002:00007930       ??_C@_05HGHHAHAP@log10@    0000000180035930     libucrt:fpexcept.obj
 0002:00007960       __log_256_lead             0000000180035960     libucrt:log_256_lead_tail_table.obj
 0002:00008170       __log_256_tail             0000000180036170     libucrt:log_256_lead_tail_table.obj
 0002:00008980       __two_to_jby64_head_table  0000000180036980     libucrt:two_to_jby64_head_tail_table.obj
 0002:00008b80       __two_to_jby64_tail_table  0000000180036b80     libucrt:two_to_jby64_head_tail_table.obj
 0002:00008d80       ??_C@_04MBFDLNIM@powf@     0000000180036d80     libucrt:pow_special.obj
 0002:00008d90       __two_to_jby64_table       0000000180036d90     libucrt:two_to_jby64_table.obj
 0002:00008f90       __log_F_inv_qword          0000000180036f90     libucrt:log_f_inv_qword_table.obj
 0002:000097c0       ??_C@_1M@HPNHIDJI@?$AAj?$AAa?$AA?9?$AAJ?$AAP@ 00000001800377c0     libucrt:mbctype.obj
 0002:000097d0       ??_C@_1M@BIBDDEMK@?$AAz?$AAh?$AA?9?$AAC?$AAN@ 00000001800377d0     libucrt:mbctype.obj
 0002:000097e0       ??_C@_1M@JLOOOEGK@?$AAk?$AAo?$AA?9?$AAK?$AAR@ 00000001800377e0     libucrt:mbctype.obj
 0002:000097f0       ??_C@_1M@CLNBBOPM@?$AAz?$AAh?$AA?9?$AAT?$AAW@ 00000001800377f0     libucrt:mbctype.obj
 0002:000097fc       ??_C@_01GBGANLPD@0@        00000001800377fc     libucrt:cfout.obj
 0002:00009800       ??_C@_05DNEBIAHO@1?$CDINF@ 0000000180037800     libucrt:cfout.obj
 0002:00009808       ??_C@_06IMKFLFPG@1?$CDQNAN@ 0000000180037808     libucrt:cfout.obj
 0002:00009810       ??_C@_06PGGFOGJG@1?$CDSNAN@ 0000000180037810     libucrt:cfout.obj
 0002:00009818       ??_C@_05PHHOCPM@1?$CDIND@  0000000180037818     libucrt:cfout.obj
 0002:00009820       __acrt_rg_language         0000000180037820     libucrt:get_qualified_locale.obj
 0002:00009c30       __acrt_rg_language_count   0000000180037c30     libucrt:get_qualified_locale.obj
 0002:00009c40       __acrt_rg_country          0000000180037c40     libucrt:get_qualified_locale.obj
 0002:00009db0       __acrt_rg_country_count    0000000180037db0     libucrt:get_qualified_locale.obj
 0002:00009db8       ??_C@_1BC@LLOKLNP@?$AAa?$AAm?$AAe?$AAr?$AAi?$AAc?$AAa?$AAn@ 0000000180037db8     libucrt:get_qualified_locale.obj
 0002:00009dd0       ??_C@_1CC@HEIGCDGG@?$AAa?$AAm?$AAe?$AAr?$AAi?$AAc?$AAa?$AAn?$AA?5?$AAe?$AAn?$AAg?$AAl?$AAi?$AAs@ 0000000180037dd0     libucrt:get_qualified_locale.obj
 0002:00009df8       ??_C@_1CC@IHCNOMIN@?$AAa?$AAm?$AAe?$AAr?$AAi?$AAc?$AAa?$AAn?$AA?9?$AAe?$AAn?$AAg?$AAl?$AAi?$AAs@ 0000000180037df8     libucrt:get_qualified_locale.obj
 0002:00009e20       ??_C@_1BG@GKAGPCGG@?$AAa?$AAu?$AAs?$AAt?$AAr?$AAa?$AAl?$AAi?$AAa?$AAn@ 0000000180037e20     libucrt:get_qualified_locale.obj
 0002:00009e38       ??_C@_1BA@GMENCENF@?$AAb?$AAe?$AAl?$AAg?$AAi?$AAa?$AAn@ 0000000180037e38     libucrt:get_qualified_locale.obj
 0002:00009e48       ??_C@_1BC@PJMIIAAN@?$AAc?$AAa?$AAn?$AAa?$AAd?$AAi?$AAa?$AAn@ 0000000180037e48     libucrt:get_qualified_locale.obj
 0002:00009e60       ??_C@_17NOIMNFBF@?$AAc?$AAh?$AAh@ 0000000180037e60     libucrt:get_qualified_locale.obj
 0002:00009e68       ??_C@_17GGDALCHA@?$AAc?$AAh?$AAi@ 0000000180037e68     libucrt:get_qualified_locale.obj
 0002:00009e70       ??_C@_1BA@NPNJKIBL@?$AAc?$AAh?$AAi?$AAn?$AAe?$AAs?$AAe@ 0000000180037e70     libucrt:get_qualified_locale.obj
 0002:00009e80       ??_C@_1CC@DINBAMMJ@?$AAc?$AAh?$AAi?$AAn?$AAe?$AAs?$AAe?$AA?9?$AAh?$AAo?$AAn?$AAg?$AAk?$AAo?$AAn@ 0000000180037e80     libucrt:get_qualified_locale.obj
 0002:00009ea8       ??_C@_1CG@IOBJPACO@?$AAc?$AAh?$AAi?$AAn?$AAe?$AAs?$AAe?$AA?9?$AAs?$AAi?$AAm?$AAp?$AAl?$AAi?$AAf@ 0000000180037ea8     libucrt:get_qualified_locale.obj
 0002:00009ed0       ??_C@_1CE@GAJNDCKG@?$AAc?$AAh?$AAi?$AAn?$AAe?$AAs?$AAe?$AA?9?$AAs?$AAi?$AAn?$AAg?$AAa?$AAp?$AAo@ 0000000180037ed0     libucrt:get_qualified_locale.obj
 0002:00009ef8       ??_C@_1CI@PAJPIOOD@?$AAc?$AAh?$AAi?$AAn?$AAe?$AAs?$AAe?$AA?9?$AAt?$AAr?$AAa?$AAd?$AAi?$AAt?$AAi@ 0000000180037ef8     libucrt:get_qualified_locale.obj
 0002:00009f20       ??_C@_1BM@NILJBMMD@?$AAd?$AAu?$AAt?$AAc?$AAh?$AA?9?$AAb?$AAe?$AAl?$AAg?$AAi?$AAa?$AAn@ 0000000180037f20     libucrt:get_qualified_locale.obj
 0002:00009f40       ??_C@_1CC@OOJPJNEJ@?$AAe?$AAn?$AAg?$AAl?$AAi?$AAs?$AAh?$AA?9?$AAa?$AAm?$AAe?$AAr?$AAi?$AAc?$AAa@ 0000000180037f40     libucrt:get_qualified_locale.obj
 0002:00009f68       ??_C@_1BI@IOLFEEM@?$AAe?$AAn?$AAg?$AAl?$AAi?$AAs?$AAh?$AA?9?$AAa?$AAu?$AAs@ 0000000180037f68     libucrt:get_qualified_locale.obj
 0002:00009f80       ??_C@_1BO@HFFNLENJ@?$AAe?$AAn?$AAg?$AAl?$AAi?$AAs?$AAh?$AA?9?$AAb?$AAe?$AAl?$AAi?$AAz?$AAe@ 0000000180037f80     libucrt:get_qualified_locale.obj
 0002:00009fa0       ??_C@_1BI@HAPKJMPO@?$AAe?$AAn?$AAg?$AAl?$AAi?$AAs?$AAh?$AA?9?$AAc?$AAa?$AAn@ 0000000180037fa0     libucrt:get_qualified_locale.obj
 0002:00009fb8       ??_C@_1CE@HLNDMIOJ@?$AAe?$AAn?$AAg?$AAl?$AAi?$AAs?$AAh?$AA?9?$AAc?$AAa?$AAr?$AAi?$AAb?$AAb?$AAe@ 0000000180037fb8     libucrt:get_qualified_locale.obj
 0002:00009fe0       ??_C@_1BI@LDHJHHAC@?$AAe?$AAn?$AAg?$AAl?$AAi?$AAs?$AAh?$AA?9?$AAi?$AAr?$AAe@ 0000000180037fe0     libucrt:get_qualified_locale.obj
 0002:00009ff8       ??_C@_1CA@NJMMCFOC@?$AAe?$AAn?$AAg?$AAl?$AAi?$AAs?$AAh?$AA?9?$AAj?$AAa?$AAm?$AAa?$AAi?$AAc?$AAa@ 0000000180037ff8     libucrt:get_qualified_locale.obj
 0002:0000a018       ??_C@_1BG@BHJEBBGG@?$AAe?$AAn?$AAg?$AAl?$AAi?$AAs?$AAh?$AA?9?$AAn?$AAz@ 0000000180038018     libucrt:get_qualified_locale.obj
 0002:0000a030       ??_C@_1CK@FGOEJJCO@?$AAe?$AAn?$AAg?$AAl?$AAi?$AAs?$AAh?$AA?9?$AAs?$AAo?$AAu?$AAt?$AAh?$AA?5?$AAa@ 0000000180038030     libucrt:get_qualified_locale.obj
 0002:0000a060       ??_C@_1DE@PDBJPCJ@?$AAe?$AAn?$AAg?$AAl?$AAi?$AAs?$AAh?$AA?9?$AAt?$AAr?$AAi?$AAn?$AAi?$AAd?$AAa@ 0000000180038060     libucrt:get_qualified_locale.obj
 0002:0000a098       ??_C@_1BG@JGCANDME@?$AAe?$AAn?$AAg?$AAl?$AAi?$AAs?$AAh?$AA?9?$AAu?$AAk@ 0000000180038098     libucrt:get_qualified_locale.obj
 0002:0000a0b0       ??_C@_1BG@DINKMLE@?$AAe?$AAn?$AAg?$AAl?$AAi?$AAs?$AAh?$AA?9?$AAu?$AAs@ 00000001800380b0     libucrt:get_qualified_locale.obj
 0002:0000a0c8       ??_C@_1BI@NMFDBHJE@?$AAe?$AAn?$AAg?$AAl?$AAi?$AAs?$AAh?$AA?9?$AAu?$AAs?$AAa@ 00000001800380c8     libucrt:get_qualified_locale.obj
 0002:0000a0e0       ??_C@_1BO@OIHKJKII@?$AAf?$AAr?$AAe?$AAn?$AAc?$AAh?$AA?9?$AAb?$AAe?$AAl?$AAg?$AAi?$AAa?$AAn@ 00000001800380e0     libucrt:get_qualified_locale.obj
 0002:0000a100       ??_C@_1CA@NKAELJKI@?$AAf?$AAr?$AAe?$AAn?$AAc?$AAh?$AA?9?$AAc?$AAa?$AAn?$AAa?$AAd?$AAi?$AAa?$AAn@ 0000000180038100     libucrt:get_qualified_locale.obj
 0002:0000a120       ??_C@_1CE@MGKCNLGN@?$AAf?$AAr?$AAe?$AAn?$AAc?$AAh?$AA?9?$AAl?$AAu?$AAx?$AAe?$AAm?$AAb?$AAo?$AAu@ 0000000180038120     libucrt:get_qualified_locale.obj
 0002:0000a148       ??_C@_1BK@CEGEAILM@?$AAf?$AAr?$AAe?$AAn?$AAc?$AAh?$AA?9?$AAs?$AAw?$AAi?$AAs?$AAs@ 0000000180038148     libucrt:get_qualified_locale.obj
 0002:0000a168       ??_C@_1CA@PAFKEOCC@?$AAg?$AAe?$AAr?$AAm?$AAa?$AAn?$AA?9?$AAa?$AAu?$AAs?$AAt?$AAr?$AAi?$AAa?$AAn@ 0000000180038168     libucrt:get_qualified_locale.obj
 0002:0000a188       ??_C@_1CI@HCFHGOFD@?$AAg?$AAe?$AAr?$AAm?$AAa?$AAn?$AA?9?$AAl?$AAi?$AAc?$AAh?$AAt?$AAe?$AAn?$AAs@ 0000000180038188     libucrt:get_qualified_locale.obj
 0002:0000a1b0       ??_C@_1CE@FEDDNPDG@?$AAg?$AAe?$AAr?$AAm?$AAa?$AAn?$AA?9?$AAl?$AAu?$AAx?$AAe?$AAm?$AAb?$AAo?$AAu@ 00000001800381b0     libucrt:get_qualified_locale.obj
 0002:0000a1d8       ??_C@_1BK@LIMINNMN@?$AAg?$AAe?$AAr?$AAm?$AAa?$AAn?$AA?9?$AAs?$AAw?$AAi?$AAs?$AAs@ 00000001800381d8     libucrt:get_qualified_locale.obj
 0002:0000a1f8       ??_C@_1BM@LGMDBEPD@?$AAi?$AAr?$AAi?$AAs?$AAh?$AA?9?$AAe?$AAn?$AAg?$AAl?$AAi?$AAs?$AAh@ 00000001800381f8     libucrt:get_qualified_locale.obj
 0002:0000a218       ??_C@_1BM@NNCFBAEE@?$AAi?$AAt?$AAa?$AAl?$AAi?$AAa?$AAn?$AA?9?$AAs?$AAw?$AAi?$AAs?$AAs@ 0000000180038218     libucrt:get_qualified_locale.obj
 0002:0000a238       ??_C@_1BE@FEDJNPIB@?$AAn?$AAo?$AAr?$AAw?$AAe?$AAg?$AAi?$AAa?$AAn@ 0000000180038238     libucrt:get_qualified_locale.obj
 0002:0000a250       ??_C@_1CC@CILKDEIE@?$AAn?$AAo?$AAr?$AAw?$AAe?$AAg?$AAi?$AAa?$AAn?$AA?9?$AAb?$AAo?$AAk?$AAm?$AAa@ 0000000180038250     libucrt:get_qualified_locale.obj
 0002:0000a278       ??_C@_1CE@DHMMHEPL@?$AAn?$AAo?$AAr?$AAw?$AAe?$AAg?$AAi?$AAa?$AAn?$AA?9?$AAn?$AAy?$AAn?$AAo?$AAr@ 0000000180038278     libucrt:get_qualified_locale.obj
 0002:0000a2a0       ??_C@_1CK@OPNMHECD@?$AAp?$AAo?$AAr?$AAt?$AAu?$AAg?$AAu?$AAe?$AAs?$AAe?$AA?9?$AAb?$AAr?$AAa?$AAz@ 00000001800382a0     libucrt:get_qualified_locale.obj
 0002:0000a2d0       ??_C@_1CE@KEEHCDB@?$AAs?$AAp?$AAa?$AAn?$AAi?$AAs?$AAh?$AA?9?$AAa?$AAr?$AAg?$AAe?$AAn?$AAt?$AAi@ 00000001800382d0     libucrt:get_qualified_locale.obj
 0002:0000a2f8       ??_C@_1CA@GIAOLHJD@?$AAs?$AAp?$AAa?$AAn?$AAi?$AAs?$AAh?$AA?9?$AAb?$AAo?$AAl?$AAi?$AAv?$AAi?$AAa@ 00000001800382f8     libucrt:get_qualified_locale.obj
 0002:0000a318       ??_C@_1BM@OJNDFNPD@?$AAs?$AAp?$AAa?$AAn?$AAi?$AAs?$AAh?$AA?9?$AAc?$AAh?$AAi?$AAl?$AAe@ 0000000180038318     libucrt:get_qualified_locale.obj
 0002:0000a338       ??_C@_1CC@OCOLPALL@?$AAs?$AAp?$AAa?$AAn?$AAi?$AAs?$AAh?$AA?9?$AAc?$AAo?$AAl?$AAo?$AAm?$AAb?$AAi@ 0000000180038338     libucrt:get_qualified_locale.obj
 0002:0000a360       ??_C@_1CG@BPOFMKBB@?$AAs?$AAp?$AAa?$AAn?$AAi?$AAs?$AAh?$AA?9?$AAc?$AAo?$AAs?$AAt?$AAa?$AA?5?$AAr@ 0000000180038360     libucrt:get_qualified_locale.obj
 0002:0000a388       ??_C@_1DG@IGOBAPBB@?$AAs?$AAp?$AAa?$AAn?$AAi?$AAs?$AAh?$AA?9?$AAd?$AAo?$AAm?$AAi?$AAn?$AAi?$AAc@ 0000000180038388     libucrt:get_qualified_locale.obj
 0002:0000a3c0       ??_C@_1CA@JHAPGEGI@?$AAs?$AAp?$AAa?$AAn?$AAi?$AAs?$AAh?$AA?9?$AAe?$AAc?$AAu?$AAa?$AAd?$AAo?$AAr@ 00000001800383c0     libucrt:get_qualified_locale.obj
 0002:0000a3e0       ??_C@_1CI@LAPALJPP@?$AAs?$AAp?$AAa?$AAn?$AAi?$AAs?$AAh?$AA?9?$AAe?$AAl?$AA?5?$AAs?$AAa?$AAl?$AAv@ 00000001800383e0     libucrt:get_qualified_locale.obj
 0002:0000a408       ??_C@_1CE@PDGBOFOM@?$AAs?$AAp?$AAa?$AAn?$AAi?$AAs?$AAh?$AA?9?$AAg?$AAu?$AAa?$AAt?$AAe?$AAm?$AAa@ 0000000180038408     libucrt:get_qualified_locale.obj
 0002:0000a430       ??_C@_1CC@NBEBAODI@?$AAs?$AAp?$AAa?$AAn?$AAi?$AAs?$AAh?$AA?9?$AAh?$AAo?$AAn?$AAd?$AAu?$AAr?$AAa@ 0000000180038430     libucrt:get_qualified_locale.obj
 0002:0000a458       ??_C@_1CA@LLKGHBMF@?$AAs?$AAp?$AAa?$AAn?$AAi?$AAs?$AAh?$AA?9?$AAm?$AAe?$AAx?$AAi?$AAc?$AAa?$AAn@ 0000000180038458     libucrt:get_qualified_locale.obj
 0002:0000a478       ??_C@_1BO@LKNDOIGD@?$AAs?$AAp?$AAa?$AAn?$AAi?$AAs?$AAh?$AA?9?$AAm?$AAo?$AAd?$AAe?$AAr?$AAn@ 0000000180038478     libucrt:get_qualified_locale.obj
 0002:0000a498       ??_C@_1CE@NMDMOEEB@?$AAs?$AAp?$AAa?$AAn?$AAi?$AAs?$AAh?$AA?9?$AAn?$AAi?$AAc?$AAa?$AAr?$AAa?$AAg@ 0000000180038498     libucrt:get_qualified_locale.obj
 0002:0000a4c0       ??_C@_1BO@LLCBEJGB@?$AAs?$AAp?$AAa?$AAn?$AAi?$AAs?$AAh?$AA?9?$AAp?$AAa?$AAn?$AAa?$AAm?$AAa@ 00000001800384c0     libucrt:get_qualified_locale.obj
 0002:0000a4e0       ??_C@_1CC@FKPGGIHO@?$AAs?$AAp?$AAa?$AAn?$AAi?$AAs?$AAh?$AA?9?$AAp?$AAa?$AAr?$AAa?$AAg?$AAu?$AAa@ 00000001800384e0     libucrt:get_qualified_locale.obj
 0002:0000a508       ??_C@_1BK@CDEIHOOP@?$AAs?$AAp?$AAa?$AAn?$AAi?$AAs?$AAh?$AA?9?$AAp?$AAe?$AAr?$AAu@ 0000000180038508     libucrt:get_qualified_locale.obj
 0002:0000a528       ??_C@_1CI@GAHAKKGP@?$AAs?$AAp?$AAa?$AAn?$AAi?$AAs?$AAh?$AA?9?$AAp?$AAu?$AAe?$AAr?$AAt?$AAo?$AA?5@ 0000000180038528     libucrt:get_qualified_locale.obj
 0002:0000a550       ??_C@_1CA@NKJBCAGP@?$AAs?$AAp?$AAa?$AAn?$AAi?$AAs?$AAh?$AA?9?$AAu?$AAr?$AAu?$AAg?$AAu?$AAa?$AAy@ 0000000180038550     libucrt:get_qualified_locale.obj
 0002:0000a570       ??_C@_1CE@ODILCONM@?$AAs?$AAp?$AAa?$AAn?$AAi?$AAs?$AAh?$AA?9?$AAv?$AAe?$AAn?$AAe?$AAz?$AAu?$AAe@ 0000000180038570     libucrt:get_qualified_locale.obj
 0002:0000a598       ??_C@_1CA@OBNMCGFO@?$AAs?$AAw?$AAe?$AAd?$AAi?$AAs?$AAh?$AA?9?$AAf?$AAi?$AAn?$AAl?$AAa?$AAn?$AAd@ 0000000180038598     libucrt:get_qualified_locale.obj
 0002:0000a5b8       ??_C@_1M@PIPDDPPI@?$AAs?$AAw?$AAi?$AAs?$AAs@ 00000001800385b8     libucrt:get_qualified_locale.obj
 0002:0000a5c4       ??_C@_15PJPFLCCM@?$AAu?$AAk@ 00000001800385c4     libucrt:get_qualified_locale.obj
 0002:0000a5cc       ??_C@_15GMFIMNFM@?$AAu?$AAs@ 00000001800385cc     libucrt:get_qualified_locale.obj
 0002:0000a5d8       ??_C@_17HAEBFAGL@?$AAu?$AAs?$AAa@ 00000001800385d8     libucrt:get_qualified_locale.obj
 0002:0000a5e0       ??_C@_1BA@DPFJEPHB@?$AAa?$AAm?$AAe?$AAr?$AAi?$AAc?$AAa@ 00000001800385e0     libucrt:get_qualified_locale.obj
 0002:0000a5f0       ??_C@_1BA@ELOGGFK@?$AAb?$AAr?$AAi?$AAt?$AAa?$AAi?$AAn@ 00000001800385f0     libucrt:get_qualified_locale.obj
 0002:0000a600       ??_C@_1M@GHBGIGDA@?$AAc?$AAh?$AAi?$AAn?$AAa@ 0000000180038600     libucrt:get_qualified_locale.obj
 0002:0000a610       ??_C@_1M@NCHEJOPO@?$AAc?$AAz?$AAe?$AAc?$AAh@ 0000000180038610     libucrt:get_qualified_locale.obj
 0002:0000a620       ??_C@_1BA@BKPAPBLA@?$AAe?$AAn?$AAg?$AAl?$AAa?$AAn?$AAd@ 0000000180038620     libucrt:get_qualified_locale.obj
 0002:0000a630       ??_C@_1BM@HKBCKIPC@?$AAg?$AAr?$AAe?$AAa?$AAt?$AA?5?$AAb?$AAr?$AAi?$AAt?$AAa?$AAi?$AAn@ 0000000180038630     libucrt:get_qualified_locale.obj
 0002:0000a650       ??_C@_1BA@PPCHPGJB@?$AAh?$AAo?$AAl?$AAl?$AAa?$AAn?$AAd@ 0000000180038650     libucrt:get_qualified_locale.obj
 0002:0000a660       ??_C@_1BE@JBMPEGDG@?$AAh?$AAo?$AAn?$AAg?$AA?9?$AAk?$AAo?$AAn?$AAg@ 0000000180038660     libucrt:get_qualified_locale.obj
 0002:0000a678       ??_C@_1BI@KOELBBPJ@?$AAn?$AAe?$AAw?$AA?9?$AAz?$AAe?$AAa?$AAl?$AAa?$AAn?$AAd@ 0000000180038678     libucrt:get_qualified_locale.obj
 0002:0000a690       ??_C@_15HIEBHAIO@?$AAn?$AAz@ 0000000180038690     libucrt:get_qualified_locale.obj
 0002:0000a698       ??_C@_1BC@CHBCPFPI@?$AAp?$AAr?$AA?5?$AAc?$AAh?$AAi?$AAn?$AAa@ 0000000180038698     libucrt:get_qualified_locale.obj
 0002:0000a6b0       ??_C@_1BC@JAOIIFKD@?$AAp?$AAr?$AA?9?$AAc?$AAh?$AAi?$AAn?$AAa@ 00000001800386b0     libucrt:get_qualified_locale.obj
 0002:0000a6c8       ??_C@_1BI@BEHPPHKC@?$AAp?$AAu?$AAe?$AAr?$AAt?$AAo?$AA?9?$AAr?$AAi?$AAc?$AAo@ 00000001800386c8     libucrt:get_qualified_locale.obj
 0002:0000a6e0       ??_C@_1O@PAEOFKDI@?$AAs?$AAl?$AAo?$AAv?$AAa?$AAk@ 00000001800386e0     libucrt:get_qualified_locale.obj
 0002:0000a6f0       ??_C@_1BK@FIHMCKAM@?$AAs?$AAo?$AAu?$AAt?$AAh?$AA?5?$AAa?$AAf?$AAr?$AAi?$AAc?$AAa@ 00000001800386f0     libucrt:get_qualified_locale.obj
 0002:0000a710       ??_C@_1BI@NAEOODKB@?$AAs?$AAo?$AAu?$AAt?$AAh?$AA?5?$AAk?$AAo?$AAr?$AAe?$AAa@ 0000000180038710     libucrt:get_qualified_locale.obj
 0002:0000a728       ??_C@_1BK@FBDGGIFF@?$AAs?$AAo?$AAu?$AAt?$AAh?$AA?9?$AAa?$AAf?$AAr?$AAi?$AAc?$AAa@ 0000000180038728     libucrt:get_qualified_locale.obj
 0002:0000a748       ??_C@_1BI@GHLEJDPK@?$AAs?$AAo?$AAu?$AAt?$AAh?$AA?9?$AAk?$AAo?$AAr?$AAe?$AAa@ 0000000180038748     libucrt:get_qualified_locale.obj
 0002:0000a760       ??_C@_1CE@PLHLOMJF@?$AAt?$AAr?$AAi?$AAn?$AAi?$AAd?$AAa?$AAd?$AA?5?$AA?$CG?$AA?5?$AAt?$AAo?$AAb?$AAa@ 0000000180038760     libucrt:get_qualified_locale.obj
 0002:0000a788       ??_C@_1BO@MODIMHHI@?$AAu?$AAn?$AAi?$AAt?$AAe?$AAd?$AA?9?$AAk?$AAi?$AAn?$AAg?$AAd?$AAo?$AAm@ 0000000180038788     libucrt:get_qualified_locale.obj
 0002:0000a7a8       ??_C@_1BM@FFHJONBJ@?$AAu?$AAn?$AAi?$AAt?$AAe?$AAd?$AA?9?$AAs?$AAt?$AAa?$AAt?$AAe?$AAs@ 00000001800387a8     libucrt:get_qualified_locale.obj
 0002:0000a7c8       ??_C@_19MPDNHKDG@?$AAu?$AAt?$AAf?$AA8@ 00000001800387c8     libucrt:get_qualified_locale.obj
 0002:0000a7d8       ??_C@_17DNCLJFIF@?$AAA?$AAC?$AAP@ 00000001800387d8     libucrt:get_qualified_locale.obj
 0002:0000a7e0       ??_C@_1M@FPEIIFAM@?$AAu?$AAt?$AAf?$AA?9?$AA8@ 00000001800387e0     libucrt:get_qualified_locale.obj
 0002:0000a7f0       ??_C@_17CIKBIHLH@?$AAO?$AAC?$AAP@ 00000001800387f0     libucrt:get_qualified_locale.obj
 0002:0000a7f8       __rglangidNotDefault       00000001800387f8     libucrt:getqloc_downlevel.obj
 0002:0000b650       ??_C@_15EMKDOKLE@?$AAa?$AAr@ 0000000180039650     libucrt:lcidtoname_downlevel.obj
 0002:0000b658       ??_C@_15KNPADPLH@?$AAb?$AAg@ 0000000180039658     libucrt:lcidtoname_downlevel.obj
 0002:0000b660       ??_C@_15EDMHLDMO@?$AAc?$AAa@ 0000000180039660     libucrt:lcidtoname_downlevel.obj
 0002:0000b668       ??_C@_1O@BPEAJADD@?$AAz?$AAh?$AA?9?$AAC?$AAH?$AAS@ 0000000180039668     libucrt:lcidtoname_downlevel.obj
 0002:0000b678       ??_C@_15LJNHCMNK@?$AAc?$AAs@ 0000000180039678     libucrt:lcidtoname_downlevel.obj
 0002:0000b680       ??_C@_15FOMCIDHG@?$AAd?$AAa@ 0000000180039680     libucrt:lcidtoname_downlevel.obj
 0002:0000b688       ??_C@_15NBKABECB@?$AAd?$AAe@ 0000000180039688     libucrt:lcidtoname_downlevel.obj
 0002:0000b690       ??_C@_15GHPEIIAO@?$AAe?$AAl@ 0000000180039690     libucrt:lcidtoname_downlevel.obj
 0002:0000b698       ??_C@_15MNPNEAIF@?$AAe?$AAn@ 0000000180039698     libucrt:lcidtoname_downlevel.obj
 0002:0000b6a0       ??_C@_15GPIOMPMH@?$AAe?$AAs@ 00000001800396a0     libucrt:lcidtoname_downlevel.obj
 0002:0000b6a8       ??_C@_15NGLOAKJC@?$AAf?$AAi@ 00000001800396a8     libucrt:lcidtoname_downlevel.obj
 0002:0000b6b0       ??_C@_15FBKGNKAM@?$AAf?$AAr@ 00000001800396b0     libucrt:lcidtoname_downlevel.obj
 0002:0000b6b8       ??_C@_15KGGCNEFK@?$AAh?$AAe@ 00000001800396b8     libucrt:lcidtoname_downlevel.obj
 0002:0000b6c0       ??_C@_15PGHLIDMF@?$AAh?$AAu@ 00000001800396c0     libucrt:lcidtoname_downlevel.obj
 0002:0000b6c8       ??_C@_15BIEMAPLM@?$AAi?$AAs@ 00000001800396c8     libucrt:lcidtoname_downlevel.obj
 0002:0000b6d0       ??_C@_15IFJLDHAF@?$AAi?$AAt@ 00000001800396d0     libucrt:lcidtoname_downlevel.obj
 0002:0000b6d8       ??_C@_15GEMIOCAG@?$AAj?$AAa@ 00000001800396d8     libucrt:lcidtoname_downlevel.obj
 0002:0000b6e0       ??_C@_15EPELEGJA@?$AAk?$AAo@ 00000001800396e0     libucrt:lcidtoname_downlevel.obj
 0002:0000b6e8       ??_C@_15NDDHIMN@?$AAn?$AAl@ 00000001800396e8     libucrt:lcidtoname_downlevel.obj
 0002:0000b6f0       ??_C@_15BPIGNHCD@?$AAn?$AAo@ 00000001800396f0     libucrt:lcidtoname_downlevel.obj
 0002:0000b6f8       ??_C@_15DEOPBLCG@?$AAp?$AAl@ 00000001800396f8     libucrt:lcidtoname_downlevel.obj
 0002:0000b700       ??_C@_15KBECGEFG@?$AAp?$AAt@ 0000000180039700     libucrt:lcidtoname_downlevel.obj
 0002:0000b708       ??_C@_15GLJCBFMD@?$AAr?$AAo@ 0000000180039708     libucrt:lcidtoname_downlevel.obj
 0002:0000b710       ??_C@_15FEDGKCDI@?$AAr?$AAu@ 0000000180039710     libucrt:lcidtoname_downlevel.obj
 0002:0000b718       ??_C@_15GLKMLLHM@?$AAh?$AAr@ 0000000180039718     libucrt:lcidtoname_downlevel.obj
 0002:0000b720       ??_C@_15CPKMFBDB@?$AAs?$AAk@ 0000000180039720     libucrt:lcidtoname_downlevel.obj
 0002:0000b728       ??_C@_15BAAIOGMK@?$AAs?$AAq@ 0000000180039728     libucrt:lcidtoname_downlevel.obj
 0002:0000b730       ??_C@_15INNPNOHD@?$AAs?$AAv@ 0000000180039730     libucrt:lcidtoname_downlevel.obj
 0002:0000b738       ??_C@_15CABMMOGH@?$AAt?$AAh@ 0000000180039738     libucrt:lcidtoname_downlevel.obj
 0002:0000b740       ??_C@_15BPLIHJJM@?$AAt?$AAr@ 0000000180039740     libucrt:lcidtoname_downlevel.obj
 0002:0000b748       ??_C@_15NEOEKKDJ@?$AAu?$AAr@ 0000000180039748     libucrt:lcidtoname_downlevel.obj
 0002:0000b750       ??_C@_15NFICGAJK@?$AAi?$AAd@ 0000000180039750     libucrt:lcidtoname_downlevel.obj
 0002:0000b758       ??_C@_15HPJPHDM@?$AAb?$AAe@ 0000000180039758     libucrt:lcidtoname_downlevel.obj
 0002:0000b760       ??_C@_15LCHLGJII@?$AAs?$AAl@ 0000000180039760     libucrt:lcidtoname_downlevel.obj
 0002:0000b768       ??_C@_15PCFJPHHO@?$AAe?$AAt@ 0000000180039768     libucrt:lcidtoname_downlevel.obj
 0002:0000b770       ??_C@_15HPFPGODN@?$AAl?$AAv@ 0000000180039770     libucrt:lcidtoname_downlevel.obj
 0002:0000b778       ??_C@_15NFFGKGLG@?$AAl?$AAt@ 0000000180039778     libucrt:lcidtoname_downlevel.obj
 0002:0000b780       ??_C@_15BDAKCCHN@?$AAf?$AAa@ 0000000180039780     libucrt:lcidtoname_downlevel.obj
 0002:0000b788       ??_C@_15NFGIAIAJ@?$AAv?$AAi@ 0000000180039788     libucrt:lcidtoname_downlevel.obj
 0002:0000b790       ??_C@_15LMKNDMHN@?$AAh?$AAy@ 0000000180039790     libucrt:lcidtoname_downlevel.obj
 0002:0000b798       ??_C@_15IJBHMCFL@?$AAa?$AAz@ 0000000180039798     libucrt:lcidtoname_downlevel.obj
 0002:0000b7a0       ??_C@_15EKOFJABL@?$AAe?$AAu@ 00000001800397a0     libucrt:lcidtoname_downlevel.obj
 0002:0000b7a8       ??_C@_15BGHADCNK@?$AAm?$AAk@ 00000001800397a8     libucrt:lcidtoname_downlevel.obj
 0002:0000b7b0       ??_C@_15JDNICKHM@?$AAa?$AAf@ 00000001800397b0     libucrt:lcidtoname_downlevel.obj
 0002:0000b7b8       ??_C@_15KPJEDBKD@?$AAk?$AAa@ 00000001800397b8     libucrt:lcidtoname_downlevel.obj
 0002:0000b7c0       ??_C@_15PDNFFFEO@?$AAf?$AAo@ 00000001800397c0     libucrt:lcidtoname_downlevel.obj
 0002:0000b7c8       ??_C@_15OMLEGLOC@?$AAh?$AAi@ 00000001800397c8     libucrt:lcidtoname_downlevel.obj
 0002:0000b7d0       ??_C@_15IDNNENKK@?$AAm?$AAs@ 00000001800397d0     libucrt:lcidtoname_downlevel.obj
 0002:0000b7d8       ??_C@_15MACJNBMH@?$AAk?$AAk@ 00000001800397d8     libucrt:lcidtoname_downlevel.obj
 0002:0000b7e0       ??_C@_15DKDJEOND@?$AAk?$AAy@ 00000001800397e0     libucrt:lcidtoname_downlevel.obj
 0002:0000b7e8       ??_C@_15DFGDLJBG@?$AAs?$AAw@ 00000001800397e8     libucrt:lcidtoname_downlevel.obj
 0002:0000b7f0       ??_C@_15BBFAICNG@?$AAu?$AAz@ 00000001800397f0     libucrt:lcidtoname_downlevel.obj
 0002:0000b7f8       ??_C@_15DKNDCGEA@?$AAt?$AAt@ 00000001800397f8     libucrt:lcidtoname_downlevel.obj
 0002:0000b800       ??_C@_15MGIFMDPL@?$AAp?$AAa@ 0000000180039800     libucrt:lcidtoname_downlevel.obj
 0002:0000b808       ??_C@_15HCNDBBA@?$AAg?$AAu@ 0000000180039808     libucrt:lcidtoname_downlevel.obj
 0002:0000b810       ??_C@_15FNBEIBON@?$AAt?$AAa@ 0000000180039810     libucrt:lcidtoname_downlevel.obj
 0002:0000b818       ??_C@_15NCHGBGLK@?$AAt?$AAe@ 0000000180039818     libucrt:lcidtoname_downlevel.obj
 0002:0000b820       ??_C@_15PHPHCBPF@?$AAk?$AAn@ 0000000180039820     libucrt:lcidtoname_downlevel.obj
 0002:0000b828       ??_C@_15DLGBCKMP@?$AAm?$AAr@ 0000000180039828     libucrt:lcidtoname_downlevel.obj
 0002:0000b830       ??_C@_15EABBLBFF@?$AAs?$AAa@ 0000000180039830     libucrt:lcidtoname_downlevel.obj
 0002:0000b838       ??_C@_15CBKOMCOI@?$AAm?$AAn@ 0000000180039838     libucrt:lcidtoname_downlevel.obj
 0002:0000b840       ??_C@_15CKDMCJAF@?$AAg?$AAl@ 0000000180039840     libucrt:lcidtoname_downlevel.obj
 0002:0000b848       ??_C@_17CNJFBPG@?$AAk?$AAo?$AAk@ 0000000180039848     libucrt:lcidtoname_downlevel.obj
 0002:0000b850       ??_C@_17FFBJICPL@?$AAs?$AAy?$AAr@ 0000000180039850     libucrt:lcidtoname_downlevel.obj
 0002:0000b858       ??_C@_17KPNDCPAF@?$AAd?$AAi?$AAv@ 0000000180039858     libucrt:lcidtoname_downlevel.obj
 0002:0000b860       ??_C@_1M@OKAHONE@?$AAa?$AAr?$AA?9?$AAS?$AAA@ 0000000180039860     libucrt:lcidtoname_downlevel.obj
 0002:0000b870       ??_C@_1M@FFFIGIGK@?$AAb?$AAg?$AA?9?$AAB?$AAG@ 0000000180039870     libucrt:lcidtoname_downlevel.obj
 0002:0000b880       ??_C@_1M@BJNKEDC@?$AAc?$AAa?$AA?9?$AAE?$AAS@ 0000000180039880     libucrt:lcidtoname_downlevel.obj
 0002:0000b890       ??_C@_1M@IJJHFJHA@?$AAc?$AAs?$AA?9?$AAC?$AAZ@ 0000000180039890     libucrt:lcidtoname_downlevel.obj
 0002:0000b8a0       ??_C@_1M@CLPEOBGI@?$AAd?$AAa?$AA?9?$AAD?$AAK@ 00000001800398a0     libucrt:lcidtoname_downlevel.obj
 0002:0000b8b0       ??_C@_1M@MCMADGCB@?$AAd?$AAe?$AA?9?$AAD?$AAE@ 00000001800398b0     libucrt:lcidtoname_downlevel.obj
 0002:0000b8c0       ??_C@_1M@OOCKEMAM@?$AAe?$AAl?$AA?9?$AAG?$AAR@ 00000001800398c0     libucrt:lcidtoname_downlevel.obj
 0002:0000b8d0       ??_C@_1M@DDNJFGID@?$AAf?$AAi?$AA?9?$AAF?$AAI@ 00000001800398d0     libucrt:lcidtoname_downlevel.obj
 0002:0000b8e0       ??_C@_1M@GLIPPMAC@?$AAf?$AAr?$AA?9?$AAF?$AAR@ 00000001800398e0     libucrt:lcidtoname_downlevel.obj
 0002:0000b8f0       ??_C@_1M@GFMCHPE@?$AAh?$AAe?$AA?9?$AAI?$AAL@ 00000001800398f0     libucrt:lcidtoname_downlevel.obj
 0002:0000b900       ??_C@_1M@MHLPGNKM@?$AAh?$AAu?$AA?9?$AAH?$AAU@ 0000000180039900     libucrt:lcidtoname_downlevel.obj
 0002:0000b910       ??_C@_1M@LPDDNNPN@?$AAi?$AAs?$AA?9?$AAI?$AAS@ 0000000180039910     libucrt:lcidtoname_downlevel.obj
 0002:0000b920       ??_C@_1M@MADIPODN@?$AAi?$AAt?$AA?9?$AAI?$AAT@ 0000000180039920     libucrt:lcidtoname_downlevel.obj
 0002:0000b930       ??_C@_1M@IHBJJGG@?$AAn?$AAl?$AA?9?$AAN?$AAL@ 0000000180039930     libucrt:lcidtoname_downlevel.obj
 0002:0000b940       ??_C@_1M@EANAGDL@?$AAn?$AAb?$AA?9?$AAN?$AAO@ 0000000180039940     libucrt:lcidtoname_downlevel.obj
 0002:0000b950       ??_C@_1M@NEIEMEGP@?$AAp?$AAl?$AA?9?$AAP?$AAL@ 0000000180039950     libucrt:lcidtoname_downlevel.obj
 0002:0000b960       ??_C@_1M@BOCFIGEP@?$AAp?$AAt?$AA?9?$AAB?$AAR@ 0000000180039960     libucrt:lcidtoname_downlevel.obj
 0002:0000b970       ??_C@_1M@IMPFOPBG@?$AAr?$AAo?$AA?9?$AAR?$AAO@ 0000000180039970     libucrt:lcidtoname_downlevel.obj
 0002:0000b980       ??_C@_1M@IDNNEJMM@?$AAr?$AAu?$AA?9?$AAR?$AAU@ 0000000180039980     libucrt:lcidtoname_downlevel.obj
 0002:0000b990       ??_C@_1M@LILEEOGM@?$AAh?$AAr?$AA?9?$AAH?$AAR@ 0000000180039990     libucrt:lcidtoname_downlevel.obj
 0002:0000b9a0       ??_C@_1M@FKIFEHPB@?$AAs?$AAk?$AA?9?$AAS?$AAK@ 00000001800399a0     libucrt:lcidtoname_downlevel.obj
 0002:0000b9b0       ??_C@_1M@LJMAMNPJ@?$AAs?$AAq?$AA?9?$AAA?$AAL@ 00000001800399b0     libucrt:lcidtoname_downlevel.obj
 0002:0000b9c0       ??_C@_1M@GIAKDKJK@?$AAs?$AAv?$AA?9?$AAS?$AAE@ 00000001800399c0     libucrt:lcidtoname_downlevel.obj
 0002:0000b9d0       ??_C@_1M@MKJKIKCL@?$AAt?$AAh?$AA?9?$AAT?$AAH@ 00000001800399d0     libucrt:lcidtoname_downlevel.obj
 0002:0000b9e0       ??_C@_1M@MFLCCMPB@?$AAt?$AAr?$AA?9?$AAT?$AAR@ 00000001800399e0     libucrt:lcidtoname_downlevel.obj
 0002:0000b9f0       ??_C@_1M@OIJHDKJN@?$AAu?$AAr?$AA?9?$AAP?$AAK@ 00000001800399f0     libucrt:lcidtoname_downlevel.obj
 0002:0000ba00       ??_C@_1M@LHIPCIEK@?$AAi?$AAd?$AA?9?$AAI?$AAD@ 0000000180039a00     libucrt:lcidtoname_downlevel.obj
 0002:0000ba10       ??_C@_1M@MFMOBGI@?$AAu?$AAk?$AA?9?$AAU?$AAA@ 0000000180039a10     libucrt:lcidtoname_downlevel.obj
 0002:0000ba20       ??_C@_1M@OBGLJIPL@?$AAb?$AAe?$AA?9?$AAB?$AAY@ 0000000180039a20     libucrt:lcidtoname_downlevel.obj
 0002:0000ba30       ??_C@_1M@BCFAJEAD@?$AAs?$AAl?$AA?9?$AAS?$AAI@ 0000000180039a30     libucrt:lcidtoname_downlevel.obj
 0002:0000ba40       ??_C@_1M@FKFFEDDN@?$AAe?$AAt?$AA?9?$AAE?$AAE@ 0000000180039a40     libucrt:lcidtoname_downlevel.obj
 0002:0000ba50       ??_C@_1M@KGKKAACI@?$AAl?$AAv?$AA?9?$AAL?$AAV@ 0000000180039a50     libucrt:lcidtoname_downlevel.obj
 0002:0000ba60       ??_C@_1M@IFGBIJO@?$AAl?$AAt?$AA?9?$AAL?$AAT@ 0000000180039a60     libucrt:lcidtoname_downlevel.obj
 0002:0000ba70       ??_C@_1M@FGEAHEDM@?$AAf?$AAa?$AA?9?$AAI?$AAR@ 0000000180039a70     libucrt:lcidtoname_downlevel.obj
 0002:0000ba80       ??_C@_1M@KBMAIBFN@?$AAv?$AAi?$AA?9?$AAV?$AAN@ 0000000180039a80     libucrt:lcidtoname_downlevel.obj
 0002:0000ba90       ??_C@_1M@GPCBKDJK@?$AAh?$AAy?$AA?9?$AAA?$AAM@ 0000000180039a90     libucrt:lcidtoname_downlevel.obj
 0002:0000baa0       ??_C@_1BG@BECMDDJB@?$AAa?$AAz?$AA?9?$AAA?$AAZ?$AA?9?$AAL?$AAa?$AAt?$AAn@ 0000000180039aa0     libucrt:lcidtoname_downlevel.obj
 0002:0000bab8       ??_C@_1M@MAOFCAEA@?$AAe?$AAu?$AA?9?$AAE?$AAS@ 0000000180039ab8     libucrt:lcidtoname_downlevel.obj
 0002:0000bac8       ??_C@_1M@IGHABKPI@?$AAm?$AAk?$AA?9?$AAM?$AAK@ 0000000180039ac8     libucrt:lcidtoname_downlevel.obj
 0002:0000bad8       ??_C@_1M@IAIGNEJG@?$AAt?$AAn?$AA?9?$AAZ?$AAA@ 0000000180039ad8     libucrt:lcidtoname_downlevel.obj
 0002:0000bae8       ??_C@_1M@IIJCOJFA@?$AAx?$AAh?$AA?9?$AAZ?$AAA@ 0000000180039ae8     libucrt:lcidtoname_downlevel.obj
 0002:0000baf8       ??_C@_1M@LGPJHNJH@?$AAz?$AAu?$AA?9?$AAZ?$AAA@ 0000000180039af8     libucrt:lcidtoname_downlevel.obj
 0002:0000bb08       ??_C@_1M@HOKAOIO@?$AAa?$AAf?$AA?9?$AAZ?$AAA@ 0000000180039b08     libucrt:lcidtoname_downlevel.obj
 0002:0000bb18       ??_C@_1M@DPCLHLIE@?$AAk?$AAa?$AA?9?$AAG?$AAE@ 0000000180039b18     libucrt:lcidtoname_downlevel.obj
 0002:0000bb28       ??_C@_1M@BLKMHJBI@?$AAf?$AAo?$AA?9?$AAF?$AAO@ 0000000180039b28     libucrt:lcidtoname_downlevel.obj
 0002:0000bb38       ??_C@_1M@LGGJAPPB@?$AAh?$AAi?$AA?9?$AAI?$AAN@ 0000000180039b38     libucrt:lcidtoname_downlevel.obj
 0002:0000bb48       ??_C@_1M@FIKPIHFE@?$AAm?$AAt?$AA?9?$AAM?$AAT@ 0000000180039b48     libucrt:lcidtoname_downlevel.obj
 0002:0000bb58       ??_C@_1M@HEGGPBFA@?$AAs?$AAe?$AA?9?$AAN?$AAO@ 0000000180039b58     libucrt:lcidtoname_downlevel.obj
 0002:0000bb68       ??_C@_1M@EIBJEEPA@?$AAm?$AAs?$AA?9?$AAM?$AAY@ 0000000180039b68     libucrt:lcidtoname_downlevel.obj
 0002:0000bb78       ??_C@_1M@FHLBGMPP@?$AAk?$AAk?$AA?9?$AAK?$AAZ@ 0000000180039b78     libucrt:lcidtoname_downlevel.obj
 0002:0000bb88       ??_C@_1M@NGJJLCGI@?$AAk?$AAy?$AA?9?$AAK?$AAG@ 0000000180039b88     libucrt:lcidtoname_downlevel.obj
 0002:0000bb98       ??_C@_1M@GIENNBFC@?$AAs?$AAw?$AA?9?$AAK?$AAE@ 0000000180039b98     libucrt:lcidtoname_downlevel.obj
 0002:0000bba8       ??_C@_1BG@NDGMJIMJ@?$AAu?$AAz?$AA?9?$AAU?$AAZ?$AA?9?$AAL?$AAa?$AAt?$AAn@ 0000000180039ba8     libucrt:lcidtoname_downlevel.obj
 0002:0000bbc0       ??_C@_1M@IDCCIHBC@?$AAt?$AAt?$AA?9?$AAR?$AAU@ 0000000180039bc0     libucrt:lcidtoname_downlevel.obj
 0002:0000bbd0       ??_C@_1M@LOICPMOJ@?$AAb?$AAn?$AA?9?$AAI?$AAN@ 0000000180039bd0     libucrt:lcidtoname_downlevel.obj
 0002:0000bbe0       ??_C@_1M@KPKKNEAH@?$AAp?$AAa?$AA?9?$AAI?$AAN@ 0000000180039be0     libucrt:lcidtoname_downlevel.obj
 0002:0000bbf0       ??_C@_1M@PJGPPBOG@?$AAg?$AAu?$AA?9?$AAI?$AAN@ 0000000180039bf0     libucrt:lcidtoname_downlevel.obj
 0002:0000bc00       ??_C@_1M@KMKMOPHI@?$AAt?$AAa?$AA?9?$AAI?$AAN@ 0000000180039c00     libucrt:lcidtoname_downlevel.obj
 0002:0000bc10       ??_C@_1M@KFEHEPAC@?$AAt?$AAe?$AA?9?$AAI?$AAN@ 0000000180039c10     libucrt:lcidtoname_downlevel.obj
 0002:0000bc20       ??_C@_1M@CDCLMGHI@?$AAk?$AAn?$AA?9?$AAI?$AAN@ 0000000180039c20     libucrt:lcidtoname_downlevel.obj
 0002:0000bc30       ??_C@_1M@MIODLDKF@?$AAm?$AAl?$AA?9?$AAI?$AAN@ 0000000180039c30     libucrt:lcidtoname_downlevel.obj
 0002:0000bc40       ??_C@_1M@PBIEACPO@?$AAm?$AAr?$AA?9?$AAI?$AAN@ 0000000180039c40     libucrt:lcidtoname_downlevel.obj
 0002:0000bc50       ??_C@_1M@NIDEAGPH@?$AAs?$AAa?$AA?9?$AAI?$AAN@ 0000000180039c50     libucrt:lcidtoname_downlevel.obj
 0002:0000bc60       ??_C@_1M@FHIHCBIO@?$AAm?$AAn?$AA?9?$AAM?$AAN@ 0000000180039c60     libucrt:lcidtoname_downlevel.obj
 0002:0000bc70       ??_C@_1M@JAIJPENP@?$AAc?$AAy?$AA?9?$AAG?$AAB@ 0000000180039c70     libucrt:lcidtoname_downlevel.obj
 0002:0000bc80       ??_C@_1M@PHGFBEPN@?$AAg?$AAl?$AA?9?$AAE?$AAS@ 0000000180039c80     libucrt:lcidtoname_downlevel.obj
 0002:0000bc90       ??_C@_1O@KPIPDNCP@?$AAk?$AAo?$AAk?$AA?9?$AAI?$AAN@ 0000000180039c90     libucrt:lcidtoname_downlevel.obj
 0002:0000bca0       ??_C@_1O@KNHJLDJA@?$AAs?$AAy?$AAr?$AA?9?$AAS?$AAY@ 0000000180039ca0     libucrt:lcidtoname_downlevel.obj
 0002:0000bcb0       ??_C@_1O@MKEKBLAH@?$AAd?$AAi?$AAv?$AA?9?$AAM?$AAV@ 0000000180039cb0     libucrt:lcidtoname_downlevel.obj
 0002:0000bcc0       ??_C@_1O@OHDCKDDF@?$AAq?$AAu?$AAz?$AA?9?$AAB?$AAO@ 0000000180039cc0     libucrt:lcidtoname_downlevel.obj
 0002:0000bcd0       ??_C@_1M@LEPJNLFD@?$AAn?$AAs?$AA?9?$AAZ?$AAA@ 0000000180039cd0     libucrt:lcidtoname_downlevel.obj
 0002:0000bce0       ??_C@_1M@OMLEIIJB@?$AAm?$AAi?$AA?9?$AAN?$AAZ@ 0000000180039ce0     libucrt:lcidtoname_downlevel.obj
 0002:0000bcf0       ??_C@_1M@PMPEAILG@?$AAa?$AAr?$AA?9?$AAI?$AAQ@ 0000000180039cf0     libucrt:lcidtoname_downlevel.obj
 0002:0000bd00       ??_C@_1M@CNKPNOEE@?$AAd?$AAe?$AA?9?$AAC?$AAH@ 0000000180039d00     libucrt:lcidtoname_downlevel.obj
 0002:0000bd10       ??_C@_1M@LKMGMLKO@?$AAe?$AAn?$AA?9?$AAG?$AAB@ 0000000180039d10     libucrt:lcidtoname_downlevel.obj
 0002:0000bd20       ??_C@_1M@PGKJFFGL@?$AAe?$AAs?$AA?9?$AAM?$AAX@ 0000000180039d20     libucrt:lcidtoname_downlevel.obj
 0002:0000bd30       ??_C@_1M@DNNANBDC@?$AAf?$AAr?$AA?9?$AAB?$AAE@ 0000000180039d30     libucrt:lcidtoname_downlevel.obj
 0002:0000bd40       ??_C@_1M@HLGMDFHM@?$AAi?$AAt?$AA?9?$AAC?$AAH@ 0000000180039d40     libucrt:lcidtoname_downlevel.obj
 0002:0000bd50       ??_C@_1M@CLLBGJH@?$AAn?$AAl?$AA?9?$AAB?$AAE@ 0000000180039d50     libucrt:lcidtoname_downlevel.obj
 0002:0000bd60       ??_C@_1M@BODBOGLF@?$AAn?$AAn?$AA?9?$AAN?$AAO@ 0000000180039d60     libucrt:lcidtoname_downlevel.obj
 0002:0000bd70       ??_C@_1M@HFFAHKAD@?$AAp?$AAt?$AA?9?$AAP?$AAT@ 0000000180039d70     libucrt:lcidtoname_downlevel.obj
 0002:0000bd80       ??_C@_1BG@LNOAKHIE@?$AAs?$AAr?$AA?9?$AAS?$AAP?$AA?9?$AAL?$AAa?$AAt?$AAn@ 0000000180039d80     libucrt:lcidtoname_downlevel.obj
 0002:0000bd98       ??_C@_1M@HBMHBGAK@?$AAs?$AAv?$AA?9?$AAF?$AAI@ 0000000180039d98     libucrt:lcidtoname_downlevel.obj
 0002:0000bda8       ??_C@_1BG@DGCJGJBE@?$AAa?$AAz?$AA?9?$AAA?$AAZ?$AA?9?$AAC?$AAy?$AAr?$AAl@ 0000000180039da8     libucrt:lcidtoname_downlevel.obj
 0002:0000bdc0       ??_C@_1M@KEJDAAHB@?$AAs?$AAe?$AA?9?$AAS?$AAE@ 0000000180039dc0     libucrt:lcidtoname_downlevel.obj
 0002:0000bdd0       ??_C@_1M@HEIBJJAD@?$AAm?$AAs?$AA?9?$AAB?$AAN@ 0000000180039dd0     libucrt:lcidtoname_downlevel.obj
 0002:0000bde0       ??_C@_1BG@PBGJMCEM@?$AAu?$AAz?$AA?9?$AAU?$AAZ?$AA?9?$AAC?$AAy?$AAr?$AAl@ 0000000180039de0     libucrt:lcidtoname_downlevel.obj
 0002:0000bdf8       ??_C@_1O@LAOBCMDF@?$AAq?$AAu?$AAz?$AA?9?$AAE?$AAC@ 0000000180039df8     libucrt:lcidtoname_downlevel.obj
 0002:0000be08       ??_C@_1M@POEEMAIO@?$AAa?$AAr?$AA?9?$AAE?$AAG@ 0000000180039e08     libucrt:lcidtoname_downlevel.obj
 0002:0000be18       ??_C@_1M@EFAKDEDL@?$AAz?$AAh?$AA?9?$AAH?$AAK@ 0000000180039e18     libucrt:lcidtoname_downlevel.obj
 0002:0000be28       ??_C@_1M@HKKIJHGI@?$AAd?$AAe?$AA?9?$AAA?$AAT@ 0000000180039e28     libucrt:lcidtoname_downlevel.obj
 0002:0000be38       ??_C@_1M@KBFBEHJF@?$AAe?$AAn?$AA?9?$AAA?$AAU@ 0000000180039e38     libucrt:lcidtoname_downlevel.obj
 0002:0000be48       ??_C@_1M@MNPLFAAH@?$AAe?$AAs?$AA?9?$AAE?$AAS@ 0000000180039e48     libucrt:lcidtoname_downlevel.obj
 0002:0000be58       ??_C@_1M@HJOOJFMA@?$AAf?$AAr?$AA?9?$AAC?$AAA@ 0000000180039e58     libucrt:lcidtoname_downlevel.obj
 0002:0000be68       ??_C@_1BG@JPOFPNAB@?$AAs?$AAr?$AA?9?$AAS?$AAP?$AA?9?$AAC?$AAy?$AAr?$AAl@ 0000000180039e68     libucrt:lcidtoname_downlevel.obj
 0002:0000be80       ??_C@_1M@LNFOCMOB@?$AAs?$AAe?$AA?9?$AAF?$AAI@ 0000000180039e80     libucrt:lcidtoname_downlevel.obj
 0002:0000be90       ??_C@_1O@MGJBOAMB@?$AAq?$AAu?$AAz?$AA?9?$AAP?$AAE@ 0000000180039e90     libucrt:lcidtoname_downlevel.obj
 0002:0000bea0       ??_C@_1M@GJINLBOK@?$AAa?$AAr?$AA?9?$AAL?$AAY@ 0000000180039ea0     libucrt:lcidtoname_downlevel.obj
 0002:0000beb0       ??_C@_1M@GGMNHJNL@?$AAz?$AAh?$AA?9?$AAS?$AAG@ 0000000180039eb0     libucrt:lcidtoname_downlevel.obj
 0002:0000bec0       ??_C@_1M@HOIKODND@?$AAd?$AAe?$AA?9?$AAL?$AAU@ 0000000180039ec0     libucrt:lcidtoname_downlevel.obj
 0002:0000bed0       ??_C@_1M@DDOCCGFG@?$AAe?$AAn?$AA?9?$AAC?$AAA@ 0000000180039ed0     libucrt:lcidtoname_downlevel.obj
 0002:0000bee0       ??_C@_1M@BNOEMJLF@?$AAe?$AAs?$AA?9?$AAG?$AAT@ 0000000180039ee0     libucrt:lcidtoname_downlevel.obj
 0002:0000bef0       ??_C@_1M@EOGNKEK@?$AAf?$AAr?$AA?9?$AAC?$AAH@ 0000000180039ef0     libucrt:lcidtoname_downlevel.obj
 0002:0000bf00       ??_C@_1M@FLIDJFHL@?$AAh?$AAr?$AA?9?$AAB?$AAA@ 0000000180039f00     libucrt:lcidtoname_downlevel.obj
 0002:0000bf10       ??_C@_1O@FMCELNAJ@?$AAs?$AAm?$AAj?$AA?9?$AAN?$AAO@ 0000000180039f10     libucrt:lcidtoname_downlevel.obj
 0002:0000bf20       ??_C@_1M@JHGLJMGJ@?$AAa?$AAr?$AA?9?$AAD?$AAZ@ 0000000180039f20     libucrt:lcidtoname_downlevel.obj
 0002:0000bf30       ??_C@_1M@JKKFDCNP@?$AAz?$AAh?$AA?9?$AAM?$AAO@ 0000000180039f30     libucrt:lcidtoname_downlevel.obj
 0002:0000bf40       ??_C@_1M@GEEFALPE@?$AAd?$AAe?$AA?9?$AAL?$AAI@ 0000000180039f40     libucrt:lcidtoname_downlevel.obj
 0002:0000bf50       ??_C@_1M@IGEOFBG@?$AAe?$AAn?$AA?9?$AAN?$AAZ@ 0000000180039f50     libucrt:lcidtoname_downlevel.obj
 0002:0000bf60       ??_C@_1M@KDBONEHP@?$AAe?$AAs?$AA?9?$AAC?$AAR@ 0000000180039f60     libucrt:lcidtoname_downlevel.obj
 0002:0000bf70       ??_C@_1M@FHMDOHNN@?$AAf?$AAr?$AA?9?$AAL?$AAU@ 0000000180039f70     libucrt:lcidtoname_downlevel.obj
 0002:0000bf80       ??_C@_1BG@NFKKMAFG@?$AAb?$AAs?$AA?9?$AAB?$AAA?$AA?9?$AAL?$AAa?$AAt?$AAn@ 0000000180039f80     libucrt:lcidtoname_downlevel.obj
 0002:0000bf98       ??_C@_1O@IMNBEMCI@?$AAs?$AAm?$AAj?$AA?9?$AAS?$AAE@ 0000000180039f98     libucrt:lcidtoname_downlevel.obj
 0002:0000bfa8       ??_C@_1M@DHHMBNDP@?$AAa?$AAr?$AA?9?$AAM?$AAA@ 0000000180039fa8     libucrt:lcidtoname_downlevel.obj
 0002:0000bfb8       ??_C@_1M@BNBLJCGH@?$AAe?$AAn?$AA?9?$AAI?$AAE@ 0000000180039fb8     libucrt:lcidtoname_downlevel.obj
 0002:0000bfc8       ??_C@_1M@GEPAFMDL@?$AAe?$AAs?$AA?9?$AAP?$AAA@ 0000000180039fc8     libucrt:lcidtoname_downlevel.obj
 0002:0000bfd8       ??_C@_1M@OJONDMDL@?$AAf?$AAr?$AA?9?$AAM?$AAC@ 0000000180039fd8     libucrt:lcidtoname_downlevel.obj
 0002:0000bfe8       ??_C@_1BG@OBCNFJB@?$AAs?$AAr?$AA?9?$AAB?$AAA?$AA?9?$AAL?$AAa?$AAt?$AAn@ 0000000180039fe8     libucrt:lcidtoname_downlevel.obj
 0002:0000c000       ??_C@_1O@KEMEEGPO@?$AAs?$AAm?$AAa?$AA?9?$AAN?$AAO@ 000000018003a000     libucrt:lcidtoname_downlevel.obj
 0002:0000c010       ??_C@_1M@ELMGFODK@?$AAa?$AAr?$AA?9?$AAT?$AAN@ 000000018003a010     libucrt:lcidtoname_downlevel.obj
 0002:0000c020       ??_C@_1M@BHDLHFAF@?$AAe?$AAn?$AA?9?$AAZ?$AAA@ 000000018003a020     libucrt:lcidtoname_downlevel.obj
 0002:0000c030       ??_C@_1M@BMGIGLIF@?$AAe?$AAs?$AA?9?$AAD?$AAO@ 000000018003a030     libucrt:lcidtoname_downlevel.obj
 0002:0000c040       ??_C@_1BG@CMBHIPBE@?$AAs?$AAr?$AA?9?$AAB?$AAA?$AA?9?$AAC?$AAy?$AAr?$AAl@ 000000018003a040     libucrt:lcidtoname_downlevel.obj
 0002:0000c058       ??_C@_1O@HEDBLHNP@?$AAs?$AAm?$AAa?$AA?9?$AAS?$AAE@ 000000018003a058     libucrt:lcidtoname_downlevel.obj
 0002:0000c068       ??_C@_1M@DAGCADIM@?$AAa?$AAr?$AA?9?$AAO?$AAM@ 000000018003a068     libucrt:lcidtoname_downlevel.obj
 0002:0000c078       ??_C@_1M@FODLMICG@?$AAe?$AAn?$AA?9?$AAJ?$AAM@ 000000018003a078     libucrt:lcidtoname_downlevel.obj
 0002:0000c088       ??_C@_1M@DNMLCIHB@?$AAe?$AAs?$AA?9?$AAV?$AAE@ 000000018003a088     libucrt:lcidtoname_downlevel.obj
 0002:0000c098       ??_C@_1O@EOKHMKJK@?$AAs?$AAm?$AAs?$AA?9?$AAF?$AAI@ 000000018003a098     libucrt:lcidtoname_downlevel.obj
 0002:0000c0a8       ??_C@_1M@CAFJMKOF@?$AAa?$AAr?$AA?9?$AAY?$AAE@ 000000018003a0a8     libucrt:lcidtoname_downlevel.obj
 0002:0000c0b8       ??_C@_1M@CBFHIJLI@?$AAe?$AAn?$AA?9?$AAC?$AAB@ 000000018003a0b8     libucrt:lcidtoname_downlevel.obj
 0002:0000c0c8       ??_C@_1M@BGNFLDN@?$AAe?$AAs?$AA?9?$AAC?$AAO@ 000000018003a0c8     libucrt:lcidtoname_downlevel.obj
 0002:0000c0d8       ??_C@_1O@JMPHMAMC@?$AAs?$AAm?$AAn?$AA?9?$AAF?$AAI@ 000000018003a0d8     libucrt:lcidtoname_downlevel.obj
 0002:0000c0e8       ??_C@_1M@JLANABKE@?$AAa?$AAr?$AA?9?$AAS?$AAY@ 000000018003a0e8     libucrt:lcidtoname_downlevel.obj
 0002:0000c0f8       ??_C@_1M@HPKGCFGN@?$AAe?$AAn?$AA?9?$AAB?$AAZ@ 000000018003a0f8     libucrt:lcidtoname_downlevel.obj
 0002:0000c108       ??_C@_1M@OLJCMLGM@?$AAe?$AAs?$AA?9?$AAP?$AAE@ 000000018003a108     libucrt:lcidtoname_downlevel.obj
 0002:0000c118       ??_C@_1M@MKKGFKLE@?$AAa?$AAr?$AA?9?$AAJ?$AAO@ 000000018003a118     libucrt:lcidtoname_downlevel.obj
 0002:0000c128       ??_C@_1M@EKPGLDNI@?$AAe?$AAn?$AA?9?$AAT?$AAT@ 000000018003a128     libucrt:lcidtoname_downlevel.obj
 0002:0000c138       ??_C@_1M@OONGHFHE@?$AAe?$AAs?$AA?9?$AAA?$AAR@ 000000018003a138     libucrt:lcidtoname_downlevel.obj
 0002:0000c148       ??_C@_1M@OOJFGBHE@?$AAa?$AAr?$AA?9?$AAL?$AAB@ 000000018003a148     libucrt:lcidtoname_downlevel.obj
 0002:0000c158       ??_C@_1M@GCEJHNEG@?$AAe?$AAn?$AA?9?$AAZ?$AAW@ 000000018003a158     libucrt:lcidtoname_downlevel.obj
 0002:0000c168       ??_C@_1M@JNOCAHJI@?$AAe?$AAs?$AA?9?$AAE?$AAC@ 000000018003a168     libucrt:lcidtoname_downlevel.obj
 0002:0000c178       ??_C@_1M@JEFHPGGB@?$AAa?$AAr?$AA?9?$AAK?$AAW@ 000000018003a178     libucrt:lcidtoname_downlevel.obj
 0002:0000c188       ??_C@_1M@MLKIBJOJ@?$AAe?$AAn?$AA?9?$AAP?$AAH@ 000000018003a188     libucrt:lcidtoname_downlevel.obj
 0002:0000c198       ??_C@_1M@BDNIPEND@?$AAe?$AAs?$AA?9?$AAC?$AAL@ 000000018003a198     libucrt:lcidtoname_downlevel.obj
 0002:0000c1a8       ??_C@_1M@MPNMEKBD@?$AAa?$AAr?$AA?9?$AAA?$AAE@ 000000018003a1a8     libucrt:lcidtoname_downlevel.obj
 0002:0000c1b8       ??_C@_1M@KBJALCPI@?$AAe?$AAs?$AA?9?$AAU?$AAY@ 000000018003a1b8     libucrt:lcidtoname_downlevel.obj
 0002:0000c1c8       ??_C@_1M@LLCCOAGA@?$AAa?$AAr?$AA?9?$AAB?$AAH@ 000000018003a1c8     libucrt:lcidtoname_downlevel.obj
 0002:0000c1d8       ??_C@_1M@PBFNCDEL@?$AAe?$AAs?$AA?9?$AAP?$AAY@ 000000018003a1d8     libucrt:lcidtoname_downlevel.obj
 0002:0000c1e8       ??_C@_1M@EDGINPNP@?$AAa?$AAr?$AA?9?$AAQ?$AAA@ 000000018003a1e8     libucrt:lcidtoname_downlevel.obj
 0002:0000c1f8       ??_C@_1M@MKDBIIJI@?$AAe?$AAs?$AA?9?$AAB?$AAO@ 000000018003a1f8     libucrt:lcidtoname_downlevel.obj
 0002:0000c208       ??_C@_1M@CPKKEBLD@?$AAe?$AAs?$AA?9?$AAS?$AAV@ 000000018003a208     libucrt:lcidtoname_downlevel.obj
 0002:0000c218       ??_C@_1M@NDBGMMJL@?$AAe?$AAs?$AA?9?$AAH?$AAN@ 000000018003a218     libucrt:lcidtoname_downlevel.obj
 0002:0000c228       ??_C@_1M@JIJIBHDP@?$AAe?$AAs?$AA?9?$AAN?$AAI@ 000000018003a228     libucrt:lcidtoname_downlevel.obj
 0002:0000c238       ??_C@_1M@CGFMKEEK@?$AAe?$AAs?$AA?9?$AAP?$AAR@ 000000018003a238     libucrt:lcidtoname_downlevel.obj
 0002:0000c248       ??_C@_1O@ICJHKIIK@?$AAz?$AAh?$AA?9?$AAC?$AAH?$AAT@ 000000018003a248     libucrt:lcidtoname_downlevel.obj
 0002:0000c258       ??_C@_15CLNEJCE@?$AAs?$AAr@ 000000018003a258     libucrt:lcidtoname_downlevel.obj
 0002:0000d0a0       ??_C@_1M@KAHEKEIG@?$AAa?$AAf?$AA?9?$AAz?$AAa@ 000000018003b0a0     libucrt:lcidtoname_downlevel.obj
 0002:0000d0b0       ??_C@_1M@GIECOABL@?$AAa?$AAr?$AA?9?$AAa?$AAe@ 000000018003b0b0     libucrt:lcidtoname_downlevel.obj
 0002:0000d0c0       ??_C@_1M@BMLMEKGI@?$AAa?$AAr?$AA?9?$AAb?$AAh@ 000000018003b0c0     libucrt:lcidtoname_downlevel.obj
 0002:0000d0d0       ??_C@_1M@DAPFDGGB@?$AAa?$AAr?$AA?9?$AAd?$AAz@ 000000018003b0d0     libucrt:lcidtoname_downlevel.obj
 0002:0000d0e0       ??_C@_1M@FJNKGKIG@?$AAa?$AAr?$AA?9?$AAe?$AAg@ 000000018003b0e0     libucrt:lcidtoname_downlevel.obj
 0002:0000d0f0       ??_C@_1M@FLGKKCLO@?$AAa?$AAr?$AA?9?$AAi?$AAq@ 000000018003b0f0     libucrt:lcidtoname_downlevel.obj
 0002:0000d100       ??_C@_1M@GNDIPALM@?$AAa?$AAr?$AA?9?$AAj?$AAo@ 000000018003b100     libucrt:lcidtoname_downlevel.obj
 0002:0000d110       ??_C@_1M@DDMJFMGJ@?$AAa?$AAr?$AA?9?$AAk?$AAw@ 000000018003b110     libucrt:lcidtoname_downlevel.obj
 0002:0000d120       ??_C@_1M@EJALMLHM@?$AAa?$AAr?$AA?9?$AAl?$AAb@ 000000018003b120     libucrt:lcidtoname_downlevel.obj
 0002:0000d130       ??_C@_1M@MOBDBLOC@?$AAa?$AAr?$AA?9?$AAl?$AAy@ 000000018003b130     libucrt:lcidtoname_downlevel.obj
 0002:0000d140       ??_C@_1M@JAOCLHDH@?$AAa?$AAr?$AA?9?$AAm?$AAa@ 000000018003b140     libucrt:lcidtoname_downlevel.obj
 0002:0000d150       ??_C@_1M@JHPMKJIE@?$AAa?$AAr?$AA?9?$AAo?$AAm@ 000000018003b150     libucrt:lcidtoname_downlevel.obj
 0002:0000d160       ??_C@_1M@OEPGHFNH@?$AAa?$AAr?$AA?9?$AAq?$AAa@ 000000018003b160     libucrt:lcidtoname_downlevel.obj
 0002:0000d170       ??_C@_1M@KJDONENM@?$AAa?$AAr?$AA?9?$AAs?$AAa@ 000000018003b170     libucrt:lcidtoname_downlevel.obj
 0002:0000d180       ??_C@_1M@DMJDKLKM@?$AAa?$AAr?$AA?9?$AAs?$AAy@ 000000018003b180     libucrt:lcidtoname_downlevel.obj
 0002:0000d190       ??_C@_1M@OMFIPEDC@?$AAa?$AAr?$AA?9?$AAt?$AAn@ 000000018003b190     libucrt:lcidtoname_downlevel.obj
 0002:0000d1a0       ??_C@_1M@IHMHGAON@?$AAa?$AAr?$AA?9?$AAy?$AAe@ 000000018003b1a0     libucrt:lcidtoname_downlevel.obj
 0002:0000d1b0       ??_C@_1BG@KDCPGJGB@?$AAa?$AAz?$AA?9?$AAa?$AAz?$AA?9?$AAc?$AAy?$AAr?$AAl@ 000000018003b1b0     libucrt:lcidtoname_downlevel.obj
 0002:0000d1c8       ??_C@_1BG@IBCKDDOE@?$AAa?$AAz?$AA?9?$AAa?$AAz?$AA?9?$AAl?$AAa?$AAt?$AAn@ 000000018003b1c8     libucrt:lcidtoname_downlevel.obj
 0002:0000d1e0       ??_C@_1M@EGPFDCPD@?$AAb?$AAe?$AA?9?$AAb?$AAy@ 000000018003b1e0     libucrt:lcidtoname_downlevel.obj
 0002:0000d1f0       ??_C@_1M@PCMGMCGC@?$AAb?$AAg?$AA?9?$AAb?$AAg@ 000000018003b1f0     libucrt:lcidtoname_downlevel.obj
 0002:0000d200       ??_C@_1M@BJBMFGOB@?$AAb?$AAn?$AA?9?$AAi?$AAn@ 000000018003b200     libucrt:lcidtoname_downlevel.obj
 0002:0000d210       ??_C@_1BG@EAKMMACD@?$AAb?$AAs?$AA?9?$AAb?$AAa?$AA?9?$AAl?$AAa?$AAt?$AAn@ 000000018003b210     libucrt:lcidtoname_downlevel.obj
 0002:0000d228       ??_C@_1M@KGADAODK@?$AAc?$AAa?$AA?9?$AAe?$AAs@ 000000018003b228     libucrt:lcidtoname_downlevel.obj
 0002:0000d238       ??_C@_1M@COAJPDHI@?$AAc?$AAs?$AA?9?$AAc?$AAz@ 000000018003b238     libucrt:lcidtoname_downlevel.obj
 0002:0000d248       ??_C@_1M@DHBHFONH@?$AAc?$AAy?$AA?9?$AAg?$AAb@ 000000018003b248     libucrt:lcidtoname_downlevel.obj
 0002:0000d258       ??_C@_1M@IMGKELGA@?$AAd?$AAa?$AA?9?$AAd?$AAk@ 000000018003b258     libucrt:lcidtoname_downlevel.obj
 0002:0000d268       ??_C@_1M@NNDGDNGA@?$AAd?$AAe?$AA?9?$AAa?$AAt@ 000000018003b268     libucrt:lcidtoname_downlevel.obj
 0002:0000d278       ??_C@_1M@IKDBHEEM@?$AAd?$AAe?$AA?9?$AAc?$AAh@ 000000018003b278     libucrt:lcidtoname_downlevel.obj
 0002:0000d288       ??_C@_1M@GFFOJMCJ@?$AAd?$AAe?$AA?9?$AAd?$AAe@ 000000018003b288     libucrt:lcidtoname_downlevel.obj
 0002:0000d298       ??_C@_1M@MDNLKBPM@?$AAd?$AAe?$AA?9?$AAl?$AAi@ 000000018003b298     libucrt:lcidtoname_downlevel.obj
 0002:0000d2a8       ??_C@_1M@NJBEEJNL@?$AAd?$AAe?$AA?9?$AAl?$AAu@ 000000018003b2a8     libucrt:lcidtoname_downlevel.obj
 0002:0000d2b8       ??_C@_1O@GNNELBAP@?$AAd?$AAi?$AAv?$AA?9?$AAm?$AAv@ 000000018003b2b8     libucrt:lcidtoname_downlevel.obj
 0002:0000d2c8       ??_C@_1M@EJLEOGAE@?$AAe?$AAl?$AA?9?$AAg?$AAr@ 000000018003b2c8     libucrt:lcidtoname_downlevel.obj
 0002:0000d2d8       ??_C@_1M@GMPONJN@?$AAe?$AAn?$AA?9?$AAa?$AAu@ 000000018003b2d8     libucrt:lcidtoname_downlevel.obj
 0002:0000d2e8       ??_C@_1M@NIDIIPGF@?$AAe?$AAn?$AA?9?$AAb?$AAz@ 000000018003b2e8     libucrt:lcidtoname_downlevel.obj
 0002:0000d2f8       ??_C@_1M@JEHMIMFO@?$AAe?$AAn?$AA?9?$AAc?$AAa@ 000000018003b2f8     libucrt:lcidtoname_downlevel.obj
 0002:0000d308       ??_C@_1M@IGMJCDLA@?$AAe?$AAn?$AA?9?$AAc?$AAb@ 000000018003b308     libucrt:lcidtoname_downlevel.obj
 0002:0000d318       ??_C@_1M@BNFIGBKG@?$AAe?$AAn?$AA?9?$AAg?$AAb@ 000000018003b318     libucrt:lcidtoname_downlevel.obj
 0002:0000d328       ??_C@_1M@LKIFDIGP@?$AAe?$AAn?$AA?9?$AAi?$AAe@ 000000018003b328     libucrt:lcidtoname_downlevel.obj
 0002:0000d338       ??_C@_1M@PJKFGCCO@?$AAe?$AAn?$AA?9?$AAj?$AAm@ 000000018003b338     libucrt:lcidtoname_downlevel.obj
 0002:0000d348       ??_C@_1M@KPPKEPBO@?$AAe?$AAn?$AA?9?$AAn?$AAz@ 000000018003b348     libucrt:lcidtoname_downlevel.obj
 0002:0000d358       ??_C@_1M@GMDGLDOB@?$AAe?$AAn?$AA?9?$AAp?$AAh@ 000000018003b358     libucrt:lcidtoname_downlevel.obj
 0002:0000d368       ??_C@_1M@ONGIBJNA@?$AAe?$AAn?$AA?9?$AAt?$AAt@ 000000018003b368     libucrt:lcidtoname_downlevel.obj
 0002:0000d378       ??_C@_1M@LLODPCMM@?$AAe?$AAn?$AA?9?$AAu?$AAs@ 000000018003b378     libucrt:lcidtoname_downlevel.obj
 0002:0000d388       ??_C@_1M@LAKFNPAN@?$AAe?$AAn?$AA?9?$AAz?$AAa@ 000000018003b388     libucrt:lcidtoname_downlevel.obj
 0002:0000d398       ??_C@_1M@MFNHNHEO@?$AAe?$AAn?$AA?9?$AAz?$AAw@ 000000018003b398     libucrt:lcidtoname_downlevel.obj
 0002:0000d3a8       ??_C@_1M@EJEINPHM@?$AAe?$AAs?$AA?9?$AAa?$AAr@ 000000018003b3a8     libucrt:lcidtoname_downlevel.obj
 0002:0000d3b8       ??_C@_1M@GNKPCCJA@?$AAe?$AAs?$AA?9?$AAb?$AAo@ 000000018003b3b8     libucrt:lcidtoname_downlevel.obj
 0002:0000d3c8       ??_C@_1M@LEEGFONL@?$AAe?$AAs?$AA?9?$AAc?$AAl@ 000000018003b3c8     libucrt:lcidtoname_downlevel.obj
 0002:0000d3d8       ??_C@_1M@KGPDPBDF@?$AAe?$AAs?$AA?9?$AAc?$AAo@ 000000018003b3d8     libucrt:lcidtoname_downlevel.obj
 0002:0000d3e8       ??_C@_1M@EIAHOHH@?$AAe?$AAs?$AA?9?$AAc?$AAr@ 000000018003b3e8     libucrt:lcidtoname_downlevel.obj
 0002:0000d3f8       ??_C@_1M@LLPGMBIN@?$AAe?$AAs?$AA?9?$AAd?$AAo@ 000000018003b3f8     libucrt:lcidtoname_downlevel.obj
 0002:0000d408       ??_C@_1M@DKHMKNJA@?$AAe?$AAs?$AA?9?$AAe?$AAc@ 000000018003b408     libucrt:lcidtoname_downlevel.obj
 0002:0000d418       ??_C@_1M@GKGFPKAP@?$AAe?$AAs?$AA?9?$AAe?$AAs@ 000000018003b418     libucrt:lcidtoname_downlevel.obj
 0002:0000d428       ??_C@_1M@LKHKGDLN@?$AAe?$AAs?$AA?9?$AAg?$AAt@ 000000018003b428     libucrt:lcidtoname_downlevel.obj
 0002:0000d438       ??_C@_1M@HEIIGGJD@?$AAe?$AAs?$AA?9?$AAh?$AAn@ 000000018003b438     libucrt:lcidtoname_downlevel.obj
 0002:0000d448       ??_C@_1M@FBDHPPGD@?$AAe?$AAs?$AA?9?$AAm?$AAx@ 000000018003b448     libucrt:lcidtoname_downlevel.obj
 0002:0000d458       ??_C@_1M@DPAGLNDH@?$AAe?$AAs?$AA?9?$AAn?$AAi@ 000000018003b458     libucrt:lcidtoname_downlevel.obj
 0002:0000d468       ??_C@_1M@MDGOPGDD@?$AAe?$AAs?$AA?9?$AAp?$AAa@ 000000018003b468     libucrt:lcidtoname_downlevel.obj
 0002:0000d478       ??_C@_1M@EMAMGBGE@?$AAe?$AAs?$AA?9?$AAp?$AAe@ 000000018003b478     libucrt:lcidtoname_downlevel.obj
 0002:0000d488       ??_C@_1M@IBMCAOEC@?$AAe?$AAs?$AA?9?$AAp?$AAr@ 000000018003b488     libucrt:lcidtoname_downlevel.obj
 0002:0000d498       ??_C@_1M@FGMDIJED@?$AAe?$AAs?$AA?9?$AAp?$AAy@ 000000018003b498     libucrt:lcidtoname_downlevel.obj
 0002:0000d4a8       ??_C@_1M@IIDEOLLL@?$AAe?$AAs?$AA?9?$AAs?$AAv@ 000000018003b4a8     libucrt:lcidtoname_downlevel.obj
 0002:0000d4b8       ??_C@_1M@GAOBIPA@?$AAe?$AAs?$AA?9?$AAu?$AAy@ 000000018003b4b8     libucrt:lcidtoname_downlevel.obj
 0002:0000d4c8       ??_C@_1M@JKFFICHJ@?$AAe?$AAs?$AA?9?$AAv?$AAe@ 000000018003b4c8     libucrt:lcidtoname_downlevel.obj
 0002:0000d4d8       ??_C@_1M@PNMLOJDF@?$AAe?$AAt?$AA?9?$AAe?$AAe@ 000000018003b4d8     libucrt:lcidtoname_downlevel.obj
 0002:0000d4e8       ??_C@_1M@GHHLIKEI@?$AAe?$AAu?$AA?9?$AAe?$AAs@ 000000018003b4e8     libucrt:lcidtoname_downlevel.obj
 0002:0000d4f8       ??_C@_1M@PBNONODE@?$AAf?$AAa?$AA?9?$AAi?$AAr@ 000000018003b4f8     libucrt:lcidtoname_downlevel.obj
 0002:0000d508       ??_C@_1M@JEEHPMIL@?$AAf?$AAi?$AA?9?$AAf?$AAi@ 000000018003b508     libucrt:lcidtoname_downlevel.obj
 0002:0000d518       ??_C@_1M@LMDCNDBA@?$AAf?$AAo?$AA?9?$AAf?$AAo@ 000000018003b518     libucrt:lcidtoname_downlevel.obj
 0002:0000d528       ??_C@_1M@JKEOHLDK@?$AAf?$AAr?$AA?9?$AAb?$AAe@ 000000018003b528     libucrt:lcidtoname_downlevel.obj
 0002:0000d538       ??_C@_1M@NOHADPMI@?$AAf?$AAr?$AA?9?$AAc?$AAa@ 000000018003b538     libucrt:lcidtoname_downlevel.obj
 0002:0000d548       ??_C@_1M@KDHIHAEC@?$AAf?$AAr?$AA?9?$AAc?$AAh@ 000000018003b548     libucrt:lcidtoname_downlevel.obj
 0002:0000d558       ??_C@_1M@MMBBFGAK@?$AAf?$AAr?$AA?9?$AAf?$AAr@ 000000018003b558     libucrt:lcidtoname_downlevel.obj
 0002:0000d568       ??_C@_1M@PAFNENNF@?$AAf?$AAr?$AA?9?$AAl?$AAu@ 000000018003b568     libucrt:lcidtoname_downlevel.obj
 0002:0000d578       ??_C@_1M@EOHDJGDD@?$AAf?$AAr?$AA?9?$AAm?$AAc@ 000000018003b578     libucrt:lcidtoname_downlevel.obj
 0002:0000d588       ??_C@_1M@FAPLLOPF@?$AAg?$AAl?$AA?9?$AAe?$AAs@ 000000018003b588     libucrt:lcidtoname_downlevel.obj
 0002:0000d598       ??_C@_1M@FOPBFLOO@?$AAg?$AAu?$AA?9?$AAi?$AAn@ 000000018003b598     libucrt:lcidtoname_downlevel.obj
 0002:0000d5a8       ??_C@_1M@KBMCINPM@?$AAh?$AAe?$AA?9?$AAi?$AAl@ 000000018003b5a8     libucrt:lcidtoname_downlevel.obj
 0002:0000d5b8       ??_C@_1M@BBPHKFPJ@?$AAh?$AAi?$AA?9?$AAi?$AAn@ 000000018003b5b8     libucrt:lcidtoname_downlevel.obj
 0002:0000d5c8       ??_C@_1M@PMBNDPHD@?$AAh?$AAr?$AA?9?$AAb?$AAa@ 000000018003b5c8     libucrt:lcidtoname_downlevel.obj
 0002:0000d5d8       ??_C@_1M@BPCKOEGE@?$AAh?$AAr?$AA?9?$AAh?$AAr@ 000000018003b5d8     libucrt:lcidtoname_downlevel.obj
 0002:0000d5e8       ??_C@_1M@GACBMHKE@?$AAh?$AAu?$AA?9?$AAh?$AAu@ 000000018003b5e8     libucrt:lcidtoname_downlevel.obj
 0002:0000d5f8       ??_C@_1M@MILPAJJC@?$AAh?$AAy?$AA?9?$AAa?$AAm@ 000000018003b5f8     libucrt:lcidtoname_downlevel.obj
 0002:0000d608       ??_C@_1M@BABBICEC@?$AAi?$AAd?$AA?9?$AAi?$AAd@ 000000018003b608     libucrt:lcidtoname_downlevel.obj
 0002:0000d618       ??_C@_1M@BIKNHHPF@?$AAi?$AAs?$AA?9?$AAi?$AAs@ 000000018003b618     libucrt:lcidtoname_downlevel.obj
 0002:0000d628       ??_C@_1M@NMPCJPHE@?$AAi?$AAt?$AA?9?$AAc?$AAh@ 000000018003b628     libucrt:lcidtoname_downlevel.obj
 0002:0000d638       ??_C@_1M@GHKGFEDF@?$AAi?$AAt?$AA?9?$AAi?$AAt@ 000000018003b638     libucrt:lcidtoname_downlevel.obj
 0002:0000d648       ??_C@_1M@NIEJCJJA@?$AAj?$AAa?$AA?9?$AAj?$AAp@ 000000018003b648     libucrt:lcidtoname_downlevel.obj
 0002:0000d658       ??_C@_1M@JILFNBIM@?$AAk?$AAa?$AA?9?$AAg?$AAe@ 000000018003b658     libucrt:lcidtoname_downlevel.obj
 0002:0000d668       ??_C@_1M@PACPMGPH@?$AAk?$AAk?$AA?9?$AAk?$AAz@ 000000018003b668     libucrt:lcidtoname_downlevel.obj
 0002:0000d678       ??_C@_1M@IELFGMHA@?$AAk?$AAn?$AA?9?$AAi?$AAn@ 000000018003b678     libucrt:lcidtoname_downlevel.obj
 0002:0000d688       ??_C@_1O@IBBJHCH@?$AAk?$AAo?$AAk?$AA?9?$AAi?$AAn@ 000000018003b688     libucrt:lcidtoname_downlevel.obj
 0002:0000d698       ??_C@_1M@DMHAEOGC@?$AAk?$AAo?$AA?9?$AAk?$AAr@ 000000018003b698     libucrt:lcidtoname_downlevel.obj
 0002:0000d6a8       ??_C@_1M@HBAHBIGA@?$AAk?$AAy?$AA?9?$AAk?$AAg@ 000000018003b6a8     libucrt:lcidtoname_downlevel.obj
 0002:0000d6b8       ??_C@_1M@KPMILCJG@?$AAl?$AAt?$AA?9?$AAl?$AAt@ 000000018003b6b8     libucrt:lcidtoname_downlevel.obj
 0002:0000d6c8       ??_C@_1M@BDEKKCA@?$AAl?$AAv?$AA?9?$AAl?$AAv@ 000000018003b6c8     libucrt:lcidtoname_downlevel.obj
 0002:0000d6d8       ??_C@_1M@ELCKCCJJ@?$AAm?$AAi?$AA?9?$AAn?$AAz@ 000000018003b6d8     libucrt:lcidtoname_downlevel.obj
 0002:0000d6e8       ??_C@_1M@CBOOLAPA@?$AAm?$AAk?$AA?9?$AAm?$AAk@ 000000018003b6e8     libucrt:lcidtoname_downlevel.obj
 0002:0000d6f8       ??_C@_1M@GPHNBJKN@?$AAm?$AAl?$AA?9?$AAi?$AAn@ 000000018003b6f8     libucrt:lcidtoname_downlevel.obj
 0002:0000d708       ??_C@_1M@PABJILIG@?$AAm?$AAn?$AA?9?$AAm?$AAn@ 000000018003b708     libucrt:lcidtoname_downlevel.obj
 0002:0000d718       ??_C@_1M@FGBKKIPG@?$AAm?$AAr?$AA?9?$AAi?$AAn@ 000000018003b718     libucrt:lcidtoname_downlevel.obj
 0002:0000d728       ??_C@_1M@NDBPDDAL@?$AAm?$AAs?$AA?9?$AAb?$AAn@ 000000018003b728     libucrt:lcidtoname_downlevel.obj
 0002:0000d738       ??_C@_1M@OPIHOOPI@?$AAm?$AAs?$AA?9?$AAm?$AAy@ 000000018003b738     libucrt:lcidtoname_downlevel.obj
 0002:0000d748       ??_C@_1M@PPDBCNFM@?$AAm?$AAt?$AA?9?$AAm?$AAt@ 000000018003b748     libucrt:lcidtoname_downlevel.obj
 0002:0000d758       ??_C@_1M@KDJDKMDD@?$AAn?$AAb?$AA?9?$AAn?$AAo@ 000000018003b758     libucrt:lcidtoname_downlevel.obj
 0002:0000d768       ??_C@_1M@KFCFLMJP@?$AAn?$AAl?$AA?9?$AAb?$AAe@ 000000018003b768     libucrt:lcidtoname_downlevel.obj
 0002:0000d778       ??_C@_1M@KPOPDDGO@?$AAn?$AAl?$AA?9?$AAn?$AAl@ 000000018003b778     libucrt:lcidtoname_downlevel.obj
 0002:0000d788       ??_C@_1M@LJKPEMLN@?$AAn?$AAn?$AA?9?$AAn?$AAo@ 000000018003b788     libucrt:lcidtoname_downlevel.obj
 0002:0000d798       ??_C@_1M@BDGHHBFL@?$AAn?$AAs?$AA?9?$AAz?$AAa@ 000000018003b798     libucrt:lcidtoname_downlevel.obj
 0002:0000d7a8       ??_C@_1M@IDEHOAP@?$AAp?$AAa?$AA?9?$AAi?$AAn@ 000000018003b7a8     libucrt:lcidtoname_downlevel.obj
 0002:0000d7b8       ??_C@_1M@HDBKGOGH@?$AAp?$AAl?$AA?9?$AAp?$AAl@ 000000018003b7b8     libucrt:lcidtoname_downlevel.obj
 0002:0000d7c8       ??_C@_1M@LJLLCMEH@?$AAp?$AAt?$AA?9?$AAb?$AAr@ 000000018003b7c8     libucrt:lcidtoname_downlevel.obj
 0002:0000d7d8       ??_C@_1M@NCMONAAL@?$AAp?$AAt?$AA?9?$AAp?$AAt@ 000000018003b7d8     libucrt:lcidtoname_downlevel.obj
 0002:0000d7e8       ??_C@_1O@EAKMAJDN@?$AAq?$AAu?$AAz?$AA?9?$AAb?$AAo@ 000000018003b7e8     libucrt:lcidtoname_downlevel.obj
 0002:0000d7f8       ??_C@_1O@BHHPIGDN@?$AAq?$AAu?$AAz?$AA?9?$AAe?$AAc@ 000000018003b7f8     libucrt:lcidtoname_downlevel.obj
 0002:0000d808       ??_C@_1O@GBAPEKMJ@?$AAq?$AAu?$AAz?$AA?9?$AAp?$AAe@ 000000018003b808     libucrt:lcidtoname_downlevel.obj
 0002:0000d818       ??_C@_1M@CLGLEFBO@?$AAr?$AAo?$AA?9?$AAr?$AAo@ 000000018003b818     libucrt:lcidtoname_downlevel.obj
 0002:0000d828       ??_C@_1M@CEEDODME@?$AAr?$AAu?$AA?9?$AAr?$AAu@ 000000018003b828     libucrt:lcidtoname_downlevel.obj
 0002:0000d838       ??_C@_1M@HPKKKMPP@?$AAs?$AAa?$AA?9?$AAi?$AAn@ 000000018003b838     libucrt:lcidtoname_downlevel.obj
 0002:0000d848       ??_C@_1M@BKMAIGOJ@?$AAs?$AAe?$AA?9?$AAf?$AAi@ 000000018003b848     libucrt:lcidtoname_downlevel.obj
 0002:0000d858       ??_C@_1M@NDPIFLFI@?$AAs?$AAe?$AA?9?$AAn?$AAo@ 000000018003b858     libucrt:lcidtoname_downlevel.obj
 0002:0000d868       ??_C@_1M@DANKKHJ@?$AAs?$AAe?$AA?9?$AAs?$AAe@ 000000018003b868     libucrt:lcidtoname_downlevel.obj
 0002:0000d878       ??_C@_1M@PNBLONPJ@?$AAs?$AAk?$AA?9?$AAs?$AAk@ 000000018003b878     libucrt:lcidtoname_downlevel.obj
 0002:0000d888       ??_C@_1M@LFMODOAL@?$AAs?$AAl?$AA?9?$AAs?$AAi@ 000000018003b888     libucrt:lcidtoname_downlevel.obj
 0002:0000d898       ??_C@_1O@DFKOMPG@?$AAs?$AAm?$AAa?$AA?9?$AAn?$AAo@ 000000018003b898     libucrt:lcidtoname_downlevel.obj
 0002:0000d8a8       ??_C@_1O@NDKPBNNH@?$AAs?$AAm?$AAa?$AA?9?$AAs?$AAe@ 000000018003b8a8     libucrt:lcidtoname_downlevel.obj
 0002:0000d8b8       ??_C@_1O@PLLKBHAB@?$AAs?$AAm?$AAj?$AA?9?$AAn?$AAo@ 000000018003b8b8     libucrt:lcidtoname_downlevel.obj
 0002:0000d8c8       ??_C@_1O@CLEPOGCA@?$AAs?$AAm?$AAj?$AA?9?$AAs?$AAe@ 000000018003b8c8     libucrt:lcidtoname_downlevel.obj
 0002:0000d8d8       ??_C@_1O@DLGJGKMK@?$AAs?$AAm?$AAn?$AA?9?$AAf?$AAi@ 000000018003b8d8     libucrt:lcidtoname_downlevel.obj
 0002:0000d8e8       ??_C@_1O@OJDJGAJC@?$AAs?$AAm?$AAs?$AA?9?$AAf?$AAi@ 000000018003b8e8     libucrt:lcidtoname_downlevel.obj
 0002:0000d8f8       ??_C@_1M@BOFOGHPB@?$AAs?$AAq?$AA?9?$AAa?$AAl@ 000000018003b8f8     libucrt:lcidtoname_downlevel.obj
 0002:0000d908       ??_C@_1BG@LJBBIPGB@?$AAs?$AAr?$AA?9?$AAb?$AAa?$AA?9?$AAc?$AAy?$AAr?$AAl@ 000000018003b908     libucrt:lcidtoname_downlevel.obj
 0002:0000d920       ??_C@_1BG@JLBENFOE@?$AAs?$AAr?$AA?9?$AAb?$AAa?$AA?9?$AAl?$AAa?$AAt?$AAn@ 000000018003b920     libucrt:lcidtoname_downlevel.obj
 0002:0000d938       ??_C@_1BG@KODPNHE@?$AAs?$AAr?$AA?9?$AAs?$AAp?$AA?9?$AAc?$AAy?$AAr?$AAl@ 000000018003b938     libucrt:lcidtoname_downlevel.obj
 0002:0000d950       ??_C@_1BG@CIOGKHPB@?$AAs?$AAr?$AA?9?$AAs?$AAp?$AA?9?$AAl?$AAa?$AAt?$AAn@ 000000018003b950     libucrt:lcidtoname_downlevel.obj
 0002:0000d968       ??_C@_1M@NGFJLMAC@?$AAs?$AAv?$AA?9?$AAf?$AAi@ 000000018003b968     libucrt:lcidtoname_downlevel.obj
 0002:0000d978       ??_C@_1M@MPJEJAJC@?$AAs?$AAv?$AA?9?$AAs?$AAe@ 000000018003b978     libucrt:lcidtoname_downlevel.obj
 0002:0000d988       ??_C@_1M@MPNDHLFK@?$AAs?$AAw?$AA?9?$AAk?$AAe@ 000000018003b988     libucrt:lcidtoname_downlevel.obj
 0002:0000d998       ??_C@_1O@KOHBJJI@?$AAs?$AAy?$AAr?$AA?9?$AAs?$AAy@ 000000018003b998     libucrt:lcidtoname_downlevel.obj
 0002:0000d9a8       ??_C@_1M@LDCEFHA@?$AAt?$AAa?$AA?9?$AAi?$AAn@ 000000018003b9a8     libucrt:lcidtoname_downlevel.obj
 0002:0000d9b8       ??_C@_1M@CNJOFAK@?$AAt?$AAe?$AA?9?$AAi?$AAn@ 000000018003b9b8     libucrt:lcidtoname_downlevel.obj
 0002:0000d9c8       ??_C@_1M@GNAECACD@?$AAt?$AAh?$AA?9?$AAt?$AAh@ 000000018003b9c8     libucrt:lcidtoname_downlevel.obj
 0002:0000d9d8       ??_C@_1M@CHBIHOJO@?$AAt?$AAn?$AA?9?$AAz?$AAa@ 000000018003b9d8     libucrt:lcidtoname_downlevel.obj
 0002:0000d9e8       ??_C@_1M@GCCMIGPJ@?$AAt?$AAr?$AA?9?$AAt?$AAr@ 000000018003b9e8     libucrt:lcidtoname_downlevel.obj
 0002:0000d9f8       ??_C@_1M@CELMCNBK@?$AAt?$AAt?$AA?9?$AAr?$AAu@ 000000018003b9f8     libucrt:lcidtoname_downlevel.obj
 0002:0000da08       ??_C@_1M@KLMCELGA@?$AAu?$AAk?$AA?9?$AAu?$AAa@ 000000018003ba08     libucrt:lcidtoname_downlevel.obj
 0002:0000da18       ??_C@_1M@EPAJJAJF@?$AAu?$AAr?$AA?9?$AAp?$AAk@ 000000018003ba18     libucrt:lcidtoname_downlevel.obj
 0002:0000da28       ??_C@_1BG@GEGPMCDJ@?$AAu?$AAz?$AA?9?$AAu?$AAz?$AA?9?$AAc?$AAy?$AAr?$AAl@ 000000018003ba28     libucrt:lcidtoname_downlevel.obj
 0002:0000da40       ??_C@_1BG@EGGKJILM@?$AAu?$AAz?$AA?9?$AAu?$AAz?$AA?9?$AAl?$AAa?$AAt?$AAn@ 000000018003ba40     libucrt:lcidtoname_downlevel.obj
 0002:0000da58       ??_C@_1M@GFOCLFF@?$AAv?$AAi?$AA?9?$AAv?$AAn@ 000000018003ba58     libucrt:lcidtoname_downlevel.obj
 0002:0000da68       ??_C@_1M@CPAMEDFI@?$AAx?$AAh?$AA?9?$AAz?$AAa@ 000000018003ba68     libucrt:lcidtoname_downlevel.obj
 0002:0000da78       ??_C@_1O@EBKIFIGN@?$AAz?$AAh?$AA?9?$AAc?$AAh?$AAs@ 000000018003ba78     libucrt:lcidtoname_downlevel.obj
 0002:0000da88       ??_C@_1O@NMHPGANE@?$AAz?$AAh?$AA?9?$AAc?$AAh?$AAt@ 000000018003ba88     libucrt:lcidtoname_downlevel.obj
 0002:0000da98       ??_C@_1M@LPINJOMC@?$AAz?$AAh?$AA?9?$AAc?$AAn@ 000000018003ba98     libucrt:lcidtoname_downlevel.obj
 0002:0000daa8       ??_C@_1M@OCJEJODD@?$AAz?$AAh?$AA?9?$AAh?$AAk@ 000000018003baa8     libucrt:lcidtoname_downlevel.obj
 0002:0000dab8       ??_C@_1M@DNDLJINH@?$AAz?$AAh?$AA?9?$AAm?$AAo@ 000000018003bab8     libucrt:lcidtoname_downlevel.obj
 0002:0000dac8       ??_C@_1M@MBFDNDND@?$AAz?$AAh?$AA?9?$AAs?$AAg@ 000000018003bac8     libucrt:lcidtoname_downlevel.obj
 0002:0000dad8       ??_C@_1M@IMEPLEPE@?$AAz?$AAh?$AA?9?$AAt?$AAw@ 000000018003bad8     libucrt:lcidtoname_downlevel.obj
 0002:0000dae8       ??_C@_1M@BBGHNHJP@?$AAz?$AAu?$AA?9?$AAz?$AAa@ 000000018003bae8     libucrt:lcidtoname_downlevel.obj
 0002:0000daf8       ??_C@_1BA@BALFACEM@?$AAC?$AAO?$AAN?$AAO?$AAU?$AAT?$AA$@ 000000018003baf8     libucrt:initcon.obj
 0002:0000dd70       __log10_256_lead           000000018003bd70     libucrt:log10_256_lead_tail_table.obj
 0002:0000e580       __log10_256_tail           000000018003c580     libucrt:log10_256_lead_tail_table.obj
 0002:0000ed88       ??_C@_03OEIAHPBN@INF@      000000018003cd88     format.obj
 0002:0000ed8c       ??_C@_03OJHLLCGB@inf@      000000018003cd8c     format.obj
 0002:0000ed90       ??_C@_03LKNCIKJB@NAN@      000000018003cd90     format.obj
 0002:0000ed94       ??_C@_03LHCJEHON@nan@      000000018003cd94     format.obj
 0002:0000ed98       ??_C@_0BA@ELKIONDK@bad?5locale?5name@ 000000018003cd98     format.obj
 0002:0000eda8       ??_C@_00CNPNBAHC@@         000000018003cda8     format.obj
 0002:0000edb0       ??_C@_08EPJLHIJG@bad?5cast@ 000000018003cdb0     format.obj
 0002:0000edc0       ??_C@_0BA@JFNIOLAK@string?5too?5long@ 000000018003cdc0     format.obj
 0002:0000edd0       ??_C@_0BF@KINCDENJ@bad?5array?5new?5length@ 000000018003cdd0     format.obj
 0002:0000ede8       ??_C@_0BC@EOODALEL@Unknown?5exception@ 000000018003cde8     format.obj
 0002:0000edfc       ??_C@_01MNNFJEPP@?$DM@     000000018003cdfc     imgui.obj
 0002:0000ee00       ??_C@_01PPODPGHN@?$DO@     000000018003ce00     imgui.obj
 0002:0000ee04       ??_C@_02DPKJAMEF@?$CFd@    000000018003ce04     imgui.obj
 0002:000130a8       ??_C@_01NBENCBCI@?$CK@     00000001800410a8     imgui.obj
 0002:000130ac       ??_C@_02NJPGOMH@?$CFf@     00000001800410ac     imguivariouscontrols.obj
 0002:000130b0       ??_C@_02GMHACPFF@?$CFu@    00000001800410b0     imgui_demo.obj
 0002:000130b4       ??_C@_05LLAMLEHD@?$CFI64d@ 00000001800410b4     imgui_demo.obj
 0002:000130bc       ??_C@_02FODMEDOG@?$DM?$DM@ 00000001800410bc     imgui_demo.obj
 0002:000130c0       ??_C@_02GPIOPFAK@?$DO?$DO@ 00000001800410c0     imgui_demo.obj
 0002:000130c4       ??_C@_05OINFJHGD@?$CFI64u@ 00000001800410c4     imgui_rangeslider.obj
 0002:000130cc       ??_C@_03DLDNIBIK@?$CFlf@   00000001800410cc     imgui_rangeslider.obj
 0002:000130d0       ??_C@_01JOAMLHOP@?9@       00000001800410d0     imgui_widgets.obj
 0002:000130d4       ??_C@_01MIFGBAGJ@?$CL@     00000001800410d4     imgui_widgets.obj
 0002:000130d8       ??_C@_07POILLFDI@log?4txt@ 00000001800410d8     logsys.obj
 0002:000130e0       ??_8?$basic_ifstream@DU?$char_traits@D@std@@@std@@7B@ 00000001800410e0     logsys.obj
 0002:000130f0       ??_7?$basic_istream@DU?$char_traits@D@std@@@std@@6B@ 00000001800410f0     logsys.obj
 0002:00013100       ??_7?$basic_ifstream@DU?$char_traits@D@std@@@std@@6B@ 0000000180041100     logsys.obj
 0002:00013110       ??_7?$basic_streambuf@DU?$char_traits@D@std@@@std@@6B@ 0000000180041110     logsys.obj
 0002:00013190       ??_7?$basic_filebuf@DU?$char_traits@D@std@@@std@@6B@ 0000000180041190     logsys.obj
 0002:00013208       ??_8?$basic_ofstream@DU?$char_traits@D@std@@@std@@7B@ 0000000180041208     logsys.obj
 0002:00013218       ??_7?$basic_ostream@DU?$char_traits@D@std@@@std@@6B@ 0000000180041218     logsys.obj
 0002:00013228       ??_7?$basic_ofstream@DU?$char_traits@D@std@@@std@@6B@ 0000000180041228     logsys.obj
 0002:00013230       ??_C@_0BF@PHHKMMFD@ios_base?3?3badbit?5set@ 0000000180041230     logsys.obj
 0002:00013248       ??_C@_0BG@FMKFHCIL@ios_base?3?3failbit?5set@ 0000000180041248     logsys.obj
 0002:00013260       ??_C@_0BF@OOHOMBOF@ios_base?3?3eofbit?5set@ 0000000180041260     logsys.obj
 0002:00013278       ??_C@_08LLGCOLLL@iostream@ 0000000180041278     logsys.obj
 0002:00013288       ?_Iostream_error@?4??message@_Iostream_error_category2@std@@UEBA?AV?$basic_string@DU?$char_traits@D@std@@V?$allocator@D@2@@3@H@Z@4QBDB 0000000180041288     logsys.obj
 0002:000132a0       ??_C@_0BI@CFPLBAOH@invalid?5string?5position@ 00000001800412a0     logsys.obj
 0002:000132b8       ??_C@_0BB@FIPAOBBI@create_directory@ 00000001800412b8     logsys.obj
 0002:000132cc       ??_C@_02LMMGGCAJ@?3?5@     00000001800412cc     logsys.obj
 0002:000132d0       ??_C@_06FHFOAHML@system@   00000001800412d0     logsys.obj
 0002:000132d8       ?_Unknown_error@?4??message@_System_error_category@std@@UEBA?AV?$basic_string@DU?$char_traits@D@std@@V?$allocator@D@2@@3@H@Z@4QBDB 00000001800412d8     logsys.obj
 0002:000132e8       ??_C@_07DCLBNMLN@generic@  00000001800412e8     logsys.obj
 0002:000132f8       ??_7_System_error_category@std@@6B@ 00000001800412f8     logsys.obj
 0002:00013328       ??_C@_03NONCDIOG@?3?5?$CC@ 0000000180041328     logsys.obj
 0002:0001332c       ??_C@_04PHMHGEMA@?$CC?0?5?$CC@ 000000018004132c     logsys.obj
 0002:00013340       ??_7filesystem_error@filesystem@std@@6B@ 0000000180041340     logsys.obj
 0002:00013350       ??_C@_06OGCODMJI@exists@   0000000180041350     logsys.obj
 0002:00013360       ??_7?$basic_ios@DU?$char_traits@D@std@@@std@@6B@ 0000000180041360     logsys.obj
 0002:00013370       ??_7ios_base@std@@6B@      0000000180041370     logsys.obj
 0002:00013380       ??_7?$wrapexcept@Vsystem_error@system@boost@@@boost@@6Bclone_base@exception_detail@1@@ 0000000180041380     server.obj
 0002:000133a0       ??_7?$wrapexcept@Vsystem_error@system@boost@@@boost@@6Bsystem_error@system@1@@ 00000001800413a0     server.obj
 0002:000133b8       ??_7?$wrapexcept@Vsystem_error@system@boost@@@boost@@6Bexception@1@@ 00000001800413b8     server.obj
 0002:000133c8       ??_7system_error@system@boost@@6B@ 00000001800413c8     server.obj
 0002:000133e0       ??_7clone_base@exception_detail@boost@@6B@ 00000001800413e0     server.obj
 0002:00013400       ??_7exception@boost@@6B@   0000000180041400     server.obj
 0002:00013408       ??_C@_03GIEDOLBE@tss@      0000000180041408     server.obj
 0002:00013410       ??_C@_0M@EIJLOEPD@std?3unknown@ 0000000180041410     server.obj
 0002:00013420       ??_C@_0BJ@JCCHPEGB@Unknown?5interop?5error?5?$CFd@ 0000000180041420     server.obj
 0002:00013448       ??_7interop_error_category@detail@system@boost@@6B@ 0000000180041448     server.obj
 0002:00013480       ??_C@_0O@NIPGCINC@Unknown?5error@ 0000000180041480     server.obj
 0002:00013498       ??_7generic_error_category@detail@system@boost@@6B@ 0000000180041498     server.obj
 0002:000134d0       ??_C@_0BD@EHCCJHF@Unknown?5error?5?$CI?$CFd?$CJ@ 00000001800414d0     server.obj
 0002:000134f0       ??_7system_error_category@detail@system@boost@@6B@ 00000001800414f0     server.obj
 0002:00013528       ??_C@_0N@HKIDHHCI@Underwater_P@ 0000000180041528     SixMansPlugin-Rework.obj
 0002:00013538       ??_C@_06DAIAOCLN@Park_P@   0000000180041538     SixMansPlugin-Rework.obj
 0002:00013540       ??_C@_0N@MPNIONOM@Park_Night_P@ 0000000180041540     SixMansPlugin-Rework.obj
 0002:00013550       ??_C@_0N@JAADMLOC@Park_Rainy_P@ 0000000180041550     SixMansPlugin-Rework.obj
 0002:00013560       ??_C@_04NGBKBKHG@cs_p@     0000000180041560     SixMansPlugin-Rework.obj
 0002:00013568       ??_C@_08OCIFLFMB@cs_day_p@ 0000000180041568     SixMansPlugin-Rework.obj
 0002:00013574       ??_C@_04DNPADDM@bb_p@      0000000180041574     SixMansPlugin-Rework.obj
 0002:00013580       ??_C@_08DOINHGK@outlaw_p@  0000000180041580     SixMansPlugin-Rework.obj
 0002:00013590       ??_C@_09IKHPNKOC@Stadium_P@ 0000000180041590     SixMansPlugin-Rework.obj
 0002:000135a0       ??_C@_0BD@GFEOBEA@Stadium_Race_Day_p@ 00000001800415a0     SixMansPlugin-Rework.obj
 0002:000135b8       ??_C@_0O@PBJHKKKB@stadium_day_p@ 00000001800415b8     SixMansPlugin-Rework.obj
 0002:000135c8       ??_C@_0BB@HDLMKDPD@Stadium_Winter_P@ 00000001800415c8     SixMansPlugin-Rework.obj
 0002:000135e0       ??_C@_0BA@HFJCLIDN@Stadium_Foggy_P@ 00000001800415e0     SixMansPlugin-Rework.obj
 0002:000135f0       ??_C@_06ELNMAJKL@farm_p@   00000001800415f0     SixMansPlugin-Rework.obj
 0002:000135f8       ??_C@_0N@NGCEOEKM@Farm_Night_P@ 00000001800415f8     SixMansPlugin-Rework.obj
 0002:00013608       ??_C@_0O@FAAMBGLD@CHN_Stadium_P@ 0000000180041608     SixMansPlugin-Rework.obj
 0002:00013618       ??_C@_0BC@CHMLOFPB@CHN_Stadium_Day_P@ 0000000180041618     SixMansPlugin-Rework.obj
 0002:00013630       ??_C@_0O@NBNCOAMN@EuroStadium_P@ 0000000180041630     SixMansPlugin-Rework.obj
 0002:00013640       ??_C@_0BE@HHBOMOPD@EuroStadium_Night_P@ 0000000180041640     SixMansPlugin-Rework.obj
 0002:00013658       ??_C@_0BI@IIMAJKN@eurostadium_snownight_p@ 0000000180041658     SixMansPlugin-Rework.obj
 0002:00013670       ??_C@_0BE@CIMFOIPN@EuroStadium_Rainy_P@ 0000000180041670     SixMansPlugin-Rework.obj
 0002:00013688       ??_C@_0BE@GPGIEKMK@NeoTokyo_Standard_P@ 0000000180041688     SixMansPlugin-Rework.obj
 0002:000136a0       ??_C@_07BHLLEILF@music_p@  00000001800416a0     SixMansPlugin-Rework.obj
 0002:000136a8       ??_C@_07PDJEEDII@cs_hw_p@  00000001800416a8     SixMansPlugin-Rework.obj
 0002:000136b0       ??_C@_07OPGONOEF@beach_P@  00000001800416b0     SixMansPlugin-Rework.obj
 0002:000136b8       ??_C@_0O@IOEPCBON@beach_night_p@ 00000001800416b8     SixMansPlugin-Rework.obj
 0002:000136c8       ??_C@_0P@PAPNCHOB@arc_standard_p@ 00000001800416c8     SixMansPlugin-Rework.obj
 0002:000136d8       ??_C@_0P@IKMFBDLF@TrainStation_P@ 00000001800416d8     SixMansPlugin-Rework.obj
 0002:000136e8       ??_C@_0BE@NBOKLHGL@TrainStation_Dawn_P@ 00000001800416e8     SixMansPlugin-Rework.obj
 0002:00013700       ??_C@_0BF@DCNMMFKF@TrainStation_Night_P@ 0000000180041700     SixMansPlugin-Rework.obj
 0002:00013718       ??_C@_0BA@PPHCALEG@UtopiaStadium_P@ 0000000180041718     SixMansPlugin-Rework.obj
 0002:00013728       ??_C@_0BF@IDJDJBMP@UtopiaStadium_Dusk_P@ 0000000180041728     SixMansPlugin-Rework.obj
 0002:00013740       ??_C@_0BF@PHCEFDHD@UtopiaStadium_Snow_P@ 0000000180041740     SixMansPlugin-Rework.obj
 0002:00013758       ??_C@_0O@DNIOMOFF@wasteland_s_p@ 0000000180041758     SixMansPlugin-Rework.obj
 0002:00013768       ??_C@_0BE@LEBHBAN@wasteland_Night_S_P@ 0000000180041768     SixMansPlugin-Rework.obj
 0002:00013780       ??_C@_08DJBKGBMB@1?40?40?445@ 0000000180041780     SixMansPlugin-Rework.obj
 0002:00013790       ??_C@_0GG@DAJCNKFO@C?3?2Users?2tyler?2Documents?2C?$CL?$CL?5Re@ 0000000180041790     SixMansPlugin-Rework.obj
 0002:000137f8       ??_C@_0O@DMNBIIDE@SixMansPlugin@ 00000001800417f8     SixMansPlugin-Rework.obj
 0002:00013808       ??_C@_0BA@BLGJBKEA@Six?5Mans?5Plugin@ 0000000180041808     SixMansPlugin-Rework.obj
 0002:00013820       ??_7?$_Ref_count@VSixMansPlugin@@@std@@6B@ 0000000180041820     SixMansPlugin-Rework.obj
 0002:00013848       ??_7SixMansPlugin@@6B@     0000000180041848     SixMansPlugin-Rework.obj
 0002:00013860       ??_7BakkesModPlugin@Plugin@BakkesMod@@6B@ 0000000180041860     SixMansPlugin-Rework.obj
 0002:00013870       __xmm@00000000000000070000000000000000 0000000180041870     SixMansPlugin-Rework.obj
 0002:00013880       __xmm@000000000000000f0000000000000000 0000000180041880     SixMansPlugin-Rework.obj
 0002:000139c0       __Lcosfarray               00000001800419c0     libucrt:lsincosf_array.obj
 0002:000139f0       __Lsinfarray               00000001800419f0     libucrt:lsincosf_array.obj
 0002:00013a10       __L_2_by_pi_bits           0000000180041a10     libucrt:l2_by_pi_bits.obj
 0002:00013b60       ??_C@_04LAGPAAHP@sinf@     0000000180041b60     libucrt:sincos_special.obj
 0002:00013b70       _load_config_used          0000000180041b70     LIBCMT:loadcfg.obj
 0002:00013d80       _tls_used                  0000000180041d80     LIBCMT:tlssup.obj
 0002:00013da8       ??_R4out_of_range@std@@6B@ 0000000180041da8     libcpmt:xthrow.obj
 0002:00013dd0       ??_R3out_of_range@std@@8   0000000180041dd0     libcpmt:xthrow.obj
 0002:00013de8       ??_R2out_of_range@std@@8   0000000180041de8     libcpmt:xthrow.obj
 0002:00013e08       ??_R1A@?0A@EA@out_of_range@std@@8 0000000180041e08     libcpmt:xthrow.obj
 0002:00013e30       ??_R4_Locimp@locale@std@@6B@ 0000000180041e30     libcpmt:locale0.obj
 0002:00013e58       ??_R3_Locimp@locale@std@@8 0000000180041e58     libcpmt:locale0.obj
 0002:00013e70       ??_R2_Locimp@locale@std@@8 0000000180041e70     libcpmt:locale0.obj
 0002:00013e98       ??_R1A@?0A@EA@_Locimp@locale@std@@8 0000000180041e98     libcpmt:locale0.obj
 0002:00013ec0       ??_R4bad_exception@std@@6B@ 0000000180041ec0     libcpmt:excptptr.obj
 0002:00013ee8       ??_R3bad_exception@std@@8  0000000180041ee8     libcpmt:excptptr.obj
 0002:00013f00       ??_R2bad_exception@std@@8  0000000180041f00     libcpmt:excptptr.obj
 0002:00013f18       ??_R1A@?0A@EA@bad_exception@std@@8 0000000180041f18     libcpmt:excptptr.obj
 0002:00013f40       ??_R4type_info@@6B@        0000000180041f40     LIBCMT:std_type_info_static.obj
 0002:00013f68       ??_R3type_info@@8          0000000180041f68     LIBCMT:std_type_info_static.obj
 0002:00013f80       ??_R2type_info@@8          0000000180041f80     LIBCMT:std_type_info_static.obj
 0002:00013f90       ??_R1A@?0A@EA@type_info@@8 0000000180041f90     LIBCMT:std_type_info_static.obj
 0002:00013fb8       ??_R2facet@locale@std@@8   0000000180041fb8     format.obj
 0002:00013fd8       ??_R3facet@locale@std@@8   0000000180041fd8     format.obj
 0002:00013ff0       ??_R1A@?0A@EA@facet@locale@std@@8 0000000180041ff0     format.obj
 0002:00014018       ??_R1A@?0A@EA@_Crt_new_delete@std@@8 0000000180042018     format.obj
 0002:00014040       ??_R2_Crt_new_delete@std@@8 0000000180042040     format.obj
 0002:00014050       ??_R3_Crt_new_delete@std@@8 0000000180042050     format.obj
 0002:00014068       ??_R17?0A@EA@_Crt_new_delete@std@@8 0000000180042068     format.obj
 0002:00014090       ??_R1A@?0A@EA@bad_cast@std@@8 0000000180042090     format.obj
 0002:000140b8       ??_R2bad_cast@std@@8       00000001800420b8     format.obj
 0002:000140d0       ??_R3bad_cast@std@@8       00000001800420d0     format.obj
 0002:000140e8       ??_R4bad_cast@std@@6B@     00000001800420e8     format.obj
 0002:00014110       ??_R1A@?0A@EA@_Facet_base@std@@8 0000000180042110     format.obj
 0002:00014138       ??_R2_Facet_base@std@@8    0000000180042138     format.obj
 0002:00014148       ??_R3_Facet_base@std@@8    0000000180042148     format.obj
 0002:00014160       ??_R4_Facet_base@std@@6B@  0000000180042160     format.obj
 0002:00014188       ??_R4runtime_error@std@@6B@ 0000000180042188     format.obj
 0002:000141b0       ??_R2runtime_error@std@@8  00000001800421b0     format.obj
 0002:000141c8       ??_R3runtime_error@std@@8  00000001800421c8     format.obj
 0002:000141e0       ??_R1A@?0A@EA@runtime_error@std@@8 00000001800421e0     format.obj
 0002:00014208       ??_R1A@?0A@EA@bad_array_new_length@std@@8 0000000180042208     format.obj
 0002:00014230       ??_R2bad_array_new_length@std@@8 0000000180042230     format.obj
 0002:00014250       ??_R3bad_array_new_length@std@@8 0000000180042250     format.obj
 0002:00014268       ??_R4bad_array_new_length@std@@6B@ 0000000180042268     format.obj
 0002:00014290       ??_R1A@?0A@EA@bad_alloc@std@@8 0000000180042290     format.obj
 0002:000142b8       ??_R2bad_alloc@std@@8      00000001800422b8     format.obj
 0002:000142d0       ??_R3bad_alloc@std@@8      00000001800422d0     format.obj
 0002:000142e8       ??_R4bad_alloc@std@@6B@    00000001800422e8     format.obj
 0002:00014310       ??_R1A@?0A@EA@exception@std@@8 0000000180042310     format.obj
 0002:00014338       ??_R2exception@std@@8      0000000180042338     format.obj
 0002:00014348       ??_R3exception@std@@8      0000000180042348     format.obj
 0002:00014360       ??_R4exception@std@@6B@    0000000180042360     format.obj
 0002:00014388       ??_R2?$codecvt@DDU_Mbstatet@@@std@@8 0000000180042388     logsys.obj
 0002:000143b8       ??_R2?$basic_ofstream@DU?$char_traits@D@std@@@std@@8 00000001800423b8     logsys.obj
 0002:000143e8       ??_R2?$basic_ifstream@DU?$char_traits@D@std@@@std@@8 00000001800423e8     logsys.obj
 0002:00014418       ??_R2?$basic_filebuf@DU?$char_traits@D@std@@@std@@8 0000000180042418     logsys.obj
 0002:00014430       ??_R1A@?0A@EA@?$codecvt@DDU_Mbstatet@@@std@@8 0000000180042430     logsys.obj
 0002:00014458       ??_R1A@?0A@EA@?$basic_ofstream@DU?$char_traits@D@std@@@std@@8 0000000180042458     logsys.obj
 0002:00014480       ??_R1A@?0A@EA@?$basic_ifstream@DU?$char_traits@D@std@@@std@@8 0000000180042480     logsys.obj
 0002:000144a8       ??_R1A@?0A@EA@?$basic_filebuf@DU?$char_traits@D@std@@@std@@8 00000001800424a8     logsys.obj
 0002:000144d0       ??_R3?$codecvt@DDU_Mbstatet@@@std@@8 00000001800424d0     logsys.obj
 0002:000144e8       ??_R3?$basic_ofstream@DU?$char_traits@D@std@@@std@@8 00000001800424e8     logsys.obj
 0002:00014500       ??_R3?$basic_ifstream@DU?$char_traits@D@std@@@std@@8 0000000180042500     logsys.obj
 0002:00014518       ??_R3?$basic_filebuf@DU?$char_traits@D@std@@@std@@8 0000000180042518     logsys.obj
 0002:00014530       ??_R4?$codecvt@DDU_Mbstatet@@@std@@6B@ 0000000180042530     logsys.obj
 0002:00014558       ??_R4?$basic_ofstream@DU?$char_traits@D@std@@@std@@6B@ 0000000180042558     logsys.obj
 0002:00014580       ??_R4?$basic_ifstream@DU?$char_traits@D@std@@@std@@6B@ 0000000180042580     logsys.obj
 0002:000145a8       ??_R4?$basic_filebuf@DU?$char_traits@D@std@@@std@@6B@ 00000001800425a8     logsys.obj
 0002:000145d0       ??_R1A@?0A@EA@codecvt_base@std@@8 00000001800425d0     logsys.obj
 0002:000145f8       ??_R2codecvt_base@std@@8   00000001800425f8     logsys.obj
 0002:00014620       ??_R3codecvt_base@std@@8   0000000180042620     logsys.obj
 0002:00014638       ??_R1A@?0A@EA@?$basic_istream@DU?$char_traits@D@std@@@std@@8 0000000180042638     logsys.obj
 0002:00014660       ??_R2?$basic_istream@DU?$char_traits@D@std@@@std@@8 0000000180042660     logsys.obj
 0002:00014688       ??_R3?$basic_istream@DU?$char_traits@D@std@@@std@@8 0000000180042688     logsys.obj
 0002:000146a0       ??_R4?$basic_istream@DU?$char_traits@D@std@@@std@@6B@ 00000001800426a0     logsys.obj
 0002:000146c8       ??_R1A@?0A@EA@?$basic_streambuf@DU?$char_traits@D@std@@@std@@8 00000001800426c8     logsys.obj
 0002:000146f0       ??_R2?$basic_streambuf@DU?$char_traits@D@std@@@std@@8 00000001800426f0     logsys.obj
 0002:00014700       ??_R3?$basic_streambuf@DU?$char_traits@D@std@@@std@@8 0000000180042700     logsys.obj
 0002:00014718       ??_R4?$basic_streambuf@DU?$char_traits@D@std@@@std@@6B@ 0000000180042718     logsys.obj
 0002:00014740       ??_R1A@?0A@EA@?$ctype@D@std@@8 0000000180042740     logsys.obj
 0002:00014768       ??_R2ctype_base@std@@8     0000000180042768     logsys.obj
 0002:00014790       ??_R3ctype_base@std@@8     0000000180042790     logsys.obj
 0002:000147a8       ??_R1A@?0A@EA@ctype_base@std@@8 00000001800427a8     logsys.obj
 0002:000147d0       ??_R2?$ctype@D@std@@8      00000001800427d0     logsys.obj
 0002:00014800       ??_R3?$ctype@D@std@@8      0000000180042800     logsys.obj
 0002:00014818       ??_R4?$ctype@D@std@@6B@    0000000180042818     logsys.obj
 0002:00014840       ??_R1A@?0A@EA@?$basic_ostream@DU?$char_traits@D@std@@@std@@8 0000000180042840     logsys.obj
 0002:00014868       ??_R1A@A@3FA@?$basic_ios@DU?$char_traits@D@std@@@std@@8 0000000180042868     logsys.obj
 0002:00014890       ??_R1A@A@3EA@ios_base@std@@8 0000000180042890     logsys.obj
 0002:000148b8       ??_R17A@3EA@?$_Iosb@H@std@@8 00000001800428b8     logsys.obj
 0002:000148e0       ??_R2?$basic_ostream@DU?$char_traits@D@std@@@std@@8 00000001800428e0     logsys.obj
 0002:00014908       ??_R3?$basic_ostream@DU?$char_traits@D@std@@@std@@8 0000000180042908     logsys.obj
 0002:00014920       ??_R4?$basic_ostream@DU?$char_traits@D@std@@@std@@6B@ 0000000180042920     logsys.obj
 0002:00014948       ??_R1A@?0A@EA@_Iostream_error_category2@std@@8 0000000180042948     logsys.obj
 0002:00014970       ??_R2_Iostream_error_category2@std@@8 0000000180042970     logsys.obj
 0002:00014988       ??_R3_Iostream_error_category2@std@@8 0000000180042988     logsys.obj
 0002:000149a0       ??_R4_Iostream_error_category2@std@@6B@ 00000001800429a0     logsys.obj
 0002:000149c8       ??_R1A@?0A@EA@failure@ios_base@std@@8 00000001800429c8     logsys.obj
 0002:000149f0       ??_R2failure@ios_base@std@@8 00000001800429f0     logsys.obj
 0002:00014a20       ??_R3failure@ios_base@std@@8 0000000180042a20     logsys.obj
 0002:00014a38       ??_R4failure@ios_base@std@@6B@ 0000000180042a38     logsys.obj
 0002:00014a60       ??_R1A@?0A@EA@_System_error_category@std@@8 0000000180042a60     logsys.obj
 0002:00014a88       ??_R2_System_error_category@std@@8 0000000180042a88     logsys.obj
 0002:00014aa0       ??_R3_System_error_category@std@@8 0000000180042aa0     logsys.obj
 0002:00014ab8       ??_R4_System_error_category@std@@6B@ 0000000180042ab8     logsys.obj
 0002:00014ae0       ??_R1A@?0A@EA@_Generic_error_category@std@@8 0000000180042ae0     logsys.obj
 0002:00014b08       ??_R2error_category@std@@8 0000000180042b08     logsys.obj
 0002:00014b18       ??_R3error_category@std@@8 0000000180042b18     logsys.obj
 0002:00014b30       ??_R1A@?0A@EA@error_category@std@@8 0000000180042b30     logsys.obj
 0002:00014b58       ??_R2_Generic_error_category@std@@8 0000000180042b58     logsys.obj
 0002:00014b70       ??_R3_Generic_error_category@std@@8 0000000180042b70     logsys.obj
 0002:00014b88       ??_R4_Generic_error_category@std@@6B@ 0000000180042b88     logsys.obj
 0002:00014bb0       ??_R1A@?0A@EA@filesystem_error@filesystem@std@@8 0000000180042bb0     logsys.obj
 0002:00014bd8       ??_R2filesystem_error@filesystem@std@@8 0000000180042bd8     logsys.obj
 0002:00014c08       ??_R3filesystem_error@filesystem@std@@8 0000000180042c08     logsys.obj
 0002:00014c20       ??_R4filesystem_error@filesystem@std@@6B@ 0000000180042c20     logsys.obj
 0002:00014c48       ??_R1A@?0A@EA@system_error@std@@8 0000000180042c48     logsys.obj
 0002:00014c70       ??_R2system_error@std@@8   0000000180042c70     logsys.obj
 0002:00014c98       ??_R3system_error@std@@8   0000000180042c98     logsys.obj
 0002:00014cb0       ??_R4system_error@std@@6B@ 0000000180042cb0     logsys.obj
 0002:00014cd8       ??_R1A@?0A@EA@_System_error@std@@8 0000000180042cd8     logsys.obj
 0002:00014d00       ??_R2_System_error@std@@8  0000000180042d00     logsys.obj
 0002:00014d20       ??_R3_System_error@std@@8  0000000180042d20     logsys.obj
 0002:00014d38       ??_R4_System_error@std@@6B@ 0000000180042d38     logsys.obj
 0002:00014d60       ??_R1A@?0A@EA@?$basic_ios@DU?$char_traits@D@std@@@std@@8 0000000180042d60     logsys.obj
 0002:00014d88       ??_R2?$basic_ios@DU?$char_traits@D@std@@@std@@8 0000000180042d88     logsys.obj
 0002:00014da8       ??_R3?$basic_ios@DU?$char_traits@D@std@@@std@@8 0000000180042da8     logsys.obj
 0002:00014dc0       ??_R4?$basic_ios@DU?$char_traits@D@std@@@std@@6B@ 0000000180042dc0     logsys.obj
 0002:00014de8       ??_R1A@?0A@EA@ios_base@std@@8 0000000180042de8     logsys.obj
 0002:00014e10       ??_R1A@?0A@EA@?$_Iosb@H@std@@8 0000000180042e10     logsys.obj
 0002:00014e38       ??_R2?$_Iosb@H@std@@8      0000000180042e38     logsys.obj
 0002:00014e48       ??_R3?$_Iosb@H@std@@8      0000000180042e48     logsys.obj
 0002:00014e60       ??_R17?0A@EA@?$_Iosb@H@std@@8 0000000180042e60     logsys.obj
 0002:00014e88       ??_R2ios_base@std@@8       0000000180042e88     logsys.obj
 0002:00014ea0       ??_R3ios_base@std@@8       0000000180042ea0     logsys.obj
 0002:00014eb8       ??_R4ios_base@std@@6B@     0000000180042eb8     logsys.obj
 0002:00014ee0       ??_R4?$wrapexcept@Vsystem_error@system@boost@@@boost@@6Bclone_base@exception_detail@1@@ 0000000180042ee0     server.obj
 0002:00014f08       ??_R4?$wrapexcept@Vsystem_error@system@boost@@@boost@@6Bsystem_error@system@1@@ 0000000180042f08     server.obj
 0002:00014f30       ??_R1A@?0A@EA@?$wrapexcept@Vsystem_error@system@boost@@@boost@@8 0000000180042f30     server.obj
 0002:00014f58       ??_R17?0A@EA@system_error@system@boost@@8 0000000180042f58     server.obj
 0002:00014f80       ??_R17?0A@EA@runtime_error@std@@8 0000000180042f80     server.obj
 0002:00014fa8       ??_R1FI@?0A@EA@exception@boost@@8 0000000180042fa8     server.obj
 0002:00014fd0       ??_R2?$wrapexcept@Vsystem_error@system@boost@@@boost@@8 0000000180042fd0     server.obj
 0002:00015008       ??_R3?$wrapexcept@Vsystem_error@system@boost@@@boost@@8 0000000180043008     server.obj
 0002:00015020       ??_R4?$wrapexcept@Vsystem_error@system@boost@@@boost@@6Bexception@1@@ 0000000180043020     server.obj
 0002:00015048       ??_R1A@?0A@EA@system_error@system@boost@@8 0000000180043048     server.obj
 0002:00015070       ??_R2system_error@system@boost@@8 0000000180043070     server.obj
 0002:00015090       ??_R3system_error@system@boost@@8 0000000180043090     server.obj
 0002:000150a8       ??_R4system_error@system@boost@@6B@ 00000001800430a8     server.obj
 0002:000150d0       ??_R2_Ref_count_base@std@@8 00000001800430d0     server.obj
 0002:000150e0       ??_R3_Ref_count_base@std@@8 00000001800430e0     server.obj
 0002:000150f8       ??_R1A@?0A@EA@_Ref_count_base@std@@8 00000001800430f8     server.obj
 0002:00015120       ??_R1A@?0A@EA@length_error@std@@8 0000000180043120     server.obj
 0002:00015148       ??_R2length_error@std@@8   0000000180043148     server.obj
 0002:00015168       ??_R3length_error@std@@8   0000000180043168     server.obj
 0002:00015180       ??_R4length_error@std@@6B@ 0000000180043180     server.obj
 0002:000151a8       ??_R1A@?0A@EA@logic_error@std@@8 00000001800431a8     server.obj
 0002:000151d0       ??_R2logic_error@std@@8    00000001800431d0     server.obj
 0002:000151e8       ??_R3logic_error@std@@8    00000001800431e8     server.obj
 0002:00015200       ??_R4logic_error@std@@6B@  0000000180043200     server.obj
 0002:00015228       ??_R17?0A@EA@exception@std@@8 0000000180043228     server.obj
 0002:00015250       ??_R1A@?0A@EA@clone_base@exception_detail@boost@@8 0000000180043250     server.obj
 0002:00015278       ??_R2clone_base@exception_detail@boost@@8 0000000180043278     server.obj
 0002:00015288       ??_R3clone_base@exception_detail@boost@@8 0000000180043288     server.obj
 0002:000152a0       ??_R4clone_base@exception_detail@boost@@6B@ 00000001800432a0     server.obj
 0002:000152c8       ??_R1A@?0A@EA@exception@boost@@8 00000001800432c8     server.obj
 0002:000152f0       ??_R2exception@boost@@8    00000001800432f0     server.obj
 0002:00015300       ??_R3exception@boost@@8    0000000180043300     server.obj
 0002:00015318       ??_R4exception@boost@@6B@  0000000180043318     server.obj
 0002:00015340       ??_R1A@?0A@EA@system_error_category@detail@system@boost@@8 0000000180043340     server.obj
 0002:00015368       ??_R2system_error_category@detail@system@boost@@8 0000000180043368     server.obj
 0002:00015380       ??_R3system_error_category@detail@system@boost@@8 0000000180043380     server.obj
 0002:00015398       ??_R4system_error_category@detail@system@boost@@6B@ 0000000180043398     server.obj
 0002:000153c0       ??_R1A@?0A@EA@generic_error_category@detail@system@boost@@8 00000001800433c0     server.obj
 0002:000153e8       ??_R2generic_error_category@detail@system@boost@@8 00000001800433e8     server.obj
 0002:00015400       ??_R3generic_error_category@detail@system@boost@@8 0000000180043400     server.obj
 0002:00015418       ??_R4generic_error_category@detail@system@boost@@6B@ 0000000180043418     server.obj
 0002:00015440       ??_R1A@?0A@EA@interop_error_category@detail@system@boost@@8 0000000180043440     server.obj
 0002:00015468       ??_R2error_category@system@boost@@8 0000000180043468     server.obj
 0002:00015478       ??_R3error_category@system@boost@@8 0000000180043478     server.obj
 0002:00015490       ??_R1A@?0A@EA@error_category@system@boost@@8 0000000180043490     server.obj
 0002:000154b8       ??_R2interop_error_category@detail@system@boost@@8 00000001800434b8     server.obj
 0002:000154d0       ??_R3interop_error_category@detail@system@boost@@8 00000001800434d0     server.obj
 0002:000154e8       ??_R4interop_error_category@detail@system@boost@@6B@ 00000001800434e8     server.obj
 0002:00015510       ??_R2?$_Ref_count@VSixMansPlugin@@@std@@8 0000000180043510     SixMansPlugin-Rework.obj
 0002:00015528       ??_R2SixMansPlugin@@8      0000000180043528     SixMansPlugin-Rework.obj
 0002:00015540       ??_R1A@?0A@EA@?$_Ref_count@VSixMansPlugin@@@std@@8 0000000180043540     SixMansPlugin-Rework.obj
 0002:00015568       ??_R1A@?0A@EA@SixMansPlugin@@8 0000000180043568     SixMansPlugin-Rework.obj
 0002:00015590       ??_R3?$_Ref_count@VSixMansPlugin@@@std@@8 0000000180043590     SixMansPlugin-Rework.obj
 0002:000155a8       ??_R3SixMansPlugin@@8      00000001800435a8     SixMansPlugin-Rework.obj
 0002:000155c0       ??_R4?$_Ref_count@VSixMansPlugin@@@std@@6B@ 00000001800435c0     SixMansPlugin-Rework.obj
 0002:000155e8       ??_R4SixMansPlugin@@6B@    00000001800435e8     SixMansPlugin-Rework.obj
 0002:00015610       ??_R1A@?0A@EA@BakkesModPlugin@Plugin@BakkesMod@@8 0000000180043610     SixMansPlugin-Rework.obj
 0002:00015638       ??_R2BakkesModPlugin@Plugin@BakkesMod@@8 0000000180043638     SixMansPlugin-Rework.obj
 0002:00015648       ??_R3BakkesModPlugin@Plugin@BakkesMod@@8 0000000180043648     SixMansPlugin-Rework.obj
 0002:00015660       ??_R4BakkesModPlugin@Plugin@BakkesMod@@6B@ 0000000180043660     SixMansPlugin-Rework.obj
 0002:00015684       __volatile_metadata        0000000180043684     <linker-defined>
 0002:00015c18       __rtc_iaa                  0000000180043c18     LIBCMT:initsect.obj
 0002:00015c20       __rtc_izz                  0000000180043c20     LIBCMT:initsect.obj
 0002:00015c28       __rtc_taa                  0000000180043c28     LIBCMT:initsect.obj
 0002:00015c30       __rtc_tzz                  0000000180043c30     LIBCMT:initsect.obj
 0002:00015c38       _tls_start                 0000000180043c38     LIBCMT:tlssup.obj
 0002:00015c3c       _Init_thread_epoch         0000000180043c3c     LIBCMT:thread_safe_statics.obj
 0002:00015c40       _tls_end                   0000000180043c40     LIBCMT:tlssup.obj
 0002:00018b80       _TI2?AVbad_alloc@std@@     0000000180046b80     libcpmt:xthrow.obj
 0002:00018ba0       _CTA2?AVbad_alloc@std@@    0000000180046ba0     libcpmt:xthrow.obj
 0002:00018bb8       _CT??_R0?AVlogic_error@std@@@8??0logic_error@std@@QEAA@AEBV01@@Z24 0000000180046bb8     libcpmt:xthrow.obj
 0002:00018be0       _TI3?AVlength_error@std@@  0000000180046be0     libcpmt:xthrow.obj
 0002:00018c00       _CTA3?AVlength_error@std@@ 0000000180046c00     libcpmt:xthrow.obj
 0002:00018c20       _CT??_R0?AVlength_error@std@@@8??0length_error@std@@QEAA@AEBV01@@Z24 0000000180046c20     libcpmt:xthrow.obj
 0002:00018c48       _TI3?AVout_of_range@std@@  0000000180046c48     libcpmt:xthrow.obj
 0002:00018c68       _CTA3?AVout_of_range@std@@ 0000000180046c68     libcpmt:xthrow.obj
 0002:00018c88       _CT??_R0?AVout_of_range@std@@@8??0out_of_range@std@@QEAA@AEBV01@@Z24 0000000180046c88     libcpmt:xthrow.obj
 0002:00018cb0       _TI2?AVbad_exception@std@@ 0000000180046cb0     libcpmt:excptptr.obj
 0002:00018cd0       _CTA2?AVbad_exception@std@@ 0000000180046cd0     libcpmt:excptptr.obj
 0002:00018ce8       _CT??_R0?AVbad_exception@std@@@8??0bad_exception@std@@QEAA@AEBV01@@Z24 0000000180046ce8     libcpmt:excptptr.obj
 0002:00018d10       _CTA2?AVruntime_error@std@@ 0000000180046d10     format.obj
 0002:00018d28       _TI2?AVruntime_error@std@@ 0000000180046d28     format.obj
 0002:00018d48       _CT??_R0?AVruntime_error@std@@@8??0runtime_error@std@@QEAA@AEBV01@@Z24 0000000180046d48     format.obj
 0002:00018d70       _CT??_R0?AVbad_cast@std@@@8??0bad_cast@std@@QEAA@AEBV01@@Z24 0000000180046d70     format.obj
 0002:00018d98       _CTA2?AVbad_cast@std@@     0000000180046d98     format.obj
 0002:00018db0       _TI2?AVbad_cast@std@@      0000000180046db0     format.obj
 0002:00018dd0       _CT??_R0?AVbad_array_new_length@std@@@8??0bad_array_new_length@std@@QEAA@AEBV01@@Z24 0000000180046dd0     format.obj
 0002:00018df8       _CT??_R0?AVbad_alloc@std@@@8??0bad_alloc@std@@QEAA@AEBV01@@Z24 0000000180046df8     format.obj
 0002:00018e20       _CT??_R0?AVexception@std@@@8??0exception@std@@QEAA@AEBV01@@Z24 0000000180046e20     format.obj
 0002:00018e48       _CTA3?AVbad_array_new_length@std@@ 0000000180046e48     format.obj
 0002:00018e68       _TI3?AVbad_array_new_length@std@@ 0000000180046e68     format.obj
 0002:00018e88       _CT??_R0?AVfailure@ios_base@std@@@8??0failure@ios_base@std@@QEAA@AEBV012@@Z40 0000000180046e88     logsys.obj
 0002:00018eb0       _CTA5?AVfailure@ios_base@std@@ 0000000180046eb0     logsys.obj
 0002:00018ee0       _TI5?AVfailure@ios_base@std@@ 0000000180046ee0     logsys.obj
 0002:00018f00       _CTA4?AVsystem_error@std@@ 0000000180046f00     logsys.obj
 0002:00018f28       _TI4?AVsystem_error@std@@  0000000180046f28     logsys.obj
 0002:00018f48       _CT??_R0?AVfilesystem_error@filesystem@std@@@8??0filesystem_error@filesystem@std@@QEAA@AEBV012@@Z136 0000000180046f48     logsys.obj
 0002:00018f70       _CT??_R0?AVsystem_error@std@@@8??0system_error@std@@QEAA@AEBV01@@Z40 0000000180046f70     logsys.obj
 0002:00018f98       _CT??_R0?AV_System_error@std@@@8??0_System_error@std@@QEAA@AEBV01@@Z40 0000000180046f98     logsys.obj
 0002:00018fc0       _CTA5?AVfilesystem_error@filesystem@std@@ 0000000180046fc0     logsys.obj
 0002:00018ff0       _TI5?AVfilesystem_error@filesystem@std@@ 0000000180046ff0     logsys.obj
 0002:00019010       _CT??_R0?AU?$wrapexcept@Vsystem_error@system@boost@@@boost@@@8??0?$wrapexcept@Vsystem_error@system@boost@@@boost@@QEAA@AEBU01@@Z128 0000000180047010     server.obj
 0002:00019038       _CT??_R0?AVsystem_error@system@boost@@@8??0system_error@system@boost@@QEAA@AEBV012@@Z808 0000000180047038     server.obj
 0002:00019060       _CT??_R0?AVruntime_error@std@@@8??0runtime_error@std@@QEAA@AEBV01@@Z248 0000000180047060     server.obj
 0002:00019088       _CT??_R0?AVexception@boost@@@8??0exception@boost@@QEAA@AEBV01@@Z4088 0000000180047088     server.obj
 0002:000190b0       _CTA6?AU?$wrapexcept@Vsystem_error@system@boost@@@boost@@ 00000001800470b0     server.obj
 0002:000190e8       _TI6?AU?$wrapexcept@Vsystem_error@system@boost@@@boost@@ 00000001800470e8     server.obj
 0002:00019108       _CT??_R0?AVclone_base@exception_detail@boost@@@8??0clone_base@exception_detail@boost@@QEAA@AEBV012@@Z8 0000000180047108     server.obj
 0002:00019130       _CT??_R0?AVexception@std@@@8??0exception@std@@QEAA@AEBV01@@Z248 0000000180047130     server.obj
 0002:0001944c       __IMPORT_DESCRIPTOR_pluginsdk 000000018004744c     pluginsdk:pluginsdk.dll
 0002:00019460       __IMPORT_DESCRIPTOR_KERNEL32 0000000180047460     kernel32:KERNEL32.dll
 0002:00019474       __IMPORT_DESCRIPTOR_WS2_32 0000000180047474     ws2_32:WS2_32.dll
 0002:00019488       __NULL_IMPORT_DESCRIPTOR   0000000180047488     pluginsdk:pluginsdk.dll
 0003:00000004       ?_Sync@ios_base@std@@0_NA  0000000180048004     libcpmt:ios.obj
 0003:00000008       ?valid@?1???$_Xfiopen@_W@std@@YAPEAU_iobuf@@PEB_WHH@Z@4QBHB 0000000180048008     libcpmt:fiopen.obj
 0003:00000050       _Init_global_epoch         0000000180048050     LIBCMT:thread_safe_statics.obj
 0003:00000054       __scrt_native_dllmain_reason 0000000180048054     LIBCMT:utility.obj
 0003:00000058       __security_cookie          0000000180048058     LIBCMT:gs_cookie.obj
 0003:00000060       __security_cookie_complement 0000000180048060     LIBCMT:gs_cookie.obj
 0003:00000070       _fltused                   0000000180048070     LIBCMT:fltused.obj
 0003:00000078       __isa_available            0000000180048078     LIBCMT:cpu_disp.obj
 0003:0000007c       __isa_enabled              000000018004807c     LIBCMT:cpu_disp.obj
 0003:00000080       __memset_fast_string_threshold 0000000180048080     LIBCMT:cpu_disp.obj
 0003:00000088       __memset_nt_threshold      0000000180048088     LIBCMT:cpu_disp.obj
 0003:000000a0       _iob                       00000001800480a0     libucrt:_file.obj
 0003:000001b0       __acrt_lconv_c             00000001800481b0     libucrt:localeconv.obj
 0003:00000248       __acrt_lconv               0000000180048248     libucrt:localeconv.obj
 0003:00000250       __acrt_lconv_static_decimal 0000000180048250     libucrt:localeconv.obj
 0003:00000254       __acrt_lconv_static_W_decimal 0000000180048254     libucrt:localeconv.obj
 0003:00000260       _lookuptrailbytes          0000000180048260     libucrt:read.obj
 0003:00000360       _pctype                    0000000180048360     libucrt:ctype.obj
 0003:00000368       _pwctype                   0000000180048368     libucrt:ctype.obj
 0003:00000370       __abort_behavior           0000000180048370     libucrt:abort.obj
 0003:00000390       __acrt_initial_locale_data 0000000180048390     libucrt:nlsdata.obj
 0003:000004e8       __acrt_initial_locale_pointers 00000001800484e8     libucrt:nlsdata.obj
 0003:000004f8       __acrt_wide_c_locale_string 00000001800484f8     libucrt:nlsdata.obj
 0003:000004fc       __mb_cur_max               00000001800484fc     libucrt:nlsdata.obj
 0003:00000500       __badioinfo                0000000180048500     libucrt:ioinit.obj
 0003:0000054c       __globallocalestatus       000000018004854c     libucrt:glstatus.obj
 0003:000006f0       __acrt_initial_multibyte_data 00000001800486f0     libucrt:mbctype.obj
 0003:00000c50       ?ButtonTooltips@InputComboWithAutoCompletionData@ImGui@@2PAY0IA@DA 0000000180048c50     imguivariouscontrols.obj
 0003:00000dd0       ?ButtonCharcters@InputComboWithAutoCompletionData@ImGui@@2PAY04DA 0000000180048dd0     imguivariouscontrols.obj
 0003:00000de0       exports                    0000000180048de0     SixMansPlugin-Rework.obj
 0003:000016e0       ?_Static@?1???$_Immortalize_memcpy_image@V_Iostream_error_category2@std@@@std@@YAAEBV_Iostream_error_category2@1@XZ@4V21@B 00000001800496e0     logsys.obj
 0003:000016f0       ?_Static@?1???$_Immortalize_memcpy_image@V_Generic_error_category@std@@@std@@YAAEBV_Generic_error_category@1@XZ@4V21@B 00000001800496f0     logsys.obj
 0003:00001700       ?_Static@?1???$_Immortalize_memcpy_image@V_System_error_category@std@@@std@@YAAEBV_System_error_category@1@XZ@4V21@B 0000000180049700     logsys.obj
 0003:00001710       ?instance@?$interop_cat_holder@X@detail@system@boost@@2Vinterop_error_category@234@B 0000000180049710     server.obj
 0003:00001728       ?instance@?$generic_cat_holder@X@detail@system@boost@@2Vgeneric_error_category@234@B 0000000180049728     server.obj
 0003:00001740       ?instance@?$system_cat_holder@X@detail@system@boost@@2Vsystem_error_category@234@B 0000000180049740     server.obj
 0003:00001760       ??_R0?AVout_of_range@std@@@8 0000000180049760     libcpmt:xthrow.obj
 0003:00001788       ??_R0?AVbad_exception@std@@@8 0000000180049788     libcpmt:excptptr.obj
 0003:000017b0       ??_R0?AVbad_cast@std@@@8   00000001800497b0     format.obj
 0003:000017d8       ??_R0?AVruntime_error@std@@@8 00000001800497d8     format.obj
 0003:00001800       ??_R0?AVbad_array_new_length@std@@@8 0000000180049800     format.obj
 0003:00001830       ??_R0?AVbad_alloc@std@@@8  0000000180049830     format.obj
 0003:00001858       ??_R0?AVexception@std@@@8  0000000180049858     format.obj
 0003:00001880       ??_R0?AVfailure@ios_base@std@@@8 0000000180049880     logsys.obj
 0003:000018b0       ??_R0?AVerror_category@std@@@8 00000001800498b0     logsys.obj
 0003:000018e0       ??_R0?AVfilesystem_error@filesystem@std@@@8 00000001800498e0     logsys.obj
 0003:00001918       ??_R0?AVsystem_error@std@@@8 0000000180049918     logsys.obj
 0003:00001940       ??_R0?AV_System_error@std@@@8 0000000180049940     logsys.obj
 0003:00001970       ??_R0?AU?$wrapexcept@Vsystem_error@system@boost@@@boost@@@8 0000000180049970     server.obj
 0003:000019b8       ??_R0?AVsystem_error@system@boost@@@8 00000001800499b8     server.obj
 0003:000019e8       ??_R0?AVlength_error@std@@@8 00000001800499e8     server.obj
 0003:00001a10       ??_R0?AVlogic_error@std@@@8 0000000180049a10     server.obj
 0003:00001a38       ??_R0?AVclone_base@exception_detail@boost@@@8 0000000180049a38     server.obj
 0003:00001a70       ??_R0?AVexception@boost@@@8 0000000180049a70     server.obj
 0003:00001aa0       ??_R0?AV_Locimp@locale@std@@@8 0000000180049aa0     libcpmt:locale0.obj
 0003:00001ad0       ??_R0?AVtype_info@@@8      0000000180049ad0     LIBCMT:std_type_info_static.obj
 0003:00001af0       ??_R0?AVfacet@locale@std@@@8 0000000180049af0     format.obj
 0003:00001b18       ??_R0?AU_Crt_new_delete@std@@@8 0000000180049b18     format.obj
 0003:00001b48       ??_R0?AV_Facet_base@std@@@8 0000000180049b48     format.obj
 0003:00001b70       ??_R0?AV?$codecvt@DDU_Mbstatet@@@std@@@8 0000000180049b70     logsys.obj
 0003:00001bb0       ??_R0?AV?$basic_ofstream@DU?$char_traits@D@std@@@std@@@8 0000000180049bb0     logsys.obj
 0003:00001c00       ??_R0?AV?$basic_ifstream@DU?$char_traits@D@std@@@std@@@8 0000000180049c00     logsys.obj
 0003:00001c50       ??_R0?AV?$basic_filebuf@DU?$char_traits@D@std@@@std@@@8 0000000180049c50     logsys.obj
 0003:00001c98       ??_R0?AVcodecvt_base@std@@@8 0000000180049c98     logsys.obj
 0003:00001cc0       ??_R0?AV?$basic_istream@DU?$char_traits@D@std@@@std@@@8 0000000180049cc0     logsys.obj
 0003:00001d10       ??_R0?AV?$basic_streambuf@DU?$char_traits@D@std@@@std@@@8 0000000180049d10     logsys.obj
 0003:00001d58       ??_R0?AV?$ctype@D@std@@@8  0000000180049d58     logsys.obj
 0003:00001d80       ??_R0?AUctype_base@std@@@8 0000000180049d80     logsys.obj
 0003:00001db0       ??_R0?AV?$basic_ostream@DU?$char_traits@D@std@@@std@@@8 0000000180049db0     logsys.obj
 0003:00001df8       ??_R0?AV_Iostream_error_category2@std@@@8 0000000180049df8     logsys.obj
 0003:00001e30       ??_R0?AV_System_error_category@std@@@8 0000000180049e30     logsys.obj
 0003:00001e68       ??_R0?AV_Generic_error_category@std@@@8 0000000180049e68     logsys.obj
 0003:00001ea0       ??_R0?AV?$basic_ios@DU?$char_traits@D@std@@@std@@@8 0000000180049ea0     logsys.obj
 0003:00001ee0       ??_R0?AVios_base@std@@@8   0000000180049ee0     logsys.obj
 0003:00001f08       ??_R0?AV?$_Iosb@H@std@@@8  0000000180049f08     logsys.obj
 0003:00001f30       ??_R0?AV_Ref_count_base@std@@@8 0000000180049f30     server.obj
 0003:00001f60       ??_R0?AVsystem_error_category@detail@system@boost@@@8 0000000180049f60     server.obj
 0003:00001fa0       ??_R0?AVgeneric_error_category@detail@system@boost@@@8 0000000180049fa0     server.obj
 0003:00001ff0       ??_R0?AVinterop_error_category@detail@system@boost@@@8 0000000180049ff0     server.obj
 0003:00002038       ??_R0?AVerror_category@system@boost@@@8 000000018004a038     server.obj
 0003:00002070       ??_R0?AV?$_Ref_count@VSixMansPlugin@@@std@@@8 000000018004a070     SixMansPlugin-Rework.obj
 0003:000020a8       ??_R0?AVSixMansPlugin@@@8  000000018004a0a8     SixMansPlugin-Rework.obj
 0003:000020d0       ??_R0?AVBakkesModPlugin@Plugin@BakkesMod@@@8 000000018004a0d0     SixMansPlugin-Rework.obj
 0003:00002110       ?_Id_cnt@id@locale@std@@0HA 000000018004a110     libcpmt:locale0.obj
 0003:00002118       ?_Clocptr@_Locimp@locale@std@@0PEAV123@EA 000000018004a118     libcpmt:locale0.obj
 0003:00002120       ?id@?$ctype@_W@std@@2V0locale@2@A 000000018004a120     libcpmt:locale0.obj
 0003:00002128       ?id@?$ctype@D@std@@2V0locale@2@A 000000018004a128     libcpmt:locale0.obj
 0003:00002130       ?id@?$codecvt@GDU_Mbstatet@@@std@@2V0locale@2@A 000000018004a130     libcpmt:locale0.obj
 0003:00002138       ?id@?$ctype@G@std@@2V0locale@2@A 000000018004a138     libcpmt:locale0.obj
 0003:00002150       ?id@?$codecvt@_WDU_Mbstatet@@@std@@2V0locale@2@A 000000018004a150     libcpmt:locale0.obj
 0003:000022d0       ?_Index@ios_base@std@@0HA  000000018004a2d0     libcpmt:ios.obj
 0003:0000233c       ?__stl_sync_api_impl_mode@@3W4__stl_sync_api_modes_enum@@A 000000018004a33c     libcpmt:mutex.obj
 0003:00002340       ?id@?$num_get@DV?$istreambuf_iterator@DU?$char_traits@D@std@@@std@@@std@@2V0locale@2@A 000000018004a340     libcpmt:locale.obj
 0003:00002350       ?_Ptr_cin@std@@3PEAV?$basic_istream@DU?$char_traits@D@std@@@1@EA 000000018004a350     libcpmt:iosptrs.obj
 0003:00002358       ?_Ptr_cout@std@@3PEAV?$basic_ostream@DU?$char_traits@D@std@@@1@EA 000000018004a358     libcpmt:iosptrs.obj
 0003:00002360       ?_Ptr_cerr@std@@3PEAV?$basic_ostream@DU?$char_traits@D@std@@@1@EA 000000018004a360     libcpmt:iosptrs.obj
 0003:00002368       ?_Ptr_clog@std@@3PEAV?$basic_ostream@DU?$char_traits@D@std@@@1@EA 000000018004a368     libcpmt:iosptrs.obj
 0003:00002370       ?_Ptr_wcin@std@@3PEAV?$basic_istream@_WU?$char_traits@_W@std@@@1@EA 000000018004a370     libcpmt:iosptrs.obj
 0003:00002378       ?_Ptr_wcout@std@@3PEAV?$basic_ostream@_WU?$char_traits@_W@std@@@1@EA 000000018004a378     libcpmt:iosptrs.obj
 0003:00002380       ?_Ptr_wcerr@std@@3PEAV?$basic_ostream@_WU?$char_traits@_W@std@@@1@EA 000000018004a380     libcpmt:iosptrs.obj
 0003:00002388       ?_Ptr_wclog@std@@3PEAV?$basic_ostream@_WU?$char_traits@_W@std@@@1@EA 000000018004a388     libcpmt:iosptrs.obj
 0003:000023f0       __KERNEL32Functions        000000018004a3f0     libcpmt:winapisupp.obj
 0003:00002530       ?id@?$time_put@_WV?$ostreambuf_iterator@_WU?$char_traits@_W@std@@@std@@@std@@2V0locale@2@A 000000018004a530     libcpmt:wlocale.obj
 0003:00002538       ?id@?$num_get@_WV?$istreambuf_iterator@_WU?$char_traits@_W@std@@@std@@@std@@2V0locale@2@A 000000018004a538     libcpmt:wlocale.obj
 0003:00002540       ?id@?$num_put@_WV?$ostreambuf_iterator@_WU?$char_traits@_W@std@@@std@@@std@@2V0locale@2@A 000000018004a540     libcpmt:wlocale.obj
 0003:00002548       ?id@?$collate@_W@std@@2V0locale@2@A 000000018004a548     libcpmt:wlocale.obj
 0003:00002550       ?id@?$messages@_W@std@@2V0locale@2@A 000000018004a550     libcpmt:wlocale.obj
 0003:00002558       ?id@?$money_get@_WV?$istreambuf_iterator@_WU?$char_traits@_W@std@@@std@@@std@@2V0locale@2@A 000000018004a558     libcpmt:wlocale.obj
 0003:00002560       ?id@?$money_put@_WV?$ostreambuf_iterator@_WU?$char_traits@_W@std@@@std@@@std@@2V0locale@2@A 000000018004a560     libcpmt:wlocale.obj
 0003:00002568       ?id@?$moneypunct@_W$0A@@std@@2V0locale@2@A 000000018004a568     libcpmt:wlocale.obj
 0003:00002570       ?id@?$moneypunct@_W$00@std@@2V0locale@2@A 000000018004a570     libcpmt:wlocale.obj
 0003:00002578       ?id@?$time_get@_WV?$istreambuf_iterator@_WU?$char_traits@_W@std@@@std@@@std@@2V0locale@2@A 000000018004a578     libcpmt:wlocale.obj
 0003:00002580       ?id@?$num_get@GV?$istreambuf_iterator@GU?$char_traits@G@std@@@std@@@std@@2V0locale@2@A 000000018004a580     libcpmt:wlocale.obj
 0003:00002588       ?id@?$num_put@GV?$ostreambuf_iterator@GU?$char_traits@G@std@@@std@@@std@@2V0locale@2@A 000000018004a588     libcpmt:wlocale.obj
 0003:00002590       ?id@?$numpunct@G@std@@2V0locale@2@A 000000018004a590     libcpmt:wlocale.obj
 0003:00002598       ?id@?$collate@G@std@@2V0locale@2@A 000000018004a598     libcpmt:wlocale.obj
 0003:000025a0       ?id@?$messages@G@std@@2V0locale@2@A 000000018004a5a0     libcpmt:wlocale.obj
 0003:000025a8       ?id@?$money_get@GV?$istreambuf_iterator@GU?$char_traits@G@std@@@std@@@std@@2V0locale@2@A 000000018004a5a8     libcpmt:wlocale.obj
 0003:000025b0       ?id@?$money_put@GV?$ostreambuf_iterator@GU?$char_traits@G@std@@@std@@@std@@2V0locale@2@A 000000018004a5b0     libcpmt:wlocale.obj
 0003:000025b8       ?id@?$moneypunct@G$0A@@std@@2V0locale@2@A 000000018004a5b8     libcpmt:wlocale.obj
 0003:000025c0       ?id@?$moneypunct@G$00@std@@2V0locale@2@A 000000018004a5c0     libcpmt:wlocale.obj
 0003:000025c8       ?id@?$time_get@GV?$istreambuf_iterator@GU?$char_traits@G@std@@@std@@@std@@2V0locale@2@A 000000018004a5c8     libcpmt:wlocale.obj
 0003:000025d0       ?id@?$time_put@GV?$ostreambuf_iterator@GU?$char_traits@G@std@@@std@@@std@@2V0locale@2@A 000000018004a5d0     libcpmt:wlocale.obj
 0003:000025d8       ?id@?$collate@D@std@@2V0locale@2@A 000000018004a5d8     libcpmt:xlocale.obj
 0003:000025e0       ?id@?$messages@D@std@@2V0locale@2@A 000000018004a5e0     libcpmt:xlocale.obj
 0003:000025e8       ?id@?$money_get@DV?$istreambuf_iterator@DU?$char_traits@D@std@@@std@@@std@@2V0locale@2@A 000000018004a5e8     libcpmt:xlocale.obj
 0003:000025f0       ?id@?$money_put@DV?$ostreambuf_iterator@DU?$char_traits@D@std@@@std@@@std@@2V0locale@2@A 000000018004a5f0     libcpmt:xlocale.obj
 0003:000025f8       ?id@?$moneypunct@D$0A@@std@@2V0locale@2@A 000000018004a5f8     libcpmt:xlocale.obj
 0003:00002600       ?id@?$moneypunct@D$00@std@@2V0locale@2@A 000000018004a600     libcpmt:xlocale.obj
 0003:00002608       ?id@?$time_get@DV?$istreambuf_iterator@DU?$char_traits@D@std@@@std@@@std@@2V0locale@2@A 000000018004a608     libcpmt:xlocale.obj
 0003:00002610       ?id@?$time_put@DV?$ostreambuf_iterator@DU?$char_traits@D@std@@@std@@@std@@2V0locale@2@A 000000018004a610     libcpmt:xlocale.obj
 0003:00002660       __scrt_current_native_startup_state 000000018004a660     LIBCMT:utility.obj
 0003:00002668       __scrt_native_startup_lock 000000018004a668     LIBCMT:utility.obj
 0003:00002c24       __scrt_debugger_hook_flag  000000018004ac24     LIBCMT:utility_desktop.obj
 0003:00002c28       _tls_index                 000000018004ac28     LIBCMT:tlssup.obj
 0003:00002c2c       __favor                    000000018004ac2c     LIBCMT:cpu_disp.obj
 0003:00002c30       ?__type_info_root_node@@3U__type_info_node@@A 000000018004ac30     LIBCMT:tncleanup.obj
 0003:00002c40       ?__WinRTOutOfMemoryExceptionCallback@@3P6APEAXXZEA 000000018004ac40     libvcruntime:ehhelpers.obj
 0003:00002cd0       __pPurecall                000000018004acd0     libvcruntime:purevirt_data.obj
 0003:00002cd8       ?pArgList@UnDecorator@@0PEAVReplicator@@EA 000000018004acd8     libvcruntime:undname.obj
 0003:00002ce0       ?pZNameList@UnDecorator@@0PEAVReplicator@@EA 000000018004ace0     libvcruntime:undname.obj
 0003:00002ce8       ?pTemplateArgList@UnDecorator@@0PEAVReplicator@@EA 000000018004ace8     libvcruntime:undname.obj
 0003:00002cf0       ?gName@UnDecorator@@0PEBDEB 000000018004acf0     libvcruntime:undname.obj
 0003:00002cf8       ?name@UnDecorator@@0PEBDEB 000000018004acf8     libvcruntime:undname.obj
 0003:00002d00       ?disableFlags@UnDecorator@@0KA 000000018004ad00     libvcruntime:undname.obj
 0003:00002d04       ?fExplicitTemplateParams@UnDecorator@@0_NA 000000018004ad04     libvcruntime:undname.obj
 0003:00002d05       ?fGetTemplateArgumentList@UnDecorator@@0_NA 000000018004ad05     libvcruntime:undname.obj
 0003:00002d08       ?m_pGetParameter@UnDecorator@@0P6APEADJ@ZEA 000000018004ad08     libvcruntime:undname.obj
 0003:00002d10       ?m_CHPENameOffset@UnDecorator@@0KA 000000018004ad10     libvcruntime:undname.obj
 0003:00002d14       ?m_recursionLevel@UnDecorator@@0KA 000000018004ad14     libvcruntime:undname.obj
 0003:00002db0       _nstream                   000000018004adb0     libucrt:_file.obj
 0003:00002db8       __piob                     000000018004adb8     libucrt:_file.obj
 0003:00002dc0       _cflush                    000000018004adc0     libucrt:_file.obj
 0003:00002dd0       __acrt_lconv_static_null   000000018004add0     libucrt:localeconv.obj
 0003:00002dd4       __acrt_lconv_static_W_null 000000018004add4     libucrt:localeconv.obj
 0003:00003050       ?c_exit_complete@?1???R<lambda_6e4b09c48022b2350581041d5f6b0c4c>@@QEBA@XZ@4_NA 000000018004b050     libucrt:exit.obj
 0003:00003168       _environ_table             000000018004b168     libucrt:environment_initialization.obj
 0003:00003170       _wenviron_table            000000018004b170     libucrt:environment_initialization.obj
 0003:00003178       __dcrt_initial_wide_environment 000000018004b178     libucrt:environment_initialization.obj
 0003:00003180       __dcrt_initial_narrow_environment 000000018004b180     libucrt:environment_initialization.obj
 0003:00003188       __acrt_atexit_table        000000018004b188     libucrt:onexit.obj
 0003:000031a0       __acrt_at_quick_exit_table 000000018004b1a0     libucrt:onexit.obj
 0003:000031c8       __acrt_stdout_buffer       000000018004b1c8     libucrt:_sftbuf.obj
 0003:000031d0       __acrt_stderr_buffer       000000018004b1d0     libucrt:_sftbuf.obj
 0003:000031d8       __acrt_locale_changed_data 000000018004b1d8     libucrt:wsetlocale.obj
 0003:000031e0       __acrt_current_locale_data 000000018004b1e0     libucrt:nlsdata.obj
 0003:000031f0       __pioinfo                  000000018004b1f0     libucrt:ioinit.obj
 0003:000035f0       _nhandle                   000000018004b5f0     libucrt:ioinit.obj
 0003:000037bc       _umaskval                  000000018004b7bc     libucrt:umask.obj
 0003:000037c0       _commode                   000000018004b7c0     libucrt:ncommode.obj
 0003:000037c4       __fma3_is_available        000000018004b7c4     libucrt:fma3_available.obj
 0003:000037c8       __use_fma3_lib             000000018004b7c8     libucrt:fma3_available.obj
 0003:000037d0       ?_timezone@@3V?$dual_state_global@J@__crt_state_management@@A 000000018004b7d0     libucrt:timeset.obj
 0003:000037d4       ?_daylight@@3V?$dual_state_global@H@__crt_state_management@@A 000000018004b7d4     libucrt:timeset.obj
 0003:000037d8       ?_dstbias@@3V?$dual_state_global@J@__crt_state_management@@A 000000018004b7d8     libucrt:timeset.obj
 0003:000038b0       _mbctype                   000000018004b8b0     libucrt:mbctype.obj
 0003:000038b8       _mbcasemap                 000000018004b8b8     libucrt:mbctype.obj
 0003:000038c0       __acrt_current_multibyte_data 000000018004b8c0     libucrt:mbctype.obj
 0003:000038d0       _pgmptr                    000000018004b8d0     libucrt:argv_data.obj
 0003:000038d8       __argc                     000000018004b8d8     libucrt:argv_data.obj
 0003:000038e0       __argv                     000000018004b8e0     libucrt:argv_data.obj
 0003:000038e8       __wargv                    000000018004b8e8     libucrt:argv_data.obj
 0003:000038f0       _acmdln                    000000018004b8f0     libucrt:argv_data.obj
 0003:000038f8       _wcmdln                    000000018004b8f8     libucrt:argv_data.obj
 0003:00003900       __acrt_heap                000000018004b900     libucrt:heap_handle.obj
 0003:00003914       _fmode                     000000018004b914     libucrt:txtmode.obj
 0003:00003928       ?_OptionsStorage@?1??__local_stdio_printf_options@@9@4_KA 000000018004b928     format.obj
 0003:00003930       ?_OptionsStorage@?1??__local_stdio_scanf_options@@9@4_KA 000000018004b930     imgui.obj
 0003:00003940       ?EmptyString@ImGuiTextBuffer@@2PADA 000000018004b940     imgui.obj
 0003:00003950       ?GImGui@@3PEAUImGuiContext@@EA 000000018004b950     imgui.obj
 0003:00003958       ?FontArrowGlyphs@TreeView@ImGui@@1PAY04DA 000000018004b958     imguivariouscontrols.obj
 0003:00003968       ?FontCheckBoxGlyphs@TreeView@ImGui@@1PAY04DA 000000018004b968     imguivariouscontrols.obj
 0003:00003988       ?ContextMenuData@MyTreeViewHelperStruct@ImGui@@2UContextMenuDataStruct@12@A 000000018004b988     imguivariouscontrols.obj
 0003:000039a0       ?NameEditing@MyTreeViewHelperStruct@ImGui@@2UNameEditingStruct@12@A 000000018004b9a0     imguivariouscontrols.obj
 0003:00003ab0       ?server_thread@@3Vthread@std@@A 000000018004bab0     SixMansPlugin-Rework.obj
 0003:00003ad0       ?_globalCvarManager@@3V?$shared_ptr@VCVarManagerWrapper@@@std@@A 000000018004bad0     SixMansPlugin-Rework.obj
 0003:00003ae8       ?_Psave@?$_Facetptr@V?$codecvt@DDU_Mbstatet@@@std@@@std@@2PEBVfacet@locale@2@EB 000000018004bae8     logsys.obj
 0003:00003af0       ?_Stinit@?1??_Init@?$basic_filebuf@DU?$char_traits@D@std@@@std@@IEAAXPEAU_iobuf@@W4_Initfl@23@@Z@4U_Mbstatet@@A 000000018004baf0     logsys.obj
 0003:00003af8       ?_Psave@?$_Facetptr@V?$ctype@D@std@@@std@@2PEBVfacet@locale@2@EB 000000018004baf8     logsys.obj
 0003:00003b00       __@@_PchSym_@00@UfhvihUgboviUwlxfnvmghUxQQLivklhUhrcnzmhkoftrmRivdlipUyfrowUOrmgvinvwrzgvhUivovzhvUkxsOlyq@4B2008FD98C1DD4 000000018004bb00     pch.obj
 0003:00003b08       ?id@?$numpunct@D@std@@2V0locale@2@A 000000018004bb08     format.obj
 0003:00003b10       ?id@?$numpunct@_W@std@@2V0locale@2@A 000000018004bb10     format.obj
 0003:00003b18       ?id@?$codecvt@DDU_Mbstatet@@@std@@2V0locale@2@A 000000018004bb18     logsys.obj
 0003:00003b20       ?top_@?$call_stack@Vthread_context@detail@asio@boost@@Vthread_info_base@234@@detail@asio@boost@@0V?$tss_ptr@Vcontext@?$call_stack@Vthread_context@detail@asio@boost@@Vthread_info_base@234@@detail@asio@boost@@@234@A 000000018004bb20     server.obj
 0003:00003b28       ?id@?$num_put@DV?$ostreambuf_iterator@DU?$char_traits@D@std@@@std@@@std@@2V0locale@2@A 000000018004bb28     server.obj
 0003:00003b30       ?id@?$execution_context_service_base@Vwin_iocp_io_context@detail@asio@boost@@@detail@asio@boost@@2V?$service_id@Vwin_iocp_io_context@detail@asio@boost@@@234@A 000000018004bb30     server.obj
 0003:00003b31       ?id@?$execution_context_service_base@V?$deadline_timer_service@U?$chrono_time_traits@Usteady_clock@chrono@std@@U?$wait_traits@Usteady_clock@chrono@std@@@asio@boost@@@detail@asio@boost@@@detail@asio@boost@@@detail@asio@boost@@2V?$service_id@V?$deadline_timer_service@U?$chrono_time_traits@Usteady_clock@chrono@std@@U?$wait_traits@Usteady_clock@chrono@std@@@asio@boost@@@detail@asio@boost@@@detail@asio@boost@@@234@A 000000018004bb31     server.obj
 0003:00003b32       ?id@?$execution_context_service_base@V?$win_iocp_socket_service@Vtcp@ip@asio@boost@@@detail@asio@boost@@@detail@asio@boost@@2V?$service_id@V?$win_iocp_socket_service@Vtcp@ip@asio@boost@@@detail@asio@boost@@@234@A 000000018004bb32     server.obj
 0003:00003b38       ?data_@?$winsock_init@$01$0A@@detail@asio@boost@@0Udata@winsock_init_base@234@A 000000018004bb38     pch.obj
 0003:00003b40       ?id@?$service_base@Vstrand_service@detail@asio@boost@@@detail@asio@boost@@2V?$service_id@Vstrand_service@detail@asio@boost@@@234@A 000000018004bb40     pch.obj
 0003:00003b41       ?id@?$execution_context_service_base@Vnull_reactor@detail@asio@boost@@@detail@asio@boost@@2V?$service_id@Vnull_reactor@detail@asio@boost@@@234@A 000000018004bb41     pch.obj
 0003:00003b44       ?tss_ptr_@?$win_global_impl@Vsystem_context@asio@boost@@@detail@asio@boost@@2V?$tss_ptr@Vsystem_context@asio@boost@@@234@A 000000018004bb44     pch.obj
 0003:00003b48       ?top_@?$call_stack@Vstrand_impl@strand_service@detail@asio@boost@@E@detail@asio@boost@@0V?$tss_ptr@Vcontext@?$call_stack@Vstrand_impl@strand_service@detail@asio@boost@@E@detail@asio@boost@@@234@A 000000018004bb48     pch.obj
 0003:00003b4c       ?id@?$execution_context_service_base@Vscheduler@detail@asio@boost@@@detail@asio@boost@@2V?$service_id@Vscheduler@detail@asio@boost@@@234@A 000000018004bb4c     pch.obj
 0003:00003b50       ?top_@?$call_stack@Vstrand_impl@strand_executor_service@detail@asio@boost@@E@detail@asio@boost@@0V?$tss_ptr@Vcontext@?$call_stack@Vstrand_impl@strand_executor_service@detail@asio@boost@@E@detail@asio@boost@@@234@A 000000018004bb50     pch.obj
 0003:00003b54       ?id@?$execution_context_service_base@Vselect_reactor@detail@asio@boost@@@detail@asio@boost@@2V?$service_id@Vselect_reactor@detail@asio@boost@@@234@A 000000018004bb54     pch.obj
 0003:00003b58       __dyn_tls_init_callback    000000018004bb58     <common>
 0003:00003b60       __scrt_ucrt_dll_is_in_use  000000018004bb60     <common>

 entry point at        0001:0000ae14

 Static symbols

 0000:fffae000       .debug$S                   0000000180000000     SixMansPlugin-Rework.exp
 0000:fffae000       .debug$S                   0000000180000000     d3dcompiler:D3DCOMPILER_47.dll
 0002:fffd2000       .idata$6                   0000000180000000     d3dcompiler:D3DCOMPILER_47.dll
 0000:fffae000       .debug$S                   0000000180000000     imm32:IMM32.dll
 0000:fffae000       .debug$S                   0000000180000000     imm32:IMM32.dll
 0000:fffae000       .debug$S                   0000000180000000     imm32:IMM32.dll
 0002:fffd2000       .idata$6                   0000000180000000     imm32:IMM32.dll
 0000:fffae000       .debug$S                   0000000180000000     kernel32:KERNEL32.dll
 0000:fffae000       .debug$S                   0000000180000000     kernel32:KERNEL32.dll
 0000:fffae000       .debug$S                   0000000180000000     kernel32:KERNEL32.dll
 0000:fffae000       .debug$S                   0000000180000000     kernel32:KERNEL32.dll
 0000:fffae000       .debug$S                   0000000180000000     kernel32:KERNEL32.dll
 0000:fffae000       .debug$S                   0000000180000000     kernel32:KERNEL32.dll
 0000:fffae000       .debug$S                   0000000180000000     kernel32:KERNEL32.dll
 0000:fffae000       .debug$S                   0000000180000000     kernel32:KERNEL32.dll
 0000:fffae000       .debug$S                   0000000180000000     kernel32:KERNEL32.dll
 0000:fffae000       .debug$S                   0000000180000000     kernel32:KERNEL32.dll
 0000:fffae000       .debug$S                   0000000180000000     kernel32:KERNEL32.dll
 0000:fffae000       .debug$S                   0000000180000000     kernel32:KERNEL32.dll
 0000:fffae000       .debug$S                   0000000180000000     kernel32:KERNEL32.dll
 0000:fffae000       .debug$S                   0000000180000000     kernel32:KERNEL32.dll
 0000:fffae000       .debug$S                   0000000180000000     kernel32:KERNEL32.dll
 0000:fffae000       .debug$S                   0000000180000000     kernel32:KERNEL32.dll
 0000:fffae000       .debug$S                   0000000180000000     kernel32:KERNEL32.dll
 0000:fffae000       .debug$S                   0000000180000000     kernel32:KERNEL32.dll
 0000:fffae000       .debug$S                   0000000180000000     kernel32:KERNEL32.dll
 0000:fffae000       .debug$S                   0000000180000000     kernel32:KERNEL32.dll
 0000:fffae000       .debug$S                   0000000180000000     kernel32:KERNEL32.dll
 0000:fffae000       .debug$S                   0000000180000000     kernel32:KERNEL32.dll
 0000:fffae000       .debug$S                   0000000180000000     kernel32:KERNEL32.dll
 0000:fffae000       .debug$S                   0000000180000000     kernel32:KERNEL32.dll
 0000:fffae000       .debug$S                   0000000180000000     kernel32:KERNEL32.dll
 0000:fffae000       .debug$S                   0000000180000000     kernel32:KERNEL32.dll
 0000:fffae000       .debug$S                   0000000180000000     kernel32:KERNEL32.dll
 0000:fffae000       .debug$S                   0000000180000000     kernel32:KERNEL32.dll
 0000:fffae000       .debug$S                   0000000180000000     kernel32:KERNEL32.dll
 0000:fffae000       .debug$S                   0000000180000000     kernel32:KERNEL32.dll
 0000:fffae000       .debug$S                   0000000180000000     kernel32:KERNEL32.dll
 0000:fffae000       .debug$S                   0000000180000000     kernel32:KERNEL32.dll
 0000:fffae000       .debug$S                   0000000180000000     kernel32:KERNEL32.dll
 0000:fffae000       .debug$S                   0000000180000000     kernel32:KERNEL32.dll
 0000:fffae000       .debug$S                   0000000180000000     kernel32:KERNEL32.dll
 0000:fffae000       .debug$S                   0000000180000000     kernel32:KERNEL32.dll
 0000:fffae000       .debug$S                   0000000180000000     kernel32:KERNEL32.dll
 0000:fffae000       .debug$S                   0000000180000000     kernel32:KERNEL32.dll
 0000:fffae000       .debug$S                   0000000180000000     kernel32:KERNEL32.dll
 0000:fffae000       .debug$S                   0000000180000000     kernel32:KERNEL32.dll
 0000:fffae000       .debug$S                   0000000180000000     kernel32:KERNEL32.dll
 0000:fffae000       .debug$S                   0000000180000000     kernel32:KERNEL32.dll
 0000:fffae000       .debug$S                   0000000180000000     kernel32:KERNEL32.dll
 0000:fffae000       .debug$S                   0000000180000000     kernel32:KERNEL32.dll
 0000:fffae000       .debug$S                   0000000180000000     kernel32:KERNEL32.dll
 0000:fffae000       .debug$S                   0000000180000000     kernel32:KERNEL32.dll
 0000:fffae000       .debug$S                   0000000180000000     kernel32:KERNEL32.dll
 0000:fffae000       .debug$S                   0000000180000000     kernel32:KERNEL32.dll
 0000:fffae000       .debug$S                   0000000180000000     kernel32:KERNEL32.dll
 0000:fffae000       .debug$S                   0000000180000000     kernel32:KERNEL32.dll
 0000:fffae000       .debug$S                   0000000180000000     kernel32:KERNEL32.dll
 0000:fffae000       .debug$S                   0000000180000000     kernel32:KERNEL32.dll
 0000:fffae000       .debug$S                   0000000180000000     kernel32:KERNEL32.dll
 0000:fffae000       .debug$S                   0000000180000000     kernel32:KERNEL32.dll
 0000:fffae000       .debug$S                   0000000180000000     kernel32:KERNEL32.dll
 0000:fffae000       .debug$S                   0000000180000000     kernel32:KERNEL32.dll
 0000:fffae000       .debug$S                   0000000180000000     kernel32:KERNEL32.dll
 0000:fffae000       .debug$S                   0000000180000000     kernel32:KERNEL32.dll
 0000:fffae000       .debug$S                   0000000180000000     kernel32:KERNEL32.dll
 0000:fffae000       .debug$S                   0000000180000000     kernel32:KERNEL32.dll
 0000:fffae000       .debug$S                   0000000180000000     kernel32:KERNEL32.dll
 0000:fffae000       .debug$S                   0000000180000000     kernel32:KERNEL32.dll
 0000:fffae000       .debug$S                   0000000180000000     kernel32:KERNEL32.dll
 0000:fffae000       .debug$S                   0000000180000000     kernel32:KERNEL32.dll
 0000:fffae000       .debug$S                   0000000180000000     kernel32:KERNEL32.dll
 0000:fffae000       .debug$S                   0000000180000000     kernel32:KERNEL32.dll
 0000:fffae000       .debug$S                   0000000180000000     kernel32:KERNEL32.dll
 0000:fffae000       .debug$S                   0000000180000000     kernel32:KERNEL32.dll
 0000:fffae000       .debug$S                   0000000180000000     kernel32:KERNEL32.dll
 0000:fffae000       .debug$S                   0000000180000000     kernel32:KERNEL32.dll
 0000:fffae000       .debug$S                   0000000180000000     kernel32:KERNEL32.dll
 0000:fffae000       .debug$S                   0000000180000000     kernel32:KERNEL32.dll
 0000:fffae000       .debug$S                   0000000180000000     kernel32:KERNEL32.dll
 0000:fffae000       .debug$S                   0000000180000000     kernel32:KERNEL32.dll
 0000:fffae000       .debug$S                   0000000180000000     kernel32:KERNEL32.dll
 0000:fffae000       .debug$S                   0000000180000000     kernel32:KERNEL32.dll
 0000:fffae000       .debug$S                   0000000180000000     kernel32:KERNEL32.dll
 0000:fffae000       .debug$S                   0000000180000000     kernel32:KERNEL32.dll
 0000:fffae000       .debug$S                   0000000180000000     kernel32:KERNEL32.dll
 0000:fffae000       .debug$S                   0000000180000000     kernel32:KERNEL32.dll
 0000:fffae000       .debug$S                   0000000180000000     kernel32:KERNEL32.dll
 0000:fffae000       .debug$S                   0000000180000000     kernel32:KERNEL32.dll
 0000:fffae000       .debug$S                   0000000180000000     kernel32:KERNEL32.dll
 0000:fffae000       .debug$S                   0000000180000000     kernel32:KERNEL32.dll
 0000:fffae000       .debug$S                   0000000180000000     kernel32:KERNEL32.dll
 0000:fffae000       .debug$S                   0000000180000000     kernel32:KERNEL32.dll
 0000:fffae000       .debug$S                   0000000180000000     kernel32:KERNEL32.dll
 0000:fffae000       .debug$S                   0000000180000000     kernel32:KERNEL32.dll
 0000:fffae000       .debug$S                   0000000180000000     kernel32:KERNEL32.dll
 0000:fffae000       .debug$S                   0000000180000000     kernel32:KERNEL32.dll
 0000:fffae000       .debug$S                   0000000180000000     kernel32:KERNEL32.dll
 0000:fffae000       .debug$S                   0000000180000000     kernel32:KERNEL32.dll
 0000:fffae000       .debug$S                   0000000180000000     kernel32:KERNEL32.dll
 0000:fffae000       .debug$S                   0000000180000000     kernel32:KERNEL32.dll
 0000:fffae000       .debug$S                   0000000180000000     kernel32:KERNEL32.dll
 0000:fffae000       .debug$S                   0000000180000000     kernel32:KERNEL32.dll
 0000:fffae000       .debug$S                   0000000180000000     kernel32:KERNEL32.dll
 0000:fffae000       .debug$S                   0000000180000000     kernel32:KERNEL32.dll
 0000:fffae000       .debug$S                   0000000180000000     kernel32:KERNEL32.dll
 0000:fffae000       .debug$S                   0000000180000000     kernel32:KERNEL32.dll
 0000:fffae000       .debug$S                   0000000180000000     kernel32:KERNEL32.dll
 0000:fffae000       .debug$S                   0000000180000000     kernel32:KERNEL32.dll
 0000:fffae000       .debug$S                   0000000180000000     kernel32:KERNEL32.dll
 0000:fffae000       .debug$S                   0000000180000000     kernel32:KERNEL32.dll
 0000:fffae000       .debug$S                   0000000180000000     kernel32:KERNEL32.dll
 0000:fffae000       .debug$S                   0000000180000000     kernel32:KERNEL32.dll
 0000:fffae000       .debug$S                   0000000180000000     kernel32:KERNEL32.dll
 0000:fffae000       .debug$S                   0000000180000000     kernel32:KERNEL32.dll
 0000:fffae000       .debug$S                   0000000180000000     kernel32:KERNEL32.dll
 0000:fffae000       .debug$S                   0000000180000000     kernel32:KERNEL32.dll
 0000:fffae000       .debug$S                   0000000180000000     kernel32:KERNEL32.dll
 0000:fffae000       .debug$S                   0000000180000000     kernel32:KERNEL32.dll
 0000:fffae000       .debug$S                   0000000180000000     kernel32:KERNEL32.dll
 0000:fffae000       .debug$S                   0000000180000000     kernel32:KERNEL32.dll
 0000:fffae000       .debug$S                   0000000180000000     kernel32:KERNEL32.dll
 0000:fffae000       .debug$S                   0000000180000000     kernel32:KERNEL32.dll
 0000:fffae000       .debug$S                   0000000180000000     kernel32:KERNEL32.dll
 0000:fffae000       .debug$S                   0000000180000000     kernel32:KERNEL32.dll
 0000:fffae000       .debug$S                   0000000180000000     kernel32:KERNEL32.dll
 0000:fffae000       .debug$S                   0000000180000000     kernel32:KERNEL32.dll
 0000:fffae000       .debug$S                   0000000180000000     kernel32:KERNEL32.dll
 0000:fffae000       .debug$S                   0000000180000000     kernel32:KERNEL32.dll
 0000:fffae000       .debug$S                   0000000180000000     kernel32:KERNEL32.dll
 0000:fffae000       .debug$S                   0000000180000000     kernel32:KERNEL32.dll
 0000:fffae000       .debug$S                   0000000180000000     kernel32:KERNEL32.dll
 0000:fffae000       .debug$S                   0000000180000000     kernel32:KERNEL32.dll
 0000:fffae000       .debug$S                   0000000180000000     kernel32:KERNEL32.dll
 0000:fffae000       .debug$S                   0000000180000000     kernel32:KERNEL32.dll
 0000:fffae000       .debug$S                   0000000180000000     kernel32:KERNEL32.dll
 0000:fffae000       .debug$S                   0000000180000000     kernel32:KERNEL32.dll
 0000:fffae000       .debug$S                   0000000180000000     kernel32:KERNEL32.dll
 0000:fffae000       .debug$S                   0000000180000000     kernel32:KERNEL32.dll
 0000:fffae000       .debug$S                   0000000180000000     kernel32:KERNEL32.dll
 0000:fffae000       .debug$S                   0000000180000000     kernel32:KERNEL32.dll
 0000:fffae000       .debug$S                   0000000180000000     kernel32:KERNEL32.dll
 0000:fffae000       .debug$S                   0000000180000000     kernel32:KERNEL32.dll
 0000:fffae000       .debug$S                   0000000180000000     kernel32:KERNEL32.dll
 0000:fffae000       .debug$S                   0000000180000000     kernel32:KERNEL32.dll
 0000:fffae000       .debug$S                   0000000180000000     kernel32:KERNEL32.dll
 0000:fffae000       .debug$S                   0000000180000000     kernel32:KERNEL32.dll
 0000:fffae000       .debug$S                   0000000180000000     kernel32:KERNEL32.dll
 0000:fffae000       .debug$S                   0000000180000000     kernel32:KERNEL32.dll
 0000:fffae000       .debug$S                   0000000180000000     kernel32:KERNEL32.dll
 0000:fffae000       .debug$S                   0000000180000000     kernel32:KERNEL32.dll
 0000:fffae000       .debug$S                   0000000180000000     kernel32:KERNEL32.dll
 0000:fffae000       .debug$S                   0000000180000000     kernel32:KERNEL32.dll
 0000:fffae000       .debug$S                   0000000180000000     kernel32:KERNEL32.dll
 0000:fffae000       .debug$S                   0000000180000000     kernel32:KERNEL32.dll
 0000:fffae000       .debug$S                   0000000180000000     kernel32:KERNEL32.dll
 0000:fffae000       .debug$S                   0000000180000000     kernel32:KERNEL32.dll
 0000:fffae000       .debug$S                   0000000180000000     kernel32:KERNEL32.dll
 0000:fffae000       .debug$S                   0000000180000000     kernel32:KERNEL32.dll
 0000:fffae000       .debug$S                   0000000180000000     kernel32:KERNEL32.dll
 0000:fffae000       .debug$S                   0000000180000000     kernel32:KERNEL32.dll
 0000:fffae000       .debug$S                   0000000180000000     kernel32:KERNEL32.dll
 0000:fffae000       .debug$S                   0000000180000000     kernel32:KERNEL32.dll
 0000:fffae000       .debug$S                   0000000180000000     kernel32:KERNEL32.dll
 0000:fffae000       .debug$S                   0000000180000000     kernel32:KERNEL32.dll
 0000:fffae000       .debug$S                   0000000180000000     kernel32:KERNEL32.dll
 0000:fffae000       .debug$S                   0000000180000000     kernel32:KERNEL32.dll
 0000:fffae000       .debug$S                   0000000180000000     kernel32:KERNEL32.dll
 0000:fffae000       .debug$S                   0000000180000000     kernel32:KERNEL32.dll
 0000:fffae000       .debug$S                   0000000180000000     kernel32:KERNEL32.dll
 0000:fffae000       .debug$S                   0000000180000000     kernel32:KERNEL32.dll
 0000:fffae000       .debug$S                   0000000180000000     kernel32:KERNEL32.dll
 0000:fffae000       .debug$S                   0000000180000000     kernel32:KERNEL32.dll
 0000:fffae000       .debug$S                   0000000180000000     kernel32:KERNEL32.dll
 0000:fffae000       .debug$S                   0000000180000000     kernel32:KERNEL32.dll
 0000:fffae000       .debug$S                   0000000180000000     kernel32:KERNEL32.dll
 0000:fffae000       .debug$S                   0000000180000000     kernel32:KERNEL32.dll
 0000:fffae000       .debug$S                   0000000180000000     kernel32:KERNEL32.dll
 0000:fffae000       .debug$S                   0000000180000000     kernel32:KERNEL32.dll
 0000:fffae000       .debug$S                   0000000180000000     kernel32:KERNEL32.dll
 0000:fffae000       .debug$S                   0000000180000000     kernel32:KERNEL32.dll
 0000:fffae000       .debug$S                   0000000180000000     kernel32:KERNEL32.dll
 0000:fffae000       .debug$S                   0000000180000000     kernel32:KERNEL32.dll
 0000:fffae000       .debug$S                   0000000180000000     mswsock:MSWSOCK.dll
 0000:fffae000       .debug$S                   0000000180000000     mswsock:MSWSOCK.dll
 0002:fffd2000       .idata$6                   0000000180000000     mswsock:MSWSOCK.dll
 0000:fffae000       .debug$S                   0000000180000000     user32:USER32.dll
 0000:fffae000       .debug$S                   0000000180000000     user32:USER32.dll
 0000:fffae000       .debug$S                   0000000180000000     user32:USER32.dll
 0000:fffae000       .debug$S                   0000000180000000     user32:USER32.dll
 0000:fffae000       .debug$S                   0000000180000000     user32:USER32.dll
 0000:fffae000       .debug$S                   0000000180000000     user32:USER32.dll
 0000:fffae000       .debug$S                   0000000180000000     user32:USER32.dll
 0000:fffae000       .debug$S                   0000000180000000     user32:USER32.dll
 0000:fffae000       .debug$S                   0000000180000000     user32:USER32.dll
 0000:fffae000       .debug$S                   0000000180000000     user32:USER32.dll
 0000:fffae000       .debug$S                   0000000180000000     user32:USER32.dll
 0000:fffae000       .debug$S                   0000000180000000     user32:USER32.dll
 0000:fffae000       .debug$S                   0000000180000000     user32:USER32.dll
 0000:fffae000       .debug$S                   0000000180000000     user32:USER32.dll
 0000:fffae000       .debug$S                   0000000180000000     user32:USER32.dll
 0000:fffae000       .debug$S                   0000000180000000     user32:USER32.dll
 0000:fffae000       .debug$S                   0000000180000000     user32:USER32.dll
 0000:fffae000       .debug$S                   0000000180000000     user32:USER32.dll
 0002:fffd2000       .idata$6                   0000000180000000     user32:USER32.dll
 0000:fffae000       .debug$S                   0000000180000000     ws2_32:WS2_32.dll
 0000:fffae000       .debug$S                   0000000180000000     ws2_32:WS2_32.dll
 0000:fffae000       .debug$S                   0000000180000000     ws2_32:WS2_32.dll
 0000:fffae000       .debug$S                   0000000180000000     ws2_32:WS2_32.dll
 0000:fffae000       .debug$S                   0000000180000000     ws2_32:WS2_32.dll
 0000:fffae000       .debug$S                   0000000180000000     ws2_32:WS2_32.dll
 0000:fffae000       .debug$S                   0000000180000000     ws2_32:WS2_32.dll
 0000:fffae000       .debug$S                   0000000180000000     ws2_32:WS2_32.dll
 0000:fffae000       .debug$S                   0000000180000000     ws2_32:WS2_32.dll
 0000:fffae000       .debug$S                   0000000180000000     ws2_32:WS2_32.dll
 0000:fffae000       .debug$S                   0000000180000000     pluginsdk:pluginsdk.dll
 0000:fffae000       .debug$S                   0000000180000000     pluginsdk:pluginsdk.dll
 0001:00000000       ??__E?id@?$execution_context_service_base@V?$win_iocp_socket_service@Vtcp@ip@asio@boost@@@detail@asio@boost@@@detail@asio@boost@@2V?$service_id@V?$win_iocp_socket_service@Vtcp@ip@asio@boost@@@detail@asio@boost@@@234@A@@YAXXZ 0000000180001000 f   server.obj
 0001:00000010       ??__E?id@?$execution_context_service_base@V?$deadline_timer_service@U?$chrono_time_traits@Usteady_clock@chrono@std@@U?$wait_traits@Usteady_clock@chrono@std@@@asio@boost@@@detail@asio@boost@@@detail@asio@boost@@@detail@asio@boost@@2V?$service_id@V?$deadline_timer_service@U?$chrono_time_traits@Usteady_clock@chrono@std@@U?$wait_traits@Usteady_clock@chrono@std@@@asio@boost@@@detail@asio@boost@@@detail@asio@boost@@@234@A@@YAXXZ 0000000180001010 f   server.obj
 0001:00000020       ??__E?id@?$execution_context_service_base@Vwin_iocp_io_context@detail@asio@boost@@@detail@asio@boost@@2V?$service_id@Vwin_iocp_io_context@detail@asio@boost@@@234@A@@YAXXZ 0000000180001020 f   server.obj
 0001:00000030       ??__E?top_@?$call_stack@Vthread_context@detail@asio@boost@@Vthread_info_base@234@@detail@asio@boost@@0V?$tss_ptr@Vcontext@?$call_stack@Vthread_context@detail@asio@boost@@Vthread_info_base@234@@detail@asio@boost@@@234@A@@YAXXZ 0000000180001030 f   server.obj
 0001:00000050       ??__EMAP_CODENAMES@@YAXXZ  0000000180001050 f   SixMansPlugin-Rework.obj
 0001:00000790       ??__Fsingleton@@YAXXZ      0000000180001790 f   SixMansPlugin-Rework.obj
 0001:000007a0       ??__F_globalCvarManager@@YAXXZ 00000001800017a0 f   SixMansPlugin-Rework.obj
 0001:000007b0       ??__Eserver_thread@@YAXXZ  00000001800017b0 f   SixMansPlugin-Rework.obj
 0001:000007c0       ??__EMAP_CODENAMES@@YAXXZ  00000001800017c0 f   SixMansPlugin-ReworkGUI.obj
 0001:00000f00       ??__Ewinsock_init_instance@detail@asio@boost@@YAXXZ 0000000180001f00 f   pch.obj
 0001:00000f70       ??__E?top_@?$call_stack@Vstrand_impl@strand_service@detail@asio@boost@@E@detail@asio@boost@@0V?$tss_ptr@Vcontext@?$call_stack@Vstrand_impl@strand_service@detail@asio@boost@@E@detail@asio@boost@@@234@A@@YAXXZ 0000000180001f70 f   pch.obj
 0001:00000f90       ??__E?top_@?$call_stack@Vstrand_impl@strand_executor_service@detail@asio@boost@@E@detail@asio@boost@@0V?$tss_ptr@Vcontext@?$call_stack@Vstrand_impl@strand_executor_service@detail@asio@boost@@E@detail@asio@boost@@@234@A@@YAXXZ 0000000180001f90 f   pch.obj
 0001:00000fb0       ??__E?id@?$service_base@Vstrand_service@detail@asio@boost@@@detail@asio@boost@@2V?$service_id@Vstrand_service@detail@asio@boost@@@234@A@@YAXXZ 0000000180001fb0 f   pch.obj
 0001:00000fc0       ??__E?id@?$execution_context_service_base@Vscheduler@detail@asio@boost@@@detail@asio@boost@@2V?$service_id@Vscheduler@detail@asio@boost@@@234@A@@YAXXZ 0000000180001fc0 f   pch.obj
 0001:00000fd0       ??__E?id@?$execution_context_service_base@Vnull_reactor@detail@asio@boost@@@detail@asio@boost@@2V?$service_id@Vnull_reactor@detail@asio@boost@@@234@A@@YAXXZ 0000000180001fd0 f   pch.obj
 0001:00000fe0       ??__E?id@?$execution_context_service_base@Vselect_reactor@detail@asio@boost@@@detail@asio@boost@@2V?$service_id@Vselect_reactor@detail@asio@boost@@@234@A@@YAXXZ 0000000180001fe0 f   pch.obj
 0001:00000ff0       ??__E?tss_ptr_@?$win_global_impl@Vsystem_context@asio@boost@@@detail@asio@boost@@2V?$tss_ptr@Vsystem_context@asio@boost@@@234@A@@YAXXZ 0000000180001ff0 f   pch.obj
 0001:00001010       ??__Eclassic_locale@std@@YAXXZ 0000000180002010 f   libcpmt:locale0.obj
 0001:0000101c       ??__F_Fac_tidy_reg@std@@YAXXZ 000000018000201c f   libcpmt:locale0.obj
 0001:00001028       ??__Einitlocks@std@@YAXXZ  0000000180002028 f   libcpmt:xlock.obj
 0001:00001048       ??__Einitlocks@std@@YAXXZ  0000000180002048 f   libcpmt:iosptrs.obj
 0001:00001068       ??__Finit_atexit@@YAXXZ    0000000180002068 f   libcpmt:iosptrs.obj
 0001:00001a70       ?MallocWrapper@@YAPEAX_KPEAX@Z 0000000180002a70 f   imgui.obj
 0001:00001a80       ?FreeWrapper@@YAXPEAX0@Z   0000000180002a80 f   imgui.obj
 0001:000031e0       initialize_environment     00000001800041e0 f i libucrt:initialization.obj
 0001:000031e0       initialize_global_state_isolation 00000001800041e0 f i libucrt:initialization.obj
 0001:000031e0       report_memory_leaks        00000001800041e0 f i libucrt:initialization.obj
 0001:000031e0       uninitialize_c             00000001800041e0 f i libucrt:initialization.obj
 0001:000031e0       uninitialize_global_state_isolation 00000001800041e0 f i libucrt:initialization.obj
 0001:000042b0       no_op_initialize           00000001800052b0 f i libucrt:wsetlocale.obj
 0001:0000745c       $LN92                      000000018000845c     server.obj
 0001:000074a8       $LN91                      00000001800084a8     server.obj
 0001:00007580       $LN90                      0000000180008580     server.obj
 0001:000075fc       $LN89                      00000001800085fc     server.obj
 0001:00008e94       tidy_global                0000000180009e94 f   libcpmt:locale0.obj
 0001:00009eb4       ?initialize_pointers@@YAHXZ 000000018000aeb4 f   libcpmt:winapisupp.obj
 0001:0000a270       $$000000                   000000018000b270     LIBCMT:amdsecgs.obj
 0001:0000a3e0       ?__scrt_initialize_thread_safe_statics@@YAHXZ 000000018000b3e0 f   LIBCMT:thread_safe_statics.obj
 0001:0000a4b0       ?__scrt_uninitialize_thread_safe_statics@@YAXXZ 000000018000b4b0 f   LIBCMT:thread_safe_statics.obj
 0001:0000aa10       capture_current_context    000000018000ba10 f   LIBCMT:gs_report.obj
 0001:0000aa80       capture_previous_context   000000018000ba80 f   LIBCMT:gs_report.obj
 0001:0000aaf4       ?dllmain_crt_dispatch@@YAHQEAUHINSTANCE__@@KQEAX@Z 000000018000baf4 f   LIBCMT:dll_dllmain.obj
 0001:0000ab44       ?dllmain_crt_process_attach@@YAHQEAUHINSTANCE__@@QEAX@Z 000000018000bb44 f   LIBCMT:dll_dllmain.obj
 0001:0000ac5c       ?dllmain_crt_process_detach@@YAH_N@Z 000000018000bc5c f   LIBCMT:dll_dllmain.obj
 0001:0000ace0       ?dllmain_dispatch@@YAHQEAUHINSTANCE__@@KQEAX@Z 000000018000bce0 f   LIBCMT:dll_dllmain.obj
 0001:0000af50       $$000000                   000000018000bf50     LIBCMT:chkstk.obj
 0001:0000c620       $$000000                   000000018000d620     libvcruntime:memcpy.obj
 0001:0000ccd0       $$000000                   000000018000dcd0     libvcruntime:memset.obj
 0001:0000d090       $$000000                   000000018000e090     libvcruntime:memchr.obj
 0001:0000d110       $$000000                   000000018000e110     libvcruntime:memcmp.obj
 0001:0000d620       ??$BuildCatchObjectHelperInternal@V__FrameHandler3@@@@YAHPEAUEHExceptionRecord@@PEAXPEBU_s_HandlerType@@PEBU_s_CatchableType@@@Z 000000018000e620 f   libvcruntime:frame.obj
 0001:0000d820       ??$BuildCatchObjectHelperInternal@V__FrameHandler4@@@@YAHPEAUEHExceptionRecord@@PEAXPEAUHandlerType4@FH4@@PEBU_s_CatchableType@@@Z 000000018000e820 f   libvcruntime:frame.obj
 0001:0000da24       ??$BuildCatchObjectInternal@V__FrameHandler3@@@@YAXPEAUEHExceptionRecord@@PEAXPEBU_s_HandlerType@@PEBU_s_CatchableType@@@Z 000000018000ea24 f   libvcruntime:frame.obj
 0001:0000dae4       ??$BuildCatchObjectInternal@V__FrameHandler4@@@@YAXPEAUEHExceptionRecord@@PEAXPEAUHandlerType4@FH4@@PEBU_s_CatchableType@@@Z 000000018000eae4 f   libvcruntime:frame.obj
 0001:0000dba8       ??$CatchIt@V__FrameHandler3@@@@YAXPEAUEHExceptionRecord@@PEA_KPEAU_CONTEXT@@PEAU_xDISPATCHER_CONTEXT@@PEBU_s_FuncInfo@@PEBU_s_HandlerType@@PEBU_s_CatchableType@@PEBU_s_TryBlockMapEntry@@H1EE@Z 000000018000eba8 f   libvcruntime:frame.obj
 0001:0000dc7c       ??$CatchIt@V__FrameHandler4@@@@YAXPEAUEHExceptionRecord@@PEA_KPEAU_CONTEXT@@PEAU_xDISPATCHER_CONTEXT@@PEAUFuncInfo4@FH4@@PEAUHandlerType4@4@PEBU_s_CatchableType@@PEAUTryBlockMapEntry4@4@H1EE@Z 000000018000ec7c f   libvcruntime:frame.obj
 0001:0000dd50       ??$FindHandler@V__FrameHandler3@@@@YAXPEAUEHExceptionRecord@@PEA_KPEAU_CONTEXT@@PEAU_xDISPATCHER_CONTEXT@@PEBU_s_FuncInfo@@EH1@Z 000000018000ed50 f   libvcruntime:frame.obj
 0001:0000e228       ??$FindHandler@V__FrameHandler4@@@@YAXPEAUEHExceptionRecord@@PEA_KPEAU_CONTEXT@@PEAU_xDISPATCHER_CONTEXT@@PEAUFuncInfo4@FH4@@EH1@Z 000000018000f228 f   libvcruntime:frame.obj
 0001:0000e724       ??$FindHandlerForForeignException@V__FrameHandler3@@@@YAXPEAUEHExceptionRecord@@PEA_KPEAU_CONTEXT@@PEAU_xDISPATCHER_CONTEXT@@PEBU_s_FuncInfo@@HH1@Z 000000018000f724 f   libvcruntime:frame.obj
 0001:0000e940       ??$FindHandlerForForeignException@V__FrameHandler4@@@@YAXPEAUEHExceptionRecord@@PEA_KPEAU_CONTEXT@@PEAU_xDISPATCHER_CONTEXT@@PEAUFuncInfo4@FH4@@HH1@Z 000000018000f940 f   libvcruntime:frame.obj
 0001:0000faa4       ?ExFilterRethrow@@YAHPEAU_EXCEPTION_POINTERS@@PEAUEHExceptionRecord@@PEAH@Z 0000000180010aa4 f   libvcruntime:frame.obj
 0001:0000fb2c       ?ExFilterRethrowFH4@@YAHPEAU_EXCEPTION_POINTERS@@PEAUEHExceptionRecord@@HPEAH@Z 0000000180010b2c f   libvcruntime:frame.obj
 0001:0001007c       ?IsInExceptionSpec@@YAEPEAUEHExceptionRecord@@PEBU_s_ESTypeList@@@Z 000000018001107c f   libvcruntime:frame.obj
 0001:0001016c       ?Is_bad_exception_allowed@@YAEPEBU_s_ESTypeList@@@Z 000000018001116c f   libvcruntime:frame.obj
 0001:00010430       $$000000                   0000000180011430     libvcruntime:notify.obj
 0001:0001052c       ?try_get_function@@YAPEAXW4function_id@?A0x5d44c8f9@@QEBDQEBW4module_id@2@2@Z 000000018001152c f   libvcruntime:winapi_downlevel.obj
 0001:00010810       $$000000                   0000000180011810     libvcruntime:handlers.obj
 0001:00010918       ??$common_vsprintf@Vstandard_base@__crt_stdio_output@@D@@YAH_KQEAD0QEBDQEAU__crt_locale_pointers@@1@Z 0000000180011918 f   libucrt:output.obj
 0001:000116c8       $LN17                      00000001800126c8     libucrt:output.obj
 0001:00012488       ??$?RV<lambda_2831f20263db5b546e098b45503eb778>@@AEAV<lambda_5856287d7ecd2be6c9197bb4007c3f6e>@@V<lambda_0838d7e100fbcbd261b69cfea6abb102>@@@?$__crt_seh_guarded_call@_K@@QEAA_K$$QEAV<lambda_2831f20263db5b546e098b45503eb778>@@AEAV<lambda_5856287d7ecd2be6c9197bb4007c3f6e>@@$$QEAV<lambda_0838d7e100fbcbd261b69cfea6abb102>@@@Z 0000000180013488 f   libucrt:fwrite.obj
 0001:000124c8       ??R<lambda_5856287d7ecd2be6c9197bb4007c3f6e>@@QEBA_KXZ 00000001800134c8 f   libucrt:fwrite.obj
 0001:00012f30       ??$common_fsopen@_W@@YAPEAU_iobuf@@QEB_W0H@Z 0000000180013f30 f   libucrt:fopen.obj
 0001:0001317c       ??$common_sopen_dispatch@_W@@YAHQEB_WHHHQEAHH@Z 000000018001417c f   libucrt:open.obj
 0001:00013240       ?configure_text_mode@@YAHHUfile_options@?A0xa9d50aae@@HAEAW4__crt_lowio_text_mode@@@Z 0000000180014240 f   libucrt:open.obj
 0001:000134d4       ?decode_options@@YA?AUfile_options@?A0xa9d50aae@@HHH@Z 00000001800144d4 f   libucrt:open.obj
 0001:000136e0       ?truncate_ctrl_z_if_present@@YAHH@Z 00000001800146e0 f   libucrt:open.obj
 0001:00013bc0       ??$?RV<lambda_751a882b2c74d4b022dec766aa51a29a>@@AEAV<lambda_628dfdc04ba53c8bfc02c9951375f3f5>@@V<lambda_f6c7be5f7998530c34de24c7437d6b54>@@@?$__crt_seh_guarded_call@H@@QEAAH$$QEAV<lambda_751a882b2c74d4b022dec766aa51a29a>@@AEAV<lambda_628dfdc04ba53c8bfc02c9951375f3f5>@@$$QEAV<lambda_f6c7be5f7998530c34de24c7437d6b54>@@@Z 0000000180014bc0 f   libucrt:close.obj
 0001:00013d98       ??$translate_text_mode_nolock@_W@@YAHHQEA_W_K@Z 0000000180014d98 f   libucrt:read.obj
 0001:00013fe0       ?translate_ansi_or_utf8_nolock@@YAHHQEAD_KQEA_W1@Z 0000000180014fe0 f   libucrt:read.obj
 0001:00014874       ?write_double_translated_ansi_nolock@@YA?AUwrite_result@?A0x17268360@@HQEBDI@Z 0000000180015874 f   libucrt:write.obj
 0001:00014d60       ?write_text_ansi_nolock@@YA?AUwrite_result@?A0x17268360@@HQEBDI@Z 0000000180015d60 f   libucrt:write.obj
 0001:00014e64       ?write_text_utf16le_nolock@@YA?AUwrite_result@?A0x17268360@@HQEBDI@Z 0000000180015e64 f   libucrt:write.obj
 0001:00014f80       ?write_text_utf8_nolock@@YA?AUwrite_result@?A0x17268360@@HQEBDI@Z 0000000180015f80 f   libucrt:write.obj
 0001:000157d0       $$000000                   00000001800167d0     libucrt:strncpy.obj
 0001:00015944       ??$common_ftell@_J@@YA_JV__crt_stdio_stream@@@Z 0000000180016944 f   libucrt:ftell.obj
 0001:00015998       ??$common_ftell_nolock@_J@@YA_JV__crt_stdio_stream@@@Z 0000000180016998 f   libucrt:ftell.obj
 0001:00015ac8       ?common_ftell_read_mode_nolock@@YA_JV__crt_stdio_stream@@_J1@Z 0000000180016ac8 f   libucrt:ftell.obj
 0001:00015c14       ?common_ftell_translated_utf8_nolock@@YA_JV__crt_stdio_stream@@_J@Z 0000000180016c14 f   libucrt:ftell.obj
 0001:00015d90       ?count_newline_bytes@@YA_JQEBD0W4__crt_lowio_text_mode@@@Z 0000000180016d90 f   libucrt:ftell.obj
 0001:00015e24       ?common_fseek@@YAHV__crt_stdio_stream@@_JH@Z 0000000180016e24 f   libucrt:fseek.obj
 0001:00015e90       ?common_fseek_binary_mode_read_only_fast_track_nolock@@YA_NV__crt_stdio_stream@@_JH@Z 0000000180016e90 f   libucrt:fseek.obj
 0001:00015f74       ?common_fseek_nolock@@YAHV__crt_stdio_stream@@_JH@Z 0000000180016f74 f   libucrt:fseek.obj
 0001:00016710       ??$?RV<lambda_842d9ff0dc9ef11c61343bbaebe7f885>@@AEAV<lambda_c5860995281e5c4ce005b3de8f5874ee>@@V<lambda_d90129c13df834fdcbf8d2b88dafcf2d>@@@?$__crt_seh_guarded_call@X@@QEAAX$$QEAV<lambda_842d9ff0dc9ef11c61343bbaebe7f885>@@AEAV<lambda_c5860995281e5c4ce005b3de8f5874ee>@@$$QEAV<lambda_d90129c13df834fdcbf8d2b88dafcf2d>@@@Z 0000000180017710 f   libucrt:fflush.obj
 0001:000167ac       ??$?RV<lambda_886d6c58226a84441f68b9f2b8217b83>@@AEAV<lambda_ab61a845afdef5b7c387490eaf3616ee>@@V<lambda_f7f22ab5edc0698d5f6905b0d3f44752>@@@?$__crt_seh_guarded_call@X@@QEAAX$$QEAV<lambda_886d6c58226a84441f68b9f2b8217b83>@@AEAV<lambda_ab61a845afdef5b7c387490eaf3616ee>@@$$QEAV<lambda_f7f22ab5edc0698d5f6905b0d3f44752>@@@Z 00000001800177ac f   libucrt:fflush.obj
 0001:0001688c       ??$?RV<lambda_c376a267cfb53b6959b3b692ec76b120>@@AEAV<lambda_9a32fed5bf61b6b509b2d3f6003082a1>@@V<lambda_572fbb9fa0ab338edf41edfd4b5fcc8d>@@@?$__crt_seh_guarded_call@H@@QEAAH$$QEAV<lambda_c376a267cfb53b6959b3b692ec76b120>@@AEAV<lambda_9a32fed5bf61b6b509b2d3f6003082a1>@@$$QEAV<lambda_572fbb9fa0ab338edf41edfd4b5fcc8d>@@@Z 000000018001788c f   libucrt:fflush.obj
 0001:000168cc       ?common_flush_all@@YAH_N@Z 00000001800178cc f   libucrt:fflush.obj
 0001:00016f14       memcpy_s                   0000000180017f14 f   libucrt:cfout.obj
 0001:00016f14       memcpy_s                   0000000180017f14 f   libucrt:input.obj
 0001:00016fa0       $$000000                   0000000180017fa0     libucrt:strncmp.obj
 0001:00017030       ??$?RV<lambda_c8e61daa512c69656564d9dbd35486e8>@@AEAV<lambda_b4f66040be5f354a654fb75160c27bfc>@@V<lambda_2ca749746f96040ea1ff4296b14379df>@@@?$__crt_seh_guarded_call@H@@QEAAH$$QEAV<lambda_c8e61daa512c69656564d9dbd35486e8>@@AEAV<lambda_b4f66040be5f354a654fb75160c27bfc>@@$$QEAV<lambda_2ca749746f96040ea1ff4296b14379df>@@@Z 0000000180018030 f   libucrt:setvbuf.obj
 0001:00017070       ??R<lambda_b4f66040be5f354a654fb75160c27bfc>@@QEBAHXZ 0000000180018070 f   libucrt:setvbuf.obj
 0001:00017f18       ??$?RV<lambda_450d765d439847d4c735a33c368b5fc0>@@AEAV<lambda_44731a7d0e6d81c3e6aa82d741081786>@@V<lambda_601a2a7da3b7a96e9554ac7215c4b07c>@@@?$__crt_seh_guarded_call@P6AXH@Z@@QEAAP6AXH@Z$$QEAV<lambda_450d765d439847d4c735a33c368b5fc0>@@AEAV<lambda_44731a7d0e6d81c3e6aa82d741081786>@@$$QEAV<lambda_601a2a7da3b7a96e9554ac7215c4b07c>@@@Z 0000000180018f18 f   libucrt:signal.obj
 0001:0001821c       ??$?RV<lambda_e9ce07acdb0b138e546925ae9f1a2c9c>@@AEAV<lambda_2116bde18c9e5f34230805ea4a4660ed>@@V<lambda_5d037afbfc54bf1ca80d3d1ee4062886>@@@?$__crt_seh_guarded_call@PEAD@@QEAAPEAD$$QEAV<lambda_e9ce07acdb0b138e546925ae9f1a2c9c>@@AEAV<lambda_2116bde18c9e5f34230805ea4a4660ed>@@$$QEAV<lambda_5d037afbfc54bf1ca80d3d1ee4062886>@@@Z 000000018001921c f   libucrt:setlocale.obj
 0001:0001825c       ??R<lambda_2116bde18c9e5f34230805ea4a4660ed>@@QEBAPEADXZ 000000018001925c f   libucrt:setlocale.obj
 0001:00018f60       $$000000                   0000000180019f60     libucrt:pow.obj
 0001:0001a600       $$000000                   000000018001b600     libucrt:powf.obj
 0001:0001bb20       ??$?RV<lambda_d80eeec6fff315bfe5c115232f3240e3>@@AEAV<lambda_6e4b09c48022b2350581041d5f6b0c4c>@@V<lambda_2358e3775559c9db80273638284d5e45>@@@?$__crt_seh_guarded_call@X@@QEAAX$$QEAV<lambda_d80eeec6fff315bfe5c115232f3240e3>@@AEAV<lambda_6e4b09c48022b2350581041d5f6b0c4c>@@$$QEAV<lambda_2358e3775559c9db80273638284d5e45>@@@Z 000000018001cb20 f   libucrt:exit.obj
 0001:0001bb58       ??R<lambda_6e4b09c48022b2350581041d5f6b0c4c>@@QEBA@XZ 000000018001cb58 f   libucrt:exit.obj
 0001:0001bc1c       ?atexit_exception_filter@@YAHK@Z 000000018001cc1c f   libucrt:exit.obj
 0001:0001bc28       ?common_exit@@YAXHW4_crt_exit_cleanup_mode@@W4_crt_exit_return_mode@@@Z 000000018001cc28 f   libucrt:exit.obj
 0001:0001bce4       ?exit_or_terminate_process@@YAXI@Z 000000018001cce4 f   libucrt:exit.obj
 0001:0001bd30       ?try_cor_exit_process@@YAXI@Z 000000018001cd30 f   libucrt:exit.obj
 0001:0001bdb8       ??$parse_command_line@D@@YAXPEADPEAPEAD0PEA_K2@Z 000000018001cdb8 f   libucrt:argv_parsing.obj
 0001:0001c160       ??$common_initialize_environment_nolock@D@@YAHXZ 000000018001d160 f   libucrt:environment_initialization.obj
 0001:0001c1cc       ??$create_environment@D@@YAQEAPEADQEAD@Z 000000018001d1cc f   libucrt:environment_initialization.obj
 0001:0001c2d4       ??$free_environment@D@@YAXQEAPEAD@Z 000000018001d2d4 f   libucrt:environment_initialization.obj
 0001:0001c2d4       ??$free_environment@_W@@YAXQEAPEA_W@Z 000000018001d2d4 f   libucrt:environment_initialization.obj
 0001:0001c318       ??$uninitialize_environment_internal@D@@YAXAEAPEAPEAD@Z 000000018001d318 f   libucrt:environment_initialization.obj
 0001:0001c334       ??$uninitialize_environment_internal@_W@@YAXAEAPEAPEA_W@Z 000000018001d334 f   libucrt:environment_initialization.obj
 0001:0001c390       ??$?RV<lambda_638799b9deba96c50f710eeac98168cd>@@AEAV<lambda_22ebabd17bc4fa466a2aca6d8deb888d>@@V<lambda_a6f7d7db0129f75315ebf26d50c089f1>@@@?$__crt_seh_guarded_call@H@@QEAAH$$QEAV<lambda_638799b9deba96c50f710eeac98168cd>@@AEAV<lambda_22ebabd17bc4fa466a2aca6d8deb888d>@@$$QEAV<lambda_a6f7d7db0129f75315ebf26d50c089f1>@@@Z 000000018001d390 f   libucrt:onexit.obj
 0001:0001c3cc       ??$?RV<lambda_7777bce6b2f8c936911f934f8298dc43>@@AEAV<lambda_f03950bc5685219e0bcd2087efbe011e>@@V<lambda_3883c3dff614d5e0c5f61bb1ac94921c>@@@?$__crt_seh_guarded_call@H@@QEAAH$$QEAV<lambda_7777bce6b2f8c936911f934f8298dc43>@@AEAV<lambda_f03950bc5685219e0bcd2087efbe011e>@@$$QEAV<lambda_3883c3dff614d5e0c5f61bb1ac94921c>@@@Z 000000018001d3cc f   libucrt:onexit.obj
 0001:0001c408       ??R<lambda_22ebabd17bc4fa466a2aca6d8deb888d>@@QEBAHXZ 000000018001d408 f   libucrt:onexit.obj
 0001:0001c5b8       ??R<lambda_f03950bc5685219e0bcd2087efbe011e>@@QEBAHXZ 000000018001d5b8 f   libucrt:onexit.obj
 0001:0001c78c       initialize_global_variables 000000018001d78c f   libucrt:initialization.obj
 0001:0001c7a0       initialize_c               000000018001d7a0 f   libucrt:initialization.obj
 0001:0001c7c4       uninitialize_environment   000000018001d7c4 f   libucrt:initialization.obj
 0001:0001c7d4       initialize_pointers        000000018001d7d4 f   libucrt:initialization.obj
 0001:0001c814       uninitialize_vcruntime     000000018001d814 f   libucrt:initialization.obj
 0001:0001c81c       uninitialize_allocated_memory 000000018001d81c f   libucrt:initialization.obj
 0001:0001c85c       uninitialize_allocated_io_buffers 000000018001d85c f   libucrt:initialization.obj
 0001:0001ce58       ??$?RV<lambda_0ae27a3a962d80f24befdcbee591983d>@@AEAV<lambda_8d0ee55de4b1038c4002e0adecdf1839>@@V<lambda_dc504788e8f1664fe9b84e20bfb512f2>@@@?$__crt_seh_guarded_call@X@@QEAAX$$QEAV<lambda_0ae27a3a962d80f24befdcbee591983d>@@AEAV<lambda_8d0ee55de4b1038c4002e0adecdf1839>@@$$QEAV<lambda_dc504788e8f1664fe9b84e20bfb512f2>@@@Z 000000018001de58 f   libucrt:per_thread_data.obj
 0001:0001ce98       ??$?RV<lambda_2d41944a1d46af3157314b8a01080d33>@@AEAV<lambda_8f455de75cd7d7f24b4096f044d8b9e6>@@V<lambda_aa500f224e6afead328df44964fe2772>@@@?$__crt_seh_guarded_call@X@@QEAAX$$QEAV<lambda_2d41944a1d46af3157314b8a01080d33>@@AEAV<lambda_8f455de75cd7d7f24b4096f044d8b9e6>@@$$QEAV<lambda_aa500f224e6afead328df44964fe2772>@@@Z 000000018001de98 f   libucrt:per_thread_data.obj
 0001:0001ced8       ??$?RV<lambda_aa87e3671a710a21b5dc78c0bdf72e11>@@AEAV<lambda_92619d2358a28f41a33ba319515a20b9>@@V<lambda_6992ecaafeb10aed2b74cb1fae11a551>@@@?$__crt_seh_guarded_call@X@@QEAAX$$QEAV<lambda_aa87e3671a710a21b5dc78c0bdf72e11>@@AEAV<lambda_92619d2358a28f41a33ba319515a20b9>@@$$QEAV<lambda_6992ecaafeb10aed2b74cb1fae11a551>@@@Z 000000018001ded8 f   libucrt:per_thread_data.obj
 0001:0001cf20       ??$?RV<lambda_f2e299630e499de9f9a165e60fcd3db5>@@AEAV<lambda_2ae9d31cdba2644fcbeaf08da7c24588>@@V<lambda_40d01ff24d0e7b3814fdbdcee8eab3c7>@@@?$__crt_seh_guarded_call@X@@QEAAX$$QEAV<lambda_f2e299630e499de9f9a165e60fcd3db5>@@AEAV<lambda_2ae9d31cdba2644fcbeaf08da7c24588>@@$$QEAV<lambda_40d01ff24d0e7b3814fdbdcee8eab3c7>@@@Z 000000018001df20 f   libucrt:per_thread_data.obj
 0001:0001cf80       ?construct_ptd_array@@YAXQEAU__acrt_ptd@@@Z 000000018001df80 f   libucrt:per_thread_data.obj
 0001:0001d050       ?destroy_fls@@YAXPEAX@Z    000000018001e050 f   libucrt:per_thread_data.obj
 0001:0001d070       ?destroy_ptd_array@@YAXQEAU__acrt_ptd@@@Z 000000018001e070 f   libucrt:per_thread_data.obj
 0001:0001d168       ?replace_current_thread_locale_nolock@@YAXQEAU__acrt_ptd@@QEAU__crt_locale_data@@@Z 000000018001e168 f   libucrt:per_thread_data.obj
 0001:0001d524       ?fp_format_a@@YAHQEBNPEAD_KQEAD2H_NIQEAU__crt_locale_pointers@@W4__acrt_rounding_mode@@@Z 000000018001e524 f   libucrt:cvt.obj
 0001:0001d8a4       ?fp_format_e@@YAHQEBNQEAD_K12H_NIQEAU__crt_locale_pointers@@W4__acrt_rounding_mode@@@Z 000000018001e8a4 f   libucrt:cvt.obj
 0001:0001d994       ?fp_format_e_internal@@YAHQEAD_KH_NIQEAU_strflt@@2QEAU__crt_locale_pointers@@@Z 000000018001e994 f   libucrt:cvt.obj
 0001:0001db68       ?fp_format_f_internal@@YAHQEAD_KHQEAU_strflt@@_NQEAU__crt_locale_pointers@@@Z 000000018001eb68 f   libucrt:cvt.obj
 0001:0001dcd0       ?fp_format_g@@YAHQEBNQEAD_K12H_NIW4__acrt_rounding_mode@@QEAU__crt_locale_pointers@@@Z 000000018001ecd0 f   libucrt:cvt.obj
 0001:0001de18       ?should_round_up@@YA_NQEBN_KFW4__acrt_rounding_mode@@@Z 000000018001ee18 f   libucrt:cvt.obj
 0001:0001e3cc       ??$?RV<lambda_1d892b297fdedeee07ed8124eeb2f2fa>@@AEAV<lambda_ffc046909424fd52df0ac47e64813305>@@V<lambda_01a7098693036236037e7cdb9bca3d73>@@@?$__crt_seh_guarded_call@X@@QEAAX$$QEAV<lambda_1d892b297fdedeee07ed8124eeb2f2fa>@@AEAV<lambda_ffc046909424fd52df0ac47e64813305>@@$$QEAV<lambda_01a7098693036236037e7cdb9bca3d73>@@@Z 000000018001f3cc f   libucrt:wsetlocale.obj
 0001:0001e508       ??$?RV<lambda_410d79af7f07d98d83a3f525b3859a53>@@AEAV<lambda_3e16ef9562a7dcce91392c22ab16ea36>@@V<lambda_38119f0e861e05405d8a144b9b982f0a>@@@?$__crt_seh_guarded_call@X@@QEAAX$$QEAV<lambda_410d79af7f07d98d83a3f525b3859a53>@@AEAV<lambda_3e16ef9562a7dcce91392c22ab16ea36>@@$$QEAV<lambda_38119f0e861e05405d8a144b9b982f0a>@@@Z 000000018001f508 f   libucrt:wsetlocale.obj
 0001:0001e578       ??$?RV<lambda_e9338f07fe435327d97d4ef86149e64d>@@AEAV<lambda_2a444430fde8c29194d880d93eed5e8f>@@AEAV<lambda_02db5278e8aef8b5e4976579d73f5304>@@@?$__crt_seh_guarded_call@X@@QEAAX$$QEAV<lambda_e9338f07fe435327d97d4ef86149e64d>@@AEAV<lambda_2a444430fde8c29194d880d93eed5e8f>@@AEAV<lambda_02db5278e8aef8b5e4976579d73f5304>@@@Z 000000018001f578 f   libucrt:wsetlocale.obj
 0001:0001e5a4       ??R<lambda_2a444430fde8c29194d880d93eed5e8f>@@QEBA@XZ 000000018001f5a4 f   libucrt:wsetlocale.obj
 0001:0001e978       _copytlocinfo_nolock       000000018001f978 f   libucrt:wsetlocale.obj
 0001:0001ea38       _expandlocale              000000018001fa38 f   libucrt:wsetlocale.obj
 0001:0001efc4       _wsetlocale_get_all        000000018001ffc4 f   libucrt:wsetlocale.obj
 0001:0001f1b0       _wsetlocale_nolock         00000001800201b0 f   libucrt:wsetlocale.obj
 0001:0001f440       _wsetlocale_set_cat        0000000180020440 f   libucrt:wsetlocale.obj
 0001:0001f794       parse_bcp47                0000000180020794 f   libucrt:wsetlocale.obj
 0001:0001f994       parse_bcp47_code_page      0000000180020994 f   libucrt:wsetlocale.obj
 0001:0001f9dc       parse_bcp47_language       00000001800209dc f   libucrt:wsetlocale.obj
 0001:0001fa68       parse_bcp47_region         0000000180020a68 f   libucrt:wsetlocale.obj
 0001:0001fb70       parse_bcp47_script         0000000180020b70 f   libucrt:wsetlocale.obj
 0001:0001fc00       string_is_alpha            0000000180020c00 f   libucrt:wsetlocale.obj
 0001:0001fc70       ?initialize_inherited_file_handles_nolock@@YAXXZ 0000000180020c70 f   libucrt:ioinit.obj
 0001:0001fd60       ?initialize_stdio_handles_nolock@@YAXXZ 0000000180020d60 f   libucrt:ioinit.obj
 0001:0001ff60       ?<lambda_invoker_cdecl>@<lambda_795c6bd18aed400428efeb9a5f0e1479>@@CAHPEA_W@Z 0000000180020f60 f   libucrt:winapi_thunks.obj
 0001:0001ff88       ??$?RV<lambda_48fc4a32460bb0512d3b13f8499328be>@@AEAV<lambda_6c3dac0a4f3f9cefca9bb494422f9b77>@@V<lambda_0a2f2c9f9a56eb2b08bfa6ff61d331c5>@@@?$__crt_seh_guarded_call@H@@QEAAH$$QEAV<lambda_48fc4a32460bb0512d3b13f8499328be>@@AEAV<lambda_6c3dac0a4f3f9cefca9bb494422f9b77>@@$$QEAV<lambda_0a2f2c9f9a56eb2b08bfa6ff61d331c5>@@@Z 0000000180020f88 f   libucrt:winapi_thunks.obj
 0001:00020004       ?try_get_function@@YAPEAXW4function_id@?A0x391cf84c@@QEBDQEBW4module_id@2@2@Z 0000000180021004 f   libucrt:winapi_thunks.obj
 0001:00020a74       ?_mbstowcs_l_helper@@YA_KPEA_WPEBD_KPEAU__crt_locale_pointers@@@Z 0000000180021a74 f   libucrt:mbstowcs.obj
 0001:00020e9c       ??$write_buffer_nolock@D@@YA_NDV__crt_stdio_stream@@@Z 0000000180021e9c f   libucrt:_flsbuf.obj
 0001:00020f80       ?stream_is_at_end_of_file_nolock@@YA_NV__crt_stdio_stream@@@Z 0000000180021f80 f   libucrt:_flsbuf.obj
 0001:00021130       ?find_or_allocate_unused_stream_nolock@@YA?AV__crt_stdio_stream@@XZ 0000000180022130 f   libucrt:stream.obj
 0001:00021590       ??$common_lseek@_J@@YA_JH_JH@Z 0000000180022590 f   libucrt:lseek.obj
 0001:00021680       ??$common_lseek_nolock@_J@@YA_JH_JH@Z 0000000180022680 f   libucrt:lseek.obj
 0001:00021bfc       ?__acrt_LCMapStringA_stat@@YAHPEAU__crt_locale_pointers@@PEB_WKPEBDHPEADHHH@Z 0000000180022bfc f   libucrt:lcmapstringa.obj
 0001:00022118       ??$?RV<lambda_a37b2b86f63e897a80ea819b0eb08c01>@@AEAV<lambda_38ce7e780aa69e748d6df282ebc68efe>@@V<lambda_99fb1378e971ab6e7edea83e3a7a83a2>@@@?$__crt_seh_guarded_call@H@@QEAAH$$QEAV<lambda_a37b2b86f63e897a80ea819b0eb08c01>@@AEAV<lambda_38ce7e780aa69e748d6df282ebc68efe>@@$$QEAV<lambda_99fb1378e971ab6e7edea83e3a7a83a2>@@@Z 0000000180023118 f   libucrt:commit.obj
 0001:000228cc       ?_wcstombs_l_helper@@YA_KPEADPEB_W_KPEAU__crt_locale_pointers@@@Z 00000001800238cc f   libucrt:wcstombs.obj
 0001:00022d10       ?InternalGetLocaleInfoA@@YAHQEAU__crt_locale_pointers@@QEB_WKQEADH@Z 0000000180023d10 f   libucrt:getlocaleinfoa.obj
 0001:000237f0       ?<lambda_invoker_cdecl>@<lambda_a1ce4c8ae42411fd470c77163914f50e>@@CAHPEBX0@Z 00000001800247f0 f   libucrt:argv_wildcards.obj
 0001:00023990       ??$common_expand_argv_wildcards@D@@YAHQEAPEADQEAPEAPEAD@Z 0000000180024990 f   libucrt:argv_wildcards.obj
 0001:00023b9c       ??$copy_and_add_argument_to_buffer@D@@YAHQEBD0_KAEAV?$argument_list@D@?A0x5f5c8891@@@Z 0000000180024b9c f   libucrt:argv_wildcards.obj
 0001:00023d24       ??$expand_argument_wildcards@D@@YAHQEAD0AEAV?$argument_list@D@?A0x5f5c8891@@@Z 0000000180024d24 f   libucrt:argv_wildcards.obj
 0001:0002415c       ??$?RV<lambda_efdfa57d1f175319df784efa44bb7b81>@@AEAV<lambda_5f0a4c1567f8adc6734073e5d1e1b35c>@@V<lambda_2e8a7d3640ea6ccb4c2413664c2db6fd>@@@?$__crt_seh_guarded_call@X@@QEAAX$$QEAV<lambda_efdfa57d1f175319df784efa44bb7b81>@@AEAV<lambda_5f0a4c1567f8adc6734073e5d1e1b35c>@@$$QEAV<lambda_2e8a7d3640ea6ccb4c2413664c2db6fd>@@@Z 000000018002515c f   libucrt:mbctype.obj
 0001:00024318       ?getSystemCP@@YAHH@Z       0000000180025318 f   libucrt:mbctype.obj
 0001:00024398       ?setSBCS@@YAXPEAU__crt_multibyte_data@@@Z 0000000180025398 f   libucrt:mbctype.obj
 0001:00024428       ?setSBUpLow@@YAXPEAU__crt_multibyte_data@@@Z 0000000180025428 f   libucrt:mbctype.obj
 0001:0002460c       ?setmbcp_internal@@YAHH_NQEAU__acrt_ptd@@QEAPEAU__crt_multibyte_data@@@Z 000000018002560c f   libucrt:mbctype.obj
 0001:000247cc       ?update_thread_multibyte_data_internal@@YAPEAU__crt_multibyte_data@@QEAU__acrt_ptd@@QEAPEAU1@@Z 00000001800257cc f   libucrt:mbctype.obj
 0001:00024bbc       ?x_ismbbtype_l@@YAHPEAU__crt_locale_pointers@@IHH@Z 0000000180025bbc f   libucrt:ismbbyte.obj
 0001:0002714c       ?free_crt_array_internal@@YAXQEAPEBX_K@Z 000000018002814c f   libucrt:inittime.obj
 0001:000271a4       ?initialize_lc_time@@YA_NQEAU__crt_lc_time_data@@QEAU__crt_locale_data@@@Z 00000001800281a4 f   libucrt:inittime.obj
 0001:00027960       GetLocaleNameFromDefault   0000000180028960 f   libucrt:get_qualified_locale.obj
 0001:00027a08       GetLocaleNameFromLangCountry 0000000180028a08 f   libucrt:get_qualified_locale.obj
 0001:00027ad8       GetLocaleNameFromLanguage  0000000180028ad8 f   libucrt:get_qualified_locale.obj
 0001:00027b70       LangCountryEnumProcEx      0000000180028b70 f   libucrt:get_qualified_locale.obj
 0001:00027e5c       LanguageEnumProcEx         0000000180028e5c f   libucrt:get_qualified_locale.obj
 0001:00027f48       ProcessCodePage            0000000180028f48 f   libucrt:get_qualified_locale.obj
 0001:00028014       TestDefaultCountry         0000000180029014 f   libucrt:get_qualified_locale.obj
 0001:00028078       TranslateName              0000000180029078 f   libucrt:get_qualified_locale.obj
 0001:00028378       CountryEnumProc            0000000180029378 f   libucrt:getqloc_downlevel.obj
 0001:00028460       GetLcidFromLangCountry     0000000180029460 f   libucrt:getqloc_downlevel.obj
 0001:00028530       GetLcidFromLanguage        0000000180029530 f   libucrt:getqloc_downlevel.obj
 0001:000285c8       LangCountryEnumProc        00000001800295c8 f   libucrt:getqloc_downlevel.obj
 0001:00028814       LanguageEnumProc           0000000180029814 f   libucrt:getqloc_downlevel.obj
 0001:0002891c       LcidFromHexString          000000018002991c f   libucrt:getqloc_downlevel.obj
 0001:0002896c       ProcessCodePage            000000018002996c f   libucrt:getqloc_downlevel.obj
 0001:00028a1c       TestDefaultLanguage        0000000180029a1c f   libucrt:getqloc_downlevel.obj
 0001:00028ac8       TranslateName              0000000180029ac8 f   libucrt:getqloc_downlevel.obj
 0001:00029680       $$000000                   000000018002a680     libucrt:fpsr.obj
 0001:000297fc       _call_matherr              000000018002a7fc f   libucrt:libm_error.obj
 0001:00029864       _exception_enabled         000000018002a864 f   libucrt:libm_error.obj
 0001:00029ba8       fallbackMethod             000000018002aba8 f   libucrt:strpbrk.obj
 0001:00029f5c       $LN78                      000000018002af5c     libucrt:strpbrk.obj
 0001:00029f98       $LN77                      000000018002af98     libucrt:strpbrk.obj
 0001:00029fd8       $LN76                      000000018002afd8     libucrt:strpbrk.obj
 0001:0002a0b4       ?initialize_multibyte@@YAHXZ 000000018002b0b4 f   libucrt:multibyte_initializer.obj
 0001:0002a2f0       $$000000                   000000018002b2f0     libucrt:log10.obj
 0001:0002a89c       ??$common_xtox@K_W@@YAHKQEA_W_KI_N@Z 000000018002b89c f   libucrt:xtoa.obj
 0001:0002a970       ??$common_xtox_s@K_W@@YAHKQEA_W_KI_N@Z 000000018002b970 f   libucrt:xtoa.obj
 0001:0002abd8       common_control87           000000018002bbd8 f   libucrt:ieee.obj
 0001:0002aec0       _log_special_common        000000018002bec0 f   libucrt:log_special.obj
 0001:0002b320       $$000000                   000000018002c320     libucrt:sinf.obj
 0001:0002ba20       $$000000                   000000018002ca20     libucrt:remainder_piby2f_forc.obj
 0001:0002bbac       _sincosf_special           000000018002cbac f   libucrt:sincos_special.obj
 0001:0002bc50       $$000000                   000000018002cc50     LIBCMT:guard_dispatch.obj
 0001:0002bc70       $$000000                   000000018002cc70     LIBCMT:guard_xfg_dispatch.obj
 0001:0002bc90       ?dtor$0@?0???0LogSys@@QEAA@Vpath@filesystem@std@@@Z@4HA 000000018002cc90 f   logsys.obj
 0001:0002bc9c       ?dtor$1@?0???0LogSys@@QEAA@Vpath@filesystem@std@@@Z@4HA 000000018002cc9c f   logsys.obj
 0001:0002bca8       ?dtor$2@?0???0LogSys@@QEAA@Vpath@filesystem@std@@@Z@4HA 000000018002cca8 f   logsys.obj
 0001:0002bcb8       ?dtor$3@?0???0LogSys@@QEAA@Vpath@filesystem@std@@@Z@4HA 000000018002ccb8 f   logsys.obj
 0001:0002bccb       ?dtor$4@?0???0LogSys@@QEAA@Vpath@filesystem@std@@@Z@4HA 000000018002cccb f   logsys.obj
 0001:0002bcd7       ?dtor$15@?0???0LogSys@@QEAA@Vpath@filesystem@std@@@Z@4HA 000000018002ccd7 f   logsys.obj
 0001:0002bd03       ?dtor$6@?0???0LogSys@@QEAA@Vpath@filesystem@std@@@Z@4HA 000000018002cd03 f   logsys.obj
 0001:0002bd10       ?dtor$0@?0???0?$basic_ofstream@DU?$char_traits@D@std@@@std@@QEAA@XZ@4HA 000000018002cd10 f   logsys.obj
 0001:0002bd3d       ?dtor$1@?0???0?$basic_ofstream@DU?$char_traits@D@std@@@std@@QEAA@XZ@4HA 000000018002cd3d f   logsys.obj
 0001:0002bd50       ?dtor$0@?0??uflow@?$basic_filebuf@DU?$char_traits@D@std@@@std@@MEAAHXZ@4HA 000000018002cd50 f   logsys.obj
 0001:0002bd60       ?dtor$0@?0???0?$basic_ifstream@DU?$char_traits@D@std@@@std@@QEAA@XZ@4HA 000000018002cd60 f   logsys.obj
 0001:0002bd8d       ?dtor$1@?0???0?$basic_ifstream@DU?$char_traits@D@std@@@std@@QEAA@XZ@4HA 000000018002cd8d f   logsys.obj
 0001:0002bda0       ?dtor$0@?0???$use_facet@V?$codecvt@DDU_Mbstatet@@@std@@@std@@YAAEBV?$codecvt@DDU_Mbstatet@@@0@AEBVlocale@0@@Z@4HA 000000018002cda0 f   logsys.obj
 0001:0002bda0       ?dtor$0@?0???$use_facet@V?$ctype@D@std@@@std@@YAAEBV?$ctype@D@0@AEBVlocale@0@@Z@4HA 000000018002cda0 f   logsys.obj
 0001:0002bdac       ?dtor$1@?0???$use_facet@V?$codecvt@DDU_Mbstatet@@@std@@@std@@YAAEBV?$codecvt@DDU_Mbstatet@@@0@AEBVlocale@0@@Z@4HA 000000018002cdac f   logsys.obj
 0001:0002bdac       ?dtor$1@?0???$use_facet@V?$ctype@D@std@@@std@@YAAEBV?$ctype@D@0@AEBVlocale@0@@Z@4HA 000000018002cdac f   logsys.obj
 0001:0002bdc0       ?dtor$0@?0??_Getcat@?$codecvt@DDU_Mbstatet@@@std@@SA_KPEAPEBVfacet@locale@2@PEBV42@@Z@4HA 000000018002cdc0 f   logsys.obj
 0001:0002bde0       ?dtor$2@?0??_Getcat@?$codecvt@DDU_Mbstatet@@@std@@SA_KPEAPEBVfacet@locale@2@PEBV42@@Z@4HA 000000018002cde0 f   logsys.obj
 0001:0002bdec       ?dtor$3@?0??_Getcat@?$codecvt@DDU_Mbstatet@@@std@@SA_KPEAPEBVfacet@locale@2@PEBV42@@Z@4HA 000000018002cdec f   logsys.obj
 0001:0002bdfc       ?dtor$4@?0??_Getcat@?$codecvt@DDU_Mbstatet@@@std@@SA_KPEAPEBVfacet@locale@2@PEBV42@@Z@4HA 000000018002cdfc f   logsys.obj
 0001:0002be0c       ?dtor$5@?0??_Getcat@?$codecvt@DDU_Mbstatet@@@std@@SA_KPEAPEBVfacet@locale@2@PEBV42@@Z@4HA 000000018002ce0c f   logsys.obj
 0001:0002be1c       ?dtor$6@?0??_Getcat@?$codecvt@DDU_Mbstatet@@@std@@SA_KPEAPEBVfacet@locale@2@PEBV42@@Z@4HA 000000018002ce1c f   logsys.obj
 0001:0002be2c       ?dtor$7@?0??_Getcat@?$codecvt@DDU_Mbstatet@@@std@@SA_KPEAPEBVfacet@locale@2@PEBV42@@Z@4HA 000000018002ce2c f   logsys.obj
 0001:0002be3c       ?dtor$8@?0??_Getcat@?$codecvt@DDU_Mbstatet@@@std@@SA_KPEAPEBVfacet@locale@2@PEBV42@@Z@4HA 000000018002ce3c f   logsys.obj
 0001:0002be50       ?dtor$0@?0???0?$basic_ofstream@DU?$char_traits@D@std@@@std@@QEAA@PEB_WHH@Z@4HA 000000018002ce50 f   logsys.obj
 0001:0002be7d       ?dtor$1@?0???0?$basic_ofstream@DU?$char_traits@D@std@@@std@@QEAA@PEB_WHH@Z@4HA 000000018002ce7d f   logsys.obj
 0001:0002be8d       ?dtor$2@?0???0?$basic_ofstream@DU?$char_traits@D@std@@@std@@QEAA@PEB_WHH@Z@4HA 000000018002ce8d f   logsys.obj
 0001:0002be9d       ?dtor$4@?0???0?$basic_ofstream@DU?$char_traits@D@std@@@std@@QEAA@PEB_WHH@Z@4HA 000000018002ce9d f   logsys.obj
 0001:0002beb0       ?dtor$0@?0??_Convert_narrow_to_wide@filesystem@std@@YA?AV?$basic_string@_WU?$char_traits@_W@std@@V?$allocator@_W@2@@2@W4__std_code_page@@V?$basic_string_view@DU?$char_traits@D@std@@@2@@Z@4HA 000000018002ceb0 f   logsys.obj
 0001:0002bee0       ?dtor$0@?0??_Getcat@?$ctype@D@std@@SA_KPEAPEBVfacet@locale@2@PEBV42@@Z@4HA 000000018002cee0 f   logsys.obj
 0001:0002bf00       ?dtor$2@?0??_Getcat@?$ctype@D@std@@SA_KPEAPEBVfacet@locale@2@PEBV42@@Z@4HA 000000018002cf00 f   logsys.obj
 0001:0002bf0c       ?dtor$3@?0??_Getcat@?$ctype@D@std@@SA_KPEAPEBVfacet@locale@2@PEBV42@@Z@4HA 000000018002cf0c f   logsys.obj
 0001:0002bf1c       ?dtor$4@?0??_Getcat@?$ctype@D@std@@SA_KPEAPEBVfacet@locale@2@PEBV42@@Z@4HA 000000018002cf1c f   logsys.obj
 0001:0002bf2c       ?dtor$5@?0??_Getcat@?$ctype@D@std@@SA_KPEAPEBVfacet@locale@2@PEBV42@@Z@4HA 000000018002cf2c f   logsys.obj
 0001:0002bf3c       ?dtor$6@?0??_Getcat@?$ctype@D@std@@SA_KPEAPEBVfacet@locale@2@PEBV42@@Z@4HA 000000018002cf3c f   logsys.obj
 0001:0002bf4c       ?dtor$7@?0??_Getcat@?$ctype@D@std@@SA_KPEAPEBVfacet@locale@2@PEBV42@@Z@4HA 000000018002cf4c f   logsys.obj
 0001:0002bf5c       ?dtor$8@?0??_Getcat@?$ctype@D@std@@SA_KPEAPEBVfacet@locale@2@PEBV42@@Z@4HA 000000018002cf5c f   logsys.obj
 0001:0002bf70       ?dtor$1@?0??init@?$basic_ios@DU?$char_traits@D@std@@@std@@IEAAXPEAV?$basic_streambuf@DU?$char_traits@D@std@@@2@_N@Z@4HA 000000018002cf70 f   logsys.obj
 0001:0002bf80       ?dtor$0@?0???0system_error@std@@QEAA@Verror_code@1@@Z@4HA 000000018002cf80 f   logsys.obj
 0001:0002bf80       ?dtor$1@?0???0failure@ios_base@std@@QEAA@PEBDAEBVerror_code@2@@Z@4HA 000000018002cf80 f   logsys.obj
 0001:0002bf90       ?dtor$0@?0???Kfilesystem@std@@YA?AVpath@01@AEBV201@0@Z@4HA 000000018002cf90 f   logsys.obj
 0001:0002bfc0       ?dtor$0@?0??_Throw_fs_error@filesystem@std@@YAXPEBDW4__std_win_error@@AEBVpath@12@@Z@4HA 000000018002cfc0 f   logsys.obj
 0001:0002bfd0       ?dtor$3@?0???0_System_error@std@@IEAA@Verror_code@1@AEBV?$basic_string@DU?$char_traits@D@std@@V?$allocator@D@2@@1@@Z@4HA 000000018002cfd0 f   logsys.obj
 0001:0002bfdc       ?dtor$4@?0???0_System_error@std@@IEAA@Verror_code@1@AEBV?$basic_string@DU?$char_traits@D@std@@V?$allocator@D@2@@1@@Z@4HA 000000018002cfdc f   logsys.obj
 0001:0002bff0       ?dtor$0@?0??message@_System_error_category@std@@UEBA?AV?$basic_string@DU?$char_traits@D@std@@V?$allocator@D@2@@2@H@Z@4HA 000000018002cff0 f   logsys.obj
 0001:0002c000       ?dtor$0@?0???$_Convert_wide_to_narrow_replace_chars@U?$char_traits@D@std@@V?$allocator@D@2@@filesystem@std@@YA?AV?$basic_string@DU?$char_traits@D@std@@V?$allocator@D@2@@1@W4__std_code_page@@V?$basic_string_view@_WU?$char_traits@_W@std@@@1@AEBV?$allocator@D@1@@Z@4HA 000000018002d000 f   logsys.obj
 0001:0002c030       ?dtor$0@?0??_Pretty_message@filesystem_error@filesystem@std@@CA?AV?$basic_string@DU?$char_traits@D@std@@V?$allocator@D@2@@3@V?$basic_string_view@DU?$char_traits@D@std@@@3@AEBVpath@23@1@Z@4HA 000000018002d030 f   logsys.obj
 0001:0002c056       ?dtor$1@?0??_Pretty_message@filesystem_error@filesystem@std@@CA?AV?$basic_string@DU?$char_traits@D@std@@V?$allocator@D@2@@3@V?$basic_string_view@DU?$char_traits@D@std@@@3@AEBVpath@23@1@Z@4HA 000000018002d056 f   logsys.obj
 0001:0002c062       ?dtor$2@?0??_Pretty_message@filesystem_error@filesystem@std@@CA?AV?$basic_string@DU?$char_traits@D@std@@V?$allocator@D@2@@3@V?$basic_string_view@DU?$char_traits@D@std@@@3@AEBVpath@23@1@Z@4HA 000000018002d062 f   logsys.obj
 0001:0002c070       ?dtor$0@?0???0filesystem_error@filesystem@std@@QEAA@AEBV?$basic_string@DU?$char_traits@D@std@@V?$allocator@D@2@@2@AEBVpath@12@Verror_code@2@@Z@4HA 000000018002d070 f   logsys.obj
 0001:0002c07c       ?dtor$1@?0???0filesystem_error@filesystem@std@@QEAA@AEBV?$basic_string@DU?$char_traits@D@std@@V?$allocator@D@2@@2@AEBVpath@12@Verror_code@2@@Z@4HA 000000018002d07c f   logsys.obj
 0001:0002c08c       ?dtor$2@?0???0filesystem_error@filesystem@std@@QEAA@AEBV?$basic_string@DU?$char_traits@D@std@@V?$allocator@D@2@@2@AEBVpath@12@Verror_code@2@@Z@4HA 000000018002d08c f   logsys.obj
 0001:0002c09c       ?dtor$3@?0???0filesystem_error@filesystem@std@@QEAA@AEBV?$basic_string@DU?$char_traits@D@std@@V?$allocator@D@2@@2@AEBVpath@12@Verror_code@2@@Z@4HA 000000018002d09c f   logsys.obj
 0001:0002c0b0       ?dtor$0@?0???0filesystem_error@filesystem@std@@QEAA@AEBV012@@Z@4HA 000000018002d0b0 f   logsys.obj
 0001:0002c0bc       ?dtor$1@?0???0filesystem_error@filesystem@std@@QEAA@AEBV012@@Z@4HA 000000018002d0bc f   logsys.obj
 0001:0002c0cc       ?dtor$2@?0???0filesystem_error@filesystem@std@@QEAA@AEBV012@@Z@4HA 000000018002d0cc f   logsys.obj
 0001:0002c0e0       ?dtor$0@?0??_Throw_fs_error@filesystem@std@@YAXPEBDAEBVerror_code@2@AEBVpath@12@@Z@4HA 000000018002d0e0 f   logsys.obj
 0001:0002c0f0       ?dtor$0@?0???0?$wrapexcept@Vsystem_error@system@boost@@@boost@@QEAA@AEBVsystem_error@system@1@@Z@4HA 000000018002d0f0 f   server.obj
 0001:0002c0fc       ?dtor$3@?0???0?$wrapexcept@Vsystem_error@system@boost@@@boost@@QEAA@AEBVsystem_error@system@1@@Z@4HA 000000018002d0fc f   server.obj
 0001:0002c110       ?dtor$0@?0??clone@?$wrapexcept@Vsystem_error@system@boost@@@boost@@UEBAPEBVclone_base@exception_detail@2@XZ@4HA 000000018002d110 f   server.obj
 0001:0002c12d       ?dtor$1@?0??clone@?$wrapexcept@Vsystem_error@system@boost@@@boost@@UEBAPEBVclone_base@exception_detail@2@XZ@4HA 000000018002d12d f   server.obj
 0001:0002c140       ?dtor$0@?0???0?$wrapexcept@Vsystem_error@system@boost@@@boost@@QEAA@AEBU01@@Z@4HA 000000018002d140 f   server.obj
 0001:0002c14c       ?dtor$3@?0???0?$wrapexcept@Vsystem_error@system@boost@@@boost@@QEAA@AEBU01@@Z@4HA 000000018002d14c f   server.obj
 0001:0002c158       ?dtor$1@?0???0?$wrapexcept@Vsystem_error@system@boost@@@boost@@QEAA@AEBU01@@Z@4HA 000000018002d158 f   server.obj
 0001:0002c170       ?dtor$0@?0??what@system_error@system@boost@@UEBAPEBDXZ@4HA 000000018002d170 f   server.obj
 0001:0002c17c       ?catch$4@?0??what@system_error@system@boost@@UEBAPEBDXZ@4HA 000000018002d17c f   server.obj
 0001:0002c189       __catch$?what@system_error@system@boost@@UEBAPEBDXZ$0 000000018002d189 f   server.obj
 0001:0002c1c0       ?dtor$0@?0???0system_error@system@boost@@QEAA@AEBV012@@Z@4HA 000000018002d1c0 f   server.obj
 0001:0002c1c0       ?dtor$0@?0???0bad_exception@std@@QEAA@AEBV01@@Z@4HA 000000018002d1c0 f   libcpmt:excptptr.obj
 0001:0002c1c0       ?dtor$0@?0???1bad_exception@std@@UEAA@XZ@4HA 000000018002d1c0 f   libcpmt:excptptr.obj
 0001:0002c1c0       ?dtor$0@?0???_Gbad_exception@std@@UEAAPEAXI@Z@4HA 000000018002d1c0 f   libcpmt:excptptr.obj
 0001:0002c1d0       ?dtor$0@?0??do_throw_error@detail@asio@boost@@YAXAEBVerror_code@system@3@PEBD@Z@4HA 000000018002d1d0 f   server.obj
 0001:0002c1e0       ?dtor$0@?0??copy_boost_exception@exception_detail@boost@@YAXPEAVexception@2@PEBV32@@Z@4HA 000000018002d1e0 f   server.obj
 0001:0002c1ec       ?dtor$1@?0??copy_boost_exception@exception_detail@boost@@YAXPEAVexception@2@PEBV32@@Z@4HA 000000018002d1ec f   server.obj
 0001:0002c200       ?dtor$1@?0??system_category_message_win32@detail@system@boost@@YA?AV?$basic_string@DU?$char_traits@D@std@@V?$allocator@D@2@@std@@H@Z@4HA 000000018002d200 f   server.obj
 0001:0002c20c       ?dtor$2@?0??system_category_message_win32@detail@system@boost@@YA?AV?$basic_string@DU?$char_traits@D@std@@V?$allocator@D@2@@std@@H@Z@4HA 000000018002d20c f   server.obj
 0001:0002c220       ?dtor$0@?0???__EMAP_CODENAMES@@YAXXZ@4HA 000000018002d220 f   SixMansPlugin-Rework.obj
 0001:0002c22c       ?dtor$1@?0???__EMAP_CODENAMES@@YAXXZ@4HA 000000018002d22c f   SixMansPlugin-Rework.obj
 0001:0002c238       ?dtor$2@?0???__EMAP_CODENAMES@@YAXXZ@4HA 000000018002d238 f   SixMansPlugin-Rework.obj
 0001:0002c244       ?dtor$3@?0???__EMAP_CODENAMES@@YAXXZ@4HA 000000018002d244 f   SixMansPlugin-Rework.obj
 0001:0002c250       ?dtor$4@?0???__EMAP_CODENAMES@@YAXXZ@4HA 000000018002d250 f   SixMansPlugin-Rework.obj
 0001:0002c25c       ?dtor$5@?0???__EMAP_CODENAMES@@YAXXZ@4HA 000000018002d25c f   SixMansPlugin-Rework.obj
 0001:0002c268       ?dtor$6@?0???__EMAP_CODENAMES@@YAXXZ@4HA 000000018002d268 f   SixMansPlugin-Rework.obj
 0001:0002c274       ?dtor$7@?0???__EMAP_CODENAMES@@YAXXZ@4HA 000000018002d274 f   SixMansPlugin-Rework.obj
 0001:0002c280       ?dtor$8@?0???__EMAP_CODENAMES@@YAXXZ@4HA 000000018002d280 f   SixMansPlugin-Rework.obj
 0001:0002c28c       ?dtor$9@?0???__EMAP_CODENAMES@@YAXXZ@4HA 000000018002d28c f   SixMansPlugin-Rework.obj
 0001:0002c298       ?dtor$10@?0???__EMAP_CODENAMES@@YAXXZ@4HA 000000018002d298 f   SixMansPlugin-Rework.obj
 0001:0002c2a4       ?dtor$11@?0???__EMAP_CODENAMES@@YAXXZ@4HA 000000018002d2a4 f   SixMansPlugin-Rework.obj
 0001:0002c2b0       ?dtor$12@?0???__EMAP_CODENAMES@@YAXXZ@4HA 000000018002d2b0 f   SixMansPlugin-Rework.obj
 0001:0002c2bc       ?dtor$13@?0???__EMAP_CODENAMES@@YAXXZ@4HA 000000018002d2bc f   SixMansPlugin-Rework.obj
 0001:0002c2c8       ?dtor$14@?0???__EMAP_CODENAMES@@YAXXZ@4HA 000000018002d2c8 f   SixMansPlugin-Rework.obj
 0001:0002c2d4       ?dtor$15@?0???__EMAP_CODENAMES@@YAXXZ@4HA 000000018002d2d4 f   SixMansPlugin-Rework.obj
 0001:0002c2e0       ?dtor$16@?0???__EMAP_CODENAMES@@YAXXZ@4HA 000000018002d2e0 f   SixMansPlugin-Rework.obj
 0001:0002c2ec       ?dtor$17@?0???__EMAP_CODENAMES@@YAXXZ@4HA 000000018002d2ec f   SixMansPlugin-Rework.obj
 0001:0002c2f8       ?dtor$18@?0???__EMAP_CODENAMES@@YAXXZ@4HA 000000018002d2f8 f   SixMansPlugin-Rework.obj
 0001:0002c304       ?dtor$19@?0???__EMAP_CODENAMES@@YAXXZ@4HA 000000018002d304 f   SixMansPlugin-Rework.obj
 0001:0002c310       ?dtor$20@?0???__EMAP_CODENAMES@@YAXXZ@4HA 000000018002d310 f   SixMansPlugin-Rework.obj
 0001:0002c31c       ?dtor$21@?0???__EMAP_CODENAMES@@YAXXZ@4HA 000000018002d31c f   SixMansPlugin-Rework.obj
 0001:0002c328       ?dtor$22@?0???__EMAP_CODENAMES@@YAXXZ@4HA 000000018002d328 f   SixMansPlugin-Rework.obj
 0001:0002c334       ?dtor$23@?0???__EMAP_CODENAMES@@YAXXZ@4HA 000000018002d334 f   SixMansPlugin-Rework.obj
 0001:0002c340       ?dtor$24@?0???__EMAP_CODENAMES@@YAXXZ@4HA 000000018002d340 f   SixMansPlugin-Rework.obj
 0001:0002c34c       ?dtor$25@?0???__EMAP_CODENAMES@@YAXXZ@4HA 000000018002d34c f   SixMansPlugin-Rework.obj
 0001:0002c358       ?dtor$26@?0???__EMAP_CODENAMES@@YAXXZ@4HA 000000018002d358 f   SixMansPlugin-Rework.obj
 0001:0002c364       ?dtor$27@?0???__EMAP_CODENAMES@@YAXXZ@4HA 000000018002d364 f   SixMansPlugin-Rework.obj
 0001:0002c370       ?dtor$28@?0???__EMAP_CODENAMES@@YAXXZ@4HA 000000018002d370 f   SixMansPlugin-Rework.obj
 0001:0002c37c       ?dtor$29@?0???__EMAP_CODENAMES@@YAXXZ@4HA 000000018002d37c f   SixMansPlugin-Rework.obj
 0001:0002c388       ?dtor$30@?0???__EMAP_CODENAMES@@YAXXZ@4HA 000000018002d388 f   SixMansPlugin-Rework.obj
 0001:0002c394       ?dtor$31@?0???__EMAP_CODENAMES@@YAXXZ@4HA 000000018002d394 f   SixMansPlugin-Rework.obj
 0001:0002c3a0       ?dtor$32@?0???__EMAP_CODENAMES@@YAXXZ@4HA 000000018002d3a0 f   SixMansPlugin-Rework.obj
 0001:0002c3ac       ?dtor$33@?0???__EMAP_CODENAMES@@YAXXZ@4HA 000000018002d3ac f   SixMansPlugin-Rework.obj
 0001:0002c3c0       ?dtor$0@?0??onLoad@SixMansPlugin@@EEAAXXZ@4HA 000000018002d3c0 f   SixMansPlugin-Rework.obj
 0001:0002c3cc       ?dtor$1@?0??onLoad@SixMansPlugin@@EEAAXXZ@4HA 000000018002d3cc f   SixMansPlugin-Rework.obj
 0001:0002c3d8       ?dtor$3@?0??onLoad@SixMansPlugin@@EEAAXXZ@4HA 000000018002d3d8 f   SixMansPlugin-Rework.obj
 0001:0002c3f0       ?dtor$0@?0???__EMAP_CODENAMES@@YAXXZ@4HA 000000018002d3f0 f   SixMansPlugin-ReworkGUI.obj
 0001:0002c3fc       ?dtor$1@?0???__EMAP_CODENAMES@@YAXXZ@4HA 000000018002d3fc f   SixMansPlugin-ReworkGUI.obj
 0001:0002c408       ?dtor$2@?0???__EMAP_CODENAMES@@YAXXZ@4HA 000000018002d408 f   SixMansPlugin-ReworkGUI.obj
 0001:0002c414       ?dtor$3@?0???__EMAP_CODENAMES@@YAXXZ@4HA 000000018002d414 f   SixMansPlugin-ReworkGUI.obj
 0001:0002c420       ?dtor$4@?0???__EMAP_CODENAMES@@YAXXZ@4HA 000000018002d420 f   SixMansPlugin-ReworkGUI.obj
 0001:0002c42c       ?dtor$5@?0???__EMAP_CODENAMES@@YAXXZ@4HA 000000018002d42c f   SixMansPlugin-ReworkGUI.obj
 0001:0002c438       ?dtor$6@?0???__EMAP_CODENAMES@@YAXXZ@4HA 000000018002d438 f   SixMansPlugin-ReworkGUI.obj
 0001:0002c444       ?dtor$7@?0???__EMAP_CODENAMES@@YAXXZ@4HA 000000018002d444 f   SixMansPlugin-ReworkGUI.obj
 0001:0002c450       ?dtor$8@?0???__EMAP_CODENAMES@@YAXXZ@4HA 000000018002d450 f   SixMansPlugin-ReworkGUI.obj
 0001:0002c45c       ?dtor$9@?0???__EMAP_CODENAMES@@YAXXZ@4HA 000000018002d45c f   SixMansPlugin-ReworkGUI.obj
 0001:0002c468       ?dtor$10@?0???__EMAP_CODENAMES@@YAXXZ@4HA 000000018002d468 f   SixMansPlugin-ReworkGUI.obj
 0001:0002c474       ?dtor$11@?0???__EMAP_CODENAMES@@YAXXZ@4HA 000000018002d474 f   SixMansPlugin-ReworkGUI.obj
 0001:0002c480       ?dtor$12@?0???__EMAP_CODENAMES@@YAXXZ@4HA 000000018002d480 f   SixMansPlugin-ReworkGUI.obj
 0001:0002c48c       ?dtor$13@?0???__EMAP_CODENAMES@@YAXXZ@4HA 000000018002d48c f   SixMansPlugin-ReworkGUI.obj
 0001:0002c498       ?dtor$14@?0???__EMAP_CODENAMES@@YAXXZ@4HA 000000018002d498 f   SixMansPlugin-ReworkGUI.obj
 0001:0002c4a4       ?dtor$15@?0???__EMAP_CODENAMES@@YAXXZ@4HA 000000018002d4a4 f   SixMansPlugin-ReworkGUI.obj
 0001:0002c4b0       ?dtor$16@?0???__EMAP_CODENAMES@@YAXXZ@4HA 000000018002d4b0 f   SixMansPlugin-ReworkGUI.obj
 0001:0002c4bc       ?dtor$17@?0???__EMAP_CODENAMES@@YAXXZ@4HA 000000018002d4bc f   SixMansPlugin-ReworkGUI.obj
 0001:0002c4c8       ?dtor$18@?0???__EMAP_CODENAMES@@YAXXZ@4HA 000000018002d4c8 f   SixMansPlugin-ReworkGUI.obj
 0001:0002c4d4       ?dtor$19@?0???__EMAP_CODENAMES@@YAXXZ@4HA 000000018002d4d4 f   SixMansPlugin-ReworkGUI.obj
 0001:0002c4e0       ?dtor$20@?0???__EMAP_CODENAMES@@YAXXZ@4HA 000000018002d4e0 f   SixMansPlugin-ReworkGUI.obj
 0001:0002c4ec       ?dtor$21@?0???__EMAP_CODENAMES@@YAXXZ@4HA 000000018002d4ec f   SixMansPlugin-ReworkGUI.obj
 0001:0002c4f8       ?dtor$22@?0???__EMAP_CODENAMES@@YAXXZ@4HA 000000018002d4f8 f   SixMansPlugin-ReworkGUI.obj
 0001:0002c504       ?dtor$23@?0???__EMAP_CODENAMES@@YAXXZ@4HA 000000018002d504 f   SixMansPlugin-ReworkGUI.obj
 0001:0002c510       ?dtor$24@?0???__EMAP_CODENAMES@@YAXXZ@4HA 000000018002d510 f   SixMansPlugin-ReworkGUI.obj
 0001:0002c51c       ?dtor$25@?0???__EMAP_CODENAMES@@YAXXZ@4HA 000000018002d51c f   SixMansPlugin-ReworkGUI.obj
 0001:0002c528       ?dtor$26@?0???__EMAP_CODENAMES@@YAXXZ@4HA 000000018002d528 f   SixMansPlugin-ReworkGUI.obj
 0001:0002c534       ?dtor$27@?0???__EMAP_CODENAMES@@YAXXZ@4HA 000000018002d534 f   SixMansPlugin-ReworkGUI.obj
 0001:0002c540       ?dtor$28@?0???__EMAP_CODENAMES@@YAXXZ@4HA 000000018002d540 f   SixMansPlugin-ReworkGUI.obj
 0001:0002c54c       ?dtor$29@?0???__EMAP_CODENAMES@@YAXXZ@4HA 000000018002d54c f   SixMansPlugin-ReworkGUI.obj
 0001:0002c558       ?dtor$30@?0???__EMAP_CODENAMES@@YAXXZ@4HA 000000018002d558 f   SixMansPlugin-ReworkGUI.obj
 0001:0002c564       ?dtor$31@?0???__EMAP_CODENAMES@@YAXXZ@4HA 000000018002d564 f   SixMansPlugin-ReworkGUI.obj
 0001:0002c570       ?dtor$32@?0???__EMAP_CODENAMES@@YAXXZ@4HA 000000018002d570 f   SixMansPlugin-ReworkGUI.obj
 0001:0002c57c       ?dtor$33@?0???__EMAP_CODENAMES@@YAXXZ@4HA 000000018002d57c f   SixMansPlugin-ReworkGUI.obj
 0001:0002c588       ?dtor$0@?0??_Init@locale@std@@CAPEAV_Locimp@12@_N@Z@4HA 000000018002d588 f   libcpmt:locale0.obj
 0001:0002c594       ?dtor$0@?0???0bad_exception@std@@QEAA@XZ@4HA 000000018002d594 f   libcpmt:excptptr.obj
 0001:0002c5a0       ?fin$0@?0???_M@YAXPEAX_K1P6AX0@Z@Z@4HA 000000018002d5a0 f   LIBCMT:ehvecdtr.obj
 0001:0002c5cc       ?filt$0@?0??__ArrayUnwind@@YAXPEAX_K1P6AX0@Z@Z@4HA 000000018002d5cc f   LIBCMT:ehvecdtr.obj
 0001:0002c62b       __scrt_is_nonwritable_in_current_image$filt$0 000000018002d62b f   LIBCMT:utility.obj
 0001:0002c643       ?fin$0@?0??dllmain_crt_process_attach@@YAHQEAUHINSTANCE__@@QEAX@Z@4HA 000000018002d643 f   LIBCMT:dll_dllmain.obj
 0001:0002c65a       ?fin$0@?0??dllmain_crt_process_detach@@YAH_N@Z@4HA 000000018002d65a f   LIBCMT:dll_dllmain.obj
 0001:0002c673       ?fin$1@?0??dllmain_crt_process_detach@@YAH_N@Z@4HA 000000018002d673 f   LIBCMT:dll_dllmain.obj
 0001:0002c687       ?filt$0@?0??dllmain_dispatch@@YAHQEAUHINSTANCE__@@KQEAX@Z@4HA 000000018002d687 f   LIBCMT:dll_dllmain.obj
 0001:0002c6bd       ?filt$0@?0???$_CallSETranslator@V__FrameHandler3@@@@YAHPEAUEHExceptionRecord@@PEA_KPEAU_CONTEXT@@PEAU_xDISPATCHER_CONTEXT@@PEBU_s_FuncInfo@@K1H@Z@4HA 000000018002d6bd f   libvcruntime:risctrnsctrl.obj
 0001:0002c74e       ?filt$0@?0???$_CallSETranslator@V__FrameHandler4@@@@YAHPEAUEHExceptionRecord@@PEA_KPEAU_CONTEXT@@PEAU_xDISPATCHER_CONTEXT@@PEAUFuncInfo4@FH4@@K1H@Z@4HA 000000018002d74e f   libvcruntime:risctrnsctrl.obj
 0001:0002c7ed       __DestructExceptionObject$filt$0 000000018002d7ed f   libvcruntime:ehhelpers.obj
 0001:0002c883       ?filt$0@?0??CxxCallCatchBlock@__FrameHandler3@@SAPEAXPEAU_EXCEPTION_RECORD@@@Z@4HA 000000018002d883 f   libvcruntime:frame.obj
 0001:0002c8a8       ?fin$1@?0??CxxCallCatchBlock@__FrameHandler3@@SAPEAXPEAU_EXCEPTION_RECORD@@@Z@4HA 000000018002d8a8 f   libvcruntime:frame.obj
 0001:0002c92e       ?filt$0@?0??CxxCallCatchBlock@__FrameHandler4@@SAPEAXPEAU_EXCEPTION_RECORD@@@Z@4HA 000000018002d92e f   libvcruntime:frame.obj
 0001:0002c95d       ?fin$1@?0??CxxCallCatchBlock@__FrameHandler4@@SAPEAXPEAU_EXCEPTION_RECORD@@@Z@4HA 000000018002d95d f   libvcruntime:frame.obj
 0001:0002c9ee       ?filt$0@?0??FrameUnwindToState@__FrameHandler3@@SAXPEA_KPEAU_xDISPATCHER_CONTEXT@@PEBU_s_FuncInfo@@H@Z@4HA 000000018002d9ee f   libvcruntime:frame.obj
 0001:0002ca04       ?fin$1@?0??FrameUnwindToState@__FrameHandler3@@SAXPEA_KPEAU_xDISPATCHER_CONTEXT@@PEBU_s_FuncInfo@@H@Z@4HA 000000018002da04 f   libvcruntime:frame.obj
 0001:0002ca27       ?filt$0@?0??FrameUnwindToState@__FrameHandler4@@SAXPEA_KPEAU_xDISPATCHER_CONTEXT@@PEAUFuncInfo4@FH4@@H@Z@4HA 000000018002da27 f   libvcruntime:frame.obj
 0001:0002ca3d       ?fin$1@?0??FrameUnwindToState@__FrameHandler4@@SAXPEA_KPEAU_xDISPATCHER_CONTEXT@@PEAUFuncInfo4@FH4@@H@Z@4HA 000000018002da3d f   libvcruntime:frame.obj
 0001:0002ca60       ?fin$0@?0???$?RV<lambda_842d9ff0dc9ef11c61343bbaebe7f885>@@AEAV<lambda_c5860995281e5c4ce005b3de8f5874ee>@@V<lambda_d90129c13df834fdcbf8d2b88dafcf2d>@@@?$__crt_seh_guarded_call@X@@QEAAX$$QEAV<lambda_842d9ff0dc9ef11c61343bbaebe7f885>@@AEAV<lambda_c5860995281e5c4ce005b3de8f5874ee>@@$$QEAV<lambda_d90129c13df834fdcbf8d2b88dafcf2d>@@@Z@4HA 000000018002da60 f   libucrt:fflush.obj
 0001:0002ca60       ?fin$0@?0???$?RV<lambda_c376a267cfb53b6959b3b692ec76b120>@@AEAV<lambda_9a32fed5bf61b6b509b2d3f6003082a1>@@V<lambda_572fbb9fa0ab338edf41edfd4b5fcc8d>@@@?$__crt_seh_guarded_call@H@@QEAAH$$QEAV<lambda_c376a267cfb53b6959b3b692ec76b120>@@AEAV<lambda_9a32fed5bf61b6b509b2d3f6003082a1>@@$$QEAV<lambda_572fbb9fa0ab338edf41edfd4b5fcc8d>@@@Z@4HA 000000018002da60 f   libucrt:fflush.obj
 0001:0002ca60       ?fin$0@?0???$?RV<lambda_2831f20263db5b546e098b45503eb778>@@AEAV<lambda_5856287d7ecd2be6c9197bb4007c3f6e>@@V<lambda_0838d7e100fbcbd261b69cfea6abb102>@@@?$__crt_seh_guarded_call@_K@@QEAA_K$$QEAV<lambda_2831f20263db5b546e098b45503eb778>@@AEAV<lambda_5856287d7ecd2be6c9197bb4007c3f6e>@@$$QEAV<lambda_0838d7e100fbcbd261b69cfea6abb102>@@@Z@4HA 000000018002da60 f   libucrt:fwrite.obj
 0001:0002ca60       ?fin$0@?0???$?RV<lambda_c8e61daa512c69656564d9dbd35486e8>@@AEAV<lambda_b4f66040be5f354a654fb75160c27bfc>@@V<lambda_2ca749746f96040ea1ff4296b14379df>@@@?$__crt_seh_guarded_call@H@@QEAAH$$QEAV<lambda_c8e61daa512c69656564d9dbd35486e8>@@AEAV<lambda_b4f66040be5f354a654fb75160c27bfc>@@$$QEAV<lambda_2ca749746f96040ea1ff4296b14379df>@@@Z@4HA 000000018002da60 f   libucrt:setvbuf.obj
 0001:0002ca7b       fputc$fin$0                000000018002da7b f   libucrt:fputc.obj
 0001:0002ca95       __acrt_initialize_lowio$fin$0 000000018002da95 f   libucrt:ioinit.obj
 0001:0002ca95       __acrt_lowio_ensure_fh_exists$fin$0 000000018002da95 f   libucrt:osfinfo.obj
 0001:0002ca95       _alloc_osfhnd$fin$0        000000018002da95 f   libucrt:osfinfo.obj
 0001:0002caae       fclose$fin$0               000000018002daae f   libucrt:fclose.obj
 0001:0002caae       ?fin$0@?0??common_fseek@@YAHV__crt_stdio_stream@@_JH@Z@4HA 000000018002daae f   libucrt:fseek.obj
 0001:0002caae       ?fin$0@?0???$common_ftell@_J@@YA_JV__crt_stdio_stream@@@Z@4HA 000000018002daae f   libucrt:ftell.obj
 0001:0002cac6       ?fin$0@?0???$common_fsopen@_W@@YAPEAU_iobuf@@QEB_W0H@Z@4HA 000000018002dac6 f   libucrt:fopen.obj
 0001:0002caf1       ?fin$0@?0???$common_sopen_dispatch@_W@@YAHQEB_WHHHQEAHH@Z@4HA 000000018002daf1 f   libucrt:open.obj
 0001:0002cb44       ?fin$0@?0???$?RV<lambda_751a882b2c74d4b022dec766aa51a29a>@@AEAV<lambda_628dfdc04ba53c8bfc02c9951375f3f5>@@V<lambda_f6c7be5f7998530c34de24c7437d6b54>@@@?$__crt_seh_guarded_call@H@@QEAAH$$QEAV<lambda_751a882b2c74d4b022dec766aa51a29a>@@AEAV<lambda_628dfdc04ba53c8bfc02c9951375f3f5>@@$$QEAV<lambda_f6c7be5f7998530c34de24c7437d6b54>@@@Z@4HA 000000018002db44 f   libucrt:close.obj
 0001:0002cb44       ?fin$0@?0???$?RV<lambda_a37b2b86f63e897a80ea819b0eb08c01>@@AEAV<lambda_38ce7e780aa69e748d6df282ebc68efe>@@V<lambda_99fb1378e971ab6e7edea83e3a7a83a2>@@@?$__crt_seh_guarded_call@H@@QEAAH$$QEAV<lambda_a37b2b86f63e897a80ea819b0eb08c01>@@AEAV<lambda_38ce7e780aa69e748d6df282ebc68efe>@@$$QEAV<lambda_99fb1378e971ab6e7edea83e3a7a83a2>@@@Z@4HA 000000018002db44 f   libucrt:commit.obj
 0001:0002cb5e       _read$fin$0                000000018002db5e f   libucrt:read.obj
 0001:0002cb75       ?fin$0@?0???$common_lseek@_J@@YA_JH_JH@Z@4HA 000000018002db75 f   libucrt:lseek.obj
 0001:0002cb75       _write$fin$0               000000018002db75 f   libucrt:write.obj
 0001:0002cb8c       fread_s$fin$0              000000018002db8c f   libucrt:fread.obj
 0001:0002cba4       ?fin$0@?0???$?RV<lambda_886d6c58226a84441f68b9f2b8217b83>@@AEAV<lambda_ab61a845afdef5b7c387490eaf3616ee>@@V<lambda_f7f22ab5edc0698d5f6905b0d3f44752>@@@?$__crt_seh_guarded_call@X@@QEAAX$$QEAV<lambda_886d6c58226a84441f68b9f2b8217b83>@@AEAV<lambda_ab61a845afdef5b7c387490eaf3616ee>@@$$QEAV<lambda_f7f22ab5edc0698d5f6905b0d3f44752>@@@Z@4HA 000000018002dba4 f   libucrt:fflush.obj
 0001:0002cbc1       fgetc$fin$0                000000018002dbc1 f   libucrt:fgetc.obj
 0001:0002cbdb       ungetc$fin$0               000000018002dbdb f   libucrt:ungetc.obj
 0001:0002cbf3       ?fin$0@?0???$?RV<lambda_0ae27a3a962d80f24befdcbee591983d>@@AEAV<lambda_8d0ee55de4b1038c4002e0adecdf1839>@@V<lambda_dc504788e8f1664fe9b84e20bfb512f2>@@@?$__crt_seh_guarded_call@X@@QEAAX$$QEAV<lambda_0ae27a3a962d80f24befdcbee591983d>@@AEAV<lambda_8d0ee55de4b1038c4002e0adecdf1839>@@$$QEAV<lambda_dc504788e8f1664fe9b84e20bfb512f2>@@@Z@4HA 000000018002dbf3 f   libucrt:per_thread_data.obj
 0001:0002cbf3       ?fin$0@?0???$?RV<lambda_2d41944a1d46af3157314b8a01080d33>@@AEAV<lambda_8f455de75cd7d7f24b4096f044d8b9e6>@@V<lambda_aa500f224e6afead328df44964fe2772>@@@?$__crt_seh_guarded_call@X@@QEAAX$$QEAV<lambda_2d41944a1d46af3157314b8a01080d33>@@AEAV<lambda_8f455de75cd7d7f24b4096f044d8b9e6>@@$$QEAV<lambda_aa500f224e6afead328df44964fe2772>@@@Z@4HA 000000018002dbf3 f   libucrt:per_thread_data.obj
 0001:0002cbf3       ?fin$0@?0???$?RV<lambda_aa87e3671a710a21b5dc78c0bdf72e11>@@AEAV<lambda_92619d2358a28f41a33ba319515a20b9>@@V<lambda_6992ecaafeb10aed2b74cb1fae11a551>@@@?$__crt_seh_guarded_call@X@@QEAAX$$QEAV<lambda_aa87e3671a710a21b5dc78c0bdf72e11>@@AEAV<lambda_92619d2358a28f41a33ba319515a20b9>@@$$QEAV<lambda_6992ecaafeb10aed2b74cb1fae11a551>@@@Z@4HA 000000018002dbf3 f   libucrt:per_thread_data.obj
 0001:0002cbf3       ?fin$0@?0???$?RV<lambda_f2e299630e499de9f9a165e60fcd3db5>@@AEAV<lambda_2ae9d31cdba2644fcbeaf08da7c24588>@@V<lambda_40d01ff24d0e7b3814fdbdcee8eab3c7>@@@?$__crt_seh_guarded_call@X@@QEAAX$$QEAV<lambda_f2e299630e499de9f9a165e60fcd3db5>@@AEAV<lambda_2ae9d31cdba2644fcbeaf08da7c24588>@@$$QEAV<lambda_40d01ff24d0e7b3814fdbdcee8eab3c7>@@@Z@4HA 000000018002dbf3 f   libucrt:per_thread_data.obj
 0001:0002cbf3       ?fin$0@?0???$?RV<lambda_48fc4a32460bb0512d3b13f8499328be>@@AEAV<lambda_6c3dac0a4f3f9cefca9bb494422f9b77>@@V<lambda_0a2f2c9f9a56eb2b08bfa6ff61d331c5>@@@?$__crt_seh_guarded_call@H@@QEAAH$$QEAV<lambda_48fc4a32460bb0512d3b13f8499328be>@@AEAV<lambda_6c3dac0a4f3f9cefca9bb494422f9b77>@@$$QEAV<lambda_0a2f2c9f9a56eb2b08bfa6ff61d331c5>@@@Z@4HA 000000018002dbf3 f   libucrt:winapi_thunks.obj
 0001:0002cbf3       ?fin$0@?0???$?RV<lambda_e9ce07acdb0b138e546925ae9f1a2c9c>@@AEAV<lambda_2116bde18c9e5f34230805ea4a4660ed>@@V<lambda_5d037afbfc54bf1ca80d3d1ee4062886>@@@?$__crt_seh_guarded_call@PEAD@@QEAAPEAD$$QEAV<lambda_e9ce07acdb0b138e546925ae9f1a2c9c>@@AEAV<lambda_2116bde18c9e5f34230805ea4a4660ed>@@$$QEAV<lambda_5d037afbfc54bf1ca80d3d1ee4062886>@@@Z@4HA 000000018002dbf3 f   libucrt:setlocale.obj
 0001:0002cbf3       ?fin$0@?0???$?RV<lambda_1d892b297fdedeee07ed8124eeb2f2fa>@@AEAV<lambda_ffc046909424fd52df0ac47e64813305>@@V<lambda_01a7098693036236037e7cdb9bca3d73>@@@?$__crt_seh_guarded_call@X@@QEAAX$$QEAV<lambda_1d892b297fdedeee07ed8124eeb2f2fa>@@AEAV<lambda_ffc046909424fd52df0ac47e64813305>@@$$QEAV<lambda_01a7098693036236037e7cdb9bca3d73>@@@Z@4HA 000000018002dbf3 f   libucrt:wsetlocale.obj
 0001:0002cbf3       ?fin$0@?0???$?RV<lambda_efdfa57d1f175319df784efa44bb7b81>@@AEAV<lambda_5f0a4c1567f8adc6734073e5d1e1b35c>@@V<lambda_2e8a7d3640ea6ccb4c2413664c2db6fd>@@@?$__crt_seh_guarded_call@X@@QEAAX$$QEAV<lambda_efdfa57d1f175319df784efa44bb7b81>@@AEAV<lambda_5f0a4c1567f8adc6734073e5d1e1b35c>@@$$QEAV<lambda_2e8a7d3640ea6ccb4c2413664c2db6fd>@@@Z@4HA 000000018002dbf3 f   libucrt:mbctype.obj
 0001:0002cbf3       ?fin$0@?0???$?RV<lambda_450d765d439847d4c735a33c368b5fc0>@@AEAV<lambda_44731a7d0e6d81c3e6aa82d741081786>@@V<lambda_601a2a7da3b7a96e9554ac7215c4b07c>@@@?$__crt_seh_guarded_call@P6AXH@Z@@QEAAP6AXH@Z$$QEAV<lambda_450d765d439847d4c735a33c368b5fc0>@@AEAV<lambda_44731a7d0e6d81c3e6aa82d741081786>@@$$QEAV<lambda_601a2a7da3b7a96e9554ac7215c4b07c>@@@Z@4HA 000000018002dbf3 f   libucrt:signal.obj
 0001:0002cbf3       ?fin$0@?0???$?RV<lambda_d80eeec6fff315bfe5c115232f3240e3>@@AEAV<lambda_6e4b09c48022b2350581041d5f6b0c4c>@@V<lambda_2358e3775559c9db80273638284d5e45>@@@?$__crt_seh_guarded_call@X@@QEAAX$$QEAV<lambda_d80eeec6fff315bfe5c115232f3240e3>@@AEAV<lambda_6e4b09c48022b2350581041d5f6b0c4c>@@$$QEAV<lambda_2358e3775559c9db80273638284d5e45>@@@Z@4HA 000000018002dbf3 f   libucrt:exit.obj
 0001:0002cbf3       ?fin$0@?0???$?RV<lambda_638799b9deba96c50f710eeac98168cd>@@AEAV<lambda_22ebabd17bc4fa466a2aca6d8deb888d>@@V<lambda_a6f7d7db0129f75315ebf26d50c089f1>@@@?$__crt_seh_guarded_call@H@@QEAAH$$QEAV<lambda_638799b9deba96c50f710eeac98168cd>@@AEAV<lambda_22ebabd17bc4fa466a2aca6d8deb888d>@@$$QEAV<lambda_a6f7d7db0129f75315ebf26d50c089f1>@@@Z@4HA 000000018002dbf3 f   libucrt:onexit.obj
 0001:0002cbf3       ?fin$0@?0???$?RV<lambda_7777bce6b2f8c936911f934f8298dc43>@@AEAV<lambda_f03950bc5685219e0bcd2087efbe011e>@@V<lambda_3883c3dff614d5e0c5f61bb1ac94921c>@@@?$__crt_seh_guarded_call@H@@QEAAH$$QEAV<lambda_7777bce6b2f8c936911f934f8298dc43>@@AEAV<lambda_f03950bc5685219e0bcd2087efbe011e>@@$$QEAV<lambda_3883c3dff614d5e0c5f61bb1ac94921c>@@@Z@4HA 000000018002dbf3 f   libucrt:onexit.obj
 0001:0002cc0d       raise$fin$0                000000018002dc0d f   libucrt:signal.obj
 0001:0002cc2e       _query_new_handler$fin$0   000000018002dc2e f   libucrt:new_handler.obj
 0001:0002cc44       ?filt$0@?0???R<lambda_6e4b09c48022b2350581041d5f6b0c4c>@@QEBA@XZ@4HA 000000018002dc44 f   libucrt:exit.obj
 0001:0002cc5f       ?fin$0@?0???$?RV<lambda_410d79af7f07d98d83a3f525b3859a53>@@AEAV<lambda_3e16ef9562a7dcce91392c22ab16ea36>@@V<lambda_38119f0e861e05405d8a144b9b982f0a>@@@?$__crt_seh_guarded_call@X@@QEAAX$$QEAV<lambda_410d79af7f07d98d83a3f525b3859a53>@@AEAV<lambda_3e16ef9562a7dcce91392c22ab16ea36>@@$$QEAV<lambda_38119f0e861e05405d8a144b9b982f0a>@@@Z@4HA 000000018002dc5f f   libucrt:wsetlocale.obj
 0001:0002cc79       ?fin$0@?0???$?RV<lambda_e9338f07fe435327d97d4ef86149e64d>@@AEAV<lambda_2a444430fde8c29194d880d93eed5e8f>@@AEAV<lambda_02db5278e8aef8b5e4976579d73f5304>@@@?$__crt_seh_guarded_call@X@@QEAAX$$QEAV<lambda_e9338f07fe435327d97d4ef86149e64d>@@AEAV<lambda_2a444430fde8c29194d880d93eed5e8f>@@AEAV<lambda_02db5278e8aef8b5e4976579d73f5304>@@@Z@4HA 000000018002dc79 f   libucrt:wsetlocale.obj
 0001:0002cc9a       _fcloseall$fin$0           000000018002dc9a f   libucrt:closeall.obj
 0001:0002cc9a       ?fin$0@?0??__acrt_stdio_allocate_stream@@YA?AV__crt_stdio_stream@@XZ@4HA 000000018002dc9a f   libucrt:stream.obj
 0001:0002ccb3       _ctrlfp$filt$0             000000018002dcb3 f   libucrt:fpctrl.obj
 0001:0002ccb3       common_control87$filt$0    000000018002dcb3 f   libucrt:ieee.obj
 0001:0002ccdf       ?dtor$0@?0??_wcstombs_l_helper@@YA_KPEADPEB_W_KPEAU__crt_locale_pointers@@@Z@4HA 000000018002dcdf f   libucrt:wcstombs.obj
 0001:0002cceb       ?fin$0@?0??update_thread_multibyte_data_internal@@YAPEAU__crt_multibyte_data@@QEAU__acrt_ptd@@QEAPEAU1@@Z@4HA 000000018002dceb f   libucrt:mbctype.obj
 0001:0002cd04       __acrt_update_thread_locale_data$fin$0 000000018002dd04 f   libucrt:locale_refcounting.obj
 0001:0002cd20       _IsNonwritableInCurrentImage$filt$0 000000018002dd20 f   LIBCMT:pesect.obj
 0001:0002cd40       ??__F?id@?$execution_context_service_base@V?$win_iocp_socket_service@Vtcp@ip@asio@boost@@@detail@asio@boost@@@detail@asio@boost@@2V?$service_id@V?$win_iocp_socket_service@Vtcp@ip@asio@boost@@@detail@asio@boost@@@234@A@@YAXXZ 000000018002dd40 f   server.obj
 0001:0002cd50       ??__F?id@?$execution_context_service_base@V?$deadline_timer_service@U?$chrono_time_traits@Usteady_clock@chrono@std@@U?$wait_traits@Usteady_clock@chrono@std@@@asio@boost@@@detail@asio@boost@@@detail@asio@boost@@@detail@asio@boost@@2V?$service_id@V?$deadline_timer_service@U?$chrono_time_traits@Usteady_clock@chrono@std@@U?$wait_traits@Usteady_clock@chrono@std@@@asio@boost@@@detail@asio@boost@@@detail@asio@boost@@@234@A@@YAXXZ 000000018002dd50 f   server.obj
 0001:0002cd60       ??__F?id@?$execution_context_service_base@Vwin_iocp_io_context@detail@asio@boost@@@detail@asio@boost@@2V?$service_id@Vwin_iocp_io_context@detail@asio@boost@@@234@A@@YAXXZ 000000018002dd60 f   server.obj
 0001:0002cd70       ??__F?top_@?$call_stack@Vthread_context@detail@asio@boost@@Vthread_info_base@234@@detail@asio@boost@@0V?$tss_ptr@Vcontext@?$call_stack@Vthread_context@detail@asio@boost@@Vthread_info_base@234@@detail@asio@boost@@@234@A@@YAXXZ 000000018002dd70 f   server.obj
 0001:0002cd80       ??__FMAP_CODENAMES@@YAXXZ  000000018002dd80 f   SixMansPlugin-Rework.obj
 0001:0002cda0       ??__Fsingleton@@YAXXZ      000000018002dda0 f   SixMansPlugin-Rework.obj
 0001:0002cdf0       ??__F_globalCvarManager@@YAXXZ 000000018002ddf0 f   SixMansPlugin-Rework.obj
 0001:0002ce40       ??__Fserver_thread@@YAXXZ  000000018002de40 f   SixMansPlugin-Rework.obj
 0001:0002ce60       ??__FMAP_CODENAMES@@YAXXZ  000000018002de60 f   SixMansPlugin-ReworkGUI.obj
 0001:0002ce80       ??__F$S7@@YAXXZ            000000018002de80 f   pch.obj
 0001:0002cea0       ??__F?top_@?$call_stack@Vstrand_impl@strand_executor_service@detail@asio@boost@@E@detail@asio@boost@@0V?$tss_ptr@Vcontext@?$call_stack@Vstrand_impl@strand_executor_service@detail@asio@boost@@E@detail@asio@boost@@@234@A@@YAXXZ 000000018002dea0 f   pch.obj
 0001:0002ceb0       ??__F?top_@?$call_stack@Vstrand_impl@strand_service@detail@asio@boost@@E@detail@asio@boost@@0V?$tss_ptr@Vcontext@?$call_stack@Vstrand_impl@strand_service@detail@asio@boost@@E@detail@asio@boost@@@234@A@@YAXXZ 000000018002deb0 f   pch.obj
 0001:0002cec0       ??__F?id@?$service_base@Vstrand_service@detail@asio@boost@@@detail@asio@boost@@2V?$service_id@Vstrand_service@detail@asio@boost@@@234@A@@YAXXZ 000000018002dec0 f   pch.obj
 0001:0002ced0       ??__F?tss_ptr_@?$win_global_impl@Vsystem_context@asio@boost@@@detail@asio@boost@@2V?$tss_ptr@Vsystem_context@asio@boost@@@234@A@@YAXXZ 000000018002ded0 f   pch.obj
 0001:0002cee0       ??__F?id@?$execution_context_service_base@Vselect_reactor@detail@asio@boost@@@detail@asio@boost@@2V?$service_id@Vselect_reactor@detail@asio@boost@@@234@A@@YAXXZ 000000018002dee0 f   pch.obj
 0001:0002cef0       ??__F?id@?$execution_context_service_base@Vnull_reactor@detail@asio@boost@@@detail@asio@boost@@2V?$service_id@Vnull_reactor@detail@asio@boost@@@234@A@@YAXXZ 000000018002def0 f   pch.obj
 0001:0002cf00       ??__F?id@?$execution_context_service_base@Vscheduler@detail@asio@boost@@@detail@asio@boost@@2V?$service_id@Vscheduler@detail@asio@boost@@@234@A@@YAXXZ 000000018002df00 f   pch.obj
 0001:0002cf04       ??__F_Fac_tidy_reg@std@@YAXXZ 000000018002df04 f   libcpmt:locale0.obj
 0001:0002cf60       ??__Fclassic_locale@std@@YAXXZ 000000018002df60 f   libcpmt:locale0.obj
 0001:0002cfa0       ??__Finitlocks@std@@YAXXZ  000000018002dfa0 f   libcpmt:xlock.obj
 0001:0002cfac       ??__Finit_atexit@@YAXXZ    000000018002dfac f   libcpmt:iosptrs.obj
 0001:0002cfec       ??__Finitlocks@std@@YAXXZ  000000018002dfec f   libcpmt:iosptrs.obj
 0002:00000330       ?initlocks$initializer$@std@@3P6AXXZEA 000000018002e330     libcpmt:xlock.obj
 0002:00000338       ?initlocks$initializer$@std@@3P6AXXZEA 000000018002e338     libcpmt:iosptrs.obj
 0002:00000340       ?init_atexit$initializer$@@3P6AXXZEA 000000018002e340     libcpmt:iosptrs.obj
 0002:00000348       ?_Fac_tidy_reg$initializer$@std@@3P6AXXZEA 000000018002e348     libcpmt:locale0.obj
 0002:00000350       ?classic_locale$initializer$@std@@3P6AXXZEA 000000018002e350     libcpmt:locale0.obj
 0002:00000358       ??top_$initializer$@?$call_stack@Vthread_context@detail@asio@boost@@Vthread_info_base@234@@detail@asio@boost@@0P6AXXZEA@@3P6AXXZEA 000000018002e358     server.obj
 0002:00000360       ??id$initializer$@?$execution_context_service_base@Vwin_iocp_io_context@detail@asio@boost@@@detail@asio@boost@@2P6AXXZEA@@3P6AXXZEA 000000018002e360     server.obj
 0002:00000368       ??id$initializer$@?$execution_context_service_base@V?$deadline_timer_service@U?$chrono_time_traits@Usteady_clock@chrono@std@@U?$wait_traits@Usteady_clock@chrono@std@@@asio@boost@@@detail@asio@boost@@@detail@asio@boost@@@detail@asio@boost@@2P6AXXZEA@@3P6AXXZEA 000000018002e368     server.obj
 0002:00000370       ??id$initializer$@?$execution_context_service_base@V?$win_iocp_socket_service@Vtcp@ip@asio@boost@@@detail@asio@boost@@@detail@asio@boost@@2P6AXXZEA@@3P6AXXZEA 000000018002e370     server.obj
 0002:00000378       ?MAP_CODENAMES$initializer$@@3P6AXXZEA 000000018002e378     SixMansPlugin-Rework.obj
 0002:00000380       ?singleton$initializer$@@3P6AXXZEA 000000018002e380     SixMansPlugin-Rework.obj
 0002:00000388       ?_globalCvarManager$initializer$@@3P6AXXZEA 000000018002e388     SixMansPlugin-Rework.obj
 0002:00000390       ?server_thread$initializer$@@3P6AXXZEA 000000018002e390     SixMansPlugin-Rework.obj
 0002:00000398       ?MAP_CODENAMES$initializer$@@3P6AXXZEA 000000018002e398     SixMansPlugin-ReworkGUI.obj
 0002:000003a0       ?winsock_init_instance$initializer$@detail@asio@boost@@3P6AXXZEA 000000018002e3a0     pch.obj
 0002:000003a8       ??top_$initializer$@?$call_stack@Vstrand_impl@strand_service@detail@asio@boost@@E@detail@asio@boost@@0P6AXXZEA@@3P6AXXZEA 000000018002e3a8     pch.obj
 0002:000003b0       ??top_$initializer$@?$call_stack@Vstrand_impl@strand_executor_service@detail@asio@boost@@E@detail@asio@boost@@0P6AXXZEA@@3P6AXXZEA 000000018002e3b0     pch.obj
 0002:000003b8       ??id$initializer$@?$service_base@Vstrand_service@detail@asio@boost@@@detail@asio@boost@@2P6AXXZEA@@3P6AXXZEA 000000018002e3b8     pch.obj
 0002:000003c0       ??id$initializer$@?$execution_context_service_base@Vscheduler@detail@asio@boost@@@detail@asio@boost@@2P6AXXZEA@@3P6AXXZEA 000000018002e3c0     pch.obj
 0002:000003c8       ??id$initializer$@?$execution_context_service_base@Vnull_reactor@detail@asio@boost@@@detail@asio@boost@@2P6AXXZEA@@3P6AXXZEA 000000018002e3c8     pch.obj
 0002:000003d0       ??id$initializer$@?$execution_context_service_base@Vselect_reactor@detail@asio@boost@@@detail@asio@boost@@2P6AXXZEA@@3P6AXXZEA 000000018002e3d0     pch.obj
 0002:000003d8       ??tss_ptr_$initializer$@?$win_global_impl@Vsystem_context@asio@boost@@@detail@asio@boost@@2P6AXXZEA@@3P6AXXZEA 000000018002e3d8     pch.obj
 0002:000003f0       ?pinit@@3P6AHXZEA          000000018002e3f0     libcpmt:winapisupp.obj
 0002:000003f8       ?__scrt_initialize_tss_var@@3P6AHXZEA 000000018002e3f8     LIBCMT:thread_safe_statics.obj
 0002:00000570       ?_Win_errtab@?A0x8174bdc8@@3QBU_Win_errtab_t@1@B 000000018002e570     libcpmt:syserror.obj
 0002:000007f0       ?_Sys_errtab@?A0x8174bdc8@@3QBU_Sys_errtab_t@1@B 000000018002e7f0     libcpmt:syserror.obj
 0002:00001390       ?_Whitespace_bitmap@?A0xcbceb03b@@3U_Whitespace_bitmap_t@1@B 000000018002f390     libcpmt:syserror_import_lib.obj
 0002:00001490       ?mods@?1??_Xfsopen@std@@YAPEAU_iobuf@@PEB_WHH@Z@4QBQEB_WB 000000018002f490     libcpmt:fiopen.obj
 0002:00001560       ?msgs@std@@3QBQEBDB        000000018002f560     libcpmt:thread0.obj
 0002:00001598       ?codes@std@@3QBW4errc@1@B  000000018002f598     libcpmt:thread0.obj
 0002:00001b80       digits                     000000018002fb80     libcpmt:xstoul.obj
 0002:00001ba8       ndigs                      000000018002fba8     libcpmt:xstoul.obj
 0002:00001bd0       digits                     000000018002fbd0     libcpmt:xstoull.obj
 0002:00001bf8       ndigs                      000000018002fbf8     libcpmt:xstoull.obj
 0002:00001c90       GS_ExceptionPointers       000000018002fc90     LIBCMT:gs_report.obj
 0002:00001cd0       ?ExceptionTemplate@?1??UnwindNestedFrames@__FrameHandler4@@SAXPEA_KPEAUEHExceptionRecord@@PEAU_CONTEXT@@0PEAXPEAUFuncInfo4@FH4@@HHPEAUHandlerType4@6@PEAU_xDISPATCHER_CONTEXT@@E@Z@4U_EXCEPTION_RECORD@@B 000000018002fcd0     libvcruntime:risctrnsctrl.obj
 0002:00001d70       ?ExceptionTemplate@?1??UnwindNestedFrames@__FrameHandler3@@SAXPEA_KPEAUEHExceptionRecord@@PEAU_CONTEXT@@0PEAXPEBU_s_FuncInfo@@HHPEBU_s_HandlerType@@PEAU_xDISPATCHER_CONTEXT@@E@Z@4U_EXCEPTION_RECORD@@B 000000018002fd70     libvcruntime:risctrnsctrl.obj
 0002:00001e10       ?tokenTable@@3QBUStringLiteral@@B 000000018002fe10     libvcruntime:undname.obj
 0002:00001f20       ?nameTable@@3QBUStringLiteral@@B 000000018002ff20     libvcruntime:undname.obj
 0002:00002450       ?rttiTable@@3QBUStringLiteral@@B 0000000180030450     libvcruntime:undname.obj
 0002:000024a0       ?IndirectionName@@3QBUStringLiteral@@B 00000001800304a0     libvcruntime:undname.obj
 0002:00002500       ?PrefixName@@3QBUStringLiteral@@B 0000000180030500     libvcruntime:undname.obj
 0002:00002bd0       ?module_names@?A0x5d44c8f9@@3QBQEB_WB 0000000180030bd0     libvcruntime:winapi_downlevel.obj
 0002:00002c90       ?candidate_modules@?1??try_get_FlsAlloc@@YAP6AKP6AXPEAX@Z@ZXZ@4QBW4module_id@?A0x5d44c8f9@@B 0000000180030c90     libvcruntime:winapi_downlevel.obj
 0002:00002c98       ?candidate_modules@?1??try_get_FlsFree@@YAP6AHK@ZXZ@4QBW4module_id@?A0x5d44c8f9@@B 0000000180030c98     libvcruntime:winapi_downlevel.obj
 0002:00002ca0       ?candidate_modules@?1??try_get_FlsGetValue@@YAP6APEAXK@ZXZ@4QBW4module_id@?A0x5d44c8f9@@B 0000000180030ca0     libvcruntime:winapi_downlevel.obj
 0002:00002ca8       ?candidate_modules@?1??try_get_FlsSetValue@@YAP6AHKPEAX@ZXZ@4QBW4module_id@?A0x5d44c8f9@@B 0000000180030ca8     libvcruntime:winapi_downlevel.obj
 0002:00002cb0       ?candidate_modules@?1??try_get_InitializeCriticalSectionEx@@YAP6AHPEAU_RTL_CRITICAL_SECTION@@KK@ZXZ@4QBW4module_id@?A0x5d44c8f9@@B 0000000180030cb0     libvcruntime:winapi_downlevel.obj
 0002:000030e0       ?errtable@@3QBUerrentry@?A0x31fdb9ec@@B 00000001800310e0     libucrt:errno.obj
 0002:000044c0       __flag_x_one_y_snan        00000001800324c0     libucrt:pow.obj
 0002:000044c4       __flag_x_zero_z_inf        00000001800324c4     libucrt:pow.obj
 0002:000044c8       __flag_x_nan               00000001800324c8     libucrt:pow.obj
 0002:000044cc       __flag_y_nan               00000001800324cc     libucrt:pow.obj
 0002:000044d0       __flag_x_nan_y_nan         00000001800324d0     libucrt:pow.obj
 0002:000044d4       __flag_x_neg_y_notint      00000001800324d4     libucrt:pow.obj
 0002:000044d8       __flag_z_zero              00000001800324d8     libucrt:pow.obj
 0002:000044dc       __flag_z_denormal          00000001800324dc     libucrt:pow.obj
 0002:000044e0       __flag_z_inf               00000001800324e0     libucrt:pow.obj
 0002:000044f0       __ay_max_bound             00000001800324f0     libucrt:pow.obj
 0002:000044f8       __ay_min_bound             00000001800324f8     libucrt:pow.obj
 0002:00004500       __sign_mask                0000000180032500     libucrt:pow.obj
 0002:00004508       __sign_and_exp_mask        0000000180032508     libucrt:pow.obj
 0002:00004510       __exp_mask                 0000000180032510     libucrt:pow.obj
 0002:00004518       __neg_inf                  0000000180032518     libucrt:pow.obj
 0002:00004520       __pos_inf                  0000000180032520     libucrt:pow.obj
 0002:00004528       __pos_one                  0000000180032528     libucrt:pow.obj
 0002:00004530       __pos_zero                 0000000180032530     libucrt:pow.obj
 0002:00004538       __exp_mant_mask            0000000180032538     libucrt:pow.obj
 0002:00004540       __mant_mask                0000000180032540     libucrt:pow.obj
 0002:00004548       __ind_pattern              0000000180032548     libucrt:pow.obj
 0002:00004550       __neg_qnan                 0000000180032550     libucrt:pow.obj
 0002:00004558       __qnan                     0000000180032558     libucrt:pow.obj
 0002:00004560       __qnan_set                 0000000180032560     libucrt:pow.obj
 0002:00004568       __neg_one                  0000000180032568     libucrt:pow.obj
 0002:00004570       __neg_zero                 0000000180032570     libucrt:pow.obj
 0002:00004578       __exp_shift                0000000180032578     libucrt:pow.obj
 0002:00004580       __exp_bias                 0000000180032580     libucrt:pow.obj
 0002:00004588       __exp_bias_m1              0000000180032588     libucrt:pow.obj
 0002:00004590       __yexp_53                  0000000180032590     libucrt:pow.obj
 0002:00004598       __mant_full                0000000180032598     libucrt:pow.obj
 0002:000045a0       __1_before_mant            00000001800325a0     libucrt:pow.obj
 0002:000045a8       __mask_mant_all8           00000001800325a8     libucrt:pow.obj
 0002:000045b0       __mask_mant9               00000001800325b0     libucrt:pow.obj
 0002:000045c0       __real_fffffffff8000000    00000001800325c0     libucrt:pow.obj
 0002:000045d0       __mask_8000000000000000    00000001800325d0     libucrt:pow.obj
 0002:000045e0       __real_4090040000000000    00000001800325e0     libucrt:pow.obj
 0002:000045f0       __real_C090C80000000000    00000001800325f0     libucrt:pow.obj
 0002:00004600       __real_ninf                0000000180032600     libucrt:pow.obj
 0002:00004610       __real_inf                 0000000180032610     libucrt:pow.obj
 0002:00004620       __real_nan                 0000000180032620     libucrt:pow.obj
 0002:00004630       __real_mant                0000000180032630     libucrt:pow.obj
 0002:00004640       __mask_1023                0000000180032640     libucrt:pow.obj
 0002:00004650       __mask_001                 0000000180032650     libucrt:pow.obj
 0002:00004660       __real_log2_lead           0000000180032660     libucrt:pow.obj
 0002:00004670       __real_log2_tail           0000000180032670     libucrt:pow.obj
 0002:00004680       __real_two                 0000000180032680     libucrt:pow.obj
 0002:00004690       __real_one                 0000000180032690     libucrt:pow.obj
 0002:000046a0       __real_half                00000001800326a0     libucrt:pow.obj
 0002:000046b0       __mask_100                 00000001800326b0     libucrt:pow.obj
 0002:000046c0       __real_1_over_2            00000001800326c0     libucrt:pow.obj
 0002:000046d0       __real_1_over_3            00000001800326d0     libucrt:pow.obj
 0002:000046e0       __real_1_over_4            00000001800326e0     libucrt:pow.obj
 0002:000046f0       __real_1_over_5            00000001800326f0     libucrt:pow.obj
 0002:00004700       __real_1_over_6            0000000180032700     libucrt:pow.obj
 0002:00004710       __real_1_over_7            0000000180032710     libucrt:pow.obj
 0002:00004720       __mask_1023_f              0000000180032720     libucrt:pow.obj
 0002:00004730       __mask_2045                0000000180032730     libucrt:pow.obj
 0002:00004740       __real_threshold           0000000180032740     libucrt:pow.obj
 0002:00004750       __real_notsign             0000000180032750     libucrt:pow.obj
 0002:00004760       __log_F_inv_head           0000000180032760     libucrt:pow.obj
 0002:00004f70       __log_F_inv_tail           0000000180032f70     libucrt:pow.obj
 0002:00005780       __denormal_threshold       0000000180033780     libucrt:pow.obj
 0002:00005790       __enable_almost_inf        0000000180033790     libucrt:pow.obj
 0002:000057a0       __real_zero                00000001800337a0     libucrt:pow.obj
 0002:000057b0       __real_smallest_denormal   00000001800337b0     libucrt:pow.obj
 0002:000057c0       __denormal_tiny_threshold  00000001800337c0     libucrt:pow.obj
 0002:000057d0       __real_p65536              00000001800337d0     libucrt:pow.obj
 0002:000057e0       __real_m68800              00000001800337e0     libucrt:pow.obj
 0002:000057f0       __real_64_by_log2          00000001800337f0     libucrt:pow.obj
 0002:00005800       __real_log2_by_64_head     0000000180033800     libucrt:pow.obj
 0002:00005810       __real_log2_by_64_tail     0000000180033810     libucrt:pow.obj
 0002:00005820       __real_1_by_720            0000000180033820     libucrt:pow.obj
 0002:00005830       __real_1_by_120            0000000180033830     libucrt:pow.obj
 0002:00005840       __real_1_by_24             0000000180033840     libucrt:pow.obj
 0002:00005850       __real_1_by_6              0000000180033850     libucrt:pow.obj
 0002:00005860       __real_1_by_2              0000000180033860     libucrt:pow.obj
 0002:00005870       __flag_x_one_y_snan        0000000180033870     libucrt:powf.obj
 0002:00005874       __flag_x_zero_z_inf        0000000180033874     libucrt:powf.obj
 0002:00005878       __flag_x_nan               0000000180033878     libucrt:powf.obj
 0002:0000587c       __flag_y_nan               000000018003387c     libucrt:powf.obj
 0002:00005880       __flag_x_nan_y_nan         0000000180033880     libucrt:powf.obj
 0002:00005884       __flag_x_neg_y_notint      0000000180033884     libucrt:powf.obj
 0002:00005888       __flag_z_zero              0000000180033888     libucrt:powf.obj
 0002:0000588c       __flag_z_denormal          000000018003388c     libucrt:powf.obj
 0002:00005890       __flag_z_inf               0000000180033890     libucrt:powf.obj
 0002:00005894       L__1_by_3                  0000000180033894     libucrt:powf.obj
 0002:0000589c       L__log2                    000000018003389c     libucrt:powf.obj
 0002:000058a4       L__max_exp_arg             00000001800338a4     libucrt:powf.obj
 0002:000058ac       L__min_exp_arg             00000001800338ac     libucrt:powf.obj
 0002:000058b4       L__real_log2_by_64         00000001800338b4     libucrt:powf.obj
 0002:000058bc       L__1_by_6                  00000001800338bc     libucrt:powf.obj
 0002:000058c4       L__real_threshold          00000001800338c4     libucrt:powf.obj
 0002:000058cc       L__real_one                00000001800338cc     libucrt:powf.obj
 0002:000058d4       L__real_two                00000001800338d4     libucrt:powf.obj
 0002:000058dc       L__neg_zero                00000001800338dc     libucrt:powf.obj
 0002:000058f0       L__real_ca42               00000001800338f0     libucrt:powf.obj
 0002:000058f8       L__real_ca4                00000001800338f8     libucrt:powf.obj
 0002:00005900       L__real_ca31               0000000180033900     libucrt:powf.obj
 0002:00005908       L__real_ca3                0000000180033908     libucrt:powf.obj
 0002:00005910       L__clear_sign              0000000180033910     libucrt:powf.obj
 0002:00005920       L__real_64_by_log2         0000000180033920     libucrt:powf.obj
 0002:00005930       L__1_by_2                  0000000180033930     libucrt:powf.obj
 0002:00005940       L__1023                    0000000180033940     libucrt:powf.obj
 0002:00005950       L__xexp_bits_xmantissa_bits 0000000180033950     libucrt:powf.obj
 0002:00006270       __acrt_initializers        0000000180034270     libucrt:initialization.obj
 0002:00006370       ?strings@?1??fp_format_nan_or_infinity@@YAHW4__acrt_fp_class@@_NPEAD_K1@Z@4QAY03QEBDA 0000000180034370     libucrt:cvt.obj
 0002:00006440       _first_127char             0000000180034440     libucrt:wsetlocale.obj
 0002:00006c80       ?module_names@?A0x391cf84c@@3QBQEB_WB 0000000180034c80     libucrt:winapi_thunks.obj
 0002:00007188       ?candidate_modules@?1??try_get_AreFileApisANSI@@YAP6AHXZXZ@4QBW4module_id@?A0x391cf84c@@B 0000000180035188     libucrt:winapi_thunks.obj
 0002:000071a0       ?candidate_modules@?1??try_get_CompareStringEx@@YAP6AHPEB_WK0H0HPEAU_nlsversioninfo@@PEAX_J@ZXZ@4QBW4module_id@?A0x391cf84c@@B 00000001800351a0     libucrt:winapi_thunks.obj
 0002:000071a8       ?candidate_modules@?1??try_get_EnumSystemLocalesEx@@YAP6AHP6AHPEA_WK_J@ZK1PEAX@ZXZ@4QBW4module_id@?A0x391cf84c@@B 00000001800351a8     libucrt:winapi_thunks.obj
 0002:000071c8       ?candidate_modules@?1??try_get_FlsAlloc@@YAP6AKP6AXPEAX@Z@ZXZ@4QBW4module_id@?A0x391cf84c@@B 00000001800351c8     libucrt:winapi_thunks.obj
 0002:000071d0       ?candidate_modules@?1??try_get_FlsFree@@YAP6AHK@ZXZ@4QBW4module_id@?A0x391cf84c@@B 00000001800351d0     libucrt:winapi_thunks.obj
 0002:000071d8       ?candidate_modules@?1??try_get_FlsGetValue@@YAP6APEAXK@ZXZ@4QBW4module_id@?A0x391cf84c@@B 00000001800351d8     libucrt:winapi_thunks.obj
 0002:000071e0       ?candidate_modules@?1??try_get_FlsSetValue@@YAP6AHKPEAX@ZXZ@4QBW4module_id@?A0x391cf84c@@B 00000001800351e0     libucrt:winapi_thunks.obj
 0002:000071e8       ?candidate_modules@?1??try_get_GetDateFormatEx@@YAP6AHPEB_WKPEBU_SYSTEMTIME@@0PEA_WH0@ZXZ@4QBW4module_id@?A0x391cf84c@@B 00000001800351e8     libucrt:winapi_thunks.obj
 0002:00007200       ?candidate_modules@?1??try_get_GetLocaleInfoEx@@YAP6AHPEB_WKPEA_WH@ZXZ@4QBW4module_id@?A0x391cf84c@@B 0000000180035200     libucrt:winapi_thunks.obj
 0002:00007208       ?candidate_modules@?1??try_get_GetTimeFormatEx@@YAP6AHPEB_WKPEBU_SYSTEMTIME@@0PEA_WH@ZXZ@4QBW4module_id@?A0x391cf84c@@B 0000000180035208     libucrt:winapi_thunks.obj
 0002:00007220       ?candidate_modules@?1??try_get_GetUserDefaultLocaleName@@YAP6AHPEA_WH@ZXZ@4QBW4module_id@?A0x391cf84c@@B 0000000180035220     libucrt:winapi_thunks.obj
 0002:00007248       ?candidate_modules@?1??try_get_InitializeCriticalSectionEx@@YAP6AHPEAU_RTL_CRITICAL_SECTION@@KK@ZXZ@4QBW4module_id@?A0x391cf84c@@B 0000000180035248     libucrt:winapi_thunks.obj
 0002:00007250       ?candidate_modules@?1??try_get_IsValidLocaleName@@YAP6AHPEB_W@ZXZ@4QBW4module_id@?A0x391cf84c@@B 0000000180035250     libucrt:winapi_thunks.obj
 0002:00007270       ?candidate_modules@?1??try_get_LCMapStringEx@@YAP6AHPEB_WK0HPEA_WHPEAU_nlsversioninfo@@PEAX_J@ZXZ@4QBW4module_id@?A0x391cf84c@@B 0000000180035270     libucrt:winapi_thunks.obj
 0002:00007278       ?candidate_modules@?1??try_get_LCIDToLocaleName@@YAP6AHKPEA_WHK@ZXZ@4QBW4module_id@?A0x391cf84c@@B 0000000180035278     libucrt:winapi_thunks.obj
 0002:00007298       ?candidate_modules@?1??try_get_LocaleNameToLCID@@YAP6AKPEB_WK@ZXZ@4QBW4module_id@?A0x391cf84c@@B 0000000180035298     libucrt:winapi_thunks.obj
 0002:000072b4       ?candidate_modules@?1??try_get_AppPolicyGetProcessTerminationMethod@@YAP6AJPEAXPEAW4AppPolicyProcessTerminationMethod@@@ZXZ@4QBW4module_id@?A0x391cf84c@@B 00000001800352b4     libucrt:winapi_thunks.obj
 0002:00007938       $cppxdata$?_wcstombs_l_helper@@YA_KPEADPEB_W_KPEAU__crt_locale_pointers@@@Z 0000000180035938     libucrt:wcstombs.obj
 0002:000097a0       ?_mb_locale_names@@3QBQEB_WB 00000001800377a0     libucrt:mbctype.obj
 0002:0000a810       ?LcidToLocaleNameTable@?A0x881e4c05@@3QBULcidToLocaleName@1@B 0000000180038810     libucrt:lcidtoname_downlevel.obj
 0002:0000c260       ?LocaleNameToIndexTable@?A0x881e4c05@@3QBULocaleNameIndex@1@B 000000018003a260     libucrt:lcidtoname_downlevel.obj
 0002:0000db10       __real@433fffffffffffff    000000018003bb10     libucrt:fpsr.obj
 0002:0000db18       __real@c33fffffffffffff    000000018003bb18     libucrt:fpsr.obj
 0002:0000db20       __real_ninf                000000018003bb20     libucrt:log10.obj
 0002:0000db30       __real_inf                 000000018003bb30     libucrt:log10.obj
 0002:0000db40       __real_neg_qnan            000000018003bb40     libucrt:log10.obj
 0002:0000db50       __real_qnanbit             000000018003bb50     libucrt:log10.obj
 0002:0000db60       __int_1023                 000000018003bb60     libucrt:log10.obj
 0002:0000db70       __mask_001                 000000018003bb70     libucrt:log10.obj
 0002:0000db80       __mask_mant                000000018003bb80     libucrt:log10.obj
 0002:0000db90       __mask_mant_top8           000000018003bb90     libucrt:log10.obj
 0002:0000dba0       __mask_mant9               000000018003bba0     libucrt:log10.obj
 0002:0000dbb0       __real_log10_e             000000018003bbb0     libucrt:log10.obj
 0002:0000dbc0       __real_log10_e_lead        000000018003bbc0     libucrt:log10.obj
 0002:0000dbd0       __real_log10_e_tail        000000018003bbd0     libucrt:log10.obj
 0002:0000dbe0       __real_log10_2_lead        000000018003bbe0     libucrt:log10.obj
 0002:0000dbf0       __real_log10_2_tail        000000018003bbf0     libucrt:log10.obj
 0002:0000dc00       __real_two                 000000018003bc00     libucrt:log10.obj
 0002:0000dc10       __real_one                 000000018003bc10     libucrt:log10.obj
 0002:0000dc20       __real_half                000000018003bc20     libucrt:log10.obj
 0002:0000dc30       __mask_100                 000000018003bc30     libucrt:log10.obj
 0002:0000dc40       __real_1_over_512          000000018003bc40     libucrt:log10.obj
 0002:0000dc50       __real_1_over_2            000000018003bc50     libucrt:log10.obj
 0002:0000dc60       __real_1_over_3            000000018003bc60     libucrt:log10.obj
 0002:0000dc70       __real_1_over_4            000000018003bc70     libucrt:log10.obj
 0002:0000dc80       __real_1_over_5            000000018003bc80     libucrt:log10.obj
 0002:0000dc90       __real_1_over_6            000000018003bc90     libucrt:log10.obj
 0002:0000dca0       __real_neg_1023            000000018003bca0     libucrt:log10.obj
 0002:0000dcb0       __mask_2045                000000018003bcb0     libucrt:log10.obj
 0002:0000dcc0       __real_threshold           000000018003bcc0     libucrt:log10.obj
 0002:0000dcd0       __real_near_one_lt         000000018003bcd0     libucrt:log10.obj
 0002:0000dce0       __real_near_one_gt         000000018003bce0     libucrt:log10.obj
 0002:0000dcf0       __real_min_norm            000000018003bcf0     libucrt:log10.obj
 0002:0000dd00       __real_notsign             000000018003bd00     libucrt:log10.obj
 0002:0000dd10       __real_ca1                 000000018003bd10     libucrt:log10.obj
 0002:0000dd20       __real_ca2                 000000018003bd20     libucrt:log10.obj
 0002:0000dd30       __real_ca3                 000000018003bd30     libucrt:log10.obj
 0002:0000dd40       __real_ca4                 000000018003bd40     libucrt:log10.obj
 0002:0000dd50       __mask_lower               000000018003bd50     libucrt:log10.obj
 0002:0000dd60       __flag_x_zero              000000018003bd60     libucrt:log10.obj
 0002:0000dd64       __flag_x_neg               000000018003bd64     libucrt:log10.obj
 0002:0000dd68       __flag_x_nan               000000018003bd68     libucrt:log10.obj
 0002:0000ee10       ?GStyleVarInfo@@3QBUImGuiStyleVarInfo@@B 000000018003ce10     imgui.obj
 0002:0000ef24       ?STB_TEXTEDIT_NEWLINE@ImStb@@3GA 000000018003cf24     imgui_widgets.obj
 0002:0000ef26       ?context@execution@asio@boost@@3U?$context_t@$0A@@detail@123@B 000000018003cf26     server.obj
 0002:0000ef27       ?context@execution@asio@boost@@3U?$context_t@$0A@@detail@123@B 000000018003cf27     SixMansPlugin-Rework.obj
 0002:0000ef28       ?GImAllocatorFreeFunc@@3P6AXPEAX0@ZEA 000000018003cf28     imgui.obj
 0002:0000ef30       ?GCrc32LookupTable@@3QBIB  000000018003cf30     imgui.obj
 0002:0000f330       ?GImAllocatorAllocFunc@@3P6APEAX_KPEAX@ZEA 000000018003d330     imgui.obj
 0002:0000f338       ?blocking@execution@asio@boost@@3U?$blocking_t@$0A@@detail@123@B 000000018003d338     server.obj
 0002:0000f33c       ?blocking@execution@asio@boost@@3U?$blocking_t@$0A@@detail@123@B 000000018003d33c     SixMansPlugin-Rework.obj
 0002:0000f340       ?proggy_clean_ttf_compressed_data_base85@@3QBDB 000000018003d340     imgui_draw.obj
 0002:0001220d       ?context@execution@asio@boost@@3U?$context_t@$0A@@detail@123@B 000000018004020d     SixMansPlugin-ReworkGUI.obj
 0002:0001220e       ?context@execution@asio@boost@@3U?$context_t@$0A@@detail@123@B 000000018004020e     pch.obj
 0002:00012210       ?FONT_ATLAS_DEFAULT_TEX_DATA_PIXELS@@3QBDB 0000000180040210     imgui_draw.obj
 0002:00012d78       ?blocking@execution@asio@boost@@3U?$blocking_t@$0A@@detail@123@B 0000000180040d78     SixMansPlugin-ReworkGUI.obj
 0002:00012d80       ?GDataTypeInfo@ImGui@@3QBUImGuiDataTypeInfo@@B 0000000180040d80     imgui_rangeslider.obj
 0002:00012e70       ?GDataTypeInfo@@3QBUImGuiDataTypeInfo@@B 0000000180040e70     imgui_widgets.obj
 0002:00012f60       ?blocking@execution@asio@boost@@3U?$blocking_t@$0A@@detail@123@B 0000000180040f60     pch.obj
 0002:00012f70       ?resize_grip_def@@3QBUImGuiResizeGripDef@@B 0000000180040f70     imgui.obj
 0002:00012fd0       ?FONT_ATLAS_DEFAULT_TEX_CURSOR_DATA@@3QAY02$$CBUImVec2@@A 0000000180040fd0     imgui_draw.obj
 0002:00013890       L_signbit                  0000000180041890     libucrt:sinf.obj
 0002:000138a0       L_sign_mask                00000001800418a0     libucrt:sinf.obj
 0002:000138b0       L_one                      00000001800418b0     libucrt:sinf.obj
 0002:000138c0       L_int_three                00000001800418c0     libucrt:sinf.obj
 0002:000138d0       L_one_half                 00000001800418d0     libucrt:sinf.obj
 0002:000138e0       L_twobypi                  00000001800418e0     libucrt:sinf.obj
 0002:000138f0       L_piby2_1                  00000001800418f0     libucrt:sinf.obj
 0002:00013900       L_one_sixth                0000000180041900     libucrt:sinf.obj
 0002:00013910       L_piby2_1tail              0000000180041910     libucrt:sinf.obj
 0002:00013920       L_piby2_2                  0000000180041920     libucrt:sinf.obj
 0002:00013930       L_piby2_2tail              0000000180041930     libucrt:sinf.obj
 0002:00013940       L_inf_mask_32              0000000180041940     libucrt:sinf.obj
 0002:00013950       L_int_two                  0000000180041950     libucrt:sinf.obj
 0002:00013960       L_piby2_lead               0000000180041960     libucrt:sinf.obj
 0002:00013970       L_piby4                    0000000180041970     libucrt:sinf.obj
 0002:00013980       L_mask_3f2                 0000000180041980     libucrt:sinf.obj
 0002:00013990       L_mask_3f8                 0000000180041990     libucrt:sinf.obj
 0002:000139a0       L_large_x_fma3             00000001800419a0     libucrt:sinf.obj
 0002:000139a8       L_large_x_sse2             00000001800419a8     libucrt:sinf.obj
 0002:000139b0       L_near_one                 00000001800419b0     libucrt:sinf.obj
 0002:000139b8       L_two_to_32                00000001800419b8     libucrt:sinf.obj
 0002:00013ab0       L__piby2                   0000000180041ab0     libucrt:remainder_piby2f_forc.obj
 0002:00013ac0       L__2_by_pi_bits            0000000180041ac0     libucrt:remainder_piby2f_forc.obj
 0002:00015c48       $unwind$??$_Reallocate_grow_by@V<lambda_1>@?1??append@?$basic_string@DU?$char_traits@D@std@@V?$allocator@D@2@@std@@QEAAAEAV34@_KD@Z@_KD@?$basic_string@DU?$char_traits@D@std@@V?$allocator@D@2@@std@@AEAAAEAV01@_KV<lambda_1>@?1??append@01@QEAAAEAV01@0D@Z@_KD@Z 0000000180043c48     format.obj
 0002:00015c58       $chain$3$??$_Reallocate_grow_by@V<lambda_1>@?1??append@?$basic_string@DU?$char_traits@D@std@@V?$allocator@D@2@@std@@QEAAAEAV34@_KD@Z@_KD@?$basic_string@DU?$char_traits@D@std@@V?$allocator@D@2@@std@@AEAAAEAV01@_KV<lambda_1>@?1??append@01@QEAAAEAV01@0D@Z@_KD@Z 0000000180043c58     format.obj
 0002:00015c78       $chain$5$??$_Reallocate_grow_by@V<lambda_1>@?1??append@?$basic_string@DU?$char_traits@D@std@@V?$allocator@D@2@@std@@QEAAAEAV34@_KD@Z@_KD@?$basic_string@DU?$char_traits@D@std@@V?$allocator@D@2@@std@@AEAAAEAV01@_KV<lambda_1>@?1??append@01@QEAAAEAV01@0D@Z@_KD@Z 0000000180043c78     format.obj
 0002:00015c78       $chain$7$??$_Reallocate_grow_by@V<lambda_1>@?1??append@?$basic_string@DU?$char_traits@D@std@@V?$allocator@D@2@@std@@QEAAAEAV34@_KD@Z@_KD@?$basic_string@DU?$char_traits@D@std@@V?$allocator@D@2@@std@@AEAAAEAV01@_KV<lambda_1>@?1??append@01@QEAAAEAV01@0D@Z@_KD@Z 0000000180043c78     format.obj
 0002:00015c98       $chain$6$??$_Reallocate_grow_by@V<lambda_1>@?1??append@?$basic_string@DU?$char_traits@D@std@@V?$allocator@D@2@@std@@QEAAAEAV34@_KD@Z@_KD@?$basic_string@DU?$char_traits@D@std@@V?$allocator@D@2@@std@@AEAAAEAV01@_KV<lambda_1>@?1??append@01@QEAAAEAV01@0D@Z@_KD@Z 0000000180043c98     format.obj
 0002:00015ca8       $unwind$?_Throw_bad_array_new_length@std@@YAXXZ 0000000180043ca8     format.obj
 0002:00015ca8       $unwind$?_Throw_bad_cast@std@@YAXXZ 0000000180043ca8     format.obj
 0002:00015ca8       $unwind$?resize@?$basic_string@DU?$char_traits@D@std@@V?$allocator@D@2@@std@@QEAAX_KD@Z 0000000180043ca8     format.obj
 0002:00015ca8       $unwind$_raise_exc         0000000180043ca8     libucrt:fpexcept.obj
 0002:00015ca8       $unwind$_raise_excf        0000000180043ca8     libucrt:fpexcept.obj
 0002:00015ca8       $unwind$?__scrt_throw_std_bad_alloc@@YAXXZ 0000000180043ca8     LIBCMT:throw_bad_alloc.obj
 0002:00015ca8       $unwind$?__scrt_throw_std_bad_array_new_length@@YAXXZ 0000000180043ca8     LIBCMT:throw_bad_alloc.obj
 0002:00015ca8       $unwind$__std_fs_convert_narrow_to_wide 0000000180043ca8     libcpmt:filesystem.obj
 0002:00015ca8       $unwind$?_Xlength_error@std@@YAXPEBD@Z 0000000180043ca8     libcpmt:xthrow.obj
 0002:00015ca8       $unwind$?_Xout_of_range@std@@YAXPEBD@Z 0000000180043ca8     libcpmt:xthrow.obj
 0002:00015ca8       $unwind$?_Xruntime_error@std@@YAXPEBD@Z 0000000180043ca8     libcpmt:xthrow.obj
 0002:00015cb0       $chain$1$?resize@?$basic_string@DU?$char_traits@D@std@@V?$allocator@D@2@@std@@QEAAX_KD@Z 0000000180043cb0     format.obj
 0002:00015cc8       $chain$3$?resize@?$basic_string@DU?$char_traits@D@std@@V?$allocator@D@2@@std@@QEAAX_KD@Z 0000000180043cc8     format.obj
 0002:00015cdc       $unwind$??$_Reallocate_for@V<lambda_1>@?1??assign@?$basic_string@_WU?$char_traits@_W@std@@V?$allocator@_W@2@@std@@QEAAAEAV34@QEB_W_K@Z@PEB_W@?$basic_string@_WU?$char_traits@_W@std@@V?$allocator@_W@2@@std@@AEAAAEAV01@_KV<lambda_1>@?1??assign@01@QEAAAEAV01@QEB_W0@Z@PEB_W@Z 0000000180043cdc     format.obj
 0002:00015cdc       $unwind$??$_Reallocate_grow_by@V<lambda_1>@?1??push_back@?$basic_string@_WU?$char_traits@_W@std@@V?$allocator@_W@2@@std@@QEAAX_W@Z@_W@?$basic_string@_WU?$char_traits@_W@std@@V?$allocator@_W@2@@std@@AEAAAEAV01@_KV<lambda_1>@?1??push_back@01@QEAAX_W@Z@_W@Z 0000000180043cdc     logsys.obj
 0002:00015cec       $chain$2$??$_Reallocate_for@V<lambda_1>@?1??assign@?$basic_string@_WU?$char_traits@_W@std@@V?$allocator@_W@2@@std@@QEAAAEAV34@QEB_W_K@Z@PEB_W@?$basic_string@_WU?$char_traits@_W@std@@V?$allocator@_W@2@@std@@AEAAAEAV01@_KV<lambda_1>@?1??assign@01@QEAAAEAV01@QEB_W0@Z@PEB_W@Z 0000000180043cec     format.obj
 0002:00015d08       $chain$4$??$_Reallocate_for@V<lambda_1>@?1??assign@?$basic_string@_WU?$char_traits@_W@std@@V?$allocator@_W@2@@std@@QEAAAEAV34@QEB_W_K@Z@PEB_W@?$basic_string@_WU?$char_traits@_W@std@@V?$allocator@_W@2@@std@@AEAAAEAV01@_KV<lambda_1>@?1??assign@01@QEAAAEAV01@QEB_W0@Z@PEB_W@Z 0000000180043d08     format.obj
 0002:00015d24       $chain$5$??$_Reallocate_for@V<lambda_1>@?1??assign@?$basic_string@_WU?$char_traits@_W@std@@V?$allocator@_W@2@@std@@QEAAAEAV34@QEB_W_K@Z@PEB_W@?$basic_string@_WU?$char_traits@_W@std@@V?$allocator@_W@2@@std@@AEAAAEAV01@_KV<lambda_1>@?1??assign@01@QEAAAEAV01@QEB_W0@Z@PEB_W@Z 0000000180043d24     format.obj
 0002:00015d34       $unwind$??1LogSys@@QEAA@XZ 0000000180043d34     SixMansPlugin-Rework.obj
 0002:00015d34       $unwind$??_G?$_Ref_count@VSixMansPlugin@@@std@@UEAAPEAXI@Z 0000000180043d34     SixMansPlugin-Rework.obj
 0002:00015d34       $unwind$??__F_globalCvarManager@@YAXXZ 0000000180043d34     SixMansPlugin-Rework.obj
 0002:00015d34       $unwind$??__Fsingleton@@YAXXZ 0000000180043d34     SixMansPlugin-Rework.obj
 0002:00015d34       $unwind$?_Destroy@?$_Ref_count@VSixMansPlugin@@@std@@EEAAXXZ 0000000180043d34     SixMansPlugin-Rework.obj
 0002:00015d34       $unwind$??0bad_alloc@std@@QEAA@AEBV01@@Z 0000000180043d34     format.obj
 0002:00015d34       $unwind$??0bad_array_new_length@std@@QEAA@AEBV01@@Z 0000000180043d34     format.obj
 0002:00015d34       $unwind$??0bad_cast@std@@QEAA@AEBV01@@Z 0000000180043d34     format.obj
 0002:00015d34       $unwind$??0exception@std@@QEAA@AEBV01@@Z 0000000180043d34     format.obj
 0002:00015d34       $unwind$??0runtime_error@std@@QEAA@AEBV01@@Z 0000000180043d34     format.obj
 0002:00015d34       $unwind$??1?$_Yarn@D@std@@QEAA@XZ 0000000180043d34     format.obj
 0002:00015d34       $unwind$??1?$_Yarn@_W@std@@QEAA@XZ 0000000180043d34     format.obj
 0002:00015d34       $unwind$??1?$basic_string@DU?$char_traits@D@std@@V?$allocator@D@2@@std@@QEAA@XZ 0000000180043d34     format.obj
 0002:00015d34       $unwind$??1?$basic_string@_WU?$char_traits@_W@std@@V?$allocator@_W@2@@std@@QEAA@XZ 0000000180043d34     format.obj
 0002:00015d34       $unwind$??_G_Facet_base@std@@UEAAPEAXI@Z 0000000180043d34     format.obj
 0002:00015d34       $unwind$??1path@filesystem@std@@QEAA@XZ 0000000180043d34     logsys.obj
 0002:00015d34       $unwind$??_G?$codecvt@DDU_Mbstatet@@@std@@MEAAPEAXI@Z 0000000180043d34     logsys.obj
 0002:00015d34       $unwind$??_G_Generic_error_category@std@@UEAAPEAXI@Z 0000000180043d34     logsys.obj
 0002:00015d34       $unwind$??_G_Iostream_error_category2@std@@UEAAPEAXI@Z 0000000180043d34     logsys.obj
 0002:00015d34       $unwind$??_G_System_error_category@std@@UEAAPEAXI@Z 0000000180043d34     logsys.obj
 0002:00015d34       $unwind$?do_narrow@?$ctype@D@std@@MEBAPEBDPEBD0DPEAD@Z 0000000180043d34     logsys.obj
 0002:00015d34       $unwind$?do_widen@?$ctype@D@std@@MEBAPEBDPEBD0PEAD@Z 0000000180043d34     logsys.obj
 0002:00015d34       $unwind$?imbue@?$basic_filebuf@DU?$char_traits@D@std@@@std@@MEAAXAEBVlocale@2@@Z 0000000180043d34     logsys.obj
 0002:00015d34       $unwind$?setbuf@?$basic_filebuf@DU?$char_traits@D@std@@@std@@MEAAPEAV?$basic_streambuf@DU?$char_traits@D@std@@@2@PEAD_J@Z 0000000180043d34     logsys.obj
 0002:00015d34       $unwind$?sync@?$basic_filebuf@DU?$char_traits@D@std@@@std@@MEAAHXZ 0000000180043d34     logsys.obj
 0002:00015d34       $unwind$?uflow@?$basic_streambuf@DU?$char_traits@D@std@@@std@@MEAAHXZ 0000000180043d34     logsys.obj
 0002:00015d34       $unwind$?underflow@?$basic_filebuf@DU?$char_traits@D@std@@@std@@MEAAHXZ 0000000180043d34     logsys.obj
 0002:00015d34       $unwind$??0length_error@std@@QEAA@AEBV01@@Z 0000000180043d34     server.obj
 0002:00015d34       $unwind$??0logic_error@std@@QEAA@AEBV01@@Z 0000000180043d34     server.obj
 0002:00015d34       $unwind$??1system_error@system@boost@@UEAA@XZ 0000000180043d34     server.obj
 0002:00015d34       $unwind$??_Gclone_base@exception_detail@boost@@UEAAPEAXI@Z 0000000180043d34     server.obj
 0002:00015d34       $unwind$?message@interop_error_category@detail@system@boost@@UEBAPEBDHPEAD_K@Z 0000000180043d34     server.obj
 0002:00015d34       $unwind$?__c16rtomb_utf8@__crt_mbstring@@YA_KPEAD_SPEAU_Mbstatet@@@Z 0000000180043d34     libucrt:c16rtomb.obj
 0002:00015d34       $unwind$_calloc_base       0000000180043d34     libucrt:calloc_base.obj
 0002:00015d34       $unwind$_malloc_base       0000000180043d34     libucrt:malloc_base.obj
 0002:00015d34       $unwind$_callnewh          0000000180043d34     libucrt:new_handler.obj
 0002:00015d34       $unwind$initialize_pointers 0000000180043d34     libucrt:initialization.obj
 0002:00015d34       $unwind$uninitialize_allocated_memory 0000000180043d34     libucrt:initialization.obj
 0002:00015d34       $unwind$__acrt_initialize_locks 0000000180043d34     libucrt:locks.obj
 0002:00015d34       $unwind$__acrt_uninitialize_locks 0000000180043d34     libucrt:locks.obj
 0002:00015d34       $unwind$__acrt_freeptd     0000000180043d34     libucrt:per_thread_data.obj
 0002:00015d34       $unwind$__acrt_getptd_head 0000000180043d34     libucrt:per_thread_data.obj
 0002:00015d34       $unwind$__acrt_get_process_end_policy 0000000180043d34     libucrt:win_policies.obj
 0002:00015d34       $unwind$__acrt_AppPolicyGetProcessTerminationMethodInternal 0000000180043d34     libucrt:winapi_thunks.obj
 0002:00015d34       $unwind$__acrt_FlsAlloc    0000000180043d34     libucrt:winapi_thunks.obj
 0002:00015d34       $unwind$__acrt_FlsFree     0000000180043d34     libucrt:winapi_thunks.obj
 0002:00015d34       $unwind$__acrt_FlsGetValue 0000000180043d34     libucrt:winapi_thunks.obj
 0002:00015d34       $unwind$__acrt_IsValidLocaleName 0000000180043d34     libucrt:winapi_thunks.obj
 0002:00015d34       $unwind$__acrt_uninitialize_winapi_thunks 0000000180043d34     libucrt:winapi_thunks.obj
 0002:00015d34       $unwind$__acrt_update_locale_info 0000000180043d34     libucrt:locale_update.obj
 0002:00015d34       $unwind$__acrt_update_multibyte_info 0000000180043d34     libucrt:locale_update.obj
 0002:00015d34       $unwind$__acrt_allocate_buffer_for_argv 0000000180043d34     libucrt:argv_parsing.obj
 0002:00015d34       $unwind$?exit_or_terminate_process@@YAXI@Z 0000000180043d34     libucrt:exit.obj
 0002:00015d34       $unwind$?try_cor_exit_process@@YAXI@Z 0000000180043d34     libucrt:exit.obj
 0002:00015d34       $unwind$__acrt_uninitialize_stdio 0000000180043d34     libucrt:_file.obj
 0002:00015d34       $unwind$?stream_is_at_end_of_file_nolock@@YA_NV__crt_stdio_stream@@@Z 0000000180043d34     libucrt:_flsbuf.obj
 0002:00015d34       $unwind$__acrt_stdio_free_buffer_nolock 0000000180043d34     libucrt:_freebuf.obj
 0002:00015d34       $unwind$__acrt_should_use_temporary_buffer 0000000180043d34     libucrt:_sftbuf.obj
 0002:00015d34       $unwind$_fflush_nolock     0000000180043d34     libucrt:fflush.obj
 0002:00015d34       $unwind$?state_case_normal@?$output_processor@DV?$string_output_adapter@D@__crt_stdio_output@@V?$standard_base@DV?$string_output_adapter@D@__crt_stdio_output@@@2@@__crt_stdio_output@@AEAA_NXZ 0000000180043d34     libucrt:output.obj
 0002:00015d34       $unwind$?type_case_s@?$output_processor@DV?$string_output_adapter@D@__crt_stdio_output@@V?$standard_base@DV?$string_output_adapter@D@__crt_stdio_output@@@2@@__crt_stdio_output@@AEAA_NXZ 0000000180043d34     libucrt:output.obj
 0002:00015d34       $unwind$strcpy_s           0000000180043d34     libucrt:strcpy_s.obj
 0002:00015d34       $unwind$wcscat_s           0000000180043d34     libucrt:wcscat_s.obj
 0002:00015d34       $unwind$wcscpy_s           0000000180043d34     libucrt:wcscpy_s.obj
 0002:00015d34       $unwind$_clrfp             0000000180043d34     libucrt:fpctrl.obj
 0002:00015d34       $unwind$_set_statfp        0000000180043d34     libucrt:fpctrl.obj
 0002:00015d34       $unwind$_clearfp           0000000180043d34     libucrt:ieee.obj
 0002:00015d34       $unwind$_controlfp_s       0000000180043d34     libucrt:contrlfp.obj
 0002:00015d34       $unwind$fegetenv           0000000180043d34     libucrt:fegetenv.obj
 0002:00015d34       $unwind$feholdexcept       0000000180043d34     libucrt:feholdexcept.obj
 0002:00015d34       $unwind$fesetenv           0000000180043d34     libucrt:fesetenv.obj
 0002:00015d34       $unwind$__raise_securityfailure 0000000180043d34     LIBCMT:gs_report.obj
 0002:00015d34       $unwind$??2@YAPEAX_K@Z     0000000180043d34     LIBCMT:new_scalar.obj
 0002:00015d34       $unwind$??_Gtype_info@@UEAAPEAXI@Z 0000000180043d34     LIBCMT:std_type_info_static.obj
 0002:00015d34       $unwind$__scrt_initialize_crt 0000000180043d34     LIBCMT:utility.obj
 0002:00015d34       $unwind$__scrt_initialize_onexit_tables 0000000180043d34     LIBCMT:utility.obj
 0002:00015d34       $unwind$__scrt_release_startup_lock 0000000180043d34     LIBCMT:utility.obj
 0002:00015d34       $unwind$__scrt_uninitialize_crt 0000000180043d34     LIBCMT:utility.obj
 0002:00015d34       $unwind$_onexit            0000000180043d34     LIBCMT:utility.obj
 0002:00015d34       $unwind$_Getctype          0000000180043d34     libcpmt:_tolower.obj
 0002:00015d34       $unwind$?_Ios_base_dtor@ios_base@std@@CAXPEAV12@@Z 0000000180043d34     libcpmt:ios.obj
 0002:00015d34       $unwind$??__F_Fac_tidy_reg@std@@YAXXZ 0000000180043d34     libcpmt:locale0.obj
 0002:00015d34       $unwind$?_Facet_Register@std@@YAXPEAV_Facet_base@1@@Z 0000000180043d34     libcpmt:locale0.obj
 0002:00015d34       $unwind$?_New_Locimp@_Locimp@locale@std@@CAPEAV123@_N@Z 0000000180043d34     libcpmt:locale0.obj
 0002:00015d34       $unwind$?_Setgloballocale@locale@std@@CAXPEAX@Z 0000000180043d34     libcpmt:locale0.obj
 0002:00015d34       $unwind$?initialize_pointers@@YAHXZ 0000000180043d34     libcpmt:winapisupp.obj
 0002:00015d34       $unwind$??0_Lockit@std@@QEAA@H@Z 0000000180043d34     libcpmt:xlock.obj
 0002:00015d34       $unwind$??1_Init_locks@std@@QEAA@XZ 0000000180043d34     libcpmt:xlock.obj
 0002:00015d34       $unwind$??0out_of_range@std@@QEAA@AEBV01@@Z 0000000180043d34     libcpmt:xthrow.obj
 0002:00015d34       $unwind$_IsExceptionObjectToBeDestroyed 0000000180043d34     libvcruntime:ehhelpers.obj
 0002:00015d34       $unwind$?GetUnwindTryBlock@__FrameHandler3@@SAHPEA_KPEAU_xDISPATCHER_CONTEXT@@PEBU_s_FuncInfo@@@Z 0000000180043d34     libvcruntime:ehstate.obj
 0002:00015d34       $unwind$?StateFromIp@__FrameHandler3@@SAHPEBU_s_FuncInfo@@PEAU_xDISPATCHER_CONTEXT@@_K@Z 0000000180043d34     libvcruntime:ehstate.obj
 0002:00015d34       $unwind$??0HandlerMap4@FH4@@QEAA@PEBUTryBlockMapEntry4@1@_KH@Z 0000000180043d34     libvcruntime:frame.obj
 0002:00015d34       $unwind$__vcrt_initialize_locks 0000000180043d34     libvcruntime:locks.obj
 0002:00015d34       $unwind$__vcrt_uninitialize_locks 0000000180043d34     libvcruntime:locks.obj
 0002:00015d34       $unwind$__vcrt_freeptd     0000000180043d34     libvcruntime:per_thread_data.obj
 0002:00015d34       $unwind$?ExecutionInCatch@__FrameHandler3@@SA_NPEAU_xDISPATCHER_CONTEXT@@PEBU_s_FuncInfo@@@Z 0000000180043d34     libvcruntime:risctrnsctrl.obj
 0002:00015d34       $unwind$_CreateFrameInfo   0000000180043d34     libvcruntime:risctrnsctrl.obj
 0002:00015d34       $unwind$_SetImageBase      0000000180043d34     libvcruntime:risctrnsctrl.obj
 0002:00015d34       $unwind$_SetThrowImageBase 0000000180043d34     libvcruntime:risctrnsctrl.obj
 0002:00015d34       $unwind$__std_exception_destroy 0000000180043d34     libvcruntime:std_exception.obj
 0002:00015d34       $unwind$__std_type_info_destroy_list 0000000180043d34     libvcruntime:std_type_info.obj
 0002:00015d34       $unwind$__vcrt_FlsAlloc    0000000180043d34     libvcruntime:winapi_downlevel.obj
 0002:00015d34       $unwind$__vcrt_FlsFree     0000000180043d34     libvcruntime:winapi_downlevel.obj
 0002:00015d34       $unwind$__vcrt_FlsGetValue 0000000180043d34     libvcruntime:winapi_downlevel.obj
 0002:00015d3c       $unwind$??_Gbad_alloc@std@@UEAAPEAXI@Z 0000000180043d3c     format.obj
 0002:00015d3c       $unwind$??_Gbad_array_new_length@std@@UEAAPEAXI@Z 0000000180043d3c     format.obj
 0002:00015d3c       $unwind$??_Gbad_cast@std@@UEAAPEAXI@Z 0000000180043d3c     format.obj
 0002:00015d3c       $unwind$??_Gexception@std@@UEAAPEAXI@Z 0000000180043d3c     format.obj
 0002:00015d3c       $unwind$??_Gruntime_error@std@@UEAAPEAXI@Z 0000000180043d3c     format.obj
 0002:00015d3c       $unwind$??0_System_error@std@@QEAA@AEBV01@@Z 0000000180043d3c     logsys.obj
 0002:00015d3c       $unwind$??0failure@ios_base@std@@QEAA@AEBV012@@Z 0000000180043d3c     logsys.obj
 0002:00015d3c       $unwind$??0system_error@std@@QEAA@AEBV01@@Z 0000000180043d3c     logsys.obj
 0002:00015d3c       $unwind$??_G?$basic_filebuf@DU?$char_traits@D@std@@@std@@UEAAPEAXI@Z 0000000180043d3c     logsys.obj
 0002:00015d3c       $unwind$??_G?$basic_ifstream@DU?$char_traits@D@std@@@std@@UEAAPEAXI@Z 0000000180043d3c     logsys.obj
 0002:00015d3c       $unwind$??_G?$basic_ofstream@DU?$char_traits@D@std@@@std@@UEAAPEAXI@Z 0000000180043d3c     logsys.obj
 0002:00015d3c       $unwind$??_G?$ctype@D@std@@MEAAPEAXI@Z 0000000180043d3c     logsys.obj
 0002:00015d3c       $unwind$??_G_System_error@std@@UEAAPEAXI@Z 0000000180043d3c     logsys.obj
 0002:00015d3c       $unwind$??_Gfailure@ios_base@std@@UEAAPEAXI@Z 0000000180043d3c     logsys.obj
 0002:00015d3c       $unwind$??_Gsystem_error@std@@UEAAPEAXI@Z 0000000180043d3c     logsys.obj
 0002:00015d3c       $unwind$?_Initcvt@?$basic_filebuf@DU?$char_traits@D@std@@@std@@IEAAXAEBV?$codecvt@DDU_Mbstatet@@@2@@Z 0000000180043d3c     logsys.obj
 0002:00015d3c       $unwind$??0exception@boost@@QEAA@AEBV01@@Z 0000000180043d3c     server.obj
 0002:00015d3c       $unwind$??_Glength_error@std@@UEAAPEAXI@Z 0000000180043d3c     server.obj
 0002:00015d3c       $unwind$??_Glogic_error@std@@UEAAPEAXI@Z 0000000180043d3c     server.obj
 0002:00015d3c       $unwind$??_Gsystem_error@system@boost@@UEAAPEAXI@Z 0000000180043d3c     server.obj
 0002:00015d3c       $unwind$?default_error_condition@error_category@system@boost@@UEBA?AVerror_condition@23@H@Z 0000000180043d3c     server.obj
 0002:00015d3c       $unwind$?default_error_condition@system_error_category@detail@system@boost@@UEBA?AVerror_condition@34@H@Z 0000000180043d3c     server.obj
 0002:00015d3c       $unwind$?message@generic_error_category@detail@system@boost@@UEBAPEBDHPEAD_K@Z 0000000180043d3c     server.obj
 0002:00015d3c       $unwind$??$common_initialize_environment_nolock@D@@YAHXZ 0000000180043d3c     libucrt:environment_initialization.obj
 0002:00015d3c       $unwind$islower            0000000180043d3c     libucrt:_ctype.obj
 0002:00015d3c       $unwind$isupper            0000000180043d3c     libucrt:_ctype.obj
 0002:00015d3c       $unwind$_realloc_base      0000000180043d3c     libucrt:realloc_base.obj
 0002:00015d3c       $unwind$?replace_current_thread_locale_nolock@@YAXQEAU__acrt_ptd@@QEAU__crt_locale_data@@@Z 0000000180043d3c     libucrt:per_thread_data.obj
 0002:00015d3c       $unwind$__acrt_execute_uninitializers 0000000180043d3c     libucrt:shared_initialization.obj
 0002:00015d3c       $unwind$__acrt_FlsSetValue 0000000180043d3c     libucrt:winapi_thunks.obj
 0002:00015d3c       $unwind$__acrt_GetUserDefaultLocaleName 0000000180043d3c     libucrt:winapi_thunks.obj
 0002:00015d3c       $unwind$__acrt_LocaleNameToLCID 0000000180043d3c     libucrt:winapi_thunks.obj
 0002:00015d3c       $unwind$GetLocaleNameFromLangCountry 0000000180043d3c     libucrt:get_qualified_locale.obj
 0002:00015d3c       $unwind$GetLocaleNameFromLanguage 0000000180043d3c     libucrt:get_qualified_locale.obj
 0002:00015d3c       $unwind$GetLcidFromLangCountry 0000000180043d3c     libucrt:getqloc_downlevel.obj
 0002:00015d3c       $unwind$GetLcidFromLanguage 0000000180043d3c     libucrt:getqloc_downlevel.obj
 0002:00015d3c       $unwind$_updatetlocinfoEx_nolock 0000000180043d3c     libucrt:locale_refcounting.obj
 0002:00015d3c       $unwind$_close_nolock      0000000180043d3c     libucrt:close.obj
 0002:00015d3c       $unwind$__acrt_uninitialize_lowio 0000000180043d3c     libucrt:ioinit.obj
 0002:00015d3c       $unwind$__acrt_errno_map_os_error 0000000180043d3c     libucrt:errno.obj
 0002:00015d3c       $unwind$_initterm_e        0000000180043d3c     libucrt:initterm.obj
 0002:00015d3c       $unwind$__acrt_stdio_flush_and_write_narrow_nolock 0000000180043d3c     libucrt:_flsbuf.obj
 0002:00015d3c       $unwind$__acrt_stdio_allocate_buffer_nolock 0000000180043d3c     libucrt:_getbuf.obj
 0002:00015d3c       $unwind$__acrt_stdio_begin_temporary_buffering_nolock 0000000180043d3c     libucrt:_sftbuf.obj
 0002:00015d3c       $unwind$_fclose_nolock     0000000180043d3c     libucrt:fclose.obj
 0002:00015d3c       $unwind$fgetpos            0000000180043d3c     libucrt:fgetpos.obj
 0002:00015d3c       $unwind$?common_fseek_binary_mode_read_only_fast_track_nolock@@YA_NV__crt_stdio_stream@@_JH@Z 0000000180043d3c     libucrt:fseek.obj
 0002:00015d3c       $unwind$?type_case_n@?$output_processor@DV?$string_output_adapter@D@__crt_stdio_output@@V?$standard_base@DV?$string_output_adapter@D@__crt_stdio_output@@@2@@__crt_stdio_output@@AEAA_NXZ 0000000180043d3c     libucrt:output.obj
 0002:00015d3c       $unwind$_ungetc_nolock     0000000180043d3c     libucrt:ungetc.obj
 0002:00015d3c       $unwind$strncpy_s          0000000180043d3c     libucrt:strncpy_s.obj
 0002:00015d3c       $unwind$wcsncat_s          0000000180043d3c     libucrt:wcsncat_s.obj
 0002:00015d3c       $unwind$wcsncpy_s          0000000180043d3c     libucrt:wcsncpy_s.obj
 0002:00015d3c       $unwind$_RTC_Initialize    0000000180043d3c     LIBCMT:initsect.obj
 0002:00015d3c       $unwind$_RTC_Terminate     0000000180043d3c     LIBCMT:initsect.obj
 0002:00015d3c       $unwind$?__scrt_initialize_thread_safe_statics@@YAHXZ 0000000180043d3c     LIBCMT:thread_safe_statics.obj
 0002:00015d3c       $unwind$??_G_Locimp@locale@std@@MEAAPEAXI@Z 0000000180043d3c     libcpmt:locale0.obj
 0002:00015d3c       $unwind$?_Locinfo_ctor@_Locinfo@std@@SAXPEAV12@PEBD@Z 0000000180043d3c     libcpmt:locale0.obj
 0002:00015d3c       $unwind$??0_Init_locks@std@@QEAA@XZ 0000000180043d3c     libcpmt:xlock.obj
 0002:00015d3c       $unwind$??_Gout_of_range@std@@UEAAPEAXI@Z 0000000180043d3c     libcpmt:xthrow.obj
 0002:00015d3c       $unwind$__FrameUnwindFilter 0000000180043d3c     libvcruntime:ehhelpers.obj
 0002:00015d3c       $unwind$?SetUnwindTryBlock@__FrameHandler3@@SAXPEA_KPEAU_xDISPATCHER_CONTEXT@@PEBU_s_FuncInfo@@H@Z 0000000180043d3c     libvcruntime:ehstate.obj
 0002:00015d3c       $unwind$?ExFilterRethrow@@YAHPEAU_EXCEPTION_POINTERS@@PEAUEHExceptionRecord@@PEAH@Z 0000000180043d3c     libvcruntime:frame.obj
 0002:00015d3c       $unwind$?ExFilterRethrowFH4@@YAHPEAU_EXCEPTION_POINTERS@@PEAUEHExceptionRecord@@HPEAH@Z 0000000180043d3c     libvcruntime:frame.obj
 0002:00015d3c       $unwind$_FindAndUnlinkFrame 0000000180043d3c     libvcruntime:risctrnsctrl.obj
 0002:00015d3c       $unwind$__vcrt_FlsSetValue 0000000180043d3c     libvcruntime:winapi_downlevel.obj
 0002:00015d48       $unwind$??__Fserver_thread@@YAXXZ 0000000180043d48     SixMansPlugin-Rework.obj
 0002:00015d48       $unwind$deleteMe           0000000180043d48     SixMansPlugin-Rework.obj
 0002:00015d48       $unwind$??1locale@std@@QEAA@XZ 0000000180043d48     format.obj
 0002:00015d48       $unwind$?_Xlen_string@std@@YAXXZ 0000000180043d48     format.obj
 0002:00015d48       $unwind$?_Xran@?$_String_val@U?$_Simple_types@_W@std@@@std@@SAXXZ 0000000180043d48     logsys.obj
 0002:00015d48       $unwind$??__E?top_@?$call_stack@Vstrand_impl@strand_executor_service@detail@asio@boost@@E@detail@asio@boost@@0V?$tss_ptr@Vcontext@?$call_stack@Vstrand_impl@strand_executor_service@detail@asio@boost@@E@detail@asio@boost@@@234@A@@YAXXZ 0000000180043d48     pch.obj
 0002:00015d48       $unwind$??__E?top_@?$call_stack@Vstrand_impl@strand_service@detail@asio@boost@@E@detail@asio@boost@@0V?$tss_ptr@Vcontext@?$call_stack@Vstrand_impl@strand_service@detail@asio@boost@@E@detail@asio@boost@@@234@A@@YAXXZ 0000000180043d48     pch.obj
 0002:00015d48       $unwind$??__E?tss_ptr_@?$win_global_impl@Vsystem_context@asio@boost@@@detail@asio@boost@@2V?$tss_ptr@Vsystem_context@asio@boost@@@234@A@@YAXXZ 0000000180043d48     pch.obj
 0002:00015d48       $unwind$??__E?top_@?$call_stack@Vthread_context@detail@asio@boost@@Vthread_info_base@234@@detail@asio@boost@@0V?$tss_ptr@Vcontext@?$call_stack@Vthread_context@detail@asio@boost@@Vthread_info_base@234@@detail@asio@boost@@@234@A@@YAXXZ 0000000180043d48     server.obj
 0002:00015d48       $unwind$__dcrt_terminate_console_output 0000000180043d48     libucrt:initcon.obj
 0002:00015d48       $unwind$??$uninitialize_environment_internal@D@@YAXAEAPEAPEAD@Z 0000000180043d48     libucrt:environment_initialization.obj
 0002:00015d48       $unwind$??$uninitialize_environment_internal@_W@@YAXAEAPEAPEA_W@Z 0000000180043d48     libucrt:environment_initialization.obj
 0002:00015d48       $unwind$__dcrt_uninitialize_environments_nolock 0000000180043d48     libucrt:environment_initialization.obj
 0002:00015d48       $unwind$?__c32rtomb_utf8@__crt_mbstring@@YA_KPEAD_UPEAU_Mbstatet@@@Z 0000000180043d48     libucrt:c32rtomb.obj
 0002:00015d48       $unwind$__acrt_initialize_heap 0000000180043d48     libucrt:heap_handle.obj
 0002:00015d48       $unwind$_msize_base        0000000180043d48     libucrt:msize.obj
 0002:00015d48       $unwind$?initialize_multibyte@@YAHXZ 0000000180043d48     libucrt:multibyte_initializer.obj
 0002:00015d48       $unwind$__acrt_thread_attach 0000000180043d48     libucrt:initialization.obj
 0002:00015d48       $unwind$__acrt_thread_detach 0000000180043d48     libucrt:initialization.obj
 0002:00015d48       $unwind$__acrt_uninitialize 0000000180043d48     libucrt:initialization.obj
 0002:00015d48       $unwind$__acrt_uninitialize_critical 0000000180043d48     libucrt:initialization.obj
 0002:00015d48       $unwind$initialize_c       0000000180043d48     libucrt:initialization.obj
 0002:00015d48       $unwind$uninitialize_allocated_io_buffers 0000000180043d48     libucrt:initialization.obj
 0002:00015d48       $unwind$uninitialize_environment 0000000180043d48     libucrt:initialization.obj
 0002:00015d48       $unwind$_lock_locales      0000000180043d48     libucrt:locks.obj
 0002:00015d48       $unwind$__acrt_initialize_ptd 0000000180043d48     libucrt:per_thread_data.obj
 0002:00015d48       $unwind$__acrt_uninitialize_ptd 0000000180043d48     libucrt:per_thread_data.obj
 0002:00015d48       $unwind$__acrt_AreFileApisANSI 0000000180043d48     libucrt:winapi_thunks.obj
 0002:00015d48       $unwind$__acrt_can_use_vista_locale_apis 0000000180043d48     libucrt:winapi_thunks.obj
 0002:00015d48       $unwind$__acrt_eagerly_load_locale_apis 0000000180043d48     libucrt:winapi_thunks.obj
 0002:00015d48       $unwind$__pctype_func      0000000180043d48     libucrt:ctype.obj
 0002:00015d48       $unwind$___lc_codepage_func 0000000180043d48     libucrt:initctype.obj
 0002:00015d48       $unwind$___lc_locale_name_func 0000000180043d48     libucrt:initctype.obj
 0002:00015d48       $unwind$__acrt_release_locale_ref 0000000180043d48     libucrt:locale_refcounting.obj
 0002:00015d48       $unwind$_copytlocinfo_nolock 0000000180043d48     libucrt:wsetlocale.obj
 0002:00015d48       $unwind$_isatty            0000000180043d48     libucrt:isatty.obj
 0002:00015d48       $unwind$_get_osfhandle     0000000180043d48     libucrt:osfinfo.obj
 0002:00015d48       $unwind$_get_fmode         0000000180043d48     libucrt:setmode.obj
 0002:00015d48       $unwind$__acrt_initialize_multibyte 0000000180043d48     libucrt:mbctype.obj
 0002:00015d48       $unwind$__acrt_update_thread_multibyte_data 0000000180043d48     libucrt:mbctype.obj
 0002:00015d48       $unwind$__doserrno         0000000180043d48     libucrt:errno.obj
 0002:00015d48       $unwind$_errno             0000000180043d48     libucrt:errno.obj
 0002:00015d48       $unwind$_invoke_watson     0000000180043d48     libucrt:invalid_parameter.obj
 0002:00015d48       $unwind$abort              0000000180043d48     libucrt:abort.obj
 0002:00015d48       $unwind$__acrt_initialize_command_line 0000000180043d48     libucrt:argv_data.obj
 0002:00015d48       $unwind$_get_stream_buffer_pointers 0000000180043d48     libucrt:_file.obj
 0002:00015d48       $unwind$_fgetc_nolock      0000000180043d48     libucrt:fgetc.obj
 0002:00015d48       $unwind$_fileno            0000000180043d48     libucrt:fileno.obj
 0002:00015d48       $unwind$fsetpos            0000000180043d48     libucrt:fsetpos.obj
 0002:00015d48       $unwind$?state_case_normal_tchar@?$output_processor@DV?$string_output_adapter@D@__crt_stdio_output@@V?$standard_base@DV?$string_output_adapter@D@__crt_stdio_output@@@2@@__crt_stdio_output@@AEAA_ND@Z 0000000180043d48     libucrt:output.obj
 0002:00015d48       $unwind$?state_case_size@?$output_processor@DV?$string_output_adapter@D@__crt_stdio_output@@V?$standard_base@DV?$string_output_adapter@D@__crt_stdio_output@@@2@@__crt_stdio_output@@AEAA_NXZ 0000000180043d48     libucrt:output.obj
 0002:00015d48       $unwind$_wcsicmp           0000000180043d48     libucrt:wcsicmp.obj
 0002:00015d48       $unwind$_wcsnicmp          0000000180043d48     libucrt:wcsnicmp.obj
 0002:00015d48       $unwind$_statfp            0000000180043d48     libucrt:fpctrl.obj
 0002:00015d48       $unwind$fegetround         0000000180043d48     libucrt:fegetround.obj
 0002:00015d48       $unwind$_set_errno_from_matherr 0000000180043d48     libucrt:fpexcept.obj
 0002:00015d48       $unwind$__scrt_initialize_default_local_stdio_options 0000000180043d48     LIBCMT:default_local_stdio_options.obj
 0002:00015d48       $unwind$?dllmain_crt_dispatch@@YAHQEAUHINSTANCE__@@KQEAX@Z 0000000180043d48     LIBCMT:dll_dllmain.obj
 0002:00015d48       $unwind$__report_rangecheckfailure 0000000180043d48     LIBCMT:gs_report.obj
 0002:00015d48       $unwind$__GSHandlerCheck   0000000180043d48     LIBCMT:gshandler.obj
 0002:00015d48       $unwind$?__scrt_uninitialize_thread_safe_statics@@YAXXZ 0000000180043d48     LIBCMT:thread_safe_statics.obj
 0002:00015d48       $unwind$__scrt_acquire_startup_lock 0000000180043d48     LIBCMT:utility.obj
 0002:00015d48       $unwind$__scrt_dllmain_after_initialize_c 0000000180043d48     LIBCMT:utility.obj
 0002:00015d48       $unwind$__scrt_dllmain_before_initialize_c 0000000180043d48     LIBCMT:utility.obj
 0002:00015d48       $unwind$__scrt_dllmain_crt_thread_attach 0000000180043d48     LIBCMT:utility.obj
 0002:00015d48       $unwind$__scrt_dllmain_crt_thread_detach 0000000180043d48     LIBCMT:utility.obj
 0002:00015d48       $unwind$__scrt_dllmain_uninitialize_c 0000000180043d48     LIBCMT:utility.obj
 0002:00015d48       $unwind$__scrt_dllmain_uninitialize_critical 0000000180043d48     LIBCMT:utility.obj
 0002:00015d48       $unwind$atexit             0000000180043d48     LIBCMT:utility.obj
 0002:00015d48       $unwind$__std_fs_code_page 0000000180043d48     libcpmt:filesystem.obj
 0002:00015d48       $unwind$??__Einitlocks@std@@YAXXZ 0000000180043d48     libcpmt:iosptrs.obj
 0002:00015d48       $unwind$?_Atexit@@YAXP6AXXZ@Z 0000000180043d48     libcpmt:iosptrs.obj
 0002:00015d48       $unwind$??__Fclassic_locale@std@@YAXXZ 0000000180043d48     libcpmt:locale0.obj
 0002:00015d48       $unwind$?_Locinfo_dtor@_Locinfo@std@@SAXPEAV12@@Z 0000000180043d48     libcpmt:locale0.obj
 0002:00015d48       $unwind$_Deletegloballocale 0000000180043d48     libcpmt:locale0.obj
 0002:00015d48       $unwind$tidy_global        0000000180043d48     libcpmt:locale0.obj
 0002:00015d48       $unwind$??1_Lockit@std@@QEAA@XZ 0000000180043d48     libcpmt:xlock.obj
 0002:00015d48       $unwind$??__Einitlocks@std@@YAXXZ 0000000180043d48     libcpmt:xlock.obj
 0002:00015d48       $unwind$__current_exception 0000000180043d48     libvcruntime:ehhelpers.obj
 0002:00015d48       $unwind$__current_exception_context 0000000180043d48     libvcruntime:ehhelpers.obj
 0002:00015d48       $unwind$__std_terminate    0000000180043d48     libvcruntime:ehhelpers.obj
 0002:00015d48       $unwind$?GetCurrentState@__FrameHandler3@@SAHPEA_KPEAU_xDISPATCHER_CONTEXT@@PEBU_s_FuncInfo@@@Z 0000000180043d48     libvcruntime:ehstate.obj
 0002:00015d48       $unwind$__vcrt_initialize  0000000180043d48     libvcruntime:initialization.obj
 0002:00015d48       $unwind$__vcrt_thread_attach 0000000180043d48     libvcruntime:initialization.obj
 0002:00015d48       $unwind$__vcrt_thread_detach 0000000180043d48     libvcruntime:initialization.obj
 0002:00015d48       $unwind$__vcrt_uninitialize 0000000180043d48     libvcruntime:initialization.obj
 0002:00015d48       $unwind$__vcrt_uninitialize_critical 0000000180043d48     libvcruntime:initialization.obj
 0002:00015d48       $unwind$__vcrt_freefls     0000000180043d48     libvcruntime:per_thread_data.obj
 0002:00015d48       $unwind$__vcrt_getptd      0000000180043d48     libvcruntime:per_thread_data.obj
 0002:00015d48       $unwind$__vcrt_initialize_ptd 0000000180043d48     libvcruntime:per_thread_data.obj
 0002:00015d48       $unwind$__vcrt_uninitialize_ptd 0000000180043d48     libvcruntime:per_thread_data.obj
 0002:00015d48       $unwind$_purecall          0000000180043d48     libvcruntime:purevirt.obj
 0002:00015d48       $unwind$?FrameUnwindToEmptyState@__FrameHandler4@@SAXPEA_KPEAU_xDISPATCHER_CONTEXT@@PEAUFuncInfo4@FH4@@@Z 0000000180043d48     libvcruntime:risctrnsctrl.obj
 0002:00015d48       $unwind$_GetImageBase      0000000180043d48     libvcruntime:risctrnsctrl.obj
 0002:00015d48       $unwind$_GetThrowImageBase 0000000180043d48     libvcruntime:risctrnsctrl.obj
 0002:00015d50       $unwind$?assign@?$basic_string@DU?$char_traits@D@std@@V?$allocator@D@2@@std@@QEAAAEAV12@QEBD_K@Z 0000000180043d50     format.obj
 0002:00015d50       $unwind$?assign@?$basic_string@DU?$char_traits@D@std@@V?$allocator@D@2@@std@@QEAAAEAV12@_KD@Z 0000000180043d50     server.obj
 0002:00015d60       $chain$0$?assign@?$basic_string@DU?$char_traits@D@std@@V?$allocator@D@2@@std@@QEAAAEAV12@QEBD_K@Z 0000000180043d60     format.obj
 0002:00015d74       $chain$2$?assign@?$basic_string@DU?$char_traits@D@std@@V?$allocator@D@2@@std@@QEAAAEAV12@QEBD_K@Z 0000000180043d74     format.obj
 0002:00015d88       $chain$3$?assign@?$basic_string@DU?$char_traits@D@std@@V?$allocator@D@2@@std@@QEAAAEAV12@QEBD_K@Z 0000000180043d88     format.obj
 0002:00015d98       $unwind$??0?$basic_string@DU?$char_traits@D@std@@V?$allocator@D@2@@std@@QEAA@QEBD@Z 0000000180043d98     format.obj
 0002:00015da8       $cppxdata$??0?$basic_string@DU?$char_traits@D@std@@V?$allocator@D@2@@std@@QEAA@QEBD@Z 0000000180043da8     format.obj
 0002:00015db1       $stateUnwindMap$getPlugin  0000000180043db1     SixMansPlugin-Rework.obj
 0002:00015db1       $stateUnwindMap$??0?$basic_string@DU?$char_traits@D@std@@V?$allocator@D@2@@std@@QEAA@QEBD@Z 0000000180043db1     format.obj
 0002:00015db1       $stateUnwindMap$??0?$basic_streambuf@DU?$char_traits@D@std@@@std@@IEAA@XZ 0000000180043db1     logsys.obj
 0002:00015db1       $stateUnwindMap$??1?$basic_ios@DU?$char_traits@D@std@@@std@@UEAA@XZ 0000000180043db1     logsys.obj
 0002:00015db1       $stateUnwindMap$??_D?$basic_ifstream@DU?$char_traits@D@std@@@std@@QEAAXXZ 0000000180043db1     logsys.obj
 0002:00015db1       $stateUnwindMap$??_D?$basic_ofstream@DU?$char_traits@D@std@@@std@@QEAAXXZ 0000000180043db1     logsys.obj
 0002:00015db1       $stateUnwindMap$??_G?$basic_ios@DU?$char_traits@D@std@@@std@@UEAAPEAXI@Z 0000000180043db1     logsys.obj
 0002:00015db1       $stateUnwindMap$??_G?$basic_istream@DU?$char_traits@D@std@@@std@@UEAAPEAXI@Z 0000000180043db1     logsys.obj
 0002:00015db1       $stateUnwindMap$??_G?$basic_ostream@DU?$char_traits@D@std@@@std@@UEAAPEAXI@Z 0000000180043db1     logsys.obj
 0002:00015db1       $stateUnwindMap$??_Gios_base@std@@UEAAPEAXI@Z 0000000180043db1     logsys.obj
 0002:00015db1       $stateUnwindMap$?message@_Generic_error_category@std@@UEBA?AV?$basic_string@DU?$char_traits@D@std@@V?$allocator@D@2@@2@H@Z 0000000180043db1     logsys.obj
 0002:00015db1       $stateUnwindMap$?message@_Iostream_error_category2@std@@UEBA?AV?$basic_string@DU?$char_traits@D@std@@V?$allocator@D@2@@2@H@Z 0000000180043db1     logsys.obj
 0002:00015db1       $stateUnwindMap$??0system_error@system@boost@@QEAA@Verror_code@12@PEBD@Z 0000000180043db1     server.obj
 0002:00015db1       $stateUnwindMap$??1?$wrapexcept@Vsystem_error@system@boost@@@boost@@UEAA@XZ 0000000180043db1     server.obj
 0002:00015db1       $stateUnwindMap$??_G?$wrapexcept@Vsystem_error@system@boost@@@boost@@UEAAPEAXI@Z 0000000180043db1     server.obj
 0002:00015db1       $stateUnwindMap$?message@generic_error_category@detail@system@boost@@UEBA?AV?$basic_string@DU?$char_traits@D@std@@V?$allocator@D@2@@std@@H@Z 0000000180043db1     server.obj
 0002:00015db1       $stateUnwindMap$?message@interop_error_category@detail@system@boost@@UEBA?AV?$basic_string@DU?$char_traits@D@std@@V?$allocator@D@2@@std@@H@Z 0000000180043db1     server.obj
 0002:00015db1       $stateUnwindMap$?unknown_message_win32@detail@system@boost@@YA?AV?$basic_string@DU?$char_traits@D@std@@V?$allocator@D@2@@std@@H@Z 0000000180043db1     server.obj
 0002:00015db1       $stateUnwindMap$??__Finit_atexit@@YAXXZ 0000000180043db1     libcpmt:iosptrs.obj
 0002:00015db7       $ip2state$??0?$basic_string@DU?$char_traits@D@std@@V?$allocator@D@2@@std@@QEAA@QEBD@Z 0000000180043db7     format.obj
 0002:00015dbc       $unwind$??0runtime_error@std@@QEAA@PEBD@Z 0000000180043dbc     format.obj
 0002:00015dbc       $unwind$??0length_error@std@@QEAA@PEBD@Z 0000000180043dbc     server.obj
 0002:00015dcc       $unwind$??$_Reallocate_grow_by@V<lambda_1>@?1??append@?$basic_string@DU?$char_traits@D@std@@V?$allocator@D@2@@std@@QEAAAEAV34@QEBD_K@Z@PEBD_K@?$basic_string@DU?$char_traits@D@std@@V?$allocator@D@2@@std@@AEAAAEAV01@_KV<lambda_1>@?1??append@01@QEAAAEAV01@QEBD0@Z@PEBD_K@Z 0000000180043dcc     imgui_rangeslider.obj
 0002:00015ddc       $chain$2$??$_Reallocate_grow_by@V<lambda_1>@?1??append@?$basic_string@DU?$char_traits@D@std@@V?$allocator@D@2@@std@@QEAAAEAV34@QEBD_K@Z@PEBD_K@?$basic_string@DU?$char_traits@D@std@@V?$allocator@D@2@@std@@AEAAAEAV01@_KV<lambda_1>@?1??append@01@QEAAAEAV01@QEBD0@Z@PEBD_K@Z 0000000180043ddc     imgui_rangeslider.obj
 0002:00015df8       $chain$4$??$_Reallocate_grow_by@V<lambda_1>@?1??append@?$basic_string@DU?$char_traits@D@std@@V?$allocator@D@2@@std@@QEAAAEAV34@QEBD_K@Z@PEBD_K@?$basic_string@DU?$char_traits@D@std@@V?$allocator@D@2@@std@@AEAAAEAV01@_KV<lambda_1>@?1??append@01@QEAAAEAV01@QEBD0@Z@PEBD_K@Z 0000000180043df8     imgui_rangeslider.obj
 0002:00015df8       $chain$6$??$_Reallocate_grow_by@V<lambda_1>@?1??append@?$basic_string@DU?$char_traits@D@std@@V?$allocator@D@2@@std@@QEAAAEAV34@QEBD_K@Z@PEBD_K@?$basic_string@DU?$char_traits@D@std@@V?$allocator@D@2@@std@@AEAAAEAV01@_KV<lambda_1>@?1??append@01@QEAAAEAV01@QEBD0@Z@PEBD_K@Z 0000000180043df8     imgui_rangeslider.obj
 0002:00015e14       $chain$5$??$_Reallocate_grow_by@V<lambda_1>@?1??append@?$basic_string@DU?$char_traits@D@std@@V?$allocator@D@2@@std@@QEAAAEAV34@QEBD_K@Z@PEBD_K@?$basic_string@DU?$char_traits@D@std@@V?$allocator@D@2@@std@@AEAAAEAV01@_KV<lambda_1>@?1??append@01@QEAAAEAV01@QEBD0@Z@PEBD_K@Z 0000000180043e14     imgui_rangeslider.obj
 0002:00015e24       $unwind$?append@?$basic_string@DU?$char_traits@D@std@@V?$allocator@D@2@@std@@QEAAAEAV12@QEBD_K@Z 0000000180043e24     imgui_rangeslider.obj
 0002:00015e30       $chain$0$?append@?$basic_string@DU?$char_traits@D@std@@V?$allocator@D@2@@std@@QEAAAEAV12@QEBD_K@Z 0000000180043e30     imgui_rangeslider.obj
 0002:00015e44       $chain$1$?append@?$basic_string@DU?$char_traits@D@std@@V?$allocator@D@2@@std@@QEAAAEAV12@QEBD_K@Z 0000000180043e44     imgui_rangeslider.obj
 0002:00015e54       $unwind$??0?$basic_string@DU?$char_traits@D@std@@V?$allocator@D@2@@std@@QEAA@AEBV01@@Z 0000000180043e54     imgui_searchablecombo.obj
 0002:00015e64       $unwind$??_D?$basic_ifstream@DU?$char_traits@D@std@@@std@@QEAAXXZ 0000000180043e64     logsys.obj
 0002:00015e64       $unwind$??_D?$basic_ofstream@DU?$char_traits@D@std@@@std@@QEAAXXZ 0000000180043e64     logsys.obj
 0002:00015e78       $cppxdata$??_D?$basic_ifstream@DU?$char_traits@D@std@@@std@@QEAAXXZ 0000000180043e78     logsys.obj
 0002:00015e78       $cppxdata$??_D?$basic_ofstream@DU?$char_traits@D@std@@@std@@QEAAXXZ 0000000180043e78     logsys.obj
 0002:00015e81       $ip2state$??_D?$basic_ifstream@DU?$char_traits@D@std@@@std@@QEAAXXZ 0000000180043e81     logsys.obj
 0002:00015e81       $ip2state$??_D?$basic_ofstream@DU?$char_traits@D@std@@@std@@QEAAXXZ 0000000180043e81     logsys.obj
 0002:00015e88       $unwind$??0LogSys@@QEAA@Vpath@filesystem@std@@@Z 0000000180043e88     logsys.obj
 0002:00015eb0       $cppxdata$??0LogSys@@QEAA@Vpath@filesystem@std@@@Z 0000000180043eb0     logsys.obj
 0002:00015eb9       $stateUnwindMap$??0LogSys@@QEAA@Vpath@filesystem@std@@@Z 0000000180043eb9     logsys.obj
 0002:00015eed       $ip2state$??0LogSys@@QEAA@Vpath@filesystem@std@@@Z 0000000180043eed     logsys.obj
 0002:00015f04       $unwind$?dtor$0@?0???$_Convert_wide_to_narrow_replace_chars@U?$char_traits@D@std@@V?$allocator@D@2@@filesystem@std@@YA?AV?$basic_string@DU?$char_traits@D@std@@V?$allocator@D@2@@1@W4__std_code_page@@V?$basic_string_view@_WU?$char_traits@_W@std@@@1@AEBV?$allocator@D@1@@Z@4HA 0000000180043f04     logsys.obj
 0002:00015f04       $unwind$?dtor$0@?0???0?$basic_ifstream@DU?$char_traits@D@std@@@std@@QEAA@XZ@4HA 0000000180043f04     logsys.obj
 0002:00015f04       $unwind$?dtor$0@?0???0?$basic_ofstream@DU?$char_traits@D@std@@@std@@QEAA@PEB_WHH@Z@4HA 0000000180043f04     logsys.obj
 0002:00015f04       $unwind$?dtor$0@?0???0?$basic_ofstream@DU?$char_traits@D@std@@@std@@QEAA@XZ@4HA 0000000180043f04     logsys.obj
 0002:00015f04       $unwind$?dtor$0@?0???Kfilesystem@std@@YA?AVpath@01@AEBV201@0@Z@4HA 0000000180043f04     logsys.obj
 0002:00015f04       $unwind$?dtor$0@?0??_Convert_narrow_to_wide@filesystem@std@@YA?AV?$basic_string@_WU?$char_traits@_W@std@@V?$allocator@_W@2@@2@W4__std_code_page@@V?$basic_string_view@DU?$char_traits@D@std@@@2@@Z@4HA 0000000180043f04     logsys.obj
 0002:00015f04       $unwind$?dtor$0@?0??_Getcat@?$codecvt@DDU_Mbstatet@@@std@@SA_KPEAPEBVfacet@locale@2@PEBV42@@Z@4HA 0000000180043f04     logsys.obj
 0002:00015f04       $unwind$?dtor$0@?0??_Getcat@?$ctype@D@std@@SA_KPEAPEBVfacet@locale@2@PEBV42@@Z@4HA 0000000180043f04     logsys.obj
 0002:00015f04       $unwind$?dtor$0@?0??_Pretty_message@filesystem_error@filesystem@std@@CA?AV?$basic_string@DU?$char_traits@D@std@@V?$allocator@D@2@@3@V?$basic_string_view@DU?$char_traits@D@std@@@3@AEBVpath@23@1@Z@4HA 0000000180043f04     logsys.obj
 0002:00015f04       $unwind$?dtor$15@?0???0LogSys@@QEAA@Vpath@filesystem@std@@@Z@4HA 0000000180043f04     logsys.obj
 0002:00015f04       $unwind$?dtor$0@?0??clone@?$wrapexcept@Vsystem_error@system@boost@@@boost@@UEBAPEBVclone_base@exception_detail@2@XZ@4HA 0000000180043f04     server.obj
 0002:00015f04       $unwind$_query_new_handler$fin$0 0000000180043f04     libucrt:new_handler.obj
 0002:00015f04       $unwind$?fin$0@?0???$?RV<lambda_0ae27a3a962d80f24befdcbee591983d>@@AEAV<lambda_8d0ee55de4b1038c4002e0adecdf1839>@@V<lambda_dc504788e8f1664fe9b84e20bfb512f2>@@@?$__crt_seh_guarded_call@X@@QEAAX$$QEAV<lambda_0ae27a3a962d80f24befdcbee591983d>@@AEAV<lambda_8d0ee55de4b1038c4002e0adecdf1839>@@$$QEAV<lambda_dc504788e8f1664fe9b84e20bfb512f2>@@@Z@4HA 0000000180043f04     libucrt:per_thread_data.obj
 0002:00015f04       $unwind$?fin$0@?0???$?RV<lambda_2d41944a1d46af3157314b8a01080d33>@@AEAV<lambda_8f455de75cd7d7f24b4096f044d8b9e6>@@V<lambda_aa500f224e6afead328df44964fe2772>@@@?$__crt_seh_guarded_call@X@@QEAAX$$QEAV<lambda_2d41944a1d46af3157314b8a01080d33>@@AEAV<lambda_8f455de75cd7d7f24b4096f044d8b9e6>@@$$QEAV<lambda_aa500f224e6afead328df44964fe2772>@@@Z@4HA 0000000180043f04     libucrt:per_thread_data.obj
 0002:00015f04       $unwind$?fin$0@?0???$?RV<lambda_aa87e3671a710a21b5dc78c0bdf72e11>@@AEAV<lambda_92619d2358a28f41a33ba319515a20b9>@@V<lambda_6992ecaafeb10aed2b74cb1fae11a551>@@@?$__crt_seh_guarded_call@X@@QEAAX$$QEAV<lambda_aa87e3671a710a21b5dc78c0bdf72e11>@@AEAV<lambda_92619d2358a28f41a33ba319515a20b9>@@$$QEAV<lambda_6992ecaafeb10aed2b74cb1fae11a551>@@@Z@4HA 0000000180043f04     libucrt:per_thread_data.obj
 0002:00015f04       $unwind$?fin$0@?0???$?RV<lambda_f2e299630e499de9f9a165e60fcd3db5>@@AEAV<lambda_2ae9d31cdba2644fcbeaf08da7c24588>@@V<lambda_40d01ff24d0e7b3814fdbdcee8eab3c7>@@@?$__crt_seh_guarded_call@X@@QEAAX$$QEAV<lambda_f2e299630e499de9f9a165e60fcd3db5>@@AEAV<lambda_2ae9d31cdba2644fcbeaf08da7c24588>@@$$QEAV<lambda_40d01ff24d0e7b3814fdbdcee8eab3c7>@@@Z@4HA 0000000180043f04     libucrt:per_thread_data.obj
 0002:00015f04       $unwind$?fin$0@?0???$?RV<lambda_48fc4a32460bb0512d3b13f8499328be>@@AEAV<lambda_6c3dac0a4f3f9cefca9bb494422f9b77>@@V<lambda_0a2f2c9f9a56eb2b08bfa6ff61d331c5>@@@?$__crt_seh_guarded_call@H@@QEAAH$$QEAV<lambda_48fc4a32460bb0512d3b13f8499328be>@@AEAV<lambda_6c3dac0a4f3f9cefca9bb494422f9b77>@@$$QEAV<lambda_0a2f2c9f9a56eb2b08bfa6ff61d331c5>@@@Z@4HA 0000000180043f04     libucrt:winapi_thunks.obj
 0002:00015f04       $unwind$__acrt_update_thread_locale_data$fin$0 0000000180043f04     libucrt:locale_refcounting.obj
 0002:00015f04       $unwind$?fin$0@?0???$?RV<lambda_e9ce07acdb0b138e546925ae9f1a2c9c>@@AEAV<lambda_2116bde18c9e5f34230805ea4a4660ed>@@V<lambda_5d037afbfc54bf1ca80d3d1ee4062886>@@@?$__crt_seh_guarded_call@PEAD@@QEAAPEAD$$QEAV<lambda_e9ce07acdb0b138e546925ae9f1a2c9c>@@AEAV<lambda_2116bde18c9e5f34230805ea4a4660ed>@@$$QEAV<lambda_5d037afbfc54bf1ca80d3d1ee4062886>@@@Z@4HA 0000000180043f04     libucrt:setlocale.obj
 0002:00015f04       $unwind$?fin$0@?0???$?RV<lambda_1d892b297fdedeee07ed8124eeb2f2fa>@@AEAV<lambda_ffc046909424fd52df0ac47e64813305>@@V<lambda_01a7098693036236037e7cdb9bca3d73>@@@?$__crt_seh_guarded_call@X@@QEAAX$$QEAV<lambda_1d892b297fdedeee07ed8124eeb2f2fa>@@AEAV<lambda_ffc046909424fd52df0ac47e64813305>@@$$QEAV<lambda_01a7098693036236037e7cdb9bca3d73>@@@Z@4HA 0000000180043f04     libucrt:wsetlocale.obj
 0002:00015f04       $unwind$?fin$0@?0???$?RV<lambda_410d79af7f07d98d83a3f525b3859a53>@@AEAV<lambda_3e16ef9562a7dcce91392c22ab16ea36>@@V<lambda_38119f0e861e05405d8a144b9b982f0a>@@@?$__crt_seh_guarded_call@X@@QEAAX$$QEAV<lambda_410d79af7f07d98d83a3f525b3859a53>@@AEAV<lambda_3e16ef9562a7dcce91392c22ab16ea36>@@$$QEAV<lambda_38119f0e861e05405d8a144b9b982f0a>@@@Z@4HA 0000000180043f04     libucrt:wsetlocale.obj
 0002:00015f04       $unwind$?fin$0@?0???$?RV<lambda_e9338f07fe435327d97d4ef86149e64d>@@AEAV<lambda_2a444430fde8c29194d880d93eed5e8f>@@AEAV<lambda_02db5278e8aef8b5e4976579d73f5304>@@@?$__crt_seh_guarded_call@X@@QEAAX$$QEAV<lambda_e9338f07fe435327d97d4ef86149e64d>@@AEAV<lambda_2a444430fde8c29194d880d93eed5e8f>@@AEAV<lambda_02db5278e8aef8b5e4976579d73f5304>@@@Z@4HA 0000000180043f04     libucrt:wsetlocale.obj
 0002:00015f04       $unwind$?fin$0@?0???$?RV<lambda_751a882b2c74d4b022dec766aa51a29a>@@AEAV<lambda_628dfdc04ba53c8bfc02c9951375f3f5>@@V<lambda_f6c7be5f7998530c34de24c7437d6b54>@@@?$__crt_seh_guarded_call@H@@QEAAH$$QEAV<lambda_751a882b2c74d4b022dec766aa51a29a>@@AEAV<lambda_628dfdc04ba53c8bfc02c9951375f3f5>@@$$QEAV<lambda_f6c7be5f7998530c34de24c7437d6b54>@@@Z@4HA 0000000180043f04     libucrt:close.obj
 0002:00015f04       $unwind$?fin$0@?0???$?RV<lambda_a37b2b86f63e897a80ea819b0eb08c01>@@AEAV<lambda_38ce7e780aa69e748d6df282ebc68efe>@@V<lambda_99fb1378e971ab6e7edea83e3a7a83a2>@@@?$__crt_seh_guarded_call@H@@QEAAH$$QEAV<lambda_a37b2b86f63e897a80ea819b0eb08c01>@@AEAV<lambda_38ce7e780aa69e748d6df282ebc68efe>@@$$QEAV<lambda_99fb1378e971ab6e7edea83e3a7a83a2>@@@Z@4HA 0000000180043f04     libucrt:commit.obj
 0002:00015f04       $unwind$__acrt_initialize_lowio$fin$0 0000000180043f04     libucrt:ioinit.obj
 0002:00015f04       $unwind$?fin$0@?0???$common_lseek@_J@@YA_JH_JH@Z@4HA 0000000180043f04     libucrt:lseek.obj
 0002:00015f04       $unwind$__acrt_lowio_ensure_fh_exists$fin$0 0000000180043f04     libucrt:osfinfo.obj
 0002:00015f04       $unwind$_alloc_osfhnd$fin$0 0000000180043f04     libucrt:osfinfo.obj
 0002:00015f04       $unwind$_read$fin$0        0000000180043f04     libucrt:read.obj
 0002:00015f04       $unwind$_write$fin$0       0000000180043f04     libucrt:write.obj
 0002:00015f04       $unwind$?fin$0@?0???$?RV<lambda_efdfa57d1f175319df784efa44bb7b81>@@AEAV<lambda_5f0a4c1567f8adc6734073e5d1e1b35c>@@V<lambda_2e8a7d3640ea6ccb4c2413664c2db6fd>@@@?$__crt_seh_guarded_call@X@@QEAAX$$QEAV<lambda_efdfa57d1f175319df784efa44bb7b81>@@AEAV<lambda_5f0a4c1567f8adc6734073e5d1e1b35c>@@$$QEAV<lambda_2e8a7d3640ea6ccb4c2413664c2db6fd>@@@Z@4HA 0000000180043f04     libucrt:mbctype.obj
 0002:00015f04       $unwind$?fin$0@?0??update_thread_multibyte_data_internal@@YAPEAU__crt_multibyte_data@@QEAU__acrt_ptd@@QEAPEAU1@@Z@4HA 0000000180043f04     libucrt:mbctype.obj
 0002:00015f04       $unwind$?fin$0@?0???$?RV<lambda_450d765d439847d4c735a33c368b5fc0>@@AEAV<lambda_44731a7d0e6d81c3e6aa82d741081786>@@V<lambda_601a2a7da3b7a96e9554ac7215c4b07c>@@@?$__crt_seh_guarded_call@P6AXH@Z@@QEAAP6AXH@Z$$QEAV<lambda_450d765d439847d4c735a33c368b5fc0>@@AEAV<lambda_44731a7d0e6d81c3e6aa82d741081786>@@$$QEAV<lambda_601a2a7da3b7a96e9554ac7215c4b07c>@@@Z@4HA 0000000180043f04     libucrt:signal.obj
 0002:00015f04       $unwind$raise$fin$0        0000000180043f04     libucrt:signal.obj
 0002:00015f04       $unwind$?filt$0@?0???R<lambda_6e4b09c48022b2350581041d5f6b0c4c>@@QEBA@XZ@4HA 0000000180043f04     libucrt:exit.obj
 0002:00015f04       $unwind$?fin$0@?0???$?RV<lambda_d80eeec6fff315bfe5c115232f3240e3>@@AEAV<lambda_6e4b09c48022b2350581041d5f6b0c4c>@@V<lambda_2358e3775559c9db80273638284d5e45>@@@?$__crt_seh_guarded_call@X@@QEAAX$$QEAV<lambda_d80eeec6fff315bfe5c115232f3240e3>@@AEAV<lambda_6e4b09c48022b2350581041d5f6b0c4c>@@$$QEAV<lambda_2358e3775559c9db80273638284d5e45>@@@Z@4HA 0000000180043f04     libucrt:exit.obj
 0002:00015f04       $unwind$?fin$0@?0???$?RV<lambda_638799b9deba96c50f710eeac98168cd>@@AEAV<lambda_22ebabd17bc4fa466a2aca6d8deb888d>@@V<lambda_a6f7d7db0129f75315ebf26d50c089f1>@@@?$__crt_seh_guarded_call@H@@QEAAH$$QEAV<lambda_638799b9deba96c50f710eeac98168cd>@@AEAV<lambda_22ebabd17bc4fa466a2aca6d8deb888d>@@$$QEAV<lambda_a6f7d7db0129f75315ebf26d50c089f1>@@@Z@4HA 0000000180043f04     libucrt:onexit.obj
 0002:00015f04       $unwind$?fin$0@?0???$?RV<lambda_7777bce6b2f8c936911f934f8298dc43>@@AEAV<lambda_f03950bc5685219e0bcd2087efbe011e>@@V<lambda_3883c3dff614d5e0c5f61bb1ac94921c>@@@?$__crt_seh_guarded_call@H@@QEAAH$$QEAV<lambda_7777bce6b2f8c936911f934f8298dc43>@@AEAV<lambda_f03950bc5685219e0bcd2087efbe011e>@@$$QEAV<lambda_3883c3dff614d5e0c5f61bb1ac94921c>@@@Z@4HA 0000000180043f04     libucrt:onexit.obj
 0002:00015f04       $unwind$_fcloseall$fin$0   0000000180043f04     libucrt:closeall.obj
 0002:00015f04       $unwind$fclose$fin$0       0000000180043f04     libucrt:fclose.obj
 0002:00015f04       $unwind$?fin$0@?0???$?RV<lambda_842d9ff0dc9ef11c61343bbaebe7f885>@@AEAV<lambda_c5860995281e5c4ce005b3de8f5874ee>@@V<lambda_d90129c13df834fdcbf8d2b88dafcf2d>@@@?$__crt_seh_guarded_call@X@@QEAAX$$QEAV<lambda_842d9ff0dc9ef11c61343bbaebe7f885>@@AEAV<lambda_c5860995281e5c4ce005b3de8f5874ee>@@$$QEAV<lambda_d90129c13df834fdcbf8d2b88dafcf2d>@@@Z@4HA 0000000180043f04     libucrt:fflush.obj
 0002:00015f04       $unwind$?fin$0@?0???$?RV<lambda_886d6c58226a84441f68b9f2b8217b83>@@AEAV<lambda_ab61a845afdef5b7c387490eaf3616ee>@@V<lambda_f7f22ab5edc0698d5f6905b0d3f44752>@@@?$__crt_seh_guarded_call@X@@QEAAX$$QEAV<lambda_886d6c58226a84441f68b9f2b8217b83>@@AEAV<lambda_ab61a845afdef5b7c387490eaf3616ee>@@$$QEAV<lambda_f7f22ab5edc0698d5f6905b0d3f44752>@@@Z@4HA 0000000180043f04     libucrt:fflush.obj
 0002:00015f04       $unwind$?fin$0@?0???$?RV<lambda_c376a267cfb53b6959b3b692ec76b120>@@AEAV<lambda_9a32fed5bf61b6b509b2d3f6003082a1>@@V<lambda_572fbb9fa0ab338edf41edfd4b5fcc8d>@@@?$__crt_seh_guarded_call@H@@QEAAH$$QEAV<lambda_c376a267cfb53b6959b3b692ec76b120>@@AEAV<lambda_9a32fed5bf61b6b509b2d3f6003082a1>@@$$QEAV<lambda_572fbb9fa0ab338edf41edfd4b5fcc8d>@@@Z@4HA 0000000180043f04     libucrt:fflush.obj
 0002:00015f04       $unwind$fgetc$fin$0        0000000180043f04     libucrt:fgetc.obj
 0002:00015f04       $unwind$?fin$0@?0???$common_fsopen@_W@@YAPEAU_iobuf@@QEB_W0H@Z@4HA 0000000180043f04     libucrt:fopen.obj
 0002:00015f04       $unwind$fputc$fin$0        0000000180043f04     libucrt:fputc.obj
 0002:00015f04       $unwind$?fin$0@?0??common_fseek@@YAHV__crt_stdio_stream@@_JH@Z@4HA 0000000180043f04     libucrt:fseek.obj
 0002:00015f04       $unwind$?fin$0@?0???$common_ftell@_J@@YA_JV__crt_stdio_stream@@@Z@4HA 0000000180043f04     libucrt:ftell.obj
 0002:00015f04       $unwind$?fin$0@?0???$?RV<lambda_2831f20263db5b546e098b45503eb778>@@AEAV<lambda_5856287d7ecd2be6c9197bb4007c3f6e>@@V<lambda_0838d7e100fbcbd261b69cfea6abb102>@@@?$__crt_seh_guarded_call@_K@@QEAA_K$$QEAV<lambda_2831f20263db5b546e098b45503eb778>@@AEAV<lambda_5856287d7ecd2be6c9197bb4007c3f6e>@@$$QEAV<lambda_0838d7e100fbcbd261b69cfea6abb102>@@@Z@4HA 0000000180043f04     libucrt:fwrite.obj
 0002:00015f04       $unwind$?fin$0@?0???$?RV<lambda_c8e61daa512c69656564d9dbd35486e8>@@AEAV<lambda_b4f66040be5f354a654fb75160c27bfc>@@V<lambda_2ca749746f96040ea1ff4296b14379df>@@@?$__crt_seh_guarded_call@H@@QEAAH$$QEAV<lambda_c8e61daa512c69656564d9dbd35486e8>@@AEAV<lambda_b4f66040be5f354a654fb75160c27bfc>@@$$QEAV<lambda_2ca749746f96040ea1ff4296b14379df>@@@Z@4HA 0000000180043f04     libucrt:setvbuf.obj
 0002:00015f04       $unwind$?fin$0@?0??__acrt_stdio_allocate_stream@@YA?AV__crt_stdio_stream@@XZ@4HA 0000000180043f04     libucrt:stream.obj
 0002:00015f04       $unwind$ungetc$fin$0       0000000180043f04     libucrt:ungetc.obj
 0002:00015f04       $unwind$_ctrlfp$filt$0     0000000180043f04     libucrt:fpctrl.obj
 0002:00015f04       $unwind$common_control87$filt$0 0000000180043f04     libucrt:ieee.obj
 0002:00015f04       $unwind$?fin$0@?0??dllmain_crt_process_attach@@YAHQEAUHINSTANCE__@@QEAX@Z@4HA 0000000180043f04     LIBCMT:dll_dllmain.obj
 0002:00015f04       $unwind$?fin$0@?0??dllmain_crt_process_detach@@YAH_N@Z@4HA 0000000180043f04     LIBCMT:dll_dllmain.obj
 0002:00015f04       $unwind$?fin$1@?0??dllmain_crt_process_detach@@YAH_N@Z@4HA 0000000180043f04     LIBCMT:dll_dllmain.obj
 0002:00015f04       $unwind$?fin$0@?0???_M@YAXPEAX_K1P6AX0@Z@Z@4HA 0000000180043f04     LIBCMT:ehvecdtr.obj
 0002:00015f04       $unwind$_IsNonwritableInCurrentImage$filt$0 0000000180043f04     LIBCMT:pesect.obj
 0002:00015f04       $unwind$?filt$0@?0??CxxCallCatchBlock@__FrameHandler3@@SAPEAXPEAU_EXCEPTION_RECORD@@@Z@4HA 0000000180043f04     libvcruntime:frame.obj
 0002:00015f04       $unwind$?filt$0@?0??CxxCallCatchBlock@__FrameHandler4@@SAPEAXPEAU_EXCEPTION_RECORD@@@Z@4HA 0000000180043f04     libvcruntime:frame.obj
 0002:00015f04       $unwind$?filt$0@?0??FrameUnwindToState@__FrameHandler3@@SAXPEA_KPEAU_xDISPATCHER_CONTEXT@@PEBU_s_FuncInfo@@H@Z@4HA 0000000180043f04     libvcruntime:frame.obj
 0002:00015f04       $unwind$?fin$1@?0??FrameUnwindToState@__FrameHandler3@@SAXPEA_KPEAU_xDISPATCHER_CONTEXT@@PEBU_s_FuncInfo@@H@Z@4HA 0000000180043f04     libvcruntime:frame.obj
 0002:00015f0c       $unwind$??0?$basic_ofstream@DU?$char_traits@D@std@@@std@@QEAA@XZ 0000000180043f0c     logsys.obj
 0002:00015f20       $cppxdata$??0?$basic_ofstream@DU?$char_traits@D@std@@@std@@QEAA@XZ 0000000180043f20     logsys.obj
 0002:00015f29       $stateUnwindMap$??0?$basic_ofstream@DU?$char_traits@D@std@@@std@@QEAA@XZ 0000000180043f29     logsys.obj
 0002:00015f35       $ip2state$??0?$basic_ofstream@DU?$char_traits@D@std@@@std@@QEAA@XZ 0000000180043f35     logsys.obj
 0002:00015f3c       $unwind$?seekpos@?$basic_filebuf@DU?$char_traits@D@std@@@std@@MEAA?AV?$fpos@U_Mbstatet@@@2@V32@H@Z 0000000180043f3c     logsys.obj
 0002:00015f50       $unwind$?seekoff@?$basic_filebuf@DU?$char_traits@D@std@@@std@@MEAA?AV?$fpos@U_Mbstatet@@@2@_JHH@Z 0000000180043f50     logsys.obj
 0002:00015f68       $unwind$?xsputn@?$basic_filebuf@DU?$char_traits@D@std@@@std@@MEAA_JPEBD_J@Z 0000000180043f68     logsys.obj
 0002:00015f7c       $chain$0$?xsputn@?$basic_filebuf@DU?$char_traits@D@std@@@std@@MEAA_JPEBD_J@Z 0000000180043f7c     logsys.obj
 0002:00015f90       $chain$1$?xsputn@?$basic_filebuf@DU?$char_traits@D@std@@@std@@MEAA_JPEBD_J@Z 0000000180043f90     logsys.obj
 0002:00015fa0       $unwind$?xsgetn@?$basic_filebuf@DU?$char_traits@D@std@@@std@@MEAA_JPEAD_J@Z 0000000180043fa0     logsys.obj
 0002:00015fb4       $unwind$?uflow@?$basic_filebuf@DU?$char_traits@D@std@@@std@@MEAAHXZ 0000000180043fb4     logsys.obj
 0002:00015fd8       $cppxdata$?uflow@?$basic_filebuf@DU?$char_traits@D@std@@@std@@MEAAHXZ 0000000180043fd8     logsys.obj
 0002:00015fe1       $stateUnwindMap$?uflow@?$basic_filebuf@DU?$char_traits@D@std@@@std@@MEAAHXZ 0000000180043fe1     logsys.obj
 0002:00015fed       $ip2state$?uflow@?$basic_filebuf@DU?$char_traits@D@std@@@std@@MEAAHXZ 0000000180043fed     logsys.obj
 0002:00015ff8       $chain$0$?underflow@?$basic_filebuf@DU?$char_traits@D@std@@@std@@MEAAHXZ 0000000180043ff8     logsys.obj
 0002:0001600c       $chain$2$?underflow@?$basic_filebuf@DU?$char_traits@D@std@@@std@@MEAAHXZ 000000018004400c     logsys.obj
 0002:00016020       $unwind$?pbackfail@?$basic_filebuf@DU?$char_traits@D@std@@@std@@MEAAHH@Z 0000000180044020     logsys.obj
 0002:0001602c       $unwind$?overflow@?$basic_filebuf@DU?$char_traits@D@std@@@std@@MEAAHH@Z 000000018004402c     logsys.obj
 0002:00016040       $chain$0$?overflow@?$basic_filebuf@DU?$char_traits@D@std@@@std@@MEAAHH@Z 0000000180044040     logsys.obj
 0002:00016054       $chain$1$?overflow@?$basic_filebuf@DU?$char_traits@D@std@@@std@@MEAAHH@Z 0000000180044054     logsys.obj
 0002:00016064       $unwind$??1?$basic_filebuf@DU?$char_traits@D@std@@@std@@UEAA@XZ 0000000180044064     logsys.obj
 0002:00016074       $cppxdata$??1?$basic_filebuf@DU?$char_traits@D@std@@@std@@UEAA@XZ 0000000180044074     logsys.obj
 0002:00016079       $ip2state$??1?$basic_filebuf@DU?$char_traits@D@std@@@std@@UEAA@XZ 0000000180044079     logsys.obj
 0002:0001607c       $unwind$??0?$basic_ifstream@DU?$char_traits@D@std@@@std@@QEAA@XZ 000000018004407c     logsys.obj
 0002:00016090       $cppxdata$??0?$basic_ifstream@DU?$char_traits@D@std@@@std@@QEAA@XZ 0000000180044090     logsys.obj
 0002:00016099       $stateUnwindMap$??0?$basic_ifstream@DU?$char_traits@D@std@@@std@@QEAA@XZ 0000000180044099     logsys.obj
 0002:000160a5       $ip2state$??0?$basic_ifstream@DU?$char_traits@D@std@@@std@@QEAA@XZ 00000001800440a5     logsys.obj
 0002:000160ac       $unwind$?_Endwrite@?$basic_filebuf@DU?$char_traits@D@std@@@std@@IEAA_NXZ 00000001800440ac     logsys.obj
 0002:000160bc       $chain$0$?_Endwrite@?$basic_filebuf@DU?$char_traits@D@std@@@std@@IEAA_NXZ 00000001800440bc     logsys.obj
 0002:000160d0       $chain$2$?_Endwrite@?$basic_filebuf@DU?$char_traits@D@std@@@std@@IEAA_NXZ 00000001800440d0     logsys.obj
 0002:000160e4       $chain$3$?_Endwrite@?$basic_filebuf@DU?$char_traits@D@std@@@std@@IEAA_NXZ 00000001800440e4     logsys.obj
 0002:000160f4       $unwind$?_Init@?$basic_filebuf@DU?$char_traits@D@std@@@std@@IEAAXPEAU_iobuf@@W4_Initfl@12@@Z 00000001800440f4     logsys.obj
 0002:0001610c       $unwind$?close@?$basic_filebuf@DU?$char_traits@D@std@@@std@@QEAAPEAV12@XZ 000000018004410c     logsys.obj
 0002:0001610c       $unwind$?parse_int_from_format_string@?$output_processor@DV?$string_output_adapter@D@__crt_stdio_output@@V?$standard_base@DV?$string_output_adapter@D@__crt_stdio_output@@@2@@__crt_stdio_output@@AEAA_NQEAH@Z 000000018004410c     libucrt:output.obj
 0002:00016120       $unwind$??0?$basic_filebuf@DU?$char_traits@D@std@@@std@@QEAA@XZ 0000000180044120     logsys.obj
 0002:00016120       $unwind$?equivalent@error_category@std@@UEBA_NHAEBVerror_condition@2@@Z 0000000180044120     logsys.obj
 0002:00016120       $unwind$?equivalent@error_category@system@boost@@UEBA_NHAEBVerror_condition@23@@Z 0000000180044120     server.obj
 0002:00016120       $unwind$?message@system_error_category@detail@system@boost@@UEBA?AV?$basic_string@DU?$char_traits@D@std@@V?$allocator@D@2@@std@@H@Z 0000000180044120     server.obj
 0002:00016120       $unwind$?__mbrtowc_utf8@__crt_mbstring@@YA_KPEA_WPEBD_KPEAU_Mbstatet@@@Z 0000000180044120     libucrt:mbrtowc.obj
 0002:00016120       $unwind$??$common_xtox_s@K_W@@YAHKQEA_W_KI_N@Z 0000000180044120     libucrt:xtoa.obj
 0002:00016120       $unwind$?type_case_c_tchar@?$output_processor@DV?$string_output_adapter@D@__crt_stdio_output@@V?$standard_base@DV?$string_output_adapter@D@__crt_stdio_output@@@2@@__crt_stdio_output@@AEAA_ND@Z 0000000180044120     libucrt:output.obj
 0002:00016120       $unwind$??0out_of_range@std@@QEAA@PEBD@Z 0000000180044120     libcpmt:xthrow.obj
 0002:00016128       $unwind$?swap@?$basic_filebuf@DU?$char_traits@D@std@@@std@@QEAAXAEAV12@@Z 0000000180044128     logsys.obj
 0002:00016134       $chain$5$?swap@?$basic_filebuf@DU?$char_traits@D@std@@@std@@QEAAXAEAV12@@Z 0000000180044134     logsys.obj
 0002:0001615c       $chain$6$?swap@?$basic_filebuf@DU?$char_traits@D@std@@@std@@QEAAXAEAV12@@Z 000000018004415c     logsys.obj
 0002:0001616c       $unwind$??$use_facet@V?$codecvt@DDU_Mbstatet@@@std@@@std@@YAAEBV?$codecvt@DDU_Mbstatet@@@0@AEBVlocale@0@@Z 000000018004416c     logsys.obj
 0002:0001616c       $unwind$??$use_facet@V?$ctype@D@std@@@std@@YAAEBV?$ctype@D@0@AEBVlocale@0@@Z 000000018004416c     logsys.obj
 0002:0001618c       $cppxdata$??$use_facet@V?$codecvt@DDU_Mbstatet@@@std@@@std@@YAAEBV?$codecvt@DDU_Mbstatet@@@0@AEBVlocale@0@@Z 000000018004418c     logsys.obj
 0002:0001618c       $cppxdata$??$use_facet@V?$ctype@D@std@@@std@@YAAEBV?$ctype@D@0@AEBVlocale@0@@Z 000000018004418c     logsys.obj
 0002:00016195       $stateUnwindMap$??$use_facet@V?$codecvt@DDU_Mbstatet@@@std@@@std@@YAAEBV?$codecvt@DDU_Mbstatet@@@0@AEBVlocale@0@@Z 0000000180044195     logsys.obj
 0002:00016195       $stateUnwindMap$??$use_facet@V?$ctype@D@std@@@std@@YAAEBV?$ctype@D@0@AEBVlocale@0@@Z 0000000180044195     logsys.obj
 0002:000161a2       $ip2state$??$use_facet@V?$codecvt@DDU_Mbstatet@@@std@@@std@@YAAEBV?$codecvt@DDU_Mbstatet@@@0@AEBVlocale@0@@Z 00000001800441a2     logsys.obj
 0002:000161a2       $ip2state$??$use_facet@V?$ctype@D@std@@@std@@YAAEBV?$ctype@D@0@AEBVlocale@0@@Z 00000001800441a2     logsys.obj
 0002:000161ac       $unwind$?_Getcat@?$codecvt@DDU_Mbstatet@@@std@@SA_KPEAPEBVfacet@locale@2@PEBV42@@Z 00000001800441ac     logsys.obj
 0002:000161cc       $cppxdata$?_Getcat@?$codecvt@DDU_Mbstatet@@@std@@SA_KPEAPEBVfacet@locale@2@PEBV42@@Z 00000001800441cc     logsys.obj
 0002:000161d5       $stateUnwindMap$?_Getcat@?$codecvt@DDU_Mbstatet@@@std@@SA_KPEAPEBVfacet@locale@2@PEBV42@@Z 00000001800441d5     logsys.obj
 0002:00016205       $ip2state$?_Getcat@?$codecvt@DDU_Mbstatet@@@std@@SA_KPEAPEBVfacet@locale@2@PEBV42@@Z 0000000180044205     logsys.obj
 0002:00016210       $unwind$??0?$basic_ofstream@DU?$char_traits@D@std@@@std@@QEAA@PEB_WHH@Z 0000000180044210     logsys.obj
 0002:00016228       $cppxdata$??0?$basic_ofstream@DU?$char_traits@D@std@@@std@@QEAA@PEB_WHH@Z 0000000180044228     logsys.obj
 0002:00016231       $stateUnwindMap$??0?$basic_ofstream@DU?$char_traits@D@std@@@std@@QEAA@PEB_WHH@Z 0000000180044231     logsys.obj
 0002:00016248       $ip2state$??0?$basic_ofstream@DU?$char_traits@D@std@@@std@@QEAA@PEB_WHH@Z 0000000180044248     logsys.obj
 0002:00016254       $unwind$??$_Reallocate_grow_by@V<lambda_1>@?1??append@?$basic_string@_WU?$char_traits@_W@std@@V?$allocator@_W@2@@std@@QEAAAEAV34@_K_W@Z@_K_W@?$basic_string@_WU?$char_traits@_W@std@@V?$allocator@_W@2@@std@@AEAAAEAV01@_KV<lambda_1>@?1??append@01@QEAAAEAV01@0_W@Z@_K_W@Z 0000000180044254     logsys.obj
 0002:00016264       $chain$3$??$_Reallocate_grow_by@V<lambda_1>@?1??append@?$basic_string@_WU?$char_traits@_W@std@@V?$allocator@_W@2@@std@@QEAAAEAV34@_K_W@Z@_K_W@?$basic_string@_WU?$char_traits@_W@std@@V?$allocator@_W@2@@std@@AEAAAEAV01@_KV<lambda_1>@?1??append@01@QEAAAEAV01@0_W@Z@_K_W@Z 0000000180044264     logsys.obj
 0002:00016284       $chain$5$??$_Reallocate_grow_by@V<lambda_1>@?1??append@?$basic_string@_WU?$char_traits@_W@std@@V?$allocator@_W@2@@std@@QEAAAEAV34@_K_W@Z@_K_W@?$basic_string@_WU?$char_traits@_W@std@@V?$allocator@_W@2@@std@@AEAAAEAV01@_KV<lambda_1>@?1??append@01@QEAAAEAV01@0_W@Z@_K_W@Z 0000000180044284     logsys.obj
 0002:000162a4       $chain$6$??$_Reallocate_grow_by@V<lambda_1>@?1??append@?$basic_string@_WU?$char_traits@_W@std@@V?$allocator@_W@2@@std@@QEAAAEAV34@_K_W@Z@_K_W@?$basic_string@_WU?$char_traits@_W@std@@V?$allocator@_W@2@@std@@AEAAAEAV01@_KV<lambda_1>@?1??append@01@QEAAAEAV01@0_W@Z@_K_W@Z 00000001800442a4     logsys.obj
 0002:000162b4       $unwind$?_Convert_narrow_to_wide@filesystem@std@@YA?AV?$basic_string@_WU?$char_traits@_W@std@@V?$allocator@_W@2@@2@W4__std_code_page@@V?$basic_string_view@DU?$char_traits@D@std@@@2@@Z 00000001800442b4     logsys.obj
 0002:000162d0       $cppxdata$?_Convert_narrow_to_wide@filesystem@std@@YA?AV?$basic_string@_WU?$char_traits@_W@std@@V?$allocator@_W@2@@2@W4__std_code_page@@V?$basic_string_view@DU?$char_traits@D@std@@@2@@Z 00000001800442d0     logsys.obj
 0002:000162d9       $stateUnwindMap$?_Convert_narrow_to_wide@filesystem@std@@YA?AV?$basic_string@_WU?$char_traits@_W@std@@V?$allocator@_W@2@@2@W4__std_code_page@@V?$basic_string_view@DU?$char_traits@D@std@@@2@@Z 00000001800442d9     logsys.obj
 0002:000162e4       $ip2state$?_Convert_narrow_to_wide@filesystem@std@@YA?AV?$basic_string@_WU?$char_traits@_W@std@@V?$allocator@_W@2@@2@W4__std_code_page@@V?$basic_string_view@DU?$char_traits@D@std@@@2@@Z 00000001800442e4     logsys.obj
 0002:000162e8       $unwind$??0?$basic_streambuf@DU?$char_traits@D@std@@@std@@IEAA@XZ 00000001800442e8     logsys.obj
 0002:000162fc       $cppxdata$??0?$basic_streambuf@DU?$char_traits@D@std@@@std@@IEAA@XZ 00000001800442fc     logsys.obj
 0002:00016305       $ip2state$??0?$basic_streambuf@DU?$char_traits@D@std@@@std@@IEAA@XZ 0000000180044305     logsys.obj
 0002:0001630c       $unwind$??_G?$basic_istream@DU?$char_traits@D@std@@@std@@UEAAPEAXI@Z 000000018004430c     logsys.obj
 0002:0001630c       $unwind$??_G?$basic_ostream@DU?$char_traits@D@std@@@std@@UEAAPEAXI@Z 000000018004430c     logsys.obj
 0002:00016320       $cppxdata$??_G?$basic_istream@DU?$char_traits@D@std@@@std@@UEAAPEAXI@Z 0000000180044320     logsys.obj
 0002:00016320       $cppxdata$??_G?$basic_ostream@DU?$char_traits@D@std@@@std@@UEAAPEAXI@Z 0000000180044320     logsys.obj
 0002:00016329       $ip2state$??_G?$basic_istream@DU?$char_traits@D@std@@@std@@UEAAPEAXI@Z 0000000180044329     logsys.obj
 0002:00016329       $ip2state$??_G?$basic_ostream@DU?$char_traits@D@std@@@std@@UEAAPEAXI@Z 0000000180044329     logsys.obj
 0002:0001632c       $unwind$??1BakkesModPlugin@Plugin@BakkesMod@@QEAA@XZ 000000018004432c     SixMansPlugin-Rework.obj
 0002:0001632c       $unwind$??_G?$basic_streambuf@DU?$char_traits@D@std@@@std@@UEAAPEAXI@Z 000000018004432c     logsys.obj
 0002:0001632c       $unwind$memcpy_s           000000018004432c     libucrt:cfout.obj
 0002:0001632c       $unwind$__acrt_getptd      000000018004432c     libucrt:per_thread_data.obj
 0002:0001632c       $unwind$__acrt_getptd_noexit 000000018004432c     libucrt:per_thread_data.obj
 0002:0001632c       $unwind$__acrt_execute_initializers 000000018004432c     libucrt:shared_initialization.obj
 0002:0001632c       $unwind$__acrt_InitializeCriticalSectionEx 000000018004432c     libucrt:winapi_thunks.obj
 0002:0001632c       $unwind$?free_crt_array_internal@@YAXQEAPEBX_K@Z 000000018004432c     libucrt:inittime.obj
 0002:0001632c       $unwind$__acrt_locale_initialize_time 000000018004432c     libucrt:inittime.obj
 0002:0001632c       $unwind$??$common_lseek_nolock@_J@@YA_JH_JH@Z 000000018004432c     libucrt:lseek.obj
 0002:0001632c       $unwind$__acrt_stdio_flush_nolock 000000018004432c     libucrt:fflush.obj
 0002:0001632c       $unwind$?common_fseek_nolock@@YAHV__crt_stdio_stream@@_JH@Z 000000018004432c     libucrt:fseek.obj
 0002:0001632c       $unwind$??$common_ftell_nolock@_J@@YA_JV__crt_stdio_stream@@@Z 000000018004432c     libucrt:ftell.obj
 0002:0001632c       $unwind$??R<lambda_5856287d7ecd2be6c9197bb4007c3f6e>@@QEBA_KXZ 000000018004432c     libucrt:fwrite.obj
 0002:0001632c       $unwind$memcpy_s           000000018004432c     libucrt:input.obj
 0002:0001632c       $unwind$??0_LocaleUpdate@@QEAA@QEAU__crt_locale_pointers@@@Z 000000018004432c     libucrt:output.obj
 0002:0001632c       $unwind$??R<lambda_b4f66040be5f354a654fb75160c27bfc>@@QEBAHXZ 000000018004432c     libucrt:setvbuf.obj
 0002:0001632c       $unwind$_exception_enabled 000000018004432c     libucrt:libm_error.obj
 0002:0001632c       $unwind$_DllMainCRTStartup 000000018004432c     LIBCMT:dll_dllmain.obj
 0002:0001632c       $unwind$??4?$_Yarn@D@std@@QEAAAEAV01@PEBD@Z 000000018004432c     libcpmt:locale0.obj
 0002:0001632c       $unwind$__vcrt_getptd_noexit 000000018004432c     libvcruntime:per_thread_data.obj
 0002:0001632c       $unwind$?FrameUnwindToEmptyState@__FrameHandler3@@SAXPEA_KPEAU_xDISPATCHER_CONTEXT@@PEBU_s_FuncInfo@@@Z 000000018004432c     libvcruntime:risctrnsctrl.obj
 0002:0001632c       $unwind$__vcrt_InitializeCriticalSectionEx 000000018004432c     libvcruntime:winapi_downlevel.obj
 0002:0001633c       $unwind$?xsgetn@?$basic_streambuf@DU?$char_traits@D@std@@@std@@MEAA_JPEAD_J@Z 000000018004433c     logsys.obj
 0002:0001633c       $unwind$?xsputn@?$basic_streambuf@DU?$char_traits@D@std@@@std@@MEAA_JPEBD_J@Z 000000018004433c     logsys.obj
 0002:00016350       $chain$0$?xsgetn@?$basic_streambuf@DU?$char_traits@D@std@@@std@@MEAA_JPEAD_J@Z 0000000180044350     logsys.obj
 0002:00016364       $chain$1$?xsgetn@?$basic_streambuf@DU?$char_traits@D@std@@@std@@MEAA_JPEAD_J@Z 0000000180044364     logsys.obj
 0002:00016374       $unwind$?do_tolower@?$ctype@D@std@@MEBAPEBDPEADPEBD@Z 0000000180044374     logsys.obj
 0002:00016374       $unwind$?do_toupper@?$ctype@D@std@@MEBAPEBDPEADPEBD@Z 0000000180044374     logsys.obj
 0002:00016380       $chain$0$?do_tolower@?$ctype@D@std@@MEBAPEBDPEADPEBD@Z 0000000180044380     logsys.obj
 0002:00016394       $chain$1$?do_tolower@?$ctype@D@std@@MEBAPEBDPEADPEBD@Z 0000000180044394     logsys.obj
 0002:000163a4       $chain$0$?do_toupper@?$ctype@D@std@@MEBAPEBDPEADPEBD@Z 00000001800443a4     logsys.obj
 0002:000163b8       $chain$1$?do_toupper@?$ctype@D@std@@MEBAPEBDPEADPEBD@Z 00000001800443b8     logsys.obj
 0002:000163c8       $unwind$?_Getcat@?$ctype@D@std@@SA_KPEAPEBVfacet@locale@2@PEBV42@@Z 00000001800443c8     logsys.obj
 0002:000163e8       $cppxdata$?_Getcat@?$ctype@D@std@@SA_KPEAPEBVfacet@locale@2@PEBV42@@Z 00000001800443e8     logsys.obj
 0002:000163f1       $stateUnwindMap$?_Getcat@?$ctype@D@std@@SA_KPEAPEBVfacet@locale@2@PEBV42@@Z 00000001800443f1     logsys.obj
 0002:00016421       $ip2state$?_Getcat@?$ctype@D@std@@SA_KPEAPEBVfacet@locale@2@PEBV42@@Z 0000000180044421     logsys.obj
 0002:0001642c       $unwind$?init@?$basic_ios@DU?$char_traits@D@std@@@std@@IEAAXPEAV?$basic_streambuf@DU?$char_traits@D@std@@@2@_N@Z 000000018004442c     logsys.obj
 0002:00016448       $cppxdata$?init@?$basic_ios@DU?$char_traits@D@std@@@std@@IEAAXPEAV?$basic_streambuf@DU?$char_traits@D@std@@@2@_N@Z 0000000180044448     logsys.obj
 0002:00016451       $stateUnwindMap$?init@?$basic_ios@DU?$char_traits@D@std@@@std@@IEAAXPEAV?$basic_streambuf@DU?$char_traits@D@std@@@2@_N@Z 0000000180044451     logsys.obj
 0002:0001645d       $ip2state$?init@?$basic_ios@DU?$char_traits@D@std@@@std@@IEAAXPEAV?$basic_streambuf@DU?$char_traits@D@std@@@2@_N@Z 000000018004445d     logsys.obj
 0002:00016468       $chain$0$?xsputn@?$basic_streambuf@DU?$char_traits@D@std@@@std@@MEAA_JPEBD_J@Z 0000000180044468     logsys.obj
 0002:0001647c       $chain$1$?xsputn@?$basic_streambuf@DU?$char_traits@D@std@@@std@@MEAA_JPEBD_J@Z 000000018004447c     logsys.obj
 0002:0001648c       $unwind$??0failure@ios_base@std@@QEAA@PEBDAEBVerror_code@2@@Z 000000018004448c     logsys.obj
 0002:000164a0       $cppxdata$??0failure@ios_base@std@@QEAA@PEBDAEBVerror_code@2@@Z 00000001800444a0     logsys.obj
 0002:000164a9       $stateUnwindMap$??0failure@ios_base@std@@QEAA@PEBDAEBVerror_code@2@@Z 00000001800444a9     logsys.obj
 0002:000164a9       $stateUnwindMap$??0system_error@std@@QEAA@Verror_code@1@@Z 00000001800444a9     logsys.obj
 0002:000164b5       $ip2state$??0failure@ios_base@std@@QEAA@PEBDAEBVerror_code@2@@Z 00000001800444b5     logsys.obj
 0002:000164bc       $unwind$?message@_Iostream_error_category2@std@@UEBA?AV?$basic_string@DU?$char_traits@D@std@@V?$allocator@D@2@@2@H@Z 00000001800444bc     logsys.obj
 0002:000164d0       $cppxdata$?message@_Iostream_error_category2@std@@UEBA?AV?$basic_string@DU?$char_traits@D@std@@V?$allocator@D@2@@2@H@Z 00000001800444d0     logsys.obj
 0002:000164d9       $ip2state$?message@_Iostream_error_category2@std@@UEBA?AV?$basic_string@DU?$char_traits@D@std@@V?$allocator@D@2@@2@H@Z 00000001800444d9     logsys.obj
 0002:000164dc       $unwind$?clear@ios_base@std@@QEAAXH_N@Z 00000001800444dc     logsys.obj
 0002:000164e8       $chain$3$??$_Reallocate_grow_by@V<lambda_1>@?1??push_back@?$basic_string@_WU?$char_traits@_W@std@@V?$allocator@_W@2@@std@@QEAAX_W@Z@_W@?$basic_string@_WU?$char_traits@_W@std@@V?$allocator@_W@2@@std@@AEAAAEAV01@_KV<lambda_1>@?1??push_back@01@QEAAX_W@Z@_W@Z 00000001800444e8     logsys.obj
 0002:00016508       $chain$5$??$_Reallocate_grow_by@V<lambda_1>@?1??push_back@?$basic_string@_WU?$char_traits@_W@std@@V?$allocator@_W@2@@std@@QEAAX_W@Z@_W@?$basic_string@_WU?$char_traits@_W@std@@V?$allocator@_W@2@@std@@AEAAAEAV01@_KV<lambda_1>@?1??push_back@01@QEAAX_W@Z@_W@Z 0000000180044508     logsys.obj
 0002:00016528       $chain$6$??$_Reallocate_grow_by@V<lambda_1>@?1??push_back@?$basic_string@_WU?$char_traits@_W@std@@V?$allocator@_W@2@@std@@QEAAX_W@Z@_W@?$basic_string@_WU?$char_traits@_W@std@@V?$allocator@_W@2@@std@@AEAAAEAV01@_KV<lambda_1>@?1??push_back@01@QEAAX_W@Z@_W@Z 0000000180044528     logsys.obj
 0002:00016538       $unwind$??$_Reallocate_grow_by@V<lambda_1>@?1??append@?$basic_string@_WU?$char_traits@_W@std@@V?$allocator@_W@2@@std@@QEAAAEAV34@QEB_W_K@Z@PEB_W_K@?$basic_string@_WU?$char_traits@_W@std@@V?$allocator@_W@2@@std@@AEAAAEAV01@_KV<lambda_1>@?1??append@01@QEAAAEAV01@QEB_W0@Z@PEB_W_K@Z 0000000180044538     logsys.obj
 0002:00016548       $chain$3$??$_Reallocate_grow_by@V<lambda_1>@?1??append@?$basic_string@_WU?$char_traits@_W@std@@V?$allocator@_W@2@@std@@QEAAAEAV34@QEB_W_K@Z@PEB_W_K@?$basic_string@_WU?$char_traits@_W@std@@V?$allocator@_W@2@@std@@AEAAAEAV01@_KV<lambda_1>@?1??append@01@QEAAAEAV01@QEB_W0@Z@PEB_W_K@Z 0000000180044548     logsys.obj
 0002:00016568       $chain$5$??$_Reallocate_grow_by@V<lambda_1>@?1??append@?$basic_string@_WU?$char_traits@_W@std@@V?$allocator@_W@2@@std@@QEAAAEAV34@QEB_W_K@Z@PEB_W_K@?$basic_string@_WU?$char_traits@_W@std@@V?$allocator@_W@2@@std@@AEAAAEAV01@_KV<lambda_1>@?1??append@01@QEAAAEAV01@QEB_W0@Z@PEB_W_K@Z 0000000180044568     logsys.obj
 0002:00016588       $chain$6$??$_Reallocate_grow_by@V<lambda_1>@?1??append@?$basic_string@_WU?$char_traits@_W@std@@V?$allocator@_W@2@@std@@QEAAAEAV34@QEB_W_K@Z@PEB_W_K@?$basic_string@_WU?$char_traits@_W@std@@V?$allocator@_W@2@@std@@AEAAAEAV01@_KV<lambda_1>@?1??append@01@QEAAAEAV01@QEB_W0@Z@PEB_W_K@Z 0000000180044588     logsys.obj
 0002:00016598       $unwind$??_0path@filesystem@std@@QEAAAEAV012@AEBV012@@Z 0000000180044598     logsys.obj
 0002:000165b8       $unwind$??Kfilesystem@std@@YA?AVpath@01@AEBV201@0@Z 00000001800445b8     logsys.obj
 0002:000165cc       $cppxdata$??Kfilesystem@std@@YA?AVpath@01@AEBV201@0@Z 00000001800445cc     logsys.obj
 0002:000165d5       $stateUnwindMap$??Kfilesystem@std@@YA?AVpath@01@AEBV201@0@Z 00000001800445d5     logsys.obj
 0002:000165db       $ip2state$??Kfilesystem@std@@YA?AVpath@01@AEBV201@0@Z 00000001800445db     logsys.obj
 0002:000165e0       $unwind$?_Throw_fs_error@filesystem@std@@YAXPEBDW4__std_win_error@@AEBVpath@12@@Z 00000001800445e0     logsys.obj
 0002:000165f4       $cppxdata$?_Throw_fs_error@filesystem@std@@YAXPEBDW4__std_win_error@@AEBVpath@12@@Z 00000001800445f4     logsys.obj
 0002:000165fd       $stateUnwindMap$?_Throw_fs_error@filesystem@std@@YAXPEBDW4__std_win_error@@AEBVpath@12@@Z 00000001800445fd     logsys.obj
 0002:00016604       $ip2state$?_Throw_fs_error@filesystem@std@@YAXPEBDW4__std_win_error@@AEBVpath@12@@Z 0000000180044604     logsys.obj
 0002:0001660c       $unwind$?_Throw_system_error@std@@YAXW4errc@1@@Z 000000018004460c     logsys.obj
 0002:0001660c       $unwind$?_Throw_system_error_from_std_win_error@filesystem@std@@YAXW4__std_win_error@@@Z 000000018004460c     logsys.obj
 0002:00016614       $unwind$??0_System_error@std@@IEAA@Verror_code@1@AEBV?$basic_string@DU?$char_traits@D@std@@V?$allocator@D@2@@1@@Z 0000000180044614     logsys.obj
 0002:00016634       $cppxdata$??0_System_error@std@@IEAA@Verror_code@1@AEBV?$basic_string@DU?$char_traits@D@std@@V?$allocator@D@2@@1@@Z 0000000180044634     logsys.obj
 0002:0001663d       $stateUnwindMap$??0_System_error@std@@IEAA@Verror_code@1@AEBV?$basic_string@DU?$char_traits@D@std@@V?$allocator@D@2@@1@@Z 000000018004463d     logsys.obj
 0002:00016650       $ip2state$??0_System_error@std@@IEAA@Verror_code@1@AEBV?$basic_string@DU?$char_traits@D@std@@V?$allocator@D@2@@1@@Z 0000000180044650     logsys.obj
 0002:0001665c       $unwind$??0system_error@std@@QEAA@Verror_code@1@@Z 000000018004465c     logsys.obj
 0002:00016670       $cppxdata$??0system_error@std@@QEAA@Verror_code@1@@Z 0000000180044670     logsys.obj
 0002:00016679       $ip2state$??0system_error@std@@QEAA@Verror_code@1@@Z 0000000180044679     logsys.obj
 0002:00016680       $unwind$?message@_System_error_category@std@@UEBA?AV?$basic_string@DU?$char_traits@D@std@@V?$allocator@D@2@@2@H@Z 0000000180044680     logsys.obj
 0002:00016698       $cppxdata$?message@_System_error_category@std@@UEBA?AV?$basic_string@DU?$char_traits@D@std@@V?$allocator@D@2@@2@H@Z 0000000180044698     logsys.obj
 0002:000166a1       $stateUnwindMap$?message@_System_error_category@std@@UEBA?AV?$basic_string@DU?$char_traits@D@std@@V?$allocator@D@2@@2@H@Z 00000001800446a1     logsys.obj
 0002:000166ad       $ip2state$?message@_System_error_category@std@@UEBA?AV?$basic_string@DU?$char_traits@D@std@@V?$allocator@D@2@@2@H@Z 00000001800446ad     logsys.obj
 0002:000166b4       $unwind$?message@_Generic_error_category@std@@UEBA?AV?$basic_string@DU?$char_traits@D@std@@V?$allocator@D@2@@2@H@Z 00000001800446b4     logsys.obj
 0002:000166c8       $cppxdata$?message@_Generic_error_category@std@@UEBA?AV?$basic_string@DU?$char_traits@D@std@@V?$allocator@D@2@@2@H@Z 00000001800446c8     logsys.obj
 0002:000166d1       $ip2state$?message@_Generic_error_category@std@@UEBA?AV?$basic_string@DU?$char_traits@D@std@@V?$allocator@D@2@@2@H@Z 00000001800446d1     logsys.obj
 0002:000166d4       $unwind$?default_error_condition@_System_error_category@std@@UEBA?AVerror_condition@2@H@Z 00000001800446d4     logsys.obj
 0002:000166e8       $cppxdata$?default_error_condition@_System_error_category@std@@UEBA?AVerror_condition@2@H@Z 00000001800446e8     logsys.obj
 0002:000166ed       $ip2state$?default_error_condition@_System_error_category@std@@UEBA?AVerror_condition@2@H@Z 00000001800446ed     logsys.obj
 0002:000166f0       $unwind$??$_Convert_wide_to_narrow_replace_chars@U?$char_traits@D@std@@V?$allocator@D@2@@filesystem@std@@YA?AV?$basic_string@DU?$char_traits@D@std@@V?$allocator@D@2@@1@W4__std_code_page@@V?$basic_string_view@_WU?$char_traits@_W@std@@@1@AEBV?$allocator@D@1@@Z 00000001800446f0     logsys.obj
 0002:00016708       $cppxdata$??$_Convert_wide_to_narrow_replace_chars@U?$char_traits@D@std@@V?$allocator@D@2@@filesystem@std@@YA?AV?$basic_string@DU?$char_traits@D@std@@V?$allocator@D@2@@1@W4__std_code_page@@V?$basic_string_view@_WU?$char_traits@_W@std@@@1@AEBV?$allocator@D@1@@Z 0000000180044708     logsys.obj
 0002:00016711       $stateUnwindMap$??$_Convert_wide_to_narrow_replace_chars@U?$char_traits@D@std@@V?$allocator@D@2@@filesystem@std@@YA?AV?$basic_string@DU?$char_traits@D@std@@V?$allocator@D@2@@1@W4__std_code_page@@V?$basic_string_view@_WU?$char_traits@_W@std@@@1@AEBV?$allocator@D@1@@Z 0000000180044711     logsys.obj
 0002:0001671c       $ip2state$??$_Convert_wide_to_narrow_replace_chars@U?$char_traits@D@std@@V?$allocator@D@2@@filesystem@std@@YA?AV?$basic_string@DU?$char_traits@D@std@@V?$allocator@D@2@@1@W4__std_code_page@@V?$basic_string_view@_WU?$char_traits@_W@std@@@1@AEBV?$allocator@D@1@@Z 000000018004471c     logsys.obj
 0002:00016720       $unwind$??$_Reallocate_grow_by@V<lambda_1>@?1??reserve@?$basic_string@DU?$char_traits@D@std@@V?$allocator@D@2@@std@@QEAAX_K@Z@$$V@?$basic_string@DU?$char_traits@D@std@@V?$allocator@D@2@@std@@AEAAAEAV01@_KV<lambda_1>@?1??reserve@01@QEAAX0@Z@@Z 0000000180044720     logsys.obj
 0002:0001672c       $chain$2$??$_Reallocate_grow_by@V<lambda_1>@?1??reserve@?$basic_string@DU?$char_traits@D@std@@V?$allocator@D@2@@std@@QEAAX_K@Z@$$V@?$basic_string@DU?$char_traits@D@std@@V?$allocator@D@2@@std@@AEAAAEAV01@_KV<lambda_1>@?1??reserve@01@QEAAX0@Z@@Z 000000018004472c     logsys.obj
 0002:00016748       $chain$4$??$_Reallocate_grow_by@V<lambda_1>@?1??reserve@?$basic_string@DU?$char_traits@D@std@@V?$allocator@D@2@@std@@QEAAX_K@Z@$$V@?$basic_string@DU?$char_traits@D@std@@V?$allocator@D@2@@std@@AEAAAEAV01@_KV<lambda_1>@?1??reserve@01@QEAAX0@Z@@Z 0000000180044748     logsys.obj
 0002:00016748       $chain$6$??$_Reallocate_grow_by@V<lambda_1>@?1??reserve@?$basic_string@DU?$char_traits@D@std@@V?$allocator@D@2@@std@@QEAAX_K@Z@$$V@?$basic_string@DU?$char_traits@D@std@@V?$allocator@D@2@@std@@AEAAAEAV01@_KV<lambda_1>@?1??reserve@01@QEAAX0@Z@@Z 0000000180044748     logsys.obj
 0002:00016764       $chain$5$??$_Reallocate_grow_by@V<lambda_1>@?1??reserve@?$basic_string@DU?$char_traits@D@std@@V?$allocator@D@2@@std@@QEAAX_K@Z@$$V@?$basic_string@DU?$char_traits@D@std@@V?$allocator@D@2@@std@@AEAAAEAV01@_KV<lambda_1>@?1??reserve@01@QEAAX0@Z@@Z 0000000180044764     logsys.obj
 0002:00016774       $unwind$??$_Reallocate_grow_by@V<lambda_1>@?1??push_back@?$basic_string@DU?$char_traits@D@std@@V?$allocator@D@2@@std@@QEAAXD@Z@D@?$basic_string@DU?$char_traits@D@std@@V?$allocator@D@2@@std@@AEAAAEAV01@_KV<lambda_1>@?1??push_back@01@QEAAXD@Z@D@Z 0000000180044774     logsys.obj
 0002:00016784       $chain$2$??$_Reallocate_grow_by@V<lambda_1>@?1??push_back@?$basic_string@DU?$char_traits@D@std@@V?$allocator@D@2@@std@@QEAAXD@Z@D@?$basic_string@DU?$char_traits@D@std@@V?$allocator@D@2@@std@@AEAAAEAV01@_KV<lambda_1>@?1??push_back@01@QEAAXD@Z@D@Z 0000000180044784     logsys.obj
 0002:000167a0       $chain$4$??$_Reallocate_grow_by@V<lambda_1>@?1??push_back@?$basic_string@DU?$char_traits@D@std@@V?$allocator@D@2@@std@@QEAAXD@Z@D@?$basic_string@DU?$char_traits@D@std@@V?$allocator@D@2@@std@@AEAAAEAV01@_KV<lambda_1>@?1??push_back@01@QEAAXD@Z@D@Z 00000001800447a0     logsys.obj
 0002:000167a0       $chain$6$??$_Reallocate_grow_by@V<lambda_1>@?1??push_back@?$basic_string@DU?$char_traits@D@std@@V?$allocator@D@2@@std@@QEAAXD@Z@D@?$basic_string@DU?$char_traits@D@std@@V?$allocator@D@2@@std@@AEAAAEAV01@_KV<lambda_1>@?1??push_back@01@QEAAXD@Z@D@Z 00000001800447a0     logsys.obj
 0002:000167bc       $chain$5$??$_Reallocate_grow_by@V<lambda_1>@?1??push_back@?$basic_string@DU?$char_traits@D@std@@V?$allocator@D@2@@std@@QEAAXD@Z@D@?$basic_string@DU?$char_traits@D@std@@V?$allocator@D@2@@std@@AEAAAEAV01@_KV<lambda_1>@?1??push_back@01@QEAAXD@Z@D@Z 00000001800447bc     logsys.obj
 0002:000167cc       $unwind$?_Pretty_message@filesystem_error@filesystem@std@@CA?AV?$basic_string@DU?$char_traits@D@std@@V?$allocator@D@2@@3@V?$basic_string_view@DU?$char_traits@D@std@@@3@AEBVpath@23@1@Z 00000001800447cc     logsys.obj
 0002:000167f4       $cppxdata$?_Pretty_message@filesystem_error@filesystem@std@@CA?AV?$basic_string@DU?$char_traits@D@std@@V?$allocator@D@2@@3@V?$basic_string_view@DU?$char_traits@D@std@@@3@AEBVpath@23@1@Z 00000001800447f4     logsys.obj
 0002:000167fd       $stateUnwindMap$?_Pretty_message@filesystem_error@filesystem@std@@CA?AV?$basic_string@DU?$char_traits@D@std@@V?$allocator@D@2@@3@V?$basic_string_view@DU?$char_traits@D@std@@@3@AEBVpath@23@1@Z 00000001800447fd     logsys.obj
 0002:00016814       $ip2state$?_Pretty_message@filesystem_error@filesystem@std@@CA?AV?$basic_string@DU?$char_traits@D@std@@V?$allocator@D@2@@3@V?$basic_string_view@DU?$char_traits@D@std@@@3@AEBVpath@23@1@Z 0000000180044814     logsys.obj
 0002:00016824       $unwind$??0filesystem_error@filesystem@std@@QEAA@AEBV?$basic_string@DU?$char_traits@D@std@@V?$allocator@D@2@@2@AEBVpath@12@Verror_code@2@@Z 0000000180044824     logsys.obj
 0002:00016838       $cppxdata$??0filesystem_error@filesystem@std@@QEAA@AEBV?$basic_string@DU?$char_traits@D@std@@V?$allocator@D@2@@2@AEBVpath@12@Verror_code@2@@Z 0000000180044838     logsys.obj
 0002:00016841       $stateUnwindMap$??0filesystem_error@filesystem@std@@QEAA@AEBV?$basic_string@DU?$char_traits@D@std@@V?$allocator@D@2@@2@AEBVpath@12@Verror_code@2@@Z 0000000180044841     logsys.obj
 0002:00016862       $ip2state$??0filesystem_error@filesystem@std@@QEAA@AEBV?$basic_string@DU?$char_traits@D@std@@V?$allocator@D@2@@2@AEBVpath@12@Verror_code@2@@Z 0000000180044862     logsys.obj
 0002:0001686c       $unwind$??4?$shared_ptr@VCVarManagerWrapper@@@std@@QEAAAEAV01@AEBV01@@Z 000000018004486c     SixMansPlugin-Rework.obj
 0002:0001686c       $unwind$??1filesystem_error@filesystem@std@@UEAA@XZ 000000018004486c     logsys.obj
 0002:0001686c       $unwind$??4BakkesModPlugin@Plugin@BakkesMod@@QEAAAEAV012@AEBV012@@Z 000000018004486c     pch.obj
 0002:0001686c       $unwind$iswctype           000000018004486c     libucrt:iswctype.obj
 0002:0001686c       $unwind$?_Locimp_dtor@_Locimp@locale@std@@CAXPEAV123@@Z 000000018004486c     libcpmt:locale0.obj
 0002:00016878       $unwind$??_Gfilesystem_error@filesystem@std@@UEAAPEAXI@Z 0000000180044878     logsys.obj
 0002:00016878       $unwind$ProcessCodePage    0000000180044878     libucrt:get_qualified_locale.obj
 0002:00016878       $unwind$ProcessCodePage    0000000180044878     libucrt:getqloc_downlevel.obj
 0002:00016878       $unwind$TestDefaultLanguage 0000000180044878     libucrt:getqloc_downlevel.obj
 0002:00016888       $unwind$??0path@filesystem@std@@QEAA@AEBV012@@Z 0000000180044888     logsys.obj
 0002:00016898       $unwind$??0filesystem_error@filesystem@std@@QEAA@AEBV012@@Z 0000000180044898     logsys.obj
 0002:000168ac       $cppxdata$??0filesystem_error@filesystem@std@@QEAA@AEBV012@@Z 00000001800448ac     logsys.obj
 0002:000168b5       $stateUnwindMap$??0filesystem_error@filesystem@std@@QEAA@AEBV012@@Z 00000001800448b5     logsys.obj
 0002:000168c6       $ip2state$??0filesystem_error@filesystem@std@@QEAA@AEBV012@@Z 00000001800448c6     logsys.obj
 0002:000168d0       $unwind$?_Throw_fs_error@filesystem@std@@YAXPEBDAEBVerror_code@2@AEBVpath@12@@Z 00000001800448d0     logsys.obj
 0002:000168e4       $cppxdata$?_Throw_fs_error@filesystem@std@@YAXPEBDAEBVerror_code@2@AEBVpath@12@@Z 00000001800448e4     logsys.obj
 0002:000168ed       $stateUnwindMap$?_Throw_fs_error@filesystem@std@@YAXPEBDAEBVerror_code@2@AEBVpath@12@@Z 00000001800448ed     logsys.obj
 0002:000168f4       $ip2state$?_Throw_fs_error@filesystem@std@@YAXPEBDAEBVerror_code@2@AEBVpath@12@@Z 00000001800448f4     logsys.obj
 0002:000168fc       $unwind$??_G?$basic_ios@DU?$char_traits@D@std@@@std@@UEAAPEAXI@Z 00000001800448fc     logsys.obj
 0002:000168fc       $unwind$??_Gios_base@std@@UEAAPEAXI@Z 00000001800448fc     logsys.obj
 0002:00016910       $cppxdata$??_G?$basic_ios@DU?$char_traits@D@std@@@std@@UEAAPEAXI@Z 0000000180044910     logsys.obj
 0002:00016910       $cppxdata$??_Gios_base@std@@UEAAPEAXI@Z 0000000180044910     logsys.obj
 0002:00016919       $ip2state$??_G?$basic_ios@DU?$char_traits@D@std@@@std@@UEAAPEAXI@Z 0000000180044919     logsys.obj
 0002:00016919       $ip2state$??_Gios_base@std@@UEAAPEAXI@Z 0000000180044919     logsys.obj
 0002:0001691c       $unwind$??1?$basic_ios@DU?$char_traits@D@std@@@std@@UEAA@XZ 000000018004491c     logsys.obj
 0002:0001692c       $cppxdata$??1?$basic_ios@DU?$char_traits@D@std@@@std@@UEAA@XZ 000000018004492c     logsys.obj
 0002:00016935       $ip2state$??1?$basic_ios@DU?$char_traits@D@std@@@std@@UEAA@XZ 0000000180044935     logsys.obj
 0002:00016938       $unwind$??0system_error@system@boost@@QEAA@Verror_code@12@PEBD@Z 0000000180044938     server.obj
 0002:00016950       $cppxdata$??0system_error@system@boost@@QEAA@Verror_code@12@PEBD@Z 0000000180044950     server.obj
 0002:00016959       $ip2state$??0system_error@system@boost@@QEAA@Verror_code@12@PEBD@Z 0000000180044959     server.obj
 0002:0001695c       $unwind$??0?$wrapexcept@Vsystem_error@system@boost@@@boost@@QEAA@AEBVsystem_error@system@1@@Z 000000018004495c     server.obj
 0002:00016974       $cppxdata$??0?$wrapexcept@Vsystem_error@system@boost@@@boost@@QEAA@AEBVsystem_error@system@1@@Z 0000000180044974     server.obj
 0002:0001697d       $stateUnwindMap$??0?$wrapexcept@Vsystem_error@system@boost@@@boost@@QEAA@AEBVsystem_error@system@1@@Z 000000018004497d     server.obj
 0002:0001698a       $ip2state$??0?$wrapexcept@Vsystem_error@system@boost@@@boost@@QEAA@AEBVsystem_error@system@1@@Z 000000018004498a     server.obj
 0002:00016990       $unwind$??1?$wrapexcept@Vsystem_error@system@boost@@@boost@@UEAA@XZ 0000000180044990     server.obj
 0002:000169a0       $cppxdata$??1?$wrapexcept@Vsystem_error@system@boost@@@boost@@UEAA@XZ 00000001800449a0     server.obj
 0002:000169a9       $ip2state$??1?$wrapexcept@Vsystem_error@system@boost@@@boost@@UEAA@XZ 00000001800449a9     server.obj
 0002:000169ac       $unwind$??_G?$wrapexcept@Vsystem_error@system@boost@@@boost@@UEAAPEAXI@Z 00000001800449ac     server.obj
 0002:000169c0       $cppxdata$??_G?$wrapexcept@Vsystem_error@system@boost@@@boost@@UEAAPEAXI@Z 00000001800449c0     server.obj
 0002:000169c9       $ip2state$??_G?$wrapexcept@Vsystem_error@system@boost@@@boost@@UEAAPEAXI@Z 00000001800449c9     server.obj
 0002:000169c9       $ip2state$??__Finit_atexit@@YAXXZ 00000001800449c9     libcpmt:iosptrs.obj
 0002:000169cc       $unwind$?clone@?$wrapexcept@Vsystem_error@system@boost@@@boost@@UEBAPEBVclone_base@exception_detail@2@XZ 00000001800449cc     server.obj
 0002:000169e0       $cppxdata$?clone@?$wrapexcept@Vsystem_error@system@boost@@@boost@@UEBAPEBVclone_base@exception_detail@2@XZ 00000001800449e0     server.obj
 0002:000169e9       $stateUnwindMap$?clone@?$wrapexcept@Vsystem_error@system@boost@@@boost@@UEBAPEBVclone_base@exception_detail@2@XZ 00000001800449e9     server.obj
 0002:000169f5       $ip2state$?clone@?$wrapexcept@Vsystem_error@system@boost@@@boost@@UEBAPEBVclone_base@exception_detail@2@XZ 00000001800449f5     server.obj
 0002:000169fc       $unwind$??$throw_exception@Vsystem_error@system@boost@@@boost@@YAXAEBVsystem_error@system@0@@Z 00000001800449fc     server.obj
 0002:000169fc       $unwind$?rethrow@?$wrapexcept@Vsystem_error@system@boost@@@boost@@UEBAXXZ 00000001800449fc     server.obj
 0002:00016a04       $unwind$??0?$wrapexcept@Vsystem_error@system@boost@@@boost@@QEAA@AEBU01@@Z 0000000180044a04     server.obj
 0002:00016a1c       $cppxdata$??0?$wrapexcept@Vsystem_error@system@boost@@@boost@@QEAA@AEBU01@@Z 0000000180044a1c     server.obj
 0002:00016a25       $stateUnwindMap$??0?$wrapexcept@Vsystem_error@system@boost@@@boost@@QEAA@AEBU01@@Z 0000000180044a25     server.obj
 0002:00016a37       $ip2state$??0?$wrapexcept@Vsystem_error@system@boost@@@boost@@QEAA@AEBU01@@Z 0000000180044a37     server.obj
 0002:00016a3c       $unwind$?what@system_error@system@boost@@UEBAPEBDXZ 0000000180044a3c     server.obj
 0002:00016a50       $cppxdata$?what@system_error@system@boost@@UEBAPEBDXZ 0000000180044a50     server.obj
 0002:00016a5d       $stateUnwindMap$?what@system_error@system@boost@@UEBAPEBDXZ 0000000180044a5d     server.obj
 0002:00016a66       $tryMap$?what@system_error@system@boost@@UEBAPEBDXZ 0000000180044a66     server.obj
 0002:00016a6e       $handlerMap$?what@system_error@system@boost@@UEBAPEBDXZ 0000000180044a6e     server.obj
 0002:00016a77       $ip2state$?what@system_error@system@boost@@UEBAPEBDXZ 0000000180044a77     server.obj
 0002:00016a80       $unwind$?catch$4@?0??what@system_error@system@boost@@UEBAPEBDXZ@4HA 0000000180044a80     server.obj
 0002:00016a90       $cppxdata$?catch$4@?0??what@system_error@system@boost@@UEBAPEBDXZ@4HA 0000000180044a90     server.obj
 0002:00016a9a       $stateUnwindMap$?catch$4@?0??what@system_error@system@boost@@UEBAPEBDXZ@4HA 0000000180044a9a     server.obj
 0002:00016a9c       $ip2state$?catch$4@?0??what@system_error@system@boost@@UEBAPEBDXZ@4HA 0000000180044a9c     server.obj
 0002:00016aa0       $unwind$??0system_error@system@boost@@QEAA@AEBV012@@Z 0000000180044aa0     server.obj
 0002:00016ab4       $cppxdata$??0system_error@system@boost@@QEAA@AEBV012@@Z 0000000180044ab4     server.obj
 0002:00016abd       $stateUnwindMap$??0system_error@system@boost@@QEAA@AEBV012@@Z 0000000180044abd     server.obj
 0002:00016abd       $stateUnwindMap$??0bad_exception@std@@QEAA@AEBV01@@Z 0000000180044abd     libcpmt:excptptr.obj
 0002:00016abd       $stateUnwindMap$??1bad_exception@std@@UEAA@XZ 0000000180044abd     libcpmt:excptptr.obj
 0002:00016abd       $stateUnwindMap$??_Gbad_exception@std@@UEAAPEAXI@Z 0000000180044abd     libcpmt:excptptr.obj
 0002:00016ac4       $ip2state$??0system_error@system@boost@@QEAA@AEBV012@@Z 0000000180044ac4     server.obj
 0002:00016ac8       $unwind$?do_throw_error@detail@asio@boost@@YAXAEBVerror_code@system@3@PEBD@Z 0000000180044ac8     server.obj
 0002:00016adc       $cppxdata$?do_throw_error@detail@asio@boost@@YAXAEBVerror_code@system@3@PEBD@Z 0000000180044adc     server.obj
 0002:00016ae5       $stateUnwindMap$?do_throw_error@detail@asio@boost@@YAXAEBVerror_code@system@3@PEBD@Z 0000000180044ae5     server.obj
 0002:00016aec       $ip2state$?do_throw_error@detail@asio@boost@@YAXAEBVerror_code@system@3@PEBD@Z 0000000180044aec     server.obj
 0002:00016af0       $unwind$?copy_boost_exception@exception_detail@boost@@YAXPEAVexception@2@PEBV32@@Z 0000000180044af0     server.obj
 0002:00016b0c       $cppxdata$?copy_boost_exception@exception_detail@boost@@YAXPEAVexception@2@PEBV32@@Z 0000000180044b0c     server.obj
 0002:00016b15       $stateUnwindMap$?copy_boost_exception@exception_detail@boost@@YAXPEAVexception@2@PEBV32@@Z 0000000180044b15     server.obj
 0002:00016b2c       $ip2state$?copy_boost_exception@exception_detail@boost@@YAXPEAVexception@2@PEBV32@@Z 0000000180044b2c     server.obj
 0002:00016b3c       $unwind$??1?$refcount_ptr@Uerror_info_container@exception_detail@boost@@@exception_detail@boost@@QEAA@XZ 0000000180044b3c     server.obj
 0002:00016b4c       $cppxdata$??1?$refcount_ptr@Uerror_info_container@exception_detail@boost@@@exception_detail@boost@@QEAA@XZ 0000000180044b4c     server.obj
 0002:00016b51       $ip2state$??1?$refcount_ptr@Uerror_info_container@exception_detail@boost@@@exception_detail@boost@@QEAA@XZ 0000000180044b51     server.obj
 0002:00016b54       $unwind$?win_tss_ptr_create@detail@asio@boost@@YAKXZ 0000000180044b54     server.obj
 0002:00016b64       $chain$0$?win_tss_ptr_create@detail@asio@boost@@YAKXZ 0000000180044b64     server.obj
 0002:00016b78       $chain$1$?win_tss_ptr_create@detail@asio@boost@@YAKXZ 0000000180044b78     server.obj
 0002:00016b8c       $chain$2$?win_tss_ptr_create@detail@asio@boost@@YAKXZ 0000000180044b8c     server.obj
 0002:00016b9c       $chain$3$?win_tss_ptr_create@detail@asio@boost@@YAKXZ 0000000180044b9c     server.obj
 0002:00016bac       $unwind$?message@interop_error_category@detail@system@boost@@UEBA?AV?$basic_string@DU?$char_traits@D@std@@V?$allocator@D@2@@std@@H@Z 0000000180044bac     server.obj
 0002:00016bc4       $cppxdata$?message@interop_error_category@detail@system@boost@@UEBA?AV?$basic_string@DU?$char_traits@D@std@@V?$allocator@D@2@@std@@H@Z 0000000180044bc4     server.obj
 0002:00016bcd       $ip2state$?message@interop_error_category@detail@system@boost@@UEBA?AV?$basic_string@DU?$char_traits@D@std@@V?$allocator@D@2@@std@@H@Z 0000000180044bcd     server.obj
 0002:00016bd0       $unwind$?message@generic_error_category@detail@system@boost@@UEBA?AV?$basic_string@DU?$char_traits@D@std@@V?$allocator@D@2@@std@@H@Z 0000000180044bd0     server.obj
 0002:00016be4       $cppxdata$?message@generic_error_category@detail@system@boost@@UEBA?AV?$basic_string@DU?$char_traits@D@std@@V?$allocator@D@2@@std@@H@Z 0000000180044be4     server.obj
 0002:00016bed       $ip2state$?message@generic_error_category@detail@system@boost@@UEBA?AV?$basic_string@DU?$char_traits@D@std@@V?$allocator@D@2@@std@@H@Z 0000000180044bed     server.obj
 0002:00016bf0       $unwind$?message@system_error_category@detail@system@boost@@UEBAPEBDHPEAD_K@Z 0000000180044bf0     server.obj
 0002:00016bf0       $unwind$capture_previous_context 0000000180044bf0     LIBCMT:gs_report.obj
 0002:00016bfc       $chain$0$?assign@?$basic_string@DU?$char_traits@D@std@@V?$allocator@D@2@@std@@QEAAAEAV12@_KD@Z 0000000180044bfc     server.obj
 0002:00016c10       $chain$2$?assign@?$basic_string@DU?$char_traits@D@std@@V?$allocator@D@2@@std@@QEAAAEAV12@_KD@Z 0000000180044c10     server.obj
 0002:00016c24       $chain$3$?assign@?$basic_string@DU?$char_traits@D@std@@V?$allocator@D@2@@std@@QEAAAEAV12@_KD@Z 0000000180044c24     server.obj
 0002:00016c34       $unwind$?snprintf@detail@system@boost@@YAXPEAD_KPEBDZZ 0000000180044c34     server.obj
 0002:00016c44       $unwind$?unknown_message_win32@detail@system@boost@@YA?AV?$basic_string@DU?$char_traits@D@std@@V?$allocator@D@2@@std@@H@Z 0000000180044c44     server.obj
 0002:00016c5c       $cppxdata$?unknown_message_win32@detail@system@boost@@YA?AV?$basic_string@DU?$char_traits@D@std@@V?$allocator@D@2@@std@@H@Z 0000000180044c5c     server.obj
 0002:00016c65       $ip2state$?unknown_message_win32@detail@system@boost@@YA?AV?$basic_string@DU?$char_traits@D@std@@V?$allocator@D@2@@std@@H@Z 0000000180044c65     server.obj
 0002:00016c68       $unwind$?system_category_message_win32@detail@system@boost@@YA?AV?$basic_string@DU?$char_traits@D@std@@V?$allocator@D@2@@std@@H@Z 0000000180044c68     server.obj
 0002:00016c88       $cppxdata$?system_category_message_win32@detail@system@boost@@YA?AV?$basic_string@DU?$char_traits@D@std@@V?$allocator@D@2@@std@@H@Z 0000000180044c88     server.obj
 0002:00016c91       $stateUnwindMap$?system_category_message_win32@detail@system@boost@@YA?AV?$basic_string@DU?$char_traits@D@std@@V?$allocator@D@2@@std@@H@Z 0000000180044c91     server.obj
 0002:00016ca9       $ip2state$?system_category_message_win32@detail@system@boost@@YA?AV?$basic_string@DU?$char_traits@D@std@@V?$allocator@D@2@@std@@H@Z 0000000180044ca9     server.obj
 0002:00016cb8       $unwind$??__EMAP_CODENAMES@@YAXXZ 0000000180044cb8     SixMansPlugin-Rework.obj
 0002:00016cc8       $cppxdata$??__EMAP_CODENAMES@@YAXXZ 0000000180044cc8     SixMansPlugin-Rework.obj
 0002:00016cd1       $stateUnwindMap$??__EMAP_CODENAMES@@YAXXZ 0000000180044cd1     SixMansPlugin-Rework.obj
 0002:00016e2b       $ip2state$??__EMAP_CODENAMES@@YAXXZ 0000000180044e2b     SixMansPlugin-Rework.obj
 0002:00016e2b       $ip2state$??__EMAP_CODENAMES@@YAXXZ 0000000180044e2b     SixMansPlugin-ReworkGUI.obj
 0002:00016e74       $chain$0$??__Fsingleton@@YAXXZ 0000000180044e74     SixMansPlugin-Rework.obj
 0002:00016e88       $chain$1$??__Fsingleton@@YAXXZ 0000000180044e88     SixMansPlugin-Rework.obj
 0002:00016e98       $unwind$getPlugin          0000000180044e98     SixMansPlugin-Rework.obj
 0002:00016eac       $cppxdata$getPlugin        0000000180044eac     SixMansPlugin-Rework.obj
 0002:00016eb5       $ip2state$getPlugin        0000000180044eb5     SixMansPlugin-Rework.obj
 0002:00016eb8       $chain$0$deleteMe          0000000180044eb8     SixMansPlugin-Rework.obj
 0002:00016ecc       $chain$1$deleteMe          0000000180044ecc     SixMansPlugin-Rework.obj
 0002:00016ee0       $chain$2$deleteMe          0000000180044ee0     SixMansPlugin-Rework.obj
 0002:00016ef0       $chain$3$deleteMe          0000000180044ef0     SixMansPlugin-Rework.obj
 0002:00016f00       $chain$0$??__F_globalCvarManager@@YAXXZ 0000000180044f00     SixMansPlugin-Rework.obj
 0002:00016f14       $chain$1$??__F_globalCvarManager@@YAXXZ 0000000180044f14     SixMansPlugin-Rework.obj
 0002:00016f24       $unwind$?onLoad@SixMansPlugin@@EEAAXXZ 0000000180044f24     SixMansPlugin-Rework.obj
 0002:00016f48       $cppxdata$?onLoad@SixMansPlugin@@EEAAXXZ 0000000180044f48     SixMansPlugin-Rework.obj
 0002:00016f51       $stateUnwindMap$?onLoad@SixMansPlugin@@EEAAXXZ 0000000180044f51     SixMansPlugin-Rework.obj
 0002:00016f6b       $ip2state$?onLoad@SixMansPlugin@@EEAAXXZ 0000000180044f6b     SixMansPlugin-Rework.obj
 0002:00016f78       $chain$0$??4?$shared_ptr@VCVarManagerWrapper@@@std@@QEAAAEAV01@AEBV01@@Z 0000000180044f78     SixMansPlugin-Rework.obj
 0002:00016f8c       $chain$1$??4?$shared_ptr@VCVarManagerWrapper@@@std@@QEAAAEAV01@AEBV01@@Z 0000000180044f8c     SixMansPlugin-Rework.obj
 0002:00016f9c       $unwind$??__EMAP_CODENAMES@@YAXXZ 0000000180044f9c     SixMansPlugin-ReworkGUI.obj
 0002:00016fac       $cppxdata$??__EMAP_CODENAMES@@YAXXZ 0000000180044fac     SixMansPlugin-ReworkGUI.obj
 0002:00016fb5       $stateUnwindMap$??__EMAP_CODENAMES@@YAXXZ 0000000180044fb5     SixMansPlugin-ReworkGUI.obj
 0002:00017110       $chain$0$??4BakkesModPlugin@Plugin@BakkesMod@@QEAAAEAV012@AEBV012@@Z 0000000180045110     pch.obj
 0002:00017124       $chain$1$??4BakkesModPlugin@Plugin@BakkesMod@@QEAAAEAV012@AEBV012@@Z 0000000180045124     pch.obj
 0002:00017134       $unwind$??4BakkesModPlugin@Plugin@BakkesMod@@QEAAAEAV012@$$QEAV012@@Z 0000000180045134     pch.obj
 0002:0001714c       $unwind$??__Ewinsock_init_instance@detail@asio@boost@@YAXXZ 000000018004514c     pch.obj
 0002:0001715c       $unwind$??0_Locimp@locale@std@@AEAA@_N@Z 000000018004515c     libcpmt:locale0.obj
 0002:0001716c       $unwind$?_Init@locale@std@@CAPEAV_Locimp@12@_N@Z 000000018004516c     libcpmt:locale0.obj
 0002:00017188       $cppxdata$?_Init@locale@std@@CAPEAV_Locimp@12@_N@Z 0000000180045188     libcpmt:locale0.obj
 0002:00017191       $stateUnwindMap$?_Init@locale@std@@CAPEAV_Locimp@12@_N@Z 0000000180045191     libcpmt:locale0.obj
 0002:00017198       $ip2state$?_Init@locale@std@@CAPEAV_Locimp@12@_N@Z 0000000180045198     libcpmt:locale0.obj
 0002:000171a0       $unwind$?_Tidy@ios_base@std@@AEAAXXZ 00000001800451a0     libcpmt:ios.obj
 0002:000171b4       $cppxdata$?_Tidy@ios_base@std@@AEAAXXZ 00000001800451b4     libcpmt:ios.obj
 0002:000171b9       $ip2state$?_Tidy@ios_base@std@@AEAAXXZ 00000001800451b9     libcpmt:ios.obj
 0002:000171bc       $unwind$_mbsdec_l          00000001800451bc     libucrt:mbsdec.obj
 0002:000171bc       $unwind$__std_fs_create_directory 00000001800451bc     libcpmt:filesystem.obj
 0002:000171bc       $unwind$__std_fs_open_handle 00000001800451bc     libcpmt:filesystem.obj
 0002:000171c8       $unwind$__std_fs_get_stats 00000001800451c8     libcpmt:filesystem.obj
 0002:000171e4       $unwind$__std_fs_convert_wide_to_narrow_replace_chars 00000001800451e4     libcpmt:filesystem.obj
 0002:000171e4       $unwind$??$__InternalCxxFrameHandler@V__FrameHandler3@@@@YA?AW4_EXCEPTION_DISPOSITION@@PEAUEHExceptionRecord@@PEA_KPEAU_CONTEXT@@PEAU_xDISPATCHER_CONTEXT@@PEBU_s_FuncInfo@@H1E@Z 00000001800451e4     libvcruntime:frame.obj
 0002:000171fc       $unwind$__dcrt_lowio_ensure_console_output_initialized 00000001800451fc     libucrt:initcon.obj
 0002:000171fc       $unwind$_isleadbyte_l      00000001800451fc     libucrt:_wctype.obj
 0002:000171fc       $unwind$?getSystemCP@@YAHH@Z 00000001800451fc     libucrt:mbctype.obj
 0002:000171fc       $unwind$__std_system_error_allocate_message 00000001800451fc     libcpmt:syserror_import_lib.obj
 0002:00017204       $unwind$_Tolower           0000000180045204     libcpmt:_tolower.obj
 0002:00017214       $unwind$_Toupper           0000000180045214     libcpmt:_toupper.obj
 0002:00017228       $unwind$?initialize_stdio_handles_nolock@@YAXXZ 0000000180045228     libucrt:ioinit.obj
 0002:00017228       $unwind$__acrt_lowio_set_os_handle 0000000180045228     libucrt:osfinfo.obj
 0002:00017228       $unwind$__acrt_initialize_stdio 0000000180045228     libucrt:_file.obj
 0002:00017228       $unwind$??$__acrt_stdio_parse_mode@_W@@YA?AU__acrt_stdio_stream_mode@@QEB_W@Z 0000000180045228     libucrt:fdopen.obj
 0002:00017228       $unwind$?type_case_integer@?$output_processor@DV?$string_output_adapter@D@__crt_stdio_output@@V?$standard_base@DV?$string_output_adapter@D@__crt_stdio_output@@@2@@__crt_stdio_output@@AEAA_NI_N@Z 0000000180045228     libucrt:output.obj
 0002:00017228       $unwind$__GSHandlerCheck_EH 0000000180045228     LIBCMT:gshandlereh.obj
 0002:00017228       $unwind$__GSHandlerCheck_EH4 0000000180045228     LIBCMT:gshandlereh4.obj
 0002:00017228       $unwind$__GSHandlerCheck_SEH 0000000180045228     LIBCMT:gshandlerseh.obj
 0002:00017228       $unwind$??$_Xfiopen@_W@std@@YAPEAU_iobuf@@PEB_WHH@Z 0000000180045228     libcpmt:fiopen.obj
 0002:00017228       $unwind$??$TypeMatchHelper@V__FrameHandler3@@@@YAHPEBU_s_HandlerType@@PEBU_s_CatchableType@@PEBU_s_ThrowInfo@@@Z 0000000180045228     libvcruntime:frame.obj
 0002:00017228       $unwind$??$TypeMatchHelper@V__FrameHandler4@@@@YAHPEAUHandlerType4@FH4@@PEBU_s_CatchableType@@PEBU_s_ThrowInfo@@@Z 0000000180045228     libvcruntime:frame.obj
 0002:00017240       $unwind$??0bad_exception@std@@QEAA@XZ 0000000180045240     libcpmt:excptptr.obj
 0002:0001724c       $cppxdata$??0bad_exception@std@@QEAA@XZ 000000018004524c     libcpmt:excptptr.obj
 0002:00017255       $stateUnwindMap$??0bad_exception@std@@QEAA@XZ 0000000180045255     libcpmt:excptptr.obj
 0002:0001725c       $ip2state$??0bad_exception@std@@QEAA@XZ 000000018004525c     libcpmt:excptptr.obj
 0002:00017264       $unwind$??1bad_exception@std@@UEAA@XZ 0000000180045264     libcpmt:excptptr.obj
 0002:00017274       $cppxdata$??1bad_exception@std@@UEAA@XZ 0000000180045274     libcpmt:excptptr.obj
 0002:00017274       $cppxdata$??_Gbad_exception@std@@UEAAPEAXI@Z 0000000180045274     libcpmt:excptptr.obj
 0002:0001727d       $ip2state$??1bad_exception@std@@UEAA@XZ 000000018004527d     libcpmt:excptptr.obj
 0002:0001727d       $ip2state$??_Gbad_exception@std@@UEAAPEAXI@Z 000000018004527d     libcpmt:excptptr.obj
 0002:00017280       $unwind$??0bad_exception@std@@QEAA@AEBV01@@Z 0000000180045280     libcpmt:excptptr.obj
 0002:00017290       $cppxdata$??0bad_exception@std@@QEAA@AEBV01@@Z 0000000180045290     libcpmt:excptptr.obj
 0002:00017299       $ip2state$??0bad_exception@std@@QEAA@AEBV01@@Z 0000000180045299     libcpmt:excptptr.obj
 0002:000172a0       $unwind$??_Gbad_exception@std@@UEAAPEAXI@Z 00000001800452a0     libcpmt:excptptr.obj
 0002:000172b4       $unwind$??__Finit_atexit@@YAXXZ 00000001800452b4     libcpmt:iosptrs.obj
 0002:000172c4       $cppxdata$??__Finit_atexit@@YAXXZ 00000001800452c4     libcpmt:iosptrs.obj
 0002:000172d0       $unwind$__crtLCMapStringA  00000001800452d0     libcpmt:StlLCMapStringA.obj
 0002:000172f8       $xdatasym                  00000001800452f8     LIBCMT:amdsecgs.obj
 0002:000172fc       $unwind$??_M@YAXPEAX_K1P6AX0@Z@Z 00000001800452fc     LIBCMT:ehvecdtr.obj
 0002:00017324       $unwind$?__ArrayUnwind@@YAXPEAX_K1P6AX0@Z@Z 0000000180045324     LIBCMT:ehvecdtr.obj
 0002:00017350       $unwind$?filt$0@?0??__ArrayUnwind@@YAXPEAX_K1P6AX0@Z@Z@4HA 0000000180045350     LIBCMT:ehvecdtr.obj
 0002:00017350       $unwind$__DestructExceptionObject$filt$0 0000000180045350     libvcruntime:ehhelpers.obj
 0002:00017350       $unwind$?fin$1@?0??CxxCallCatchBlock@__FrameHandler3@@SAPEAXPEAU_EXCEPTION_RECORD@@@Z@4HA 0000000180045350     libvcruntime:frame.obj
 0002:00017350       $unwind$?fin$1@?0??CxxCallCatchBlock@__FrameHandler4@@SAPEAXPEAU_EXCEPTION_RECORD@@@Z@4HA 0000000180045350     libvcruntime:frame.obj
 0002:0001735c       $unwind$__scrt_is_nonwritable_in_current_image 000000018004535c     LIBCMT:utility.obj
 0002:0001737c       $unwind$__scrt_is_nonwritable_in_current_image$filt$0 000000018004537c     LIBCMT:utility.obj
 0002:00017384       $unwind$_recalloc_base     0000000180045384     libucrt:recalloc.obj
 0002:00017384       $unwind$__acrt_free_locale 0000000180045384     libucrt:locale_refcounting.obj
 0002:00017384       $unwind$__acrt_lowio_create_handle_array 0000000180045384     libucrt:osfinfo.obj
 0002:00017384       $unwind$?setSBCS@@YAXPEAU__crt_multibyte_data@@@Z 0000000180045384     libucrt:mbctype.obj
 0002:00017384       $unwind$_seh_filter_exe    0000000180045384     libucrt:exception_filter.obj
 0002:00017384       $unwind$_initterm          0000000180045384     libucrt:initterm.obj
 0002:00017384       $unwind$_ischartype_l      0000000180045384     libucrt:input.obj
 0002:00017384       $unwind$??$ensure_buffer_is_big_enough@D@formatting_buffer@__crt_stdio_output@@QEAA_N_K@Z 0000000180045384     libucrt:output.obj
 0002:00017384       $unwind$?find_or_allocate_unused_stream_nolock@@YA?AV__crt_stdio_stream@@XZ 0000000180045384     libucrt:stream.obj
 0002:00017384       $unwind$__scrt_dllmain_exception_filter 0000000180045384     LIBCMT:utility.obj
 0002:00017384       $unwind$?GetHandlerSearchState@__FrameHandler3@@SAHPEA_KPEAU_xDISPATCHER_CONTEXT@@PEBU_s_FuncInfo@@@Z 0000000180045384     libvcruntime:frame.obj
 0002:00017384       $unwind$?Is_bad_exception_allowed@@YAEPEBU_s_ESTypeList@@@Z 0000000180045384     libvcruntime:frame.obj
 0002:00017384       $unwind$?CatchTryBlock@__FrameHandler3@@SAPEBU_s_TryBlockMapEntry@@PEBU_s_FuncInfo@@H@Z 0000000180045384     libvcruntime:risctrnsctrl.obj
 0002:00017398       $unwind$__report_securityfailure 0000000180045398     LIBCMT:gs_report.obj
 0002:000173a0       $unwind$__report_gsfailure 00000001800453a0     LIBCMT:gs_report.obj
 0002:000173a8       $unwind$capture_current_context 00000001800453a8     LIBCMT:gs_report.obj
 0002:000173b4       $unwind$?dllmain_crt_process_attach@@YAHQEAUHINSTANCE__@@QEAX@Z 00000001800453b4     LIBCMT:dll_dllmain.obj
 0002:000173f0       $unwind$?dllmain_crt_process_detach@@YAH_N@Z 00000001800453f0     LIBCMT:dll_dllmain.obj
 0002:00017444       $unwind$?dllmain_dispatch@@YAHQEAUHINSTANCE__@@KQEAX@Z 0000000180045444     LIBCMT:dll_dllmain.obj
 0002:0001746c       $unwind$fread_s$fin$0      000000018004546c     libucrt:fread.obj
 0002:0001746c       $unwind$?filt$0@?0??dllmain_dispatch@@YAHQEAUHINSTANCE__@@KQEAX@Z@4HA 000000018004546c     LIBCMT:dll_dllmain.obj
 0002:0001746c       $unwind$?filt$0@?0??FrameUnwindToState@__FrameHandler4@@SAXPEA_KPEAU_xDISPATCHER_CONTEXT@@PEAUFuncInfo4@FH4@@H@Z@4HA 000000018004546c     libvcruntime:frame.obj
 0002:0001746c       $unwind$?fin$1@?0??FrameUnwindToState@__FrameHandler4@@SAXPEA_KPEAU_xDISPATCHER_CONTEXT@@PEAUFuncInfo4@FH4@@H@Z@4HA 000000018004546c     libvcruntime:frame.obj
 0002:00017474       $unwind$__GSHandlerCheckCommon 0000000180045474     LIBCMT:gshandler.obj
 0002:00017480       $xdatasym                  0000000180045480     LIBCMT:chkstk.obj
 0002:00017488       $unwind$__scrt_fastfail    0000000180045488     LIBCMT:utility_desktop.obj
 0002:00017498       $unwind$__isa_available_init 0000000180045498     LIBCMT:cpu_disp.obj
 0002:000174a8       $unwind$__security_init_cookie 00000001800454a8     LIBCMT:gs_support.obj
 0002:000174b8       $xdatasym                  00000001800454b8     LIBCMT:guard_dispatch.obj
 0002:000174c0       $xdatasym                  00000001800454c0     LIBCMT:guard_xfg_dispatch.obj
 0002:000174c4       $unwind$?StateFromIp@__FrameHandler4@@SAHPEAUFuncInfo4@FH4@@PEAU_xDISPATCHER_CONTEXT@@_K@Z 00000001800454c4     libvcruntime:ehstate.obj
 0002:000174c4       $unwind$?DecompFuncInfo@FH4@@YA_JPEAEAEAUFuncInfo4@1@_KH_N@Z 00000001800454c4     libvcruntime:risctrnsctrl.obj
 0002:000174dc       $unwind$?GetEstablisherFrame@__FrameHandler3@@SAPEA_KPEA_KPEAU_xDISPATCHER_CONTEXT@@PEBU_s_FuncInfo@@0@Z 00000001800454dc     libvcruntime:risctrnsctrl.obj
 0002:000174f4       $unwind$?UnwindNestedFrames@__FrameHandler3@@SAXPEA_KPEAUEHExceptionRecord@@PEAU_CONTEXT@@0PEAXPEBU_s_FuncInfo@@HHPEBU_s_HandlerType@@PEAU_xDISPATCHER_CONTEXT@@E@Z 00000001800454f4     libvcruntime:risctrnsctrl.obj
 0002:000174f4       $unwind$?UnwindNestedFrames@__FrameHandler4@@SAXPEA_KPEAUEHExceptionRecord@@PEAU_CONTEXT@@0PEAXPEAUFuncInfo4@FH4@@HHPEAUHandlerType4@5@PEAU_xDISPATCHER_CONTEXT@@E@Z 00000001800454f4     libvcruntime:risctrnsctrl.obj
 0002:00017508       $unwind$__acrt_locale_initialize_numeric 0000000180045508     libucrt:initnum.obj
 0002:00017508       $unwind$__C_specific_handler 0000000180045508     libvcruntime:riscchandler.obj
 0002:00017508       $unwind$?GetRangeOfTrysToCheck@__FrameHandler3@@SA?AU?$pair@Viterator@TryBlockMap@__FrameHandler3@@V123@@std@@AEAVTryBlockMap@1@HPEAU_xDISPATCHER_CONTEXT@@PEBU_s_FuncInfo@@H@Z 0000000180045508     libvcruntime:risctrnsctrl.obj
 0002:00017524       $unwind$?GetRangeOfTrysToCheck@__FrameHandler4@@SA?AU?$pair@Viterator@TryBlockMap4@FH4@@V123@@std@@AEAVTryBlockMap4@FH4@@HPEAU_xDISPATCHER_CONTEXT@@PEAUFuncInfo4@5@H@Z 0000000180045524     libvcruntime:risctrnsctrl.obj
 0002:00017540       $unwind$__CxxFrameHandler3 0000000180045540     libvcruntime:risctrnsctrl.obj
 0002:00017554       $unwind$__CxxFrameHandler4 0000000180045554     libvcruntime:risctrnsctrl.obj
 0002:00017568       $unwind$??$_CallSETranslator@V__FrameHandler4@@@@YAHPEAUEHExceptionRecord@@PEA_KPEAU_CONTEXT@@PEAU_xDISPATCHER_CONTEXT@@PEAUFuncInfo4@FH4@@K1H@Z 0000000180045568     libvcruntime:risctrnsctrl.obj
 0002:00017588       $unwind$?filt$0@?0???$_CallSETranslator@V__FrameHandler3@@@@YAHPEAUEHExceptionRecord@@PEA_KPEAU_CONTEXT@@PEAU_xDISPATCHER_CONTEXT@@PEBU_s_FuncInfo@@K1H@Z@4HA 0000000180045588     libvcruntime:risctrnsctrl.obj
 0002:00017588       $unwind$?filt$0@?0???$_CallSETranslator@V__FrameHandler4@@@@YAHPEAUEHExceptionRecord@@PEA_KPEAU_CONTEXT@@PEAU_xDISPATCHER_CONTEXT@@PEAUFuncInfo4@FH4@@K1H@Z@4HA 0000000180045588     libvcruntime:risctrnsctrl.obj
 0002:00017594       $unwind$??$_CallSETranslator@V__FrameHandler3@@@@YAHPEAUEHExceptionRecord@@PEA_KPEAU_CONTEXT@@PEAU_xDISPATCHER_CONTEXT@@PEBU_s_FuncInfo@@K1H@Z 0000000180045594     libvcruntime:risctrnsctrl.obj
 0002:000175b4       $unwind$__DestructExceptionObject 00000001800455b4     libvcruntime:ehhelpers.obj
 0002:000175d4       $unwind$_wcstombs_s_l      00000001800455d4     libucrt:wcstombs.obj
 0002:000175d4       $unwind$string_is_alpha    00000001800455d4     libucrt:wsetlocale.obj
 0002:000175d4       $unwind$_free_osfhnd       00000001800455d4     libucrt:osfinfo.obj
 0002:000175d4       $unwind$__acrt_stdio_refill_and_read_narrow_nolock 00000001800455d4     libucrt:_filbuf.obj
 0002:000175d4       $unwind$__std_exception_copy 00000001800455d4     libvcruntime:std_exception.obj
 0002:000175e8       $unwind$_CxxThrowException 00000001800455e8     libvcruntime:throw.obj
 0002:000175f8       $xdatasym                  00000001800455f8     libvcruntime:memcpy.obj
 0002:00017608       $xdatasym                  0000000180045608     libvcruntime:memset.obj
 0002:00017618       $xdatasym                  0000000180045618     libvcruntime:memchr.obj
 0002:00017620       $xdatasym                  0000000180045620     libvcruntime:memcmp.obj
 0002:00017624       $unwind$?getStartStop@UWMap4@FH4@@QEAAXHHAEAViterator@12@0@Z 0000000180045624     libvcruntime:frame.obj
 0002:0001763c       $unwind$?commit_locale_name@_expandlocale_locale_name_cache@@QEAAXQEB_W_K@Z 000000018004563c     libucrt:wsetlocale.obj
 0002:0001763c       $unwind$__acrt_copy_locale_name 000000018004563c     libucrt:wsetlocale.obj
 0002:0001763c       $unwind$?getStateFromIterators@UWMap4@FH4@@SAHAEBViterator@12@H0H0@Z 000000018004563c     libvcruntime:frame.obj
 0002:0001764c       $unwind$?FrameUnwindToState@__FrameHandler3@@SAXPEA_KPEAU_xDISPATCHER_CONTEXT@@PEBU_s_FuncInfo@@H@Z 000000018004564c     libvcruntime:frame.obj
 0002:00017698       $unwind$?CxxCallCatchBlock@__FrameHandler3@@SAPEAXPEAU_EXCEPTION_RECORD@@@Z 0000000180045698     libvcruntime:frame.obj
 0002:000176d4       $unwind$?FrameUnwindToState@__FrameHandler4@@SAXPEA_KPEAU_xDISPATCHER_CONTEXT@@PEAUFuncInfo4@FH4@@H@Z 00000001800456d4     libvcruntime:frame.obj
 0002:0001771c       $unwind$?CxxCallCatchBlock@__FrameHandler4@@SAPEAXPEAU_EXCEPTION_RECORD@@@Z 000000018004571c     libvcruntime:frame.obj
 0002:00017778       $unwind$_fwrite_nolock     0000000180045778     libucrt:fwrite.obj
 0002:00017778       $unwind$?IsInExceptionSpec@@YAEPEAUEHExceptionRecord@@PEBU_s_ESTypeList@@@Z 0000000180045778     libvcruntime:frame.obj
 0002:00017794       $unwind$??$__InternalCxxFrameHandler@V__FrameHandler4@@@@YA?AW4_EXCEPTION_DISPOSITION@@PEAUEHExceptionRecord@@PEA_KPEAU_CONTEXT@@PEAU_xDISPATCHER_CONTEXT@@PEAUFuncInfo4@FH4@@H1E@Z 0000000180045794     libvcruntime:frame.obj
 0002:000177ac       $unwind$??$BuildCatchObjectHelperInternal@V__FrameHandler3@@@@YAHPEAUEHExceptionRecord@@PEAXPEBU_s_HandlerType@@PEBU_s_CatchableType@@@Z 00000001800457ac     libvcruntime:frame.obj
 0002:000177ec       $unwind$??$BuildCatchObjectHelperInternal@V__FrameHandler4@@@@YAHPEAUEHExceptionRecord@@PEAXPEAUHandlerType4@FH4@@PEBU_s_CatchableType@@@Z 00000001800457ec     libvcruntime:frame.obj
 0002:0001782c       $unwind$??$BuildCatchObjectInternal@V__FrameHandler3@@@@YAXPEAUEHExceptionRecord@@PEAXPEBU_s_HandlerType@@PEBU_s_CatchableType@@@Z 000000018004582c     libvcruntime:frame.obj
 0002:00017858       $unwind$??$BuildCatchObjectInternal@V__FrameHandler4@@@@YAXPEAUEHExceptionRecord@@PEAXPEAUHandlerType4@FH4@@PEBU_s_CatchableType@@@Z 0000000180045858     libvcruntime:frame.obj
 0002:00017884       $unwind$??$FindHandler@V__FrameHandler3@@@@YAXPEAUEHExceptionRecord@@PEA_KPEAU_CONTEXT@@PEAU_xDISPATCHER_CONTEXT@@PEBU_s_FuncInfo@@EH1@Z 0000000180045884     libvcruntime:frame.obj
 0002:000178a4       $unwind$??$FindHandler@V__FrameHandler4@@@@YAXPEAUEHExceptionRecord@@PEA_KPEAU_CONTEXT@@PEAU_xDISPATCHER_CONTEXT@@PEAUFuncInfo4@FH4@@EH1@Z 00000001800458a4     libvcruntime:frame.obj
 0002:000178c4       $unwind$??$CatchIt@V__FrameHandler3@@@@YAXPEAUEHExceptionRecord@@PEA_KPEAU_CONTEXT@@PEAU_xDISPATCHER_CONTEXT@@PEBU_s_FuncInfo@@PEBU_s_HandlerType@@PEBU_s_CatchableType@@PEBU_s_TryBlockMapEntry@@H1EE@Z 00000001800458c4     libvcruntime:frame.obj
 0002:000178c4       $unwind$??$CatchIt@V__FrameHandler4@@@@YAXPEAUEHExceptionRecord@@PEA_KPEAU_CONTEXT@@PEAU_xDISPATCHER_CONTEXT@@PEAUFuncInfo4@FH4@@PEAUHandlerType4@4@PEBU_s_CatchableType@@PEAUTryBlockMapEntry4@4@H1EE@Z 00000001800458c4     libvcruntime:frame.obj
 0002:000178dc       $unwind$??$FindHandlerForForeignException@V__FrameHandler3@@@@YAXPEAUEHExceptionRecord@@PEA_KPEAU_CONTEXT@@PEAU_xDISPATCHER_CONTEXT@@PEBU_s_FuncInfo@@HH1@Z 00000001800458dc     libvcruntime:frame.obj
 0002:000178f8       $unwind$??$FindHandlerForForeignException@V__FrameHandler4@@@@YAXPEAUEHExceptionRecord@@PEA_KPEAU_CONTEXT@@PEAU_xDISPATCHER_CONTEXT@@PEAUFuncInfo4@FH4@@HH1@Z 00000001800458f8     libvcruntime:frame.obj
 0002:00017918       $xdatasym                  0000000180045918     libvcruntime:notify.obj
 0002:00017924       $unwind$?try_get_function@@YAPEAXW4function_id@?A0x391cf84c@@QEBDQEBW4module_id@2@2@Z 0000000180045924     libucrt:winapi_thunks.obj
 0002:00017924       $unwind$?try_get_function@@YAPEAXW4function_id@?A0x5d44c8f9@@QEBDQEBW4module_id@2@2@Z 0000000180045924     libvcruntime:winapi_downlevel.obj
 0002:00017940       $xdatasym                  0000000180045940     libvcruntime:handlers.obj
 0002:00017960       $unwind$??$common_vsprintf@Vstandard_base@__crt_stdio_output@@D@@YAH_KQEAD0QEBDQEAU__crt_locale_pointers@@1@Z 0000000180045960     libucrt:output.obj
 0002:00017980       $unwind$?write_string@?$string_output_adapter@D@__crt_stdio_output@@QEBAXQEBDHQEAHAEAV__crt_deferred_errno_cache@@@Z 0000000180045980     libucrt:output.obj
 0002:00017998       $unwind$?process@?$output_processor@DV?$string_output_adapter@D@__crt_stdio_output@@V?$standard_base@DV?$string_output_adapter@D@__crt_stdio_output@@@2@@__crt_stdio_output@@QEAAHXZ 0000000180045998     libucrt:output.obj
 0002:000179a8       $unwind$?configure_text_mode@@YAHHUfile_options@?A0xa9d50aae@@HAEAW4__crt_lowio_text_mode@@@Z 00000001800459a8     libucrt:open.obj
 0002:000179a8       $unwind$?state_case_type@?$output_processor@DV?$string_output_adapter@D@__crt_stdio_output@@V?$standard_base@DV?$string_output_adapter@D@__crt_stdio_output@@@2@@__crt_stdio_output@@AEAA_NXZ 00000001800459a8     libucrt:output.obj
 0002:000179c0       $unwind$?type_case_a@?$output_processor@DV?$string_output_adapter@D@__crt_stdio_output@@V?$standard_base@DV?$string_output_adapter@D@__crt_stdio_output@@@2@@__crt_stdio_output@@AEAA_NXZ 00000001800459c0     libucrt:output.obj
 0002:000179cc       $unwind$?write_stored_string_tchar@?$output_processor@DV?$string_output_adapter@D@__crt_stdio_output@@V?$standard_base@DV?$string_output_adapter@D@__crt_stdio_output@@@2@@__crt_stdio_output@@AEAA_ND@Z 00000001800459cc     libucrt:output.obj
 0002:000179e4       $unwind$??$write_multiple_characters@V?$string_output_adapter@D@__crt_stdio_output@@D@__crt_stdio_output@@YAXAEBV?$string_output_adapter@D@0@DHQEAH@Z 00000001800459e4     libucrt:output.obj
 0002:000179f0       $unwind$??$type_case_integer_parse_into_buffer@I@?$output_processor@DV?$string_output_adapter@D@__crt_stdio_output@@V?$standard_base@DV?$string_output_adapter@D@__crt_stdio_output@@@2@@__crt_stdio_output@@AEAAXII_N@Z 00000001800459f0     libucrt:output.obj
 0002:000179f0       $unwind$??$type_case_integer_parse_into_buffer@_K@?$output_processor@DV?$string_output_adapter@D@__crt_stdio_output@@V?$standard_base@DV?$string_output_adapter@D@__crt_stdio_output@@@2@@__crt_stdio_output@@AEAAX_KI_N@Z 00000001800459f0     libucrt:output.obj
 0002:000179f0       $unwind$strrchr            00000001800459f0     libvcruntime:strrchr.obj
 0002:000179f8       $unwind$terminate          00000001800459f8     libucrt:terminate.obj
 0002:00017a18       $unwind$parse_bcp47_language 0000000180045a18     libucrt:wsetlocale.obj
 0002:00017a18       $unwind$parse_bcp47_script 0000000180045a18     libucrt:wsetlocale.obj
 0002:00017a18       $unwind$strerror           0000000180045a18     libucrt:strerror.obj
 0002:00017a24       $unwind$_wtol              0000000180045a24     libucrt:atox.obj
 0002:00017a24       $unwind$mbstowcs_s         0000000180045a24     libucrt:mbstowcs.obj
 0002:00017a24       $unwind$strtol             0000000180045a24     libucrt:strtox.obj
 0002:00017a24       $unwind$_itow_s            0000000180045a24     libucrt:xtoa.obj
 0002:00017a24       $unwind$parse_bcp47_code_page 0000000180045a24     libucrt:wsetlocale.obj
 0002:00017a24       $unwind$_wsopen_s          0000000180045a24     libucrt:open.obj
 0002:00017a24       $unwind$_invalid_parameter_noinfo 0000000180045a24     libucrt:invalid_parameter.obj
 0002:00017a24       $unwind$_invalid_parameter_noinfo_noreturn 0000000180045a24     libucrt:invalid_parameter.obj
 0002:00017a24       $unwind$fflush             0000000180045a24     libucrt:fflush.obj
 0002:00017a24       $unwind$fread              0000000180045a24     libucrt:fread.obj
 0002:00017a24       $unwind$_log10_special     0000000180045a24     libucrt:log_special.obj
 0002:00017a2c       $unwind$__acrt_call_reportfault 0000000180045a2c     libucrt:invalid_parameter.obj
 0002:00017a4c       $unwind$__acrt_GetLocaleInfoEx 0000000180045a4c     libucrt:winapi_thunks.obj
 0002:00017a4c       $unwind$__acrt_LCIDToLocaleName 0000000180045a4c     libucrt:winapi_thunks.obj
 0002:00017a4c       $unwind$__acrt_DownlevelLCIDToLocaleName 0000000180045a4c     libucrt:lcidtoname_downlevel.obj
 0002:00017a4c       $unwind$__lc_lctowcs       0000000180045a4c     libucrt:wsetlocale.obj
 0002:00017a4c       $unwind$_invalid_parameter 0000000180045a4c     libucrt:invalid_parameter.obj
 0002:00017a4c       $unwind$_wcsdup            0000000180045a4c     libucrt:wcsdup.obj
 0002:00017a60       $unwind$fwrite             0000000180045a60     libucrt:fwrite.obj
 0002:00017a68       $unwind$??$?RV<lambda_2831f20263db5b546e098b45503eb778>@@AEAV<lambda_5856287d7ecd2be6c9197bb4007c3f6e>@@V<lambda_0838d7e100fbcbd261b69cfea6abb102>@@@?$__crt_seh_guarded_call@_K@@QEAA_K$$QEAV<lambda_2831f20263db5b546e098b45503eb778>@@AEAV<lambda_5856287d7ecd2be6c9197bb4007c3f6e>@@$$QEAV<lambda_0838d7e100fbcbd261b69cfea6abb102>@@@Z 0000000180045a68     libucrt:fwrite.obj
 0002:00017a8c       $unwind$fputc              0000000180045a8c     libucrt:fputc.obj
 0002:00017ac0       $unwind$_alloc_osfhnd      0000000180045ac0     libucrt:osfinfo.obj
 0002:00017af0       $unwind$__acrt_lowio_destroy_handle_array 0000000180045af0     libucrt:osfinfo.obj
 0002:00017b00       $unwind$__acrt_lowio_ensure_fh_exists 0000000180045b00     libucrt:osfinfo.obj
 0002:00017b2c       $unwind$fclose             0000000180045b2c     libucrt:fclose.obj
 0002:00017b50       $unwind$??$common_fsopen@_W@@YAPEAU_iobuf@@QEB_W0H@Z 0000000180045b50     libucrt:fopen.obj
 0002:00017b7c       $unwind$_wsopen_nolock     0000000180045b7c     libucrt:open.obj
 0002:00017b9c       $unwind$??$common_sopen_dispatch@_W@@YAHQEB_WHHHQEAHH@Z 0000000180045b9c     libucrt:open.obj
 0002:00017bc0       $unwind$?fin$0@?0???$common_sopen_dispatch@_W@@YAHQEB_WHHHQEAHH@Z@4HA 0000000180045bc0     libucrt:open.obj
 0002:00017bc8       $unwind$?decode_options@@YA?AUfile_options@?A0xa9d50aae@@HHH@Z 0000000180045bc8     libucrt:open.obj
 0002:00017bdc       $unwind$?truncate_ctrl_z_if_present@@YAHH@Z 0000000180045bdc     libucrt:open.obj
 0002:00017bec       $unwind$parse_bcp47_region 0000000180045bec     libucrt:wsetlocale.obj
 0002:00017bec       $unwind$??$__acrt_mbs_to_wcs_cp@U__crt_win32_buffer_internal_dynamic_resizing@@@@YAHQEBDAEAV?$__crt_win32_buffer@_WU__crt_win32_buffer_internal_dynamic_resizing@@@@I@Z 0000000180045bec     libucrt:open.obj
 0002:00017c04       $unwind$_close             0000000180045c04     libucrt:close.obj
 0002:00017c04       $unwind$_commit            0000000180045c04     libucrt:commit.obj
 0002:00017c0c       $unwind$??$?RV<lambda_751a882b2c74d4b022dec766aa51a29a>@@AEAV<lambda_628dfdc04ba53c8bfc02c9951375f3f5>@@V<lambda_f6c7be5f7998530c34de24c7437d6b54>@@@?$__crt_seh_guarded_call@H@@QEAAH$$QEAV<lambda_751a882b2c74d4b022dec766aa51a29a>@@AEAV<lambda_628dfdc04ba53c8bfc02c9951375f3f5>@@$$QEAV<lambda_f6c7be5f7998530c34de24c7437d6b54>@@@Z 0000000180045c0c     libucrt:close.obj
 0002:00017c30       $unwind$_read              0000000180045c30     libucrt:read.obj
 0002:00017c60       $unwind$_read_nolock       0000000180045c60     libucrt:read.obj
 0002:00017c78       $unwind$?translate_ansi_or_utf8_nolock@@YAHHQEAD_KQEA_W1@Z 0000000180045c78     libucrt:read.obj
 0002:00017c90       $unwind$??$translate_text_mode_nolock@_W@@YAHHQEA_W_K@Z 0000000180045c90     libucrt:read.obj
 0002:00017ca8       $unwind$_write             0000000180045ca8     libucrt:write.obj
 0002:00017cd8       $unwind$_write_nolock      0000000180045cd8     libucrt:write.obj
 0002:00017cf0       $unwind$?write_double_translated_ansi_nolock@@YA?AUwrite_result@?A0x17268360@@HQEBDI@Z 0000000180045cf0     libucrt:write.obj
 0002:00017d14       $unwind$?write_text_ansi_nolock@@YA?AUwrite_result@?A0x17268360@@HQEBDI@Z 0000000180045d14     libucrt:write.obj
 0002:00017d14       $unwind$?write_text_utf16le_nolock@@YA?AUwrite_result@?A0x17268360@@HQEBDI@Z 0000000180045d14     libucrt:write.obj
 0002:00017d34       $unwind$?write_text_utf8_nolock@@YA?AUwrite_result@?A0x17268360@@HQEBDI@Z 0000000180045d34     libucrt:write.obj
 0002:00017d58       $xdatasym                  0000000180045d58     libucrt:strncpy.obj
 0002:00017d5c       $unwind$?common_ftell_translated_utf8_nolock@@YA_JV__crt_stdio_stream@@_J@Z 0000000180045d5c     libucrt:ftell.obj
 0002:00017d84       $unwind$?common_ftell_read_mode_nolock@@YA_JV__crt_stdio_stream@@_J1@Z 0000000180045d84     libucrt:ftell.obj
 0002:00017d9c       $unwind$??$common_ftell@_J@@YA_JV__crt_stdio_stream@@@Z 0000000180045d9c     libucrt:ftell.obj
 0002:00017dc0       $unwind$?common_fseek@@YAHV__crt_stdio_stream@@_JH@Z 0000000180045dc0     libucrt:fseek.obj
 0002:00017de8       $unwind$fread_s            0000000180045de8     libucrt:fread.obj
 0002:00017e18       $unwind$_fread_nolock_s    0000000180045e18     libucrt:fread.obj
 0002:00017e30       $unwind$qsort              0000000180045e30     libucrt:qsort.obj
 0002:00017e48       $chain$4$qsort             0000000180045e48     libucrt:qsort.obj
 0002:00017e6c       $chain$5$qsort             0000000180045e6c     libucrt:qsort.obj
 0002:00017e7c       $unwind$?common_flush_all@@YAH_N@Z 0000000180045e7c     libucrt:fflush.obj
 0002:00017e84       $unwind$??$?RV<lambda_842d9ff0dc9ef11c61343bbaebe7f885>@@AEAV<lambda_c5860995281e5c4ce005b3de8f5874ee>@@V<lambda_d90129c13df834fdcbf8d2b88dafcf2d>@@@?$__crt_seh_guarded_call@X@@QEAAX$$QEAV<lambda_842d9ff0dc9ef11c61343bbaebe7f885>@@AEAV<lambda_c5860995281e5c4ce005b3de8f5874ee>@@$$QEAV<lambda_d90129c13df834fdcbf8d2b88dafcf2d>@@@Z 0000000180045e84     libucrt:fflush.obj
 0002:00017ea8       $unwind$??$?RV<lambda_886d6c58226a84441f68b9f2b8217b83>@@AEAV<lambda_ab61a845afdef5b7c387490eaf3616ee>@@V<lambda_f7f22ab5edc0698d5f6905b0d3f44752>@@@?$__crt_seh_guarded_call@X@@QEAAX$$QEAV<lambda_886d6c58226a84441f68b9f2b8217b83>@@AEAV<lambda_ab61a845afdef5b7c387490eaf3616ee>@@$$QEAV<lambda_f7f22ab5edc0698d5f6905b0d3f44752>@@@Z 0000000180045ea8     libucrt:fflush.obj
 0002:00017ed0       $unwind$??$?RV<lambda_c376a267cfb53b6959b3b692ec76b120>@@AEAV<lambda_9a32fed5bf61b6b509b2d3f6003082a1>@@V<lambda_572fbb9fa0ab338edf41edfd4b5fcc8d>@@@?$__crt_seh_guarded_call@H@@QEAAH$$QEAV<lambda_c376a267cfb53b6959b3b692ec76b120>@@AEAV<lambda_9a32fed5bf61b6b509b2d3f6003082a1>@@$$QEAV<lambda_572fbb9fa0ab338edf41edfd4b5fcc8d>@@@Z 0000000180045ed0     libucrt:fflush.obj
 0002:00017ef4       $unwind$?divide@__crt_strtox@@YA_KAEAUbig_integer@1@AEBU21@@Z 0000000180045ef4     libucrt:input.obj
 0002:00017f0c       $chain$0$?divide@__crt_strtox@@YA_KAEAUbig_integer@1@AEBU21@@Z 0000000180045f0c     libucrt:input.obj
 0002:00017f20       $chain$1$?divide@__crt_strtox@@YA_KAEAUbig_integer@1@AEBU21@@Z 0000000180045f20     libucrt:input.obj
 0002:00017f30       $xdatasym                  0000000180045f30     libucrt:strncmp.obj
 0002:00017f34       $unwind$setvbuf            0000000180045f34     libucrt:setvbuf.obj
 0002:00017f3c       $unwind$??$?RV<lambda_c8e61daa512c69656564d9dbd35486e8>@@AEAV<lambda_b4f66040be5f354a654fb75160c27bfc>@@V<lambda_2ca749746f96040ea1ff4296b14379df>@@@?$__crt_seh_guarded_call@H@@QEAAH$$QEAV<lambda_c8e61daa512c69656564d9dbd35486e8>@@AEAV<lambda_b4f66040be5f354a654fb75160c27bfc>@@$$QEAV<lambda_2ca749746f96040ea1ff4296b14379df>@@@Z 0000000180045f3c     libucrt:setvbuf.obj
 0002:00017f60       $unwind$fgetc              0000000180045f60     libucrt:fgetc.obj
 0002:00017f94       $unwind$ungetc             0000000180045f94     libucrt:ungetc.obj
 0002:00017fb8       $unwind$??$parse_integer@KV?$c_string_character_source@D@__crt_strtox@@@__crt_strtox@@YAKQEAU__crt_locale_pointers@@V?$c_string_character_source@D@0@H_N@Z 0000000180045fb8     libucrt:strtox.obj
 0002:00017fd4       $unwind$??$parse_integer@KV?$c_string_character_source@_W@__crt_strtox@@@__crt_strtox@@YAKQEAU__crt_locale_pointers@@V?$c_string_character_source@_W@0@H_N@Z 0000000180045fd4     libucrt:strtox.obj
 0002:00017fec       $unwind$__acrt_uninitialize_locale 0000000180045fec     libucrt:wsetlocale.obj
 0002:00017fec       $unwind$__acrt_get_sigabrt_handler 0000000180045fec     libucrt:signal.obj
 0002:00017ff4       $unwind$raise              0000000180045ff4     libucrt:signal.obj
 0002:00018030       $unwind$??$?RV<lambda_450d765d439847d4c735a33c368b5fc0>@@AEAV<lambda_44731a7d0e6d81c3e6aa82d741081786>@@V<lambda_601a2a7da3b7a96e9554ac7215c4b07c>@@@?$__crt_seh_guarded_call@P6AXH@Z@@QEAAP6AXH@Z$$QEAV<lambda_450d765d439847d4c735a33c368b5fc0>@@AEAV<lambda_44731a7d0e6d81c3e6aa82d741081786>@@$$QEAV<lambda_601a2a7da3b7a96e9554ac7215c4b07c>@@@Z 0000000180046030     libucrt:signal.obj
 0002:00018054       $unwind$setlocale          0000000180046054     libucrt:setlocale.obj
 0002:0001805c       $unwind$??R<lambda_2116bde18c9e5f34230805ea4a4660ed>@@QEBAPEADXZ 000000018004605c     libucrt:setlocale.obj
 0002:00018074       $unwind$??$?RV<lambda_e9ce07acdb0b138e546925ae9f1a2c9c>@@AEAV<lambda_2116bde18c9e5f34230805ea4a4660ed>@@V<lambda_5d037afbfc54bf1ca80d3d1ee4062886>@@@?$__crt_seh_guarded_call@PEAD@@QEAAPEAD$$QEAV<lambda_e9ce07acdb0b138e546925ae9f1a2c9c>@@AEAV<lambda_2116bde18c9e5f34230805ea4a4660ed>@@$$QEAV<lambda_5d037afbfc54bf1ca80d3d1ee4062886>@@@Z 0000000180046074     libucrt:setlocale.obj
 0002:00018098       $unwind$__acrt_locale_initialize_ctype 0000000180046098     libucrt:initctype.obj
 0002:000180c0       $xdatasym                  00000001800460c0     libucrt:pow.obj
 0002:000180d0       $xdatasym                  00000001800460d0     libucrt:powf.obj
 0002:000180e0       $unwind$__dcrt_write_console 00000001800460e0     libucrt:initcon.obj
 0002:000180e0       $unwind$??$__acrt_wcs_to_mbs_cp@U__crt_win32_buffer_no_resizing@@@@YAHQEB_WAEAV?$__crt_win32_buffer@DU__crt_win32_buffer_no_resizing@@@@I@Z 00000001800460e0     libucrt:strftime.obj
 0002:000180f4       $unwind$_query_new_handler 00000001800460f4     libucrt:new_handler.obj
 0002:00018114       $unwind$?common_exit@@YAXHW4_crt_exit_cleanup_mode@@W4_crt_exit_return_mode@@@Z 0000000180046114     libucrt:exit.obj
 0002:00018120       $unwind$??R<lambda_6e4b09c48022b2350581041d5f6b0c4c>@@QEBA@XZ 0000000180046120     libucrt:exit.obj
 0002:00018140       $unwind$??$?RV<lambda_d80eeec6fff315bfe5c115232f3240e3>@@AEAV<lambda_6e4b09c48022b2350581041d5f6b0c4c>@@V<lambda_2358e3775559c9db80273638284d5e45>@@@?$__crt_seh_guarded_call@X@@QEAAX$$QEAV<lambda_d80eeec6fff315bfe5c115232f3240e3>@@AEAV<lambda_6e4b09c48022b2350581041d5f6b0c4c>@@$$QEAV<lambda_2358e3775559c9db80273638284d5e45>@@@Z 0000000180046140     libucrt:exit.obj
 0002:00018164       $unwind$_configure_narrow_argv 0000000180046164     libucrt:argv_parsing.obj
 0002:00018178       $unwind$?should_round_up@@YA_NQEBN_KFW4__acrt_rounding_mode@@@Z 0000000180046178     libucrt:cvt.obj
 0002:00018178       $unwind$TranslateName      0000000180046178     libucrt:get_qualified_locale.obj
 0002:00018178       $unwind$_chsize_nolock     0000000180046178     libucrt:chsize.obj
 0002:00018178       $unwind$??$parse_command_line@D@@YAXPEADPEAPEAD0PEA_K2@Z 0000000180046178     libucrt:argv_parsing.obj
 0002:00018194       $unwind$??$free_environment@D@@YAXQEAPEAD@Z 0000000180046194     libucrt:environment_initialization.obj
 0002:00018194       $unwind$??$free_environment@_W@@YAXQEAPEA_W@Z 0000000180046194     libucrt:environment_initialization.obj
 0002:000181a0       $unwind$??$create_environment@D@@YAQEAPEADQEAD@Z 00000001800461a0     libucrt:environment_initialization.obj
 0002:000181a0       $unwind$__lc_wcstolc       00000001800461a0     libucrt:wsetlocale.obj
 0002:000181b8       $unwind$_register_onexit_function 00000001800461b8     libucrt:onexit.obj
 0002:000181c0       $unwind$_execute_onexit_table 00000001800461c0     libucrt:onexit.obj
 0002:000181c8       $unwind$??R<lambda_22ebabd17bc4fa466a2aca6d8deb888d>@@QEBAHXZ 00000001800461c8     libucrt:onexit.obj
 0002:000181e0       $unwind$__acrt_fp_strflt_to_string 00000001800461e0     libucrt:_fptostr.obj
 0002:000181e0       $unwind$??$common_xtox@K_W@@YAHKQEA_W_KI_N@Z 00000001800461e0     libucrt:xtoa.obj
 0002:000181e0       $unwind$TranslateName      00000001800461e0     libucrt:getqloc_downlevel.obj
 0002:000181e0       $unwind$__acrt_DownlevelLocaleNameToLCID 00000001800461e0     libucrt:lcidtoname_downlevel.obj
 0002:000181e0       $unwind$??R<lambda_f03950bc5685219e0bcd2087efbe011e>@@QEBAHXZ 00000001800461e0     libucrt:onexit.obj
 0002:000181f8       $unwind$??$?RV<lambda_638799b9deba96c50f710eeac98168cd>@@AEAV<lambda_22ebabd17bc4fa466a2aca6d8deb888d>@@V<lambda_a6f7d7db0129f75315ebf26d50c089f1>@@@?$__crt_seh_guarded_call@H@@QEAAH$$QEAV<lambda_638799b9deba96c50f710eeac98168cd>@@AEAV<lambda_22ebabd17bc4fa466a2aca6d8deb888d>@@$$QEAV<lambda_a6f7d7db0129f75315ebf26d50c089f1>@@@Z 00000001800461f8     libucrt:onexit.obj
 0002:0001821c       $unwind$??$?RV<lambda_7777bce6b2f8c936911f934f8298dc43>@@AEAV<lambda_f03950bc5685219e0bcd2087efbe011e>@@V<lambda_3883c3dff614d5e0c5f61bb1ac94921c>@@@?$__crt_seh_guarded_call@H@@QEAAH$$QEAV<lambda_7777bce6b2f8c936911f934f8298dc43>@@AEAV<lambda_f03950bc5685219e0bcd2087efbe011e>@@$$QEAV<lambda_3883c3dff614d5e0c5f61bb1ac94921c>@@@Z 000000018004621c     libucrt:onexit.obj
 0002:00018240       $unwind$_free_base         0000000180046240     libucrt:free_base.obj
 0002:00018240       $unwind$?destroy_fls@@YAXPEAX@Z 0000000180046240     libucrt:per_thread_data.obj
 0002:00018240       $unwind$__acrt_locale_free_numeric 0000000180046240     libucrt:initnum.obj
 0002:00018240       $unwind$__acrt_locale_free_lc_time_if_unreferenced 0000000180046240     libucrt:locale_refcounting.obj
 0002:00018248       $unwind$?fp_format_e@@YAHQEBNQEAD_K12H_NIQEAU__crt_locale_pointers@@W4__acrt_rounding_mode@@@Z 0000000180046248     libucrt:cvt.obj
 0002:00018248       $unwind$_mbtowc_l          0000000180046248     libucrt:mbtowc.obj
 0002:00018248       $unwind$__acrt_LCMapStringEx 0000000180046248     libucrt:winapi_thunks.obj
 0002:00018248       $unwind$__acrt_LCMapStringW 0000000180046248     libucrt:lcmapstringw.obj
 0002:0001825c       $unwind$_wctomb_s_l        000000018004625c     libucrt:wctomb.obj
 0002:0001826c       $unwind$?construct_ptd_array@@YAXQEAU__acrt_ptd@@@Z 000000018004626c     libucrt:per_thread_data.obj
 0002:00018274       $unwind$?destroy_ptd_array@@YAXQEAU__acrt_ptd@@@Z 0000000180046274     libucrt:per_thread_data.obj
 0002:0001827c       $unwind$??$?RV<lambda_0ae27a3a962d80f24befdcbee591983d>@@AEAV<lambda_8d0ee55de4b1038c4002e0adecdf1839>@@V<lambda_dc504788e8f1664fe9b84e20bfb512f2>@@@?$__crt_seh_guarded_call@X@@QEAAX$$QEAV<lambda_0ae27a3a962d80f24befdcbee591983d>@@AEAV<lambda_8d0ee55de4b1038c4002e0adecdf1839>@@$$QEAV<lambda_dc504788e8f1664fe9b84e20bfb512f2>@@@Z 000000018004627c     libucrt:per_thread_data.obj
 0002:000182a0       $unwind$??$?RV<lambda_aa87e3671a710a21b5dc78c0bdf72e11>@@AEAV<lambda_92619d2358a28f41a33ba319515a20b9>@@V<lambda_6992ecaafeb10aed2b74cb1fae11a551>@@@?$__crt_seh_guarded_call@X@@QEAAX$$QEAV<lambda_aa87e3671a710a21b5dc78c0bdf72e11>@@AEAV<lambda_92619d2358a28f41a33ba319515a20b9>@@$$QEAV<lambda_6992ecaafeb10aed2b74cb1fae11a551>@@@Z 00000001800462a0     libucrt:per_thread_data.obj
 0002:000182c4       $unwind$??$?RV<lambda_f2e299630e499de9f9a165e60fcd3db5>@@AEAV<lambda_2ae9d31cdba2644fcbeaf08da7c24588>@@V<lambda_40d01ff24d0e7b3814fdbdcee8eab3c7>@@@?$__crt_seh_guarded_call@X@@QEAAX$$QEAV<lambda_f2e299630e499de9f9a165e60fcd3db5>@@AEAV<lambda_2ae9d31cdba2644fcbeaf08da7c24588>@@$$QEAV<lambda_40d01ff24d0e7b3814fdbdcee8eab3c7>@@@Z 00000001800462c4     libucrt:per_thread_data.obj
 0002:000182e8       $unwind$??$?RV<lambda_2d41944a1d46af3157314b8a01080d33>@@AEAV<lambda_8f455de75cd7d7f24b4096f044d8b9e6>@@V<lambda_aa500f224e6afead328df44964fe2772>@@@?$__crt_seh_guarded_call@X@@QEAAX$$QEAV<lambda_2d41944a1d46af3157314b8a01080d33>@@AEAV<lambda_8f455de75cd7d7f24b4096f044d8b9e6>@@$$QEAV<lambda_aa500f224e6afead328df44964fe2772>@@@Z 00000001800462e8     libucrt:per_thread_data.obj
 0002:0001830c       $unwind$__acrt_fp_format   000000018004630c     libucrt:cvt.obj
 0002:00018324       $unwind$?fp_format_e_internal@@YAHQEAD_KH_NIQEAU_strflt@@2QEAU__crt_locale_pointers@@@Z 0000000180046324     libucrt:cvt.obj
 0002:0001833c       $unwind$?fp_format_a@@YAHQEBNPEAD_KQEAD2H_NIQEAU__crt_locale_pointers@@W4__acrt_rounding_mode@@@Z 000000018004633c     libucrt:cvt.obj
 0002:00018358       $unwind$__dcrt_get_narrow_environment_from_os 0000000180046358     libucrt:get_environment_from_os.obj
 0002:00018358       $unwind$?fp_format_f_internal@@YAHQEAD_KHQEAU_strflt@@_NQEAU__crt_locale_pointers@@@Z 0000000180046358     libucrt:cvt.obj
 0002:00018358       $unwind$??$__acrt_wcs_to_mbs_cp@U__crt_win32_buffer_internal_dynamic_resizing@@@@YAHQEB_WAEAV?$__crt_win32_buffer@DU__crt_win32_buffer_internal_dynamic_resizing@@@@I@Z 0000000180046358     libucrt:argv_wildcards.obj
 0002:00018370       $unwind$?fp_format_g@@YAHQEBNQEAD_K12H_NIW4__acrt_rounding_mode@@QEAU__crt_locale_pointers@@@Z 0000000180046370     libucrt:cvt.obj
 0002:00018384       $unwind$__acrt_stdio_end_temporary_buffering_nolock 0000000180046384     libucrt:_sftbuf.obj
 0002:0001838c       $unwind$_wsetlocale        000000018004638c     libucrt:wsetlocale.obj
 0002:00018394       $unwind$_expandlocale      0000000180046394     libucrt:wsetlocale.obj
 0002:000183b4       $unwind$_wcscats           00000001800463b4     libucrt:wsetlocale.obj
 0002:000183c4       $unwind$_wsetlocale_set_cat 00000001800463c4     libucrt:wsetlocale.obj
 0002:000183c4       $unwind$??$expand_argument_wildcards@D@@YAHQEAD0AEAV?$argument_list@D@?A0x5f5c8891@@@Z 00000001800463c4     libucrt:argv_wildcards.obj
 0002:000183e8       $unwind$_wsetlocale_get_all 00000001800463e8     libucrt:wsetlocale.obj
 0002:000183e8       $unwind$??$copy_and_add_argument_to_buffer@D@@YAHQEBD0_KAEAV?$argument_list@D@?A0x5f5c8891@@@Z 00000001800463e8     libucrt:argv_wildcards.obj
 0002:00018404       $unwind$_wsetlocale_nolock 0000000180046404     libucrt:wsetlocale.obj
 0002:00018428       $unwind$??R<lambda_2a444430fde8c29194d880d93eed5e8f>@@QEBA@XZ 0000000180046428     libucrt:wsetlocale.obj
 0002:00018434       $unwind$parse_bcp47        0000000180046434     libucrt:wsetlocale.obj
 0002:00018458       $unwind$??$?RV<lambda_410d79af7f07d98d83a3f525b3859a53>@@AEAV<lambda_3e16ef9562a7dcce91392c22ab16ea36>@@V<lambda_38119f0e861e05405d8a144b9b982f0a>@@@?$__crt_seh_guarded_call@X@@QEAAX$$QEAV<lambda_410d79af7f07d98d83a3f525b3859a53>@@AEAV<lambda_3e16ef9562a7dcce91392c22ab16ea36>@@$$QEAV<lambda_38119f0e861e05405d8a144b9b982f0a>@@@Z 0000000180046458     libucrt:wsetlocale.obj
 0002:00018480       $unwind$??$?RV<lambda_1d892b297fdedeee07ed8124eeb2f2fa>@@AEAV<lambda_ffc046909424fd52df0ac47e64813305>@@V<lambda_01a7098693036236037e7cdb9bca3d73>@@@?$__crt_seh_guarded_call@X@@QEAAX$$QEAV<lambda_1d892b297fdedeee07ed8124eeb2f2fa>@@AEAV<lambda_ffc046909424fd52df0ac47e64813305>@@$$QEAV<lambda_01a7098693036236037e7cdb9bca3d73>@@@Z 0000000180046480     libucrt:wsetlocale.obj
 0002:000184a4       $unwind$??$?RV<lambda_e9338f07fe435327d97d4ef86149e64d>@@AEAV<lambda_2a444430fde8c29194d880d93eed5e8f>@@AEAV<lambda_02db5278e8aef8b5e4976579d73f5304>@@@?$__crt_seh_guarded_call@X@@QEAAX$$QEAV<lambda_e9338f07fe435327d97d4ef86149e64d>@@AEAV<lambda_2a444430fde8c29194d880d93eed5e8f>@@AEAV<lambda_02db5278e8aef8b5e4976579d73f5304>@@@Z 00000001800464a4     libucrt:wsetlocale.obj
 0002:000184c4       $unwind$__acrt_initialize_lowio 00000001800464c4     libucrt:ioinit.obj
 0002:000184e4       $unwind$?initialize_inherited_file_handles_nolock@@YAXXZ 00000001800464e4     libucrt:ioinit.obj
 0002:00018500       $unwind$__acrt_initialize_winapi_thunks 0000000180046500     libucrt:winapi_thunks.obj
 0002:00018508       $unwind$__acrt_EnumSystemLocalesEx 0000000180046508     libucrt:winapi_thunks.obj
 0002:00018518       $unwind$??$?RV<lambda_48fc4a32460bb0512d3b13f8499328be>@@AEAV<lambda_6c3dac0a4f3f9cefca9bb494422f9b77>@@V<lambda_0a2f2c9f9a56eb2b08bfa6ff61d331c5>@@@?$__crt_seh_guarded_call@H@@QEAAH$$QEAV<lambda_48fc4a32460bb0512d3b13f8499328be>@@AEAV<lambda_6c3dac0a4f3f9cefca9bb494422f9b77>@@$$QEAV<lambda_0a2f2c9f9a56eb2b08bfa6ff61d331c5>@@@Z 0000000180046518     libucrt:winapi_thunks.obj
 0002:0001853c       $unwind$_fcloseall         000000018004653c     libucrt:closeall.obj
 0002:00018560       $unwind$_mbstowcs_s_l      0000000180046560     libucrt:mbstowcs.obj
 0002:00018578       $unwind$?_mbstowcs_l_helper@@YA_KPEA_WPEBD_KPEAU__crt_locale_pointers@@@Z 0000000180046578     libucrt:mbstowcs.obj
 0002:00018590       $unwind$??$write_buffer_nolock@D@@YA_NDV__crt_stdio_stream@@@Z 0000000180046590     libucrt:_flsbuf.obj
 0002:000185a0       $unwind$?__acrt_stdio_allocate_stream@@YA?AV__crt_stdio_stream@@XZ 00000001800465a0     libucrt:stream.obj
 0002:000185c0       $unwind$_wopenfile         00000001800465c0     libucrt:openfile.obj
 0002:000185d4       $unwind$_setmode_nolock    00000001800465d4     libucrt:setmode.obj
 0002:000185e4       $unwind$??$common_lseek@_J@@YA_JH_JH@Z 00000001800465e4     libucrt:lseek.obj
 0002:00018614       $unwind$__acrt_WideCharToMultiByte 0000000180046614     libucrt:widechartomultibyte.obj
 0002:00018620       $unwind$?__mbsrtowcs_utf8@__crt_mbstring@@YA_KPEA_WPEAPEBD_KPEAU_Mbstatet@@@Z 0000000180046620     libucrt:mbrtowc.obj
 0002:00018638       $unwind$_putwch_nolock     0000000180046638     libucrt:putwch.obj
 0002:00018640       $unwind$_wcsnicmp_l        0000000180046640     libucrt:wcsnicmp.obj
 0002:0001865c       $unwind$__acrt_LCMapStringA 000000018004665c     libucrt:lcmapstringa.obj
 0002:0001866c       $unwind$?__acrt_LCMapStringA_stat@@YAHPEAU__crt_locale_pointers@@PEB_WKPEBDHPEADHHH@Z 000000018004666c     libucrt:lcmapstringa.obj
 0002:00018694       $unwind$??$?RV<lambda_a37b2b86f63e897a80ea819b0eb08c01>@@AEAV<lambda_38ce7e780aa69e748d6df282ebc68efe>@@V<lambda_99fb1378e971ab6e7edea83e3a7a83a2>@@@?$__crt_seh_guarded_call@H@@QEAAH$$QEAV<lambda_a37b2b86f63e897a80ea819b0eb08c01>@@AEAV<lambda_38ce7e780aa69e748d6df282ebc68efe>@@$$QEAV<lambda_99fb1378e971ab6e7edea83e3a7a83a2>@@@Z 0000000180046694     libucrt:commit.obj
 0002:000186b8       $unwind$_isctype_l         00000001800466b8     libucrt:isctype.obj
 0002:000186d4       $unwind$_raise_exc_ex      00000001800466d4     libucrt:fpexcept.obj
 0002:000186e8       $unwind$_ctrlfp            00000001800466e8     libucrt:fpctrl.obj
 0002:00018710       $unwind$?_wcstombs_l_helper@@YA_KPEADPEB_W_KPEAU__crt_locale_pointers@@@Z 0000000180046710     libucrt:wcstombs.obj
 0002:00018734       $stateUnwindMap$?_wcstombs_l_helper@@YA_KPEADPEB_W_KPEAU__crt_locale_pointers@@@Z 0000000180046734     libucrt:wcstombs.obj
 0002:00018740       $ip2state$?_wcstombs_l_helper@@YA_KPEADPEB_W_KPEAU__crt_locale_pointers@@@Z 0000000180046740     libucrt:wcstombs.obj
 0002:00018750       $unwind$__acrt_GetLocaleInfoA 0000000180046750     libucrt:getlocaleinfoa.obj
 0002:00018770       $unwind$?InternalGetLocaleInfoA@@YAHQEAU__crt_locale_pointers@@QEB_WKQEADH@Z 0000000180046770     libucrt:getlocaleinfoa.obj
 0002:00018798       $unwind$__acrt_GetStringTypeA 0000000180046798     libucrt:getstringtypea.obj
 0002:000187c0       $unwind$__acrt_initialize_fma3 00000001800467c0     libucrt:fma3_available.obj
 0002:000187c8       $unwind$_powf_special      00000001800467c8     libucrt:pow_special.obj
 0002:000187d8       $unwind$_pow_special       00000001800467d8     libucrt:pow_special.obj
 0002:000187e4       $unwind$_wcsicmp_l         00000001800467e4     libucrt:wcsicmp.obj
 0002:000187fc       $unwind$??$common_expand_argv_wildcards@D@@YAHQEAPEADQEAPEAPEAD@Z 00000001800467fc     libucrt:argv_wildcards.obj
 0002:00018814       $unwind$__acrt_GetModuleFileNameA 0000000180046814     libucrt:getmodulefilenamea.obj
 0002:00018830       $unwind$_setmbcp_nolock    0000000180046830     libucrt:mbctype.obj
 0002:00018850       $unwind$?update_thread_multibyte_data_internal@@YAPEAU__crt_multibyte_data@@QEAU__acrt_ptd@@QEAPEAU1@@Z 0000000180046850     libucrt:mbctype.obj
 0002:00018878       $unwind$?setmbcp_internal@@YAHH_NQEAU__acrt_ptd@@QEAPEAU__crt_multibyte_data@@@Z 0000000180046878     libucrt:mbctype.obj
 0002:00018888       $unwind$?setSBUpLow@@YAXPEAU__crt_multibyte_data@@@Z 0000000180046888     libucrt:mbctype.obj
 0002:000188a4       $unwind$??$?RV<lambda_efdfa57d1f175319df784efa44bb7b81>@@AEAV<lambda_5f0a4c1567f8adc6734073e5d1e1b35c>@@V<lambda_2e8a7d3640ea6ccb4c2413664c2db6fd>@@@?$__crt_seh_guarded_call@X@@QEAAX$$QEAV<lambda_efdfa57d1f175319df784efa44bb7b81>@@AEAV<lambda_5f0a4c1567f8adc6734073e5d1e1b35c>@@$$QEAV<lambda_2e8a7d3640ea6ccb4c2413664c2db6fd>@@@Z 00000001800468a4     libucrt:mbctype.obj
 0002:000188c8       $unwind$?x_ismbbtype_l@@YAHPEAU__crt_locale_pointers@@IHH@Z 00000001800468c8     libucrt:ismbbyte.obj
 0002:000188d8       $unwind$__acrt_update_thread_locale_data 00000001800468d8     libucrt:locale_refcounting.obj
 0002:000188fc       $unwind$__acrt_fltout      00000001800468fc     libucrt:cfout.obj
 0002:0001891c       $unwind$__acrt_locale_initialize_monetary 000000018004691c     libucrt:initmon.obj
 0002:0001891c       $unwind$?initialize_lc_time@@YA_NQEAU__crt_lc_time_data@@QEAU__crt_locale_data@@@Z 000000018004691c     libucrt:inittime.obj
 0002:00018938       $unwind$__acrt_locale_free_monetary 0000000180046938     libucrt:initmon.obj
 0002:00018940       $unwind$__acrt_locale_free_time 0000000180046940     libucrt:inittime.obj
 0002:00018950       $unwind$__acrt_get_qualified_locale 0000000180046950     libucrt:get_qualified_locale.obj
 0002:0001896c       $unwind$LangCountryEnumProcEx 000000018004696c     libucrt:get_qualified_locale.obj
 0002:0001898c       $unwind$LanguageEnumProcEx 000000018004698c     libucrt:get_qualified_locale.obj
 0002:000189a8       $unwind$GetLocaleNameFromDefault 00000001800469a8     libucrt:get_qualified_locale.obj
 0002:000189c0       $unwind$TestDefaultCountry 00000001800469c0     libucrt:get_qualified_locale.obj
 0002:000189d0       $unwind$__acrt_get_qualified_locale_downlevel 00000001800469d0     libucrt:getqloc_downlevel.obj
 0002:000189ec       $unwind$LangCountryEnumProc 00000001800469ec     libucrt:getqloc_downlevel.obj
 0002:00018a0c       $unwind$LanguageEnumProc   0000000180046a0c     libucrt:getqloc_downlevel.obj
 0002:00018a28       $unwind$CountryEnumProc    0000000180046a28     libucrt:getqloc_downlevel.obj
 0002:00018a48       $unwind$__acrt_fenv_set_control 0000000180046a48     libucrt:_fenvutils.obj
 0002:00018a58       $unwind$?__mbrtoc32_utf8@__crt_mbstring@@YA_KPEA_UPEBD_KPEAU_Mbstatet@@@Z 0000000180046a58     libucrt:mbrtoc32.obj
 0002:00018a74       $unwind$_towlower_l        0000000180046a74     libucrt:towlower.obj
 0002:00018a80       $xdatasym                  0000000180046a80     libucrt:fpsr.obj
 0002:00018a88       $unwind$?__wcsrtombs_utf8@__crt_mbstring@@YA_KPEADPEAPEB_W_KPEAU_Mbstatet@@@Z 0000000180046a88     libucrt:wcrtomb.obj
 0002:00018aa8       $unwind$_call_matherr      0000000180046aa8     libucrt:libm_error.obj
 0002:00018ab0       $unwind$_handle_error      0000000180046ab0     libucrt:libm_error.obj
 0002:00018ab0       $unwind$_handle_errorf     0000000180046ab0     libucrt:libm_error.obj
 0002:00018ad0       $unwind$strpbrk            0000000180046ad0     libucrt:strpbrk.obj
 0002:00018ae0       $unwind$fallbackMethod     0000000180046ae0     libucrt:strpbrk.obj
 0002:00018af0       $xdatasym                  0000000180046af0     libucrt:log10.obj
 0002:00018afc       $unwind$common_control87   0000000180046afc     libucrt:ieee.obj
 0002:00018b28       $unwind$_log_special_common 0000000180046b28     libucrt:log_special.obj
 0002:00018b34       $unwind$_IsNonwritableInCurrentImage 0000000180046b34     LIBCMT:pesect.obj
 0002:00018b58       $unwind$_local_unwind      0000000180046b58     libvcruntime:jmpuwind.obj
 0002:00018b60       $xdatasym                  0000000180046b60     libucrt:sinf.obj
 0002:00018b68       $xdatasym                  0000000180046b68     libucrt:remainder_piby2f_forc.obj
 0002:00018b78       $unwind$_sincosf_special   0000000180046b78     libucrt:sincos_special.obj
 0002:00019160       .edata                     0000000180047160     SixMansPlugin-Rework.exp
 0002:00019188       rgpv                       0000000180047188     SixMansPlugin-Rework.exp
 0002:000191bc       rgszName                   00000001800471bc     SixMansPlugin-Rework.exp
 0002:000191f0       rgwOrd                     00000001800471f0     SixMansPlugin-Rework.exp
 0002:0001920a       szName                     000000018004720a     SixMansPlugin-Rework.exp
 0002:00019223       $N00001                    0000000180047223     SixMansPlugin-Rework.exp
 0002:0001925a       $N00002                    000000018004725a     SixMansPlugin-Rework.exp
 0002:0001928f       $N00003                    000000018004728f     SixMansPlugin-Rework.exp
 0002:000192bc       $N00004                    00000001800472bc     SixMansPlugin-Rework.exp
 0002:000192e9       $N00005                    00000001800472e9     SixMansPlugin-Rework.exp
 0002:00019327       $N00006                    0000000180047327     SixMansPlugin-Rework.exp
 0002:00019363       $N00007                    0000000180047363     SixMansPlugin-Rework.exp
 0002:0001938d       $N00008                    000000018004738d     SixMansPlugin-Rework.exp
 0002:000193cb       $N00009                    00000001800473cb     SixMansPlugin-Rework.exp
 0002:000193fd       $N00010                    00000001800473fd     SixMansPlugin-Rework.exp
 0002:00019431       $N00011                    0000000180047431     SixMansPlugin-Rework.exp
 0002:0001943a       $N00012                    000000018004743a     SixMansPlugin-Rework.exp
 0002:00019442       $N00013                    0000000180047442     SixMansPlugin-Rework.exp
 0002:000197ce       .idata$6                   00000001800477ce     pluginsdk:pluginsdk.dll
 0002:0001993e       .idata$6                   000000018004793e     kernel32:KERNEL32.dll
 0002:0001994c       .idata$6                   000000018004794c     ws2_32:WS2_32.dll
 0003:00000000       ?init@std@@3JA             0000000180048000     libcpmt:xlock.obj
 0003:00000048       ?atcount_cdecl@@3_KA       0000000180048048     libcpmt:iosptrs.obj
 0003:00000090       ?__vcrt_flsindex@@3KA      0000000180048090     libvcruntime:per_thread_data.obj
 0003:000001a8       ?errno_no_memory@@3HA      00000001800481a8     libucrt:errno.obj
 0003:000001ac       ?doserrno_no_memory@@3KA   00000001800481ac     libucrt:errno.obj
 0003:00000380       ?__acrt_flsindex@@3KA      0000000180048380     libucrt:per_thread_data.obj
 0003:00000388       _ctype_loc_style           0000000180048388     libucrt:wsetlocale.obj
 0003:00000548       ?dazSupported@?1??_ctrlfp@@9@9 0000000180048548     libucrt:fpctrl.obj
 0003:00000550       ?tzstd_program@@3PADA      0000000180048550     libucrt:timeset.obj
 0003:00000590       ?tzdst_program@@3PADA      0000000180048590     libucrt:timeset.obj
 0003:000005d0       ?w_tzstd_program@@3PA_WA   00000001800485d0     libucrt:timeset.obj
 0003:00000650       ?w_tzdst_program@@3PA_WA   0000000180048650     libucrt:timeset.obj
 0003:000006d0       ?tzname_states@@3PAY01PEADA 00000001800486d0     libucrt:timeset.obj
 0003:000006e0       ?w_tzname_states@@3PAY01PEA_WA 00000001800486e0     libucrt:timeset.obj
 0003:00000920       _mbctypes                  0000000180048920     libucrt:mbctype.obj
 0003:00000a30       _mbcasemaps                0000000180048a30     libucrt:mbctype.obj
 0003:00000b30       ?__rgctypeflag@@3PADA      0000000180048b30     libucrt:mbctype.obj
 0003:00000b40       ?__rgcode_page_info@@3PAUcode_page_info@@A 0000000180048b40     libucrt:mbctype.obj
 0003:00000c30       ?__dcrt_lowio_console_output_handle@@3PEAXEA 0000000180048c30     libucrt:initcon.obj
 0003:00000c40       ?dazSupported@?1??common_control87@@9@9 0000000180048c40     libucrt:ieee.obj
 0003:00000e20       ?MAP_CODENAMES@@3QBV?$basic_string@DU?$char_traits@D@std@@V?$allocator@D@2@@std@@B 0000000180048e20     SixMansPlugin-Rework.obj
 0003:00001280       ?MAP_CODENAMES@@3QBV?$basic_string@DU?$char_traits@D@std@@V?$allocator@D@2@@std@@B 0000000180049280     SixMansPlugin-ReworkGUI.obj
 0003:00002140       ?classic_locale@std@@3Vlocale@1@A 000000018004a140     libcpmt:locale0.obj
 0003:00002158       ?_Fac_head@std@@3PEAU_Fac_node@1@EA 000000018004a158     libcpmt:locale0.obj
 0003:00002160       ?_Fac_tidy_reg@std@@3U_Fac_tidy_reg_t@1@B 000000018004a160     libcpmt:locale0.obj
 0003:00002168       global_locale              000000018004a168     libcpmt:locale0.obj
 0003:00002170       ?registered@?1??_Setgloballocale@locale@std@@CAXPEAX@Z@4_NA 000000018004a170     libcpmt:locale0.obj
 0003:00002180       ?initlocks@std@@3V_Init_locks@1@A 000000018004a180     libcpmt:xlock.obj
 0003:00002190       ?mtx@std@@3PAU_RTL_CRITICAL_SECTION@@A 000000018004a190     libcpmt:xlock.obj
 0003:000022e0       ?stdstr@std@@3PAPEAVios_base@1@A 000000018004a2e0     libcpmt:ios.obj
 0003:00002330       ?stdopens@std@@3PADA       000000018004a330     libcpmt:ios.obj
 0003:00002390       ?initlocks@std@@3V_Init_locks@1@A 000000018004a390     libcpmt:iosptrs.obj
 0003:00002391       ?init_atexit@@3U_Init_atexit@@A 000000018004a391     libcpmt:iosptrs.obj
 0003:000023a0       ?atfuns_cdecl@@3PAP6AXXZA  000000018004a3a0     libcpmt:iosptrs.obj
 0003:00002618       ?g_tss_cv@@3U_RTL_CONDITION_VARIABLE@@A 000000018004a618     LIBCMT:thread_safe_statics.obj
 0003:00002620       ?g_tss_event@@3PEAXEA      000000018004a620     LIBCMT:thread_safe_statics.obj
 0003:00002628       ?g_tss_mutex@@3U_RTL_CRITICAL_SECTION@@A 000000018004a628     LIBCMT:thread_safe_statics.obj
 0003:00002650       ?g_sleep_condition_variable_cs@@3P6AHPEAU_RTL_CONDITION_VARIABLE@@PEAU_RTL_CRITICAL_SECTION@@K@ZEA 000000018004a650     LIBCMT:thread_safe_statics.obj
 0003:00002658       ?g_wake_all_condition_variable@@3P6AXPEAU_RTL_CONDITION_VARIABLE@@@ZEA 000000018004a658     LIBCMT:thread_safe_statics.obj
 0003:00002670       ?is_initialized_as_dll@@3_NA 000000018004a670     LIBCMT:utility.obj
 0003:00002671       ?module_local_atexit_table_initialized@@3_NA 000000018004a671     LIBCMT:utility.obj
 0003:00002678       ?module_local_atexit_table@@3U_onexit_table_t@@A 000000018004a678     LIBCMT:utility.obj
 0003:00002690       ?module_local_at_quick_exit_table@@3U_onexit_table_t@@A 000000018004a690     LIBCMT:utility.obj
 0003:000026b0       GS_ExceptionRecord         000000018004a6b0     LIBCMT:gs_report.obj
 0003:00002750       GS_ContextRecord           000000018004a750     LIBCMT:gs_report.obj
 0003:00002c20       ?__proc_attached@@3HA      000000018004ac20     LIBCMT:dll_dllmain.obj
 0003:00002c50       ?__vcrt_startup_thread_ptd@@3U__vcrt_ptd@@A 000000018004ac50     libvcruntime:per_thread_data.obj
 0003:00002d18       ?heap@@3V_HeapManager@@A   000000018004ad18     libvcruntime:undname.obj
 0003:00002d40       __vcrt_lock_table          000000018004ad40     libvcruntime:locks.obj
 0003:00002d68       __vcrt_locks_initialized   000000018004ad68     libvcruntime:locks.obj
 0003:00002d70       ?module_handles@@3PAPEAUHINSTANCE__@@A 000000018004ad70     libvcruntime:winapi_downlevel.obj
 0003:00002d88       ?function_pointers@@3PAPEAXA 000000018004ad88     libvcruntime:winapi_downlevel.obj
 0003:00002dc8       ?__acrt_invalid_parameter_handler@@3V?$dual_state_global@P6AXPEB_W00I_K@Z@__crt_state_management@@A 000000018004adc8     libucrt:invalid_parameter.obj
 0003:00002dd8       ?ctrlc_action@@3V?$dual_state_global@P6AXH@Z@__crt_state_management@@A 000000018004add8     libucrt:signal.obj
 0003:00002de0       ?ctrlbreak_action@@3V?$dual_state_global@P6AXH@Z@__crt_state_management@@A 000000018004ade0     libucrt:signal.obj
 0003:00002de8       ?abort_action@@3V?$dual_state_global@P6AXH@Z@__crt_state_management@@A 000000018004ade8     libucrt:signal.obj
 0003:00002df0       ?term_action@@3V?$dual_state_global@P6AXH@Z@__crt_state_management@@A 000000018004adf0     libucrt:signal.obj
 0003:00002e00       ?__acrt_lock_table@@3PAU_RTL_CRITICAL_SECTION@@A 000000018004ae00     libucrt:locks.obj
 0003:00003030       ?__acrt_locks_initialized@@3IA 000000018004b030     libucrt:locks.obj
 0003:00003038       ?__acrt_new_handler@@3V?$dual_state_global@P6AH_K@Z@__crt_state_management@@A 000000018004b038     libucrt:new_handler.obj
 0003:00003040       ?c_termination_complete@@3JA 000000018004b040     libucrt:exit.obj
 0003:00003048       ?thread_local_exit_callback_func@@3P6AXPEAXK0@ZEA 000000018004b048     libucrt:exit.obj
 0003:00003060       ?program_name@?1???$common_configure_argv@D@@YAHW4_crt_argv_mode@@@Z@4PADA 000000018004b060     libucrt:argv_parsing.obj
 0003:000031b8       ?internal_state@?1??_mbtowc_l@@9@4U_Mbstatet@@A 000000018004b1b8     libucrt:mbtowc.obj
 0003:000031c0       ?enable_percent_n@@3_KA    000000018004b1c0     libucrt:printf_count_output.obj
 0003:00003600       ?module_handles@@3PAPEAUHINSTANCE__@@A 000000018004b600     libucrt:winapi_thunks.obj
 0003:000036a0       ?encoded_function_pointers@@3PAPEAXA 000000018004b6a0     libucrt:winapi_thunks.obj
 0003:000037b0       ?static_enum_proc@?1??enum_system_locales_ex_nolock@@YAHQ6AHPEA_WK_J@Z@Z@4P6AH0K1@ZEA 000000018004b7b0     libucrt:winapi_thunks.obj
 0003:000037b8       ?__acrt_app_type@@3W4_crt_app_type@@A 000000018004b7b8     libucrt:report_runtime_error.obj
 0003:000037e0       ?_tzname@@3V?$dual_state_global@PEAPEAD@__crt_state_management@@A 000000018004b7e0     libucrt:timeset.obj
 0003:000037e8       ?w_tzname@@3V?$dual_state_global@PEAPEA_W@__crt_state_management@@A 000000018004b7e8     libucrt:timeset.obj
 0003:000037f0       ?tz_api_used@@3HA          000000018004b7f0     libucrt:tzset.obj
 0003:000037f4       ?tzset_init_state@@3V?$dual_state_global@J@__crt_state_management@@A 000000018004b7f4     libucrt:tzset.obj
 0003:00003800       ?tz_info@@3U_TIME_ZONE_INFORMATION@@A 000000018004b800     libucrt:tzset.obj
 0003:000038c8       ?fSystemSet@@3HA           000000018004b8c8     libucrt:mbctype.obj
 0003:000038cc       ?initialized@?1??__acrt_initialize_multibyte@@9@4_NA 000000018004b8cc     libucrt:mbctype.obj
 0003:00003908       ?user_matherr@@3V?$dual_state_global@P6AHPEAU_exception@@@Z@__crt_state_management@@A 000000018004b908     libucrt:matherr.obj
 0003:00003910       ?__acrt_global_new_mode@@3V?$dual_state_global@J@__crt_state_management@@A 000000018004b910     libucrt:new_mode.obj
 0003:00003918       ?internal_pst@?1??__mbrtoc32_utf8@__crt_mbstring@@YA_KPEA_UPEBD_KPEAU_Mbstatet@@@Z@4U3@A 000000018004b918     libucrt:mbrtoc32.obj
 0003:00003920       ?internal_pst@?1??__c16rtomb_utf8@__crt_mbstring@@YA_KPEAD_SPEAU_Mbstatet@@@Z@4U3@A 000000018004b920     libucrt:c16rtomb.obj
 0003:00003948       ?GImAllocatorUserData@@3PEAXEA 000000018004b948     imgui.obj
 0003:00003978       ?g_pd3dDevice@@3PEAUID3D11Device@@EA 000000018004b978     imgui_impl_dx11.obj
 0003:00003980       ?g_hWnd@@3PEAUHWND__@@EA   000000018004b980     imgui_impl_win32.obj
 0003:00003ac0       ?singleton@@3V?$shared_ptr@VSixMansPlugin@@@std@@A 000000018004bac0     SixMansPlugin-Rework.obj
 0003:00003ae0       ?$S7@@3V?$winsock_init@$01$0A@@detail@asio@boost@@A 000000018004bae0     pch.obj
 0005:00000000       MoveSmall                  000000018004f000     libvcruntime:memcpy.obj
 0005:00000040       MoveSmallYmm               000000018004f040     libvcruntime:memcpy.obj
 0005:00000064       MoveSmallYmmNT             000000018004f064     libvcruntime:memcpy.obj
 0005:00000088       MoveSmallXmm               000000018004f088     libvcruntime:memcpy.obj
 0005:000000b0       SetSmall                   000000018004f0b0     libvcruntime:memset.obj
 0005:000000f0       SetSmallYmm                000000018004f0f0     libvcruntime:memset.obj
 0005:00000114       SetSmallYmmNT              000000018004f114     libvcruntime:memset.obj
 0005:00000138       SetSmallXmm                000000018004f138     libvcruntime:memset.obj
 0006:000000a0       $R000000                   00000001800500a0     SixMansPlugin-Rework.res
 0006:000003d8       $R000338                   00000001800503d8     SixMansPlugin-Rework.res
