 SixMansPlugin-Rework

 Timestamp is 62282132 (Tue Mar  8 22:38:26 2022)

 Preferred load address is 0000000180000000

 Start         Length     Name                   Class
 0001:00000000 00002ea0H .text$di                CODE
 0001:00002ea0 00019060H .text$mn                CODE
 0001:0001bf00 00000040H .text$mn$00             CODE
 0001:0001bf40 00001030H .text$x                 CODE
 0001:0001cf70 000005d8H .text$yd                CODE
 0002:00000000 00000278H .idata$5                DATA
 0002:00000278 00000038H .00cfg                  DATA
 0002:000002b0 00000008H .CRT$XCA                DATA
 0002:000002b8 00000018H .CRT$XCC                DATA
 0002:000002d0 00000010H .CRT$XCL                DATA
 0002:000002e0 000000d8H .CRT$XCU                DATA
 0002:000003b8 00000008H .CRT$XCZ                DATA
 0002:000003c0 00000008H .CRT$XIA                DATA
 0002:000003c8 00000040H .CRT$XIC                DATA
 0002:00000408 00000008H .CRT$XIZ                DATA
 0002:00000410 00000008H .CRT$XLA                DATA
 0002:00000418 00000008H .CRT$XLZ                DATA
 0002:00000420 00000008H .CRT$XPA                DATA
 0002:00000428 00000010H .CRT$XPX                DATA
 0002:00000438 00000008H .CRT$XPXA               DATA
 0002:00000440 00000008H .CRT$XPZ                DATA
 0002:00000448 00000008H .CRT$XTA                DATA
 0002:00000450 00000010H .CRT$XTZ                DATA
 0002:00000458 00000000H .gehcont$y              DATA
 0002:00000458 00000000H .gfids$y                DATA
 0002:00000460 000117a0H .rdata                  DATA
 0002:00011c00 00000000H .rdata$CastGuardVftablesA DATA
 0002:00011c00 00000000H .rdata$CastGuardVftablesC DATA
 0002:00011c00 00000030H .rdata$T                DATA
 0002:00011c30 0000099cH .rdata$r                DATA
 0002:000125cc 0000012cH .rdata$voltmd           DATA
 0002:000126f8 00000450H .rdata$zzzdbg           DATA
 0002:00012b48 00000008H .rtc$IAA                DATA
 0002:00012b50 00000008H .rtc$IZZ                DATA
 0002:00012b58 00000008H .rtc$TAA                DATA
 0002:00012b60 00000008H .rtc$TZZ                DATA
 0002:00012b68 00000004H .tls                    DATA
 0002:00012b6c 00000004H .tls$                   DATA
 0002:00012b70 00000008H .tls$ZZZ                DATA
 0002:00012b78 00002038H .xdata                  DATA
 0002:00014bb0 00000330H .xdata$x                DATA
 0002:00014ee0 000002ecH .edata                  DATA
 0002:000151cc 00000028H .idata$2                DATA
 0002:000151f4 00000014H .idata$3                DATA
 0002:00015208 00000278H .idata$4                DATA
 0002:00015480 000005a2H .idata$6                DATA
 0003:00000000 000028a0H .data                   DATA
 0003:000028a0 00000200H .data$r                 DATA
 0003:00002aa0 00000160H .data$rs                DATA
 0003:00002c00 00001d3cH .bss                    DATA
 0004:00000000 0000192cH .pdata                  DATA
 0005:00000000 0000015cH _RDATA                  DATA
 0006:00000000 000000a0H .rsrc$01                DATA
 0006:000000a0 000004b8H .rsrc$02                DATA

  Address         Publics by Value              Rva+Base               Lib:Object

 0000:00000000       ___safe_se_handler_count   0000000000000000     <absolute>
 0000:00000000       __hybrid_code_map          0000000000000000     <absolute>
 0000:00000000       __arm64x_extra_rfe_table   0000000000000000     <absolute>
 0000:00000000       __guard_fids_count         0000000000000000     <absolute>
 0000:00000000       __x64_code_ranges_to_entry_points 0000000000000000     <absolute>
 0000:00000000       __guard_longjmp_table      0000000000000000     <absolute>
 0000:00000000       ___safe_se_handler_table   0000000000000000     <absolute>
 0000:00000000       __x64_code_ranges_to_entry_points_count 0000000000000000     <absolute>
 0000:00000000       __guard_eh_cont_count      0000000000000000     <absolute>
 0000:00000000       __arm64x_redirection_metadata 0000000000000000     <absolute>
 0000:00000000       __arm64x_extra_rfe_table_size 0000000000000000     <absolute>
 0000:00000000       __guard_iat_table          0000000000000000     <absolute>
 0000:00000000       __guard_iat_count          0000000000000000     <absolute>
 0000:00000000       __guard_longjmp_count      0000000000000000     <absolute>
 0000:00000000       __dynamic_value_reloc_table 0000000000000000     <absolute>
 0000:00000000       __hybrid_auxiliary_iat     0000000000000000     <absolute>
 0000:00000000       __hybrid_auxiliary_iat_copy 0000000000000000     <absolute>
 0000:00000000       __AbsoluteZero             0000000000000000     <absolute>
 0000:00000000       __guard_check_icall_a64n_fptr 0000000000000000     <absolute>
 0000:00000000       __guard_fids_table         0000000000000000     <absolute>
 0000:00000000       __arm64x_redirection_metadata_count 0000000000000000     <absolute>
 0000:00000000       __enclave_config           0000000000000000     <absolute>
 0000:00000000       __guard_eh_cont_table      0000000000000000     <absolute>
 0000:00000000       __arm64x_native_entrypoint 0000000000000000     <absolute>
 0000:00000000       __hybrid_code_map_count    0000000000000000     <absolute>
 0000:00000100       __guard_flags              0000000000000100     <absolute>
 0000:00000000       __ImageBase                0000000180000000     <linker-defined>
 0001:00002ea0       ??$_Reallocate_grow_by@V<lambda_1>@?1??append@?$basic_string@DU?$char_traits@D@std@@V?$allocator@D@2@@std@@QEAAAEAV34@_KD@Z@_KD@?$basic_string@DU?$char_traits@D@std@@V?$allocator@D@2@@std@@AEAAAEAV01@_KV<lambda_1>@?1??append@01@QEAAAEAV01@0D@Z@_KD@Z 0000000180003ea0 f i format.obj
 0001:00003040       ??0runtime_error@std@@QEAA@AEBV01@@Z 0000000180004040 f i format.obj
 0001:00003080       ?_Xlen_string@std@@YAXXZ   0000000180004080 f i format.obj
 0001:000030a0       ?assign@?$basic_string@DU?$char_traits@D@std@@V?$allocator@D@2@@std@@QEAAAEAV12@QEBD_K@Z 00000001800040a0 f i format.obj
 0001:00003200       ??_Elogic_error@std@@UEAAPEAXI@Z 0000000180004200 f i * CIL library *:* CIL module *
 0001:00003200       ??_Elength_error@std@@UEAAPEAXI@Z 0000000180004200 f i * CIL library *:* CIL module *
 0001:00003200       ??_Gexception@std@@UEAAPEAXI@Z 0000000180004200 f i format.obj
 0001:00003200       ??_Gruntime_error@std@@UEAAPEAXI@Z 0000000180004200 f i format.obj
 0001:00003200       ??_Glogic_error@std@@UEAAPEAXI@Z 0000000180004200 f i server.obj
 0001:00003200       ??_Ebad_alloc@std@@UEAAPEAXI@Z 0000000180004200 f i * CIL library *:* CIL module *
 0001:00003200       ??_Gbad_array_new_length@std@@UEAAPEAXI@Z 0000000180004200 f i format.obj
 0001:00003200       ??_Eruntime_error@std@@UEAAPEAXI@Z 0000000180004200 f i * CIL library *:* CIL module *
 0001:00003200       ??_Glength_error@std@@UEAAPEAXI@Z 0000000180004200 f i server.obj
 0001:00003200       ??_Eexception@std@@UEAAPEAXI@Z 0000000180004200 f i * CIL library *:* CIL module *
 0001:00003200       ??_Ebad_array_new_length@std@@UEAAPEAXI@Z 0000000180004200 f i * CIL library *:* CIL module *
 0001:00003200       ??_Gbad_alloc@std@@UEAAPEAXI@Z 0000000180004200 f i format.obj
 0001:00003250       ??0runtime_error@std@@QEAA@AEBV?$basic_string@DU?$char_traits@D@std@@V?$allocator@D@2@@1@@Z 0000000180004250 f i format.obj
 0001:000032c0       ??1?$basic_string@DU?$char_traits@D@std@@V?$allocator@D@2@@std@@QEAA@XZ 00000001800042c0 f i format.obj
 0001:00003320       ??0bad_array_new_length@std@@QEAA@XZ 0000000180004320 f i format.obj
 0001:00003350       ??1bad_alloc@std@@UEAA@XZ  0000000180004350 f i format.obj
 0001:00003350       ??1length_error@std@@UEAA@XZ 0000000180004350 f i server.obj
 0001:00003350       ??1exception@std@@UEAA@XZ  0000000180004350 f i format.obj
 0001:00003350       ??1system_error@system@boost@@UEAA@XZ 0000000180004350 f i privatematch_wrapper.obj
 0001:00003350       ??1bad_array_new_length@std@@UEAA@XZ 0000000180004350 f i format.obj
 0001:00003370       ??0bad_array_new_length@std@@QEAA@AEBV01@@Z 0000000180004370 f i format.obj
 0001:000033b0       ??0bad_alloc@std@@QEAA@AEBV01@@Z 00000001800043b0 f i format.obj
 0001:000033f0       ?what@exception@std@@UEBAPEBDXZ 00000001800043f0 f i format.obj
 0001:00003410       ??0exception@std@@QEAA@AEBV01@@Z 0000000180004410 f i format.obj
 0001:00003450       ?_Throw_bad_array_new_length@std@@YAXXZ 0000000180004450 f i format.obj
 0001:00003450       ?__scrt_throw_std_bad_array_new_length@@YAXXZ 0000000180004450 f i LIBCMT:throw_bad_alloc.obj
 0001:00003470       __local_stdio_printf_options 0000000180004470 f i format.obj
 0001:00003490       ??3@YAXPEAX@Z              0000000180004490 f   LIBCMT:delete_scalar.obj
 0001:000034a0       __local_stdio_scanf_options 00000001800044a0 f i imgui.obj
 0001:000034b0       sprintf                    00000001800044b0 f i imgui_demo.obj
 0001:00003510       ??$_Reallocate_grow_by@V<lambda_1>@?1??append@?$basic_string@DU?$char_traits@D@std@@V?$allocator@D@2@@std@@QEAAAEAV34@QEBD_K@Z@PEBD_K@?$basic_string@DU?$char_traits@D@std@@V?$allocator@D@2@@std@@AEAAAEAV01@_KV<lambda_1>@?1??append@01@QEAAAEAV01@QEBD0@Z@PEBD_K@Z 0000000180004510 f i imgui_rangeslider.obj
 0001:000036a0       ?append@?$basic_string@DU?$char_traits@D@std@@V?$allocator@D@2@@std@@QEAAAEAV12@QEBD_K@Z 00000001800046a0 f i imgui_rangeslider.obj
 0001:00003730       ??$_Reallocate_grow_by@V<lambda_1>@?1??push_back@?$basic_string@DU?$char_traits@D@std@@V?$allocator@D@2@@std@@QEAAXD@Z@D@?$basic_string@DU?$char_traits@D@std@@V?$allocator@D@2@@std@@AEAAAEAV01@_KV<lambda_1>@?1??push_back@01@QEAAXD@Z@D@Z 0000000180004730 f i logsys.obj
 0001:000038a0       ?to_string@error_code@system@boost@@QEBA?AV?$basic_string@DU?$char_traits@D@std@@V?$allocator@D@2@@std@@XZ 00000001800048a0 f i privatematch_wrapper.obj
 0001:00003a90       ?to_string@source_location@boost@@QEBA?AV?$basic_string@DU?$char_traits@D@std@@V?$allocator@D@2@@std@@XZ 0000000180004a90 f i privatematch_wrapper.obj
 0001:00003c40       ?what@error_code@system@boost@@QEBA?AV?$basic_string@DU?$char_traits@D@std@@V?$allocator@D@2@@std@@XZ 0000000180004c40 f i privatematch_wrapper.obj
 0001:00003df0       ??0system_error@system@boost@@QEAA@AEBVerror_code@12@PEBD@Z 0000000180004df0 f i privatematch_wrapper.obj
 0001:00003f50       ??0?$wrapexcept@Vsystem_error@system@boost@@@boost@@QEAA@AEBVsystem_error@system@1@@Z 0000000180004f50 f i privatematch_wrapper.obj
 0001:00003ff0       ??1?$wrapexcept@Vsystem_error@system@boost@@@boost@@UEAA@XZ 0000000180004ff0 f i privatematch_wrapper.obj
 0001:00004050       ??_E?$wrapexcept@Vsystem_error@system@boost@@@boost@@UEAAPEAXI@Z 0000000180005050 f i * CIL library *:* CIL module *
 0001:00004050       ??_G?$wrapexcept@Vsystem_error@system@boost@@@boost@@UEAAPEAXI@Z 0000000180005050 f i privatematch_wrapper.obj
 0001:000040d0       ??1deleter@?$wrapexcept@Vsystem_error@system@boost@@@boost@@QEAA@XZ 00000001800050d0 f i privatematch_wrapper.obj
 0001:000040f0       ?clone@?$wrapexcept@Vsystem_error@system@boost@@@boost@@UEBAPEBVclone_base@exception_detail@2@XZ 00000001800050f0 f i privatematch_wrapper.obj
 0001:00004150       ?rethrow@?$wrapexcept@Vsystem_error@system@boost@@@boost@@UEBAXXZ 0000000180005150 f i privatematch_wrapper.obj
 0001:00004178       ??_E?$wrapexcept@Vsystem_error@system@boost@@@boost@@W7EAAPEAXI@Z 0000000180005178 f i privatematch_wrapper.obj
 0001:00004184       ??_E?$wrapexcept@Vsystem_error@system@boost@@@boost@@WDI@EAAPEAXI@Z 0000000180005184 f i privatematch_wrapper.obj
 0001:00004190       ??0?$wrapexcept@Vsystem_error@system@boost@@@boost@@QEAA@AEBU01@@Z 0000000180005190 f i privatematch_wrapper.obj
 0001:00004250       ??_Gsystem_error@system@boost@@UEAAPEAXI@Z 0000000180005250 f i privatematch_wrapper.obj
 0001:00004250       ??_Esystem_error@system@boost@@UEAAPEAXI@Z 0000000180005250 f i * CIL library *:* CIL module *
 0001:000042a0       ??0system_error@system@boost@@QEAA@AEBV012@@Z 00000001800052a0 f i privatematch_wrapper.obj
 0001:00004300       ??$throw_exception@Vsystem_error@system@boost@@@boost@@YAXAEBVsystem_error@system@0@@Z 0000000180005300 f i privatematch_wrapper.obj
 0001:00004330       ?do_throw_error@detail@asio@boost@@YAXAEBVerror_code@system@3@PEBD@Z 0000000180005330 f i privatematch_wrapper.obj
 0001:00004360       ?_Get_deleter@_Ref_count_base@std@@UEBAPEAXAEBVtype_info@@@Z 0000000180005360 f i privatematch_wrapper.obj
 0001:00004370       ??1clone_base@exception_detail@boost@@UEAA@XZ 0000000180005370 f i privatematch_wrapper.obj
 0001:00004380       ?copy_boost_exception@exception_detail@boost@@YAXPEAVexception@2@PEBV32@@Z 0000000180005380 f i privatematch_wrapper.obj
 0001:00004450       ??_Eclone_base@exception_detail@boost@@UEAAPEAXI@Z 0000000180005450 f i * CIL library *:* CIL module *
 0001:00004450       ??_Gclone_base@exception_detail@boost@@UEAAPEAXI@Z 0000000180005450 f i privatematch_wrapper.obj
 0001:00004480       ??0clone_base@exception_detail@boost@@QEAA@AEBV012@@Z 0000000180005480 f i privatematch_wrapper.obj
 0001:00004490       ??1?$refcount_ptr@Uerror_info_container@exception_detail@boost@@@exception_detail@boost@@QEAA@XZ 0000000180005490 f i privatematch_wrapper.obj
 0001:000044c0       ??0exception@boost@@QEAA@AEBV01@@Z 00000001800054c0 f i privatematch_wrapper.obj
 0001:00004520       ?win_tss_ptr_create@detail@asio@boost@@YAKXZ 0000000180005520 f i privatematch_wrapper.obj
 0001:000045f0       ?name@system_error_category@detail@system@boost@@UEBAPEBDXZ 00000001800055f0 f i privatematch_wrapper.obj
 0001:00004600       ?system_category_condition_win32@detail@system@boost@@YAHH@Z 0000000180005600 f i privatematch_wrapper.obj
 0001:000049d0       ?default_error_condition@system_error_category@detail@system@boost@@UEBA?AVerror_condition@34@H@Z 00000001800059d0 f i privatematch_wrapper.obj
 0001:00004a10       ?equivalent@error_category@system@boost@@UEBA_NAEBVerror_code@23@H@Z 0000000180005a10 f i privatematch_wrapper.obj
 0001:00004ab0       ?equivalent@error_category@system@boost@@UEBA_NHAEBVerror_condition@23@@Z 0000000180005ab0 f i privatematch_wrapper.obj
 0001:00004b50       ?message@system_error_category@detail@system@boost@@UEBAPEBDHPEAD_K@Z 0000000180005b50 f i privatematch_wrapper.obj
 0001:00004c10       ??1local_free@detail@system@boost@@QEAA@XZ 0000000180005c10 f i privatematch_wrapper.obj
 0001:00004c20       ?assign@?$basic_string@DU?$char_traits@D@std@@V?$allocator@D@2@@std@@QEAAAEAV12@_KD@Z 0000000180005c20 f i privatematch_wrapper.obj
 0001:00004d90       ?snprintf@detail@system@boost@@YAXPEAD_KPEBDZZ 0000000180005d90 f i privatematch_wrapper.obj
 0001:00004df0       ?unknown_message_win32@detail@system@boost@@YA?AV?$basic_string@DU?$char_traits@D@std@@V?$allocator@D@2@@std@@H@Z 0000000180005df0 f i privatematch_wrapper.obj
 0001:00004e90       ?system_category_message_win32@detail@system@boost@@YA?AV?$basic_string@DU?$char_traits@D@std@@V?$allocator@D@2@@std@@H@Z 0000000180005e90 f i privatematch_wrapper.obj
 0001:00005130       ?message@system_error_category@detail@system@boost@@UEBA?AV?$basic_string@DU?$char_traits@D@std@@V?$allocator@D@2@@std@@H@Z 0000000180006130 f i privatematch_wrapper.obj
 0001:00005150       ?failed@error_category@system@boost@@UEBA_NH@Z 0000000180006150 f i privatematch_wrapper.obj
 0001:00005160       ??0length_error@std@@QEAA@PEBD@Z 0000000180006160 f i server.obj
 0001:000051d0       ??0length_error@std@@QEAA@AEBV01@@Z 00000001800061d0 f i server.obj
 0001:00005210       ??0logic_error@std@@QEAA@AEBV01@@Z 0000000180006210 f i server.obj
 0001:00005250       getPlugin                  0000000180006250 f   SixMansPlugin-Rework.obj
 0001:00005320       deleteMe                   0000000180006320 f   SixMansPlugin-Rework.obj
 0001:00005390       ?onLoad@SixMansPlugin@@EEAAXXZ 0000000180006390 f   SixMansPlugin-Rework.obj
 0001:00005430       ?onUnload@BakkesModPlugin@Plugin@BakkesMod@@UEAAXXZ 0000000180006430 f   SixMansPlugin-Rework.obj
 0001:00005430       ?onUnload@SixMansPlugin@@EEAAXXZ 0000000180006430 f   SixMansPlugin-Rework.obj
 0001:00005430       _guard_check_icall_nop     0000000180006430 f   LIBCMT:guard_support.obj
 0001:00005430       ?onLoad@BakkesModPlugin@Plugin@BakkesMod@@UEAAXXZ 0000000180006430 f   SixMansPlugin-Rework.obj
 0001:00005440       ?_Delete_this@?$_Ref_count@VSixMansPlugin@@@std@@EEAAXXZ 0000000180006440 f i SixMansPlugin-Rework.obj
 0001:00005460       ?_Destroy@?$_Ref_count@VSixMansPlugin@@@std@@EEAAXXZ 0000000180006460 f i SixMansPlugin-Rework.obj
 0001:00005490       ??_E?$_Ref_count@VSixMansPlugin@@@std@@UEAAPEAXI@Z 0000000180006490 f i * CIL library *:* CIL module *
 0001:00005490       ??_G?$_Ref_count@VSixMansPlugin@@@std@@UEAAPEAXI@Z 0000000180006490 f i SixMansPlugin-Rework.obj
 0001:000054c0       ??4?$shared_ptr@VCVarManagerWrapper@@@std@@QEAAAEAV01@AEBV01@@Z 00000001800064c0 f i SixMansPlugin-Rework.obj
 0001:00005550       ??1BakkesModPlugin@Plugin@BakkesMod@@QEAA@XZ 0000000180006550 f i SixMansPlugin-Rework.obj
 0001:000055e0       ??0BakkesModPlugin@Plugin@BakkesMod@@QEAA@XZ 00000001800065e0 f i SixMansPlugin-Rework.obj
 0001:00005600       ??0BakkesModPlugin@Plugin@BakkesMod@@QEAA@AEBV012@@Z 0000000180006600 f i pch.obj
 0001:00005660       ??0BakkesModPlugin@Plugin@BakkesMod@@QEAA@$$QEAV012@@Z 0000000180006660 f i pch.obj
 0001:000056c0       ??4BakkesModPlugin@Plugin@BakkesMod@@QEAAAEAV012@AEBV012@@Z 00000001800066c0 f i pch.obj
 0001:00005760       ??4BakkesModPlugin@Plugin@BakkesMod@@QEAAAEAV012@$$QEAV012@@Z 0000000180006760 f i pch.obj
 0001:00005840       ?__autoclassinit2@BakkesModPlugin@Plugin@BakkesMod@@QEAAX_K@Z 0000000180006840 f i pch.obj
 0001:0000584c       ??0bad_alloc@std@@QEAA@XZ  000000018000684c f i libcpmt:xthrow.obj
 0001:0000586c       ?_Xlength_error@std@@YAXPEBD@Z 000000018000686c f   libcpmt:xthrow.obj
 0001:00005890       ??0_Init_locks@std@@QEAA@XZ 0000000180006890 f   libcpmt:xlock.obj
 0001:000058d4       ??1_Init_locks@std@@QEAA@XZ 00000001800068d4 f   libcpmt:xlock.obj
 0001:00005910       ??0bad_exception@std@@QEAA@AEBV01@@Z 0000000180006910 f i libcpmt:excptptr.obj
 0001:00005954       ??0bad_exception@std@@QEAA@XZ 0000000180006954 f i libcpmt:excptptr.obj
 0001:00005984       ??1bad_exception@std@@UEAA@XZ 0000000180006984 f i libcpmt:excptptr.obj
 0001:000059a8       ??_Ebad_exception@std@@UEAAPEAXI@Z 00000001800069a8 f i libcpmt:excptptr.obj
 0001:000059a8       ??_Gbad_exception@std@@UEAAPEAXI@Z 00000001800069a8 f i libcpmt:excptptr.obj
 0001:000059f0       ?_CallMemberFunction0@@YAXQEAX0@Z 00000001800069f0 f i libcpmt:excptptr.obj
 0001:000059f4       ?_CallMemberFunction1@@YAXQEAX00@Z 00000001800069f4 f i libcpmt:excptptr.obj
 0001:00005a00       ?_CallMemberFunction2@@YAXQEAX00H@Z 0000000180006a00 f i libcpmt:excptptr.obj
 0001:00005a10       _Mtxdst                    0000000180006a10 f   libcpmt:xmtx.obj
 0001:00005a18       _Mtxinit                   0000000180006a18 f   libcpmt:xmtx.obj
 0001:00005df0       __security_check_cookie    0000000180006df0 f   LIBCMT:amdsecgs.obj
 0001:00005e10       ??3@YAXPEAX_K@Z            0000000180006e10 f   LIBCMT:delete_scalar_size.obj
 0001:00005e18       ??2@YAPEAX_K@Z             0000000180006e18 f   LIBCMT:new_scalar.obj
 0001:00005e54       ??_Etype_info@@UEAAPEAXI@Z 0000000180006e54 f i LIBCMT:std_type_info_static.obj
 0001:00005e54       ??_Gtype_info@@UEAAPEAXI@Z 0000000180006e54 f i LIBCMT:std_type_info_static.obj
 0001:00005e80       ??_M@YAXPEAX_K1P6AX0@Z@Z   0000000180006e80 f   LIBCMT:ehvecdtr.obj
 0001:00005eec       ?__ArrayUnwind@@YAXPEAX_K1P6AX0@Z@Z 0000000180006eec f   LIBCMT:ehvecdtr.obj
 0001:00006048       __scrt_acquire_startup_lock 0000000180007048 f   LIBCMT:utility.obj
 0001:00006084       __scrt_dllmain_after_initialize_c 0000000180007084 f   LIBCMT:utility.obj
 0001:000060b8       __scrt_dllmain_before_initialize_c 00000001800070b8 f   LIBCMT:utility.obj
 0001:000060d0       __scrt_dllmain_crt_thread_attach 00000001800070d0 f   LIBCMT:utility.obj
 0001:000060f8       __scrt_dllmain_crt_thread_detach 00000001800070f8 f   LIBCMT:utility.obj
 0001:00006110       __scrt_dllmain_exception_filter 0000000180007110 f   LIBCMT:utility.obj
 0001:00006170       __scrt_dllmain_uninitialize_c 0000000180007170 f   LIBCMT:utility.obj
 0001:000061a0       __scrt_dllmain_uninitialize_critical 00000001800071a0 f   LIBCMT:utility.obj
 0001:000061b4       __scrt_initialize_crt      00000001800071b4 f   LIBCMT:utility.obj
 0001:00006200       __scrt_initialize_onexit_tables 0000000180007200 f   LIBCMT:utility.obj
 0001:0000628c       __scrt_is_nonwritable_in_current_image 000000018000728c f   LIBCMT:utility.obj
 0001:00006324       __scrt_release_startup_lock 0000000180007324 f   LIBCMT:utility.obj
 0001:00006348       __scrt_uninitialize_crt    0000000180007348 f   LIBCMT:utility.obj
 0001:00006374       _onexit                    0000000180007374 f   LIBCMT:utility.obj
 0001:000063b0       atexit                     00000001800073b0 f   LIBCMT:utility.obj
 0001:000063c8       __raise_securityfailure    00000001800073c8 f   LIBCMT:gs_report.obj
 0001:000063fc       __report_gsfailure         00000001800073fc f   LIBCMT:gs_report.obj
 0001:000064d0       __report_rangecheckfailure 00000001800074d0 f   LIBCMT:gs_report.obj
 0001:000064e4       __report_securityfailure   00000001800074e4 f   LIBCMT:gs_report.obj
 0001:00006984       _DllMainCRTStartup         0000000180007984 f   LIBCMT:dll_dllmain.obj
 0001:000069c4       __GSHandlerCheck           00000001800079c4 f   LIBCMT:gshandler.obj
 0001:000069e4       __GSHandlerCheckCommon     00000001800079e4 f   LIBCMT:gshandler.obj
 0001:00006a40       __GSHandlerCheck_EH4       0000000180007a40 f   LIBCMT:gshandlereh4.obj
 0001:00006ad0       _alloca_probe              0000000180007ad0 f   LIBCMT:chkstk.obj
 0001:00006ad0       __chkstk                   0000000180007ad0 f   LIBCMT:chkstk.obj
 0001:00006b20       ?__scrt_throw_std_bad_alloc@@YAXXZ 0000000180007b20 f   LIBCMT:throw_bad_alloc.obj
 0001:00006b40       __crt_debugger_hook        0000000180007b40 f   LIBCMT:utility_desktop.obj
 0001:00006b48       __scrt_fastfail            0000000180007b48 f   LIBCMT:utility_desktop.obj
 0001:00006c94       __isa_available_init       0000000180007c94 f   LIBCMT:cpu_disp.obj
 0001:00006e40       DllMain                    0000000180007e40 f   LIBCMT:dll_dllmain_stub.obj
 0001:00006e40       _get_startup_argv_mode     0000000180007e40 f   LIBCMT:argv_mode.obj
 0001:00006e48       __scrt_is_ucrt_dll_in_use  0000000180007e48 f   LIBCMT:ucrt_detection.obj
 0001:00006e54       __security_init_cookie     0000000180007e54 f   LIBCMT:gs_support.obj
 0001:00006f00       ?__scrt_initialize_type_info@@YAXXZ 0000000180007f00 f   LIBCMT:tncleanup.obj
 0001:00006f10       ?__scrt_uninitialize_type_info@@YAXXZ 0000000180007f10 f   LIBCMT:tncleanup.obj
 0001:00006f1c       __scrt_initialize_default_local_stdio_options 0000000180007f1c f   LIBCMT:default_local_stdio_options.obj
 0001:00006f38       __scrt_get_dyn_tls_init_callback 0000000180007f38 f   LIBCMT:dyn_tls_init.obj
 0001:00006f40       _RTC_Initialize            0000000180007f40 f   LIBCMT:initsect.obj
 0001:00006f7c       _RTC_Terminate             0000000180007f7c f   LIBCMT:initsect.obj
 0001:00006fc0       ??$_CallSETranslator@V__FrameHandler4@@@@YAHPEAUEHExceptionRecord@@PEA_KPEAU_CONTEXT@@PEAU_xDISPATCHER_CONTEXT@@PEAUFuncInfo4@FH4@@K1H@Z 0000000180007fc0 f i libvcruntime:risctrnsctrl.obj
 0001:00007014       ?DecompFuncInfo@FH4@@YA_JPEAEAEAUFuncInfo4@1@_KH_N@Z 0000000180008014 f i libvcruntime:risctrnsctrl.obj
 0001:00007138       ?ExecutionInCatch@__FrameHandler4@@SA_NPEAU_xDISPATCHER_CONTEXT@@PEAUFuncInfo4@FH4@@@Z 0000000180008138 f   libvcruntime:risctrnsctrl.obj
 0001:00007140       ?FrameUnwindToEmptyState@__FrameHandler4@@SAXPEA_KPEAU_xDISPATCHER_CONTEXT@@PEAUFuncInfo4@FH4@@@Z 0000000180008140 f   libvcruntime:risctrnsctrl.obj
 0001:00007174       ?GetEstablisherFrame@__FrameHandler4@@SAPEA_KPEA_KPEAU_xDISPATCHER_CONTEXT@@PEAUFuncInfo4@FH4@@0@Z 0000000180008174 f   libvcruntime:risctrnsctrl.obj
 0001:00007198       ?GetRangeOfTrysToCheck@__FrameHandler4@@SA?AU?$pair@Viterator@TryBlockMap4@FH4@@V123@@std@@AEAVTryBlockMap4@FH4@@HPEAU_xDISPATCHER_CONTEXT@@PEAUFuncInfo4@5@H@Z 0000000180008198 f   libvcruntime:risctrnsctrl.obj
 0001:00007304       ?UnwindNestedFrames@__FrameHandler4@@SAXPEA_KPEAUEHExceptionRecord@@PEAU_CONTEXT@@0PEAXPEAUFuncInfo4@FH4@@HHPEAUHandlerType4@5@PEAU_xDISPATCHER_CONTEXT@@E@Z 0000000180008304 f   libvcruntime:risctrnsctrl.obj
 0001:00007424       ?setBuffer@TryBlockMap4@FH4@@QEAAXViterator@12@@Z 0000000180008424 f i libvcruntime:risctrnsctrl.obj
 0001:000075e8       _CreateFrameInfo           00000001800085e8 f   libvcruntime:risctrnsctrl.obj
 0001:00007624       _FindAndUnlinkFrame        0000000180008624 f   libvcruntime:risctrnsctrl.obj
 0001:00007678       _GetImageBase              0000000180008678 f   libvcruntime:risctrnsctrl.obj
 0001:0000768c       _GetThrowImageBase         000000018000868c f   libvcruntime:risctrnsctrl.obj
 0001:000076a0       _SetImageBase              00000001800086a0 f   libvcruntime:risctrnsctrl.obj
 0001:000076b8       _SetThrowImageBase         00000001800086b8 f   libvcruntime:risctrnsctrl.obj
 0001:000076d0       __CxxFrameHandler4         00000001800086d0 f   libvcruntime:risctrnsctrl.obj
 0001:00007790       __DestructExceptionObject  0000000180008790 f   libvcruntime:ehhelpers.obj
 0001:00007800       _IsExceptionObjectToBeDestroyed 0000000180008800 f   libvcruntime:ehhelpers.obj
 0001:00007830       __AdjustPointer            0000000180008830 f   libvcruntime:ehhelpers.obj
 0001:00007854       __FrameUnwindFilter        0000000180008854 f   libvcruntime:ehhelpers.obj
 0001:000078bc       __current_exception        00000001800088bc f   libvcruntime:ehhelpers.obj
 0001:000078d0       __current_exception_context 00000001800088d0 f   libvcruntime:ehhelpers.obj
 0001:000078e4       __std_terminate            00000001800088e4 f   libvcruntime:ehhelpers.obj
 0001:000078f0       __std_exception_copy       00000001800088f0 f   libvcruntime:std_exception.obj
 0001:00007980       __std_exception_destroy    0000000180008980 f   libvcruntime:std_exception.obj
 0001:000079a8       _get_purecall_handler      00000001800089a8 f   libvcruntime:purevirt.obj
 0001:000079b4       _purecall                  00000001800089b4 f   libvcruntime:purevirt.obj
 0001:000079d0       __C_specific_handler       00000001800089d0 f   libvcruntime:riscchandler.obj
 0001:00007bc8       __std_type_info_compare    0000000180008bc8 f   libvcruntime:std_type_info.obj
 0001:00007bf0       __std_type_info_destroy_list 0000000180008bf0 f   libvcruntime:std_type_info.obj
 0001:00007c1c       _CxxThrowException         0000000180008c1c f   libvcruntime:throw.obj
 0001:00007cd0       memcpy_repmovs             0000000180008cd0 f   libvcruntime:memcpy.obj
 0001:00007cf0       memcpy                     0000000180008cf0 f   libvcruntime:memcpy.obj
 0001:00007cf0       memmove                    0000000180008cf0 f   libvcruntime:memcpy.obj
 0001:00008380       memset_repstos             0000000180009380 f   libvcruntime:memset.obj
 0001:000083a0       memset                     00000001800093a0 f   libvcruntime:memset.obj
 0001:00008740       memcmp                     0000000180009740 f   libvcruntime:memcmp.obj
 0001:00008820       memchr                     0000000180009820 f   libvcruntime:memchr.obj
 0001:00008890       __vcrt_initialize          0000000180009890 f   libvcruntime:initialization.obj
 0001:000088b8       __vcrt_thread_attach       00000001800098b8 f   libvcruntime:initialization.obj
 0001:000088cc       __vcrt_thread_detach       00000001800098cc f   libvcruntime:initialization.obj
 0001:000088e0       __vcrt_uninitialize        00000001800098e0 f   libvcruntime:initialization.obj
 0001:000088fc       __vcrt_uninitialize_critical 00000001800098fc f   libvcruntime:initialization.obj
 0001:0000890c       __vcrt_freefls             000000018000990c f   libvcruntime:per_thread_data.obj
 0001:0000892c       __vcrt_freeptd             000000018000992c f   libvcruntime:per_thread_data.obj
 0001:0000897c       __vcrt_getptd              000000018000997c f   libvcruntime:per_thread_data.obj
 0001:00008998       __vcrt_getptd_noexit       0000000180009998 f   libvcruntime:per_thread_data.obj
 0001:00008a58       __vcrt_initialize_ptd      0000000180009a58 f   libvcruntime:per_thread_data.obj
 0001:00008aa0       __vcrt_uninitialize_ptd    0000000180009aa0 f   libvcruntime:per_thread_data.obj
 0001:00008ac4       ?StateFromControlPc@__FrameHandler4@@SAHPEAUFuncInfo4@FH4@@PEAU_xDISPATCHER_CONTEXT@@@Z 0000000180009ac4 f   libvcruntime:ehstate.obj
 0001:00008acc       ?StateFromIp@__FrameHandler4@@SAHPEAUFuncInfo4@FH4@@PEAU_xDISPATCHER_CONTEXT@@_K@Z 0000000180009acc f   libvcruntime:ehstate.obj
 0001:00009744       ??$TypeMatchHelper@V__FrameHandler3@@@@YAHPEBU_s_HandlerType@@PEBU_s_CatchableType@@PEBU_s_ThrowInfo@@@Z 000000018000a744 f i libvcruntime:frame.obj
 0001:00009884       ??$TypeMatchHelper@V__FrameHandler4@@@@YAHPEAUHandlerType4@FH4@@PEBU_s_CatchableType@@PEBU_s_ThrowInfo@@@Z 000000018000a884 f i libvcruntime:frame.obj
 0001:000099c8       ??$__InternalCxxFrameHandler@V__FrameHandler4@@@@YA?AW4_EXCEPTION_DISPOSITION@@PEAUEHExceptionRecord@@PEA_KPEAU_CONTEXT@@PEAU_xDISPATCHER_CONTEXT@@PEAUFuncInfo4@FH4@@H1E@Z 000000018000a9c8 f i libvcruntime:frame.obj
 0001:00009c5c       ??0HandlerMap4@FH4@@QEAA@PEBUTryBlockMapEntry4@1@_KH@Z 000000018000ac5c f i libvcruntime:frame.obj
 0001:00009cd8       ??0TryBlockMap4@FH4@@QEAA@PEBUFuncInfo4@1@_K@Z 000000018000acd8 f i libvcruntime:frame.obj
 0001:00009db0       ?CxxCallCatchBlock@__FrameHandler4@@SAPEAXPEAU_EXCEPTION_RECORD@@@Z 000000018000adb0 f   libvcruntime:frame.obj
 0001:0000a000       ?DecompHandler@HandlerMap4@FH4@@AEAAXXZ 000000018000b000 f i libvcruntime:frame.obj
 0001:0000a24c       ?FrameUnwindToState@__FrameHandler4@@SAXPEA_KPEAU_xDISPATCHER_CONTEXT@@PEAUFuncInfo4@FH4@@H@Z 000000018000b24c f   libvcruntime:frame.obj
 0001:0000a6c0       ?ReadEntry@UWMap4@FH4@@AEAAXPEAPEAE@Z 000000018000b6c0 f i libvcruntime:frame.obj
 0001:0000a75c       ?getStartStop@UWMap4@FH4@@QEAAXHHAEAViterator@12@0@Z 000000018000b75c f i libvcruntime:frame.obj
 0001:0000a82c       ?getStateFromIterators@UWMap4@FH4@@SAHAEBViterator@12@H0H0@Z 000000018000b82c f i libvcruntime:frame.obj
 0001:0000a910       _NLG_Notify                000000018000b910 f   libvcruntime:notify.obj
 0001:0000a930       __NLG_Dispatch2            000000018000b930 f   libvcruntime:notify.obj
 0001:0000a940       __NLG_Return2              000000018000b940 f   libvcruntime:notify.obj
 0001:0000a944       __except_validate_context_record 000000018000b944 f   libvcruntime:jbcxrval.obj
 0001:0000a97c       __vcrt_initialize_locks    000000018000b97c f   libvcruntime:locks.obj
 0001:0000a9c4       __vcrt_uninitialize_locks  000000018000b9c4 f   libvcruntime:locks.obj
 0001:0000ab4c       __vcrt_FlsAlloc            000000018000bb4c f   libvcruntime:winapi_downlevel.obj
 0001:0000ab94       __vcrt_FlsFree             000000018000bb94 f   libvcruntime:winapi_downlevel.obj
 0001:0000abdc       __vcrt_FlsGetValue         000000018000bbdc f   libvcruntime:winapi_downlevel.obj
 0001:0000ac24       __vcrt_FlsSetValue         000000018000bc24 f   libvcruntime:winapi_downlevel.obj
 0001:0000ac78       __vcrt_InitializeCriticalSectionEx 000000018000bc78 f   libvcruntime:winapi_downlevel.obj
 0001:0000acf0       _CallSettingFrame          000000018000bcf0 f   libvcruntime:handlers.obj
 0001:0000ad40       _CallSettingFrame_LookupContinuationIndex 000000018000bd40 f   libvcruntime:handlers.obj
 0001:0000ad70       _CallSettingFrame_NotifyContinuationAddr 000000018000bd70 f   libvcruntime:handlers.obj
 0001:0000ada0       _CallSettingFrameEncoded   000000018000bda0 f   libvcruntime:handlers.obj
 0001:0000afb4       ??$ensure_buffer_is_big_enough@D@formatting_buffer@__crt_stdio_output@@QEAA_N_K@Z 000000018000bfb4 f i libucrt:output.obj
 0001:0000b05c       ??$type_case_integer_parse_into_buffer@I@?$output_processor@DV?$string_output_adapter@D@__crt_stdio_output@@V?$standard_base@DV?$string_output_adapter@D@__crt_stdio_output@@@2@@__crt_stdio_output@@AEAAXII_N@Z 000000018000c05c f i libucrt:output.obj
 0001:0000b0e4       ??$type_case_integer_parse_into_buffer@_K@?$output_processor@DV?$string_output_adapter@D@__crt_stdio_output@@V?$standard_base@DV?$string_output_adapter@D@__crt_stdio_output@@@2@@__crt_stdio_output@@AEAAX_KI_N@Z 000000018000c0e4 f i libucrt:output.obj
 0001:0000b174       ??$write_multiple_characters@V?$string_output_adapter@D@__crt_stdio_output@@D@__crt_stdio_output@@YAXAEBV?$string_output_adapter@D@0@DHQEAH@Z 000000018000c174 f i libucrt:output.obj
 0001:0000b1ec       ??0_LocaleUpdate@@QEAA@QEAU__crt_locale_pointers@@@Z 000000018000c1ec f i libucrt:output.obj
 0001:0000b290       ?crop_zeroes@__crt_stdio_output@@YAXPEADQEAU__crt_locale_pointers@@@Z 000000018000c290 f i libucrt:output.obj
 0001:0000b330       ?force_decimal_point@__crt_stdio_output@@YAXPEADQEAU__crt_locale_pointers@@@Z 000000018000c330 f i libucrt:output.obj
 0001:0000b3a8       ?parse_int_from_format_string@?$output_processor@DV?$string_output_adapter@D@__crt_stdio_output@@V?$standard_base@DV?$string_output_adapter@D@__crt_stdio_output@@@2@@__crt_stdio_output@@AEAA_NQEAH@Z 000000018000c3a8 f i libucrt:output.obj
 0001:0000b44c       ?process@?$output_processor@DV?$string_output_adapter@D@__crt_stdio_output@@V?$standard_base@DV?$string_output_adapter@D@__crt_stdio_output@@@2@@__crt_stdio_output@@QEAAHXZ 000000018000c44c f i libucrt:output.obj
 0001:0000b654       ?state_case_normal@?$output_processor@DV?$string_output_adapter@D@__crt_stdio_output@@V?$standard_base@DV?$string_output_adapter@D@__crt_stdio_output@@@2@@__crt_stdio_output@@AEAA_NXZ 000000018000c654 f i libucrt:output.obj
 0001:0000b6c8       ?state_case_normal_tchar@?$output_processor@DV?$string_output_adapter@D@__crt_stdio_output@@V?$standard_base@DV?$string_output_adapter@D@__crt_stdio_output@@@2@@__crt_stdio_output@@AEAA_ND@Z 000000018000c6c8 f i libucrt:output.obj
 0001:0000b770       ?state_case_size@?$output_processor@DV?$string_output_adapter@D@__crt_stdio_output@@V?$standard_base@DV?$string_output_adapter@D@__crt_stdio_output@@@2@@__crt_stdio_output@@AEAA_NXZ 000000018000c770 f i libucrt:output.obj
 0001:0000b8e0       ?state_case_type@?$output_processor@DV?$string_output_adapter@D@__crt_stdio_output@@V?$standard_base@DV?$string_output_adapter@D@__crt_stdio_output@@@2@@__crt_stdio_output@@AEAA_NXZ 000000018000c8e0 f i libucrt:output.obj
 0001:0000bb50       ?to_integer_size@__crt_stdio_output@@YA_KW4length_modifier@1@@Z 000000018000cb50 f i libucrt:output.obj
 0001:0000bbb8       ?type_case_Z@?$output_processor@DV?$string_output_adapter@D@__crt_stdio_output@@V?$standard_base@DV?$string_output_adapter@D@__crt_stdio_output@@@2@@__crt_stdio_output@@AEAA_NXZ 000000018000cbb8 f i libucrt:output.obj
 0001:0000bc2c       ?type_case_a@?$output_processor@DV?$string_output_adapter@D@__crt_stdio_output@@V?$standard_base@DV?$string_output_adapter@D@__crt_stdio_output@@@2@@__crt_stdio_output@@AEAA_NXZ 000000018000cc2c f i libucrt:output.obj
 0001:0000bde8       ?type_case_c_tchar@?$output_processor@DV?$string_output_adapter@D@__crt_stdio_output@@V?$standard_base@DV?$string_output_adapter@D@__crt_stdio_output@@@2@@__crt_stdio_output@@AEAA_ND@Z 000000018000cde8 f i libucrt:output.obj
 0001:0000beb0       ?type_case_integer@?$output_processor@DV?$string_output_adapter@D@__crt_stdio_output@@V?$standard_base@DV?$string_output_adapter@D@__crt_stdio_output@@@2@@__crt_stdio_output@@AEAA_NI_N@Z 000000018000ceb0 f i libucrt:output.obj
 0001:0000c030       ?type_case_n@?$output_processor@DV?$string_output_adapter@D@__crt_stdio_output@@V?$standard_base@DV?$string_output_adapter@D@__crt_stdio_output@@@2@@__crt_stdio_output@@AEAA_NXZ 000000018000d030 f i libucrt:output.obj
 0001:0000c0b8       ?type_case_s@?$output_processor@DV?$string_output_adapter@D@__crt_stdio_output@@V?$standard_base@DV?$string_output_adapter@D@__crt_stdio_output@@@2@@__crt_stdio_output@@AEAA_NXZ 000000018000d0b8 f i libucrt:output.obj
 0001:0000c150       ?write_stored_string_tchar@?$output_processor@DV?$string_output_adapter@D@__crt_stdio_output@@V?$standard_base@DV?$string_output_adapter@D@__crt_stdio_output@@@2@@__crt_stdio_output@@AEAA_ND@Z 000000018000d150 f i libucrt:output.obj
 0001:0000c22c       ?write_string@?$string_output_adapter@D@__crt_stdio_output@@QEBAXQEBDHQEAHAEAV__crt_deferred_errno_cache@@@Z 000000018000d22c f i libucrt:output.obj
 0001:0000c2d0       __stdio_common_vsprintf    000000018000d2d0 f   libucrt:output.obj
 0001:0000c2d8       __acrt_initialize_stdio    000000018000d2d8 f   libucrt:_file.obj
 0001:0000c3f8       __acrt_uninitialize_stdio  000000018000d3f8 f   libucrt:_file.obj
 0001:0000c454       _lock_file                 000000018000d454 f   libucrt:_file.obj
 0001:0000c460       _unlock_file               000000018000d460 f   libucrt:_file.obj
 0001:0000c46c       terminate                  000000018000d46c f   libucrt:terminate.obj
 0001:0000c48c       __acrt_errno_from_os_error 000000018000d48c f   libucrt:errno.obj
 0001:0000c4d4       __acrt_errno_map_os_error  000000018000d4d4 f   libucrt:errno.obj
 0001:0000c524       __doserrno                 000000018000d524 f   libucrt:errno.obj
 0001:0000c544       _errno                     000000018000d544 f   libucrt:errno.obj
 0001:0000c564       __acrt_call_reportfault    000000018000d564 f   libucrt:invalid_parameter.obj
 0001:0000c6c0       __acrt_initialize_invalid_parameter_handler 000000018000d6c0 f   libucrt:invalid_parameter.obj
 0001:0000c6c8       _invalid_parameter         000000018000d6c8 f   libucrt:invalid_parameter.obj
 0001:0000c778       _invalid_parameter_noinfo  000000018000d778 f   libucrt:invalid_parameter.obj
 0001:0000c798       _invalid_parameter_noinfo_noreturn 000000018000d798 f   libucrt:invalid_parameter.obj
 0001:0000c7c8       _invoke_watson             000000018000d7c8 f   libucrt:invalid_parameter.obj
 0001:0000c810       _fileno                    000000018000d810 f   libucrt:fileno.obj
 0001:0000c838       _isatty                    000000018000d838 f   libucrt:isatty.obj
 0001:0000c898       __acrt_lowio_create_handle_array 000000018000d898 f   libucrt:osfinfo.obj
 0001:0000c940       __acrt_lowio_destroy_handle_array 000000018000d940 f   libucrt:osfinfo.obj
 0001:0000c990       __acrt_lowio_ensure_fh_exists 000000018000d990 f   libucrt:osfinfo.obj
 0001:0000ca38       __acrt_lowio_lock_fh       000000018000da38 f   libucrt:osfinfo.obj
 0001:0000ca60       __acrt_lowio_unlock_fh     000000018000da60 f   libucrt:osfinfo.obj
 0001:0000ca88       _free_osfhnd               000000018000da88 f   libucrt:osfinfo.obj
 0001:0000cb44       _get_osfhandle             000000018000db44 f   libucrt:osfinfo.obj
 0001:0000cbbc       free                       000000018000dbbc f   libucrt:free.obj
 0001:0000cbd0       calloc                     000000018000dbd0 f   libucrt:calloc.obj
 0001:0000cbd8       _fclose_nolock             000000018000dbd8 f   libucrt:fclose.obj
 0001:0000cc5c       fclose                     000000018000dc5c f   libucrt:fclose.obj
 0001:0000ccc0       ??$__acrt_mbs_to_wcs_cp@U__crt_win32_buffer_internal_dynamic_resizing@@@@YAHQEBDAEAV?$__crt_win32_buffer@_WU__crt_win32_buffer_internal_dynamic_resizing@@@@I@Z 000000018000dcc0 f i libucrt:open.obj
 0001:0000ceac       _close                     000000018000deac f   libucrt:close.obj
 0001:0000cf50       _close_nolock              000000018000df50 f   libucrt:close.obj
 0001:0000d88c       _write                     000000018000e88c f   libucrt:write.obj
 0001:0000d978       _write_nolock              000000018000e978 f   libucrt:write.obj
 0001:0000dc5c       malloc                     000000018000ec5c f   libucrt:malloc.obj
 0001:0000dc80       strncpy                    000000018000ec80 f   libucrt:strncpy.obj
 0001:0000ddf0       qsort                      000000018000edf0 f   libucrt:qsort.obj
 0001:0000e36c       __acrt_stdio_flush_nolock  000000018000f36c f   libucrt:fflush.obj
 0001:0000e3e8       _fflush_nolock             000000018000f3e8 f   libucrt:fflush.obj
 0001:0000e434       _flushall                  000000018000f434 f   libucrt:fflush.obj
 0001:0000e440       ?divide@__crt_strtox@@YA_KAEAUbig_integer@1@AEBU21@@Z 000000018000f440 f i libucrt:input.obj
 0001:0000e86c       _ischartype_l              000000018000f86c f i libucrt:input.obj
 0001:0000e980       strncmp                    000000018000f980 f   libucrt:strncmp.obj
 0001:0000ea00       ??$parse_integer@KV?$c_string_character_source@D@__crt_strtox@@@__crt_strtox@@YAKQEAU__crt_locale_pointers@@V?$c_string_character_source@D@0@H_N@Z 000000018000fa00 f i libucrt:strtox.obj
 0001:0000ed04       strtol                     000000018000fd04 f   libucrt:strtox.obj
 0001:0000ed30       __acrt_initialize_clock    000000018000fd30 f   libucrt:clock.obj
 0001:0000edcc       __acrt_get_sigabrt_handler 000000018000fdcc f   libucrt:signal.obj
 0001:0000edfc       __acrt_initialize_signal_handlers 000000018000fdfc f   libucrt:signal.obj
 0001:0000ee1c       raise                      000000018000fe1c f   libucrt:signal.obj
 0001:0000f088       __acrt_initialize_locks    0000000180010088 f   libucrt:locks.obj
 0001:0000f0d0       __acrt_lock                00000001800100d0 f   libucrt:locks.obj
 0001:0000f0ec       __acrt_uninitialize_locks  00000001800100ec f   libucrt:locks.obj
 0001:0000f124       __acrt_unlock              0000000180010124 f   libucrt:locks.obj
 0001:0000f140       __pctype_func              0000000180010140 f   libucrt:ctype.obj
 0001:0000f170       abort                      0000000180010170 f   libucrt:abort.obj
 0001:0000f1d0       pow                        00000001800101d0 f   libucrt:pow.obj
 0001:00010870       powf                       0000000180011870 f   libucrt:powf.obj
 0001:00011738       __strncnt                  0000000180012738 f   libucrt:strncnt.obj
 0001:00011750       ??$__acrt_wcs_to_mbs_cp@U__crt_win32_buffer_no_resizing@@@@YAHQEB_WAEAV?$__crt_win32_buffer@DU__crt_win32_buffer_no_resizing@@@@I@Z 0000000180012750 f i libucrt:strftime.obj
 0001:00011864       strnlen                    0000000180012864 f   libucrt:strnlen.obj
 0001:000119b4       wcsnlen                    00000001800129b4 f   libucrt:strnlen.obj
 0001:00011b8c       __acrt_initialize_new_handler 0000000180012b8c f   libucrt:new_handler.obj
 0001:00011b94       _callnewh                  0000000180012b94 f   libucrt:new_handler.obj
 0001:00011bc4       _query_new_handler         0000000180012bc4 f   libucrt:new_handler.obj
 0001:00011bf8       _seh_filter_dll            0000000180012bf8 f   libucrt:exception_filter.obj
 0001:00011c0c       _seh_filter_exe            0000000180012c0c f   libucrt:exception_filter.obj
 0001:00011ffc       __acrt_initialize_thread_local_exit_callback 0000000180012ffc f   libucrt:exit.obj
 0001:00012004       _cexit                     0000000180013004 f   libucrt:exit.obj
 0001:00012014       _exit                      0000000180013014 f   libucrt:exit.obj
 0001:00012020       _is_c_termination_complete 0000000180013020 f   libucrt:exit.obj
 0001:000121e8       __acrt_allocate_buffer_for_argv 00000001800131e8 f   libucrt:argv_parsing.obj
 0001:00012248       _configure_narrow_argv     0000000180013248 f   libucrt:argv_parsing.obj
 0001:000125c0       __dcrt_uninitialize_environments_nolock 00000001800135c0 f   libucrt:environment_initialization.obj
 0001:000125f8       _initialize_narrow_environment 00000001800135f8 f   libucrt:environment_initialization.obj
 0001:00012940       _crt_atexit                0000000180013940 f   libucrt:onexit.obj
 0001:00012950       _execute_onexit_table      0000000180013950 f   libucrt:onexit.obj
 0001:0001298c       _initialize_onexit_table   000000018001398c f   libucrt:onexit.obj
 0001:000129b4       _register_onexit_function  00000001800139b4 f   libucrt:onexit.obj
 0001:00012a34       __acrt_uninitialize_command_line 0000000180013a34 f   libucrt:argv_data.obj
 0001:00012b2c       __acrt_initialize          0000000180013b2c f   libucrt:initialization.obj
 0001:00012b40       __acrt_thread_attach       0000000180013b40 f   libucrt:initialization.obj
 0001:00012b54       __acrt_thread_detach       0000000180013b54 f   libucrt:initialization.obj
 0001:00012b64       __acrt_uninitialize        0000000180013b64 f   libucrt:initialization.obj
 0001:00012b9c       __acrt_uninitialize_critical 0000000180013b9c f   libucrt:initialization.obj
 0001:00012bac       _initterm                  0000000180013bac f   libucrt:initterm.obj
 0001:00012c10       _initterm_e                0000000180013c10 f   libucrt:initterm.obj
 0001:00012c50       strcpy_s                   0000000180013c50 f   libucrt:strcpy_s.obj
 0001:00012cb0       wcsncmp                    0000000180013cb0 f   libucrt:wcsncmp.obj
 0001:00012cdc       _free_base                 0000000180013cdc f   libucrt:free_base.obj
 0001:00012d1c       _malloc_base               0000000180013d1c f   libucrt:malloc_base.obj
 0001:00012d7c       _mbtowc_l                  0000000180013d7c f   libucrt:mbtowc.obj
 0001:00012efc       mbtowc                     0000000180013efc f   libucrt:mbtowc.obj
 0001:00012f04       _wctomb_s_l                0000000180013f04 f   libucrt:wctomb.obj
 0001:00013418       __acrt_freeptd             0000000180014418 f   libucrt:per_thread_data.obj
 0001:0001345c       __acrt_getptd              000000018001445c f   libucrt:per_thread_data.obj
 0001:00013530       __acrt_getptd_head         0000000180014530 f   libucrt:per_thread_data.obj
 0001:000135d8       __acrt_getptd_noexit       00000001800145d8 f   libucrt:per_thread_data.obj
 0001:000136a4       __acrt_initialize_ptd      00000001800146a4 f   libucrt:per_thread_data.obj
 0001:000136e0       __acrt_uninitialize_ptd    00000001800146e0 f   libucrt:per_thread_data.obj
 0001:00013704       __acrt_update_locale_info  0000000180014704 f   libucrt:locale_update.obj
 0001:00013738       __acrt_update_multibyte_info 0000000180014738 f   libucrt:locale_update.obj
 0001:00014178       __acrt_fp_format           0000000180015178 f   libucrt:cvt.obj
 0001:000144b0       _get_printf_count_output   00000001800154b0 f   libucrt:printf_count_output.obj
 0001:00014538       __acrt_set_locale_changed  0000000180015538 f   libucrt:wsetlocale.obj
 0001:00014544       __acrt_uninitialize_locale 0000000180015544 f   libucrt:wsetlocale.obj
 0001:00014770       __acrt_initialize_lowio    0000000180015770 f   libucrt:ioinit.obj
 0001:000147ac       __acrt_uninitialize_lowio  00000001800157ac f   libucrt:ioinit.obj
 0001:000147ec       _calloc_base               00000001800157ec f   libucrt:calloc_base.obj
 0001:00014a3c       __acrt_AppPolicyGetProcessTerminationMethodInternal 0000000180015a3c f   libucrt:winapi_thunks.obj
 0001:00014a8c       __acrt_AreFileApisANSI     0000000180015a8c f   libucrt:winapi_thunks.obj
 0001:00014ac8       __acrt_FlsAlloc            0000000180015ac8 f   libucrt:winapi_thunks.obj
 0001:00014b10       __acrt_FlsFree             0000000180015b10 f   libucrt:winapi_thunks.obj
 0001:00014b58       __acrt_FlsGetValue         0000000180015b58 f   libucrt:winapi_thunks.obj
 0001:00014ba0       __acrt_FlsSetValue         0000000180015ba0 f   libucrt:winapi_thunks.obj
 0001:00014bf4       __acrt_InitializeCriticalSectionEx 0000000180015bf4 f   libucrt:winapi_thunks.obj
 0001:00014c58       __acrt_LCMapStringEx       0000000180015c58 f   libucrt:winapi_thunks.obj
 0001:00014d34       __acrt_LocaleNameToLCID    0000000180015d34 f   libucrt:winapi_thunks.obj
 0001:00014d84       __acrt_initialize_winapi_thunks 0000000180015d84 f   libucrt:winapi_thunks.obj
 0001:00014db8       __acrt_uninitialize_winapi_thunks 0000000180015db8 f   libucrt:winapi_thunks.obj
 0001:00014dfc       _fcloseall                 0000000180015dfc f   libucrt:closeall.obj
 0001:00014eb0       __acrt_stdio_free_buffer_nolock 0000000180015eb0 f   libucrt:_freebuf.obj
 0001:00014ef0       strncpy_s                  0000000180015ef0 f   libucrt:strncpy_s.obj
 0001:00014fc4       _query_app_type            0000000180015fc4 f   libucrt:report_runtime_error.obj
 0001:00014fcc       ?__acrt_stdio_free_stream@@YAXV__crt_stdio_stream@@@Z 0000000180015fcc f   libucrt:stream.obj
 0001:00014fe8       __acrt_MultiByteToWideChar 0000000180015fe8 f   libucrt:multibytetowidechar.obj
 0001:000150e0       _lseeki64_nolock           00000001800160e0 f   libucrt:lseek.obj
 0001:000150e8       __acrt_WideCharToMultiByte 00000001800160e8 f   libucrt:widechartomultibyte.obj
 0001:00015198       ?__mbrtowc_utf8@__crt_mbstring@@YA_KPEA_WPEBD_KPEAU_Mbstatet@@@Z 0000000180016198 f   libucrt:mbrtowc.obj
 0001:000151d4       ?__mbsrtowcs_utf8@__crt_mbstring@@YA_KPEA_WPEAPEBD_KPEAU_Mbstatet@@@Z 00000001800161d4 f   libucrt:mbrtowc.obj
 0001:0001534c       _putwch_nolock             000000018001634c f   libucrt:putwch.obj
 0001:00015388       __ascii_wcsnicmp           0000000180016388 f   libucrt:wcsnicmp.obj
 0001:000153d4       _isleadbyte_l              00000001800163d4 f i libucrt:_wctype.obj
 0001:00015738       __acrt_LCMapStringA        0000000180016738 f   libucrt:lcmapstringa.obj
 0001:0001585c       _commit                    000000018001685c f   libucrt:commit.obj
 0001:000158f0       _isctype_l                 00000001800168f0 f   libucrt:isctype.obj
 0001:000159f8       fegetround                 00000001800169f8 f   libucrt:fegetround.obj
 0001:00015a0c       _raise_exc                 0000000180016a0c f   libucrt:fpexcept.obj
 0001:00015a34       _raise_exc_ex              0000000180016a34 f   libucrt:fpexcept.obj
 0001:00015d44       _raise_excf                0000000180016d44 f   libucrt:fpexcept.obj
 0001:00015d70       _set_errno_from_matherr    0000000180016d70 f   libucrt:fpexcept.obj
 0001:00015da0       _clrfp                     0000000180016da0 f   libucrt:fpctrl.obj
 0001:00015dc0       _ctrlfp                    0000000180016dc0 f   libucrt:fpctrl.obj
 0001:00015e3c       _set_statfp                0000000180016e3c f   libucrt:fpctrl.obj
 0001:00015e5c       _statfp                    0000000180016e5c f   libucrt:fpctrl.obj
 0001:00015e70       __acrt_get_process_end_policy 0000000180016e70 f   libucrt:win_policies.obj
 0001:00015eac       _realloc_base              0000000180016eac f   libucrt:realloc_base.obj
 0001:00015f28       __acrt_GetStringTypeA      0000000180016f28 f   libucrt:getstringtypea.obj
 0001:000160c0       __acrt_initialize_fma3     00000001800170c0 f   libucrt:fma3_available.obj
 0001:00016130       _pow_special               0000000180017130 f   libucrt:pow_special.obj
 0001:00016254       _powf_special              0000000180017254 f   libucrt:pow_special.obj
 0001:000163e0       __acrt_initialize_timeset  00000001800173e0 f   libucrt:timeset.obj
 0001:00016444       ??$__acrt_wcs_to_mbs_cp@U__crt_win32_buffer_internal_dynamic_resizing@@@@YAHQEB_WAEAV?$__crt_win32_buffer@DU__crt_win32_buffer_internal_dynamic_resizing@@@@I@Z 0000000180017444 f i libucrt:argv_wildcards.obj
 0001:00016c74       __acrt_expand_narrow_argv_wildcards 0000000180017c74 f   libucrt:argv_wildcards.obj
 0001:00016c7c       __acrt_GetModuleFileNameA  0000000180017c7c f   libucrt:getmodulefilenamea.obj
 0001:000174c4       __acrt_initialize_multibyte 00000001800184c4 f   libucrt:mbctype.obj
 0001:00017524       __acrt_update_thread_multibyte_data 0000000180018524 f   libucrt:mbctype.obj
 0001:00017540       _setmbcp_nolock            0000000180018540 f   libucrt:mbctype.obj
 0001:00017874       _ismbblead                 0000000180018874 f   libucrt:ismbbyte.obj
 0001:00017888       __acrt_initialize_command_line 0000000180018888 f   libucrt:argv_data.obj
 0001:000178b0       __dcrt_get_narrow_environment_from_os 00000001800188b0 f   libucrt:get_environment_from_os.obj
 0001:000179b4       _recalloc_base             00000001800189b4 f   libucrt:recalloc.obj
 0001:00017a4c       __acrt_initialize_heap     0000000180018a4c f   libucrt:heap_handle.obj
 0001:00017a68       __acrt_uninitialize_heap   0000000180018a68 f   libucrt:heap_handle.obj
 0001:00017a74       __acrt_execute_initializers 0000000180018a74 f   libucrt:shared_initialization.obj
 0001:00017af4       __acrt_execute_uninitializers 0000000180018af4 f   libucrt:shared_initialization.obj
 0001:00017b30       __acrt_has_user_matherr    0000000180018b30 f   libucrt:matherr.obj
 0001:00017b50       __acrt_initialize_user_matherr 0000000180018b50 f   libucrt:matherr.obj
 0001:00017b58       __acrt_invoke_user_matherr 0000000180018b58 f   libucrt:matherr.obj
 0001:00017b88       _query_new_mode            0000000180018b88 f   libucrt:new_mode.obj
 0001:00017b90       ?__c32rtomb_utf8@__crt_mbstring@@YA_KPEAD_UPEAU_Mbstatet@@@Z 0000000180018b90 f   libucrt:c32rtomb.obj
 0001:00017c44       __acrt_add_locale_ref      0000000180018c44 f   libucrt:locale_refcounting.obj
 0001:00017cd0       __acrt_free_locale         0000000180018cd0 f   libucrt:locale_refcounting.obj
 0001:00017e48       __acrt_locale_add_lc_time_reference 0000000180018e48 f   libucrt:locale_refcounting.obj
 0001:00017e70       __acrt_locale_free_lc_time_if_unreferenced 0000000180018e70 f   libucrt:locale_refcounting.obj
 0001:00017ea8       __acrt_locale_release_lc_time_reference 0000000180018ea8 f   libucrt:locale_refcounting.obj
 0001:00017ed0       __acrt_release_locale_ref  0000000180018ed0 f   libucrt:locale_refcounting.obj
 0001:00017f78       __acrt_update_thread_locale_data 0000000180018f78 f   libucrt:locale_refcounting.obj
 0001:00017fe8       _updatetlocinfoEx_nolock   0000000180018fe8 f   libucrt:locale_refcounting.obj
 0001:00018050       __acrt_fp_strflt_to_string 0000000180019050 f   libucrt:_fptostr.obj
 0001:000181ac       __acrt_fltout              00000001800191ac f   libucrt:cfout.obj
 0001:000193f0       __acrt_locale_free_monetary 000000018001a3f0 f   libucrt:initmon.obj
 0001:000194fc       __acrt_locale_free_numeric 000000018001a4fc f   libucrt:initnum.obj
 0001:000195c0       __acrt_locale_free_time    000000018001a5c0 f   libucrt:inittime.obj
 0001:000196c8       __acrt_DownlevelLocaleNameToLCID 000000018001a6c8 f   libucrt:lcidtoname_downlevel.obj
 0001:00019778       __acrt_fenv_get_common_round_control 000000018001a778 f   libucrt:_fenvutils.obj
 0001:00019784       __acrt_fenv_get_control    000000018001a784 f   libucrt:_fenvutils.obj
 0001:00019878       __acrt_fenv_get_status     000000018001a878 f   libucrt:_fenvutils.obj
 0001:000198cc       __acrt_fenv_set_control    000000018001a8cc f   libucrt:_fenvutils.obj
 0001:00019a14       __acrt_fenv_set_status     000000018001aa14 f   libucrt:_fenvutils.obj
 0001:00019a98       __acrt_initialize_fmode    000000018001aa98 f   libucrt:txtmode.obj
 0001:00019ab4       ?__mbrtoc32_utf8@__crt_mbstring@@YA_KPEA_UPEBD_KPEAU_Mbstatet@@@Z 000000018001aab4 f   libucrt:mbrtoc32.obj
 0001:00019c8c       __dcrt_lowio_ensure_console_output_initialized 000000018001ac8c f   libucrt:initcon.obj
 0001:00019ce0       __dcrt_terminate_console_output 000000018001ace0 f   libucrt:initcon.obj
 0001:00019cfc       __dcrt_write_console       000000018001acfc f   libucrt:initcon.obj
 0001:00019dd0       _get_fpsr                  000000018001add0 f   libucrt:fpsr.obj
 0001:00019de0       _set_fpsr                  000000018001ade0 f   libucrt:fpsr.obj
 0001:00019dea       _fclrf                     000000018001adea f   libucrt:fpsr.obj
 0001:00019dfe       _frnd                      000000018001adfe f   libucrt:fpsr.obj
 0001:00019f44       _handle_error              000000018001af44 f   libucrt:libm_error.obj
 0001:0001a06c       _handle_errorf             000000018001b06c f   libucrt:libm_error.obj
 0001:0001a1a0       _handle_nan                000000018001b1a0 f   libucrt:libm_error.obj
 0001:0001a1bc       _handle_nanf               000000018001b1bc f   libucrt:libm_error.obj
 0001:0001a270       strpbrk                    000000018001b270 f   libucrt:strpbrk.obj
 0001:0001a638       _mbsdec                    000000018001b638 f   libucrt:mbsdec.obj
 0001:0001a640       _mbsdec_l                  000000018001b640 f   libucrt:mbsdec.obj
 0001:0001a6ec       _msize_base                000000018001b6ec f   libucrt:msize.obj
 0001:0001a728       _controlfp_s               000000018001b728 f   libucrt:contrlfp.obj
 0001:0001a78c       fegetenv                   000000018001b78c f   libucrt:fegetenv.obj
 0001:0001a7ac       fesetenv                   000000018001b7ac f   libucrt:fesetenv.obj
 0001:0001a7f8       feholdexcept               000000018001b7f8 f   libucrt:feholdexcept.obj
 0001:0001a848       ceil                       000000018001b848 f   libucrt:ceil.obj
 0001:0001a910       log10                      000000018001b910 f   libucrt:log10.obj
 0001:0001aebc       _clearfp                   000000018001bebc f   libucrt:ieee.obj
 0001:0001af2c       _control87                 000000018001bf2c f   libucrt:ieee.obj
 0001:0001b200       _log10_special             000000018001c200 f   libucrt:log_special.obj
 0001:0001b2c0       _FindPESection             000000018001c2c0 f   LIBCMT:pesect.obj
 0001:0001b310       _IsNonwritableInCurrentImage 000000018001c310 f   LIBCMT:pesect.obj
 0001:0001b360       _ValidateImageBase         000000018001c360 f   LIBCMT:pesect.obj
 0001:0001b38c       __GSHandlerCheck_SEH       000000018001c38c f   LIBCMT:gshandlerseh.obj
 0001:0001b414       strrchr                    000000018001c414 f   libvcruntime:strrchr.obj
 0001:0001b550       sinf                       000000018001c550 f   libucrt:sinf.obj
 0001:0001bc60       strcmp                     000000018001cc60 f   libucrt:strcmp.obj
 0001:0001bcd0       __remainder_piby2d2f_forC  000000018001ccd0 f   libucrt:remainder_piby2f_forc.obj
 0001:0001bee8       _sinf_special              000000018001cee8 f   libucrt:sincos_special.obj
 0001:0001bf10       _guard_dispatch_icall_nop  000000018001cf10 f   LIBCMT:guard_dispatch.obj
 0001:0001bf30       _guard_xfg_dispatch_icall_nop 000000018001cf30 f   LIBCMT:guard_xfg_dispatch.obj
 0002:00000000       __imp_GetEnvironmentStringsW 000000018001f000     kernel32:KERNEL32.dll
 0002:00000008       __imp_GetCommandLineW      000000018001f008     kernel32:KERNEL32.dll
 0002:00000010       __imp_GetCommandLineA      000000018001f010     kernel32:KERNEL32.dll
 0002:00000018       __imp_GetOEMCP             000000018001f018     kernel32:KERNEL32.dll
 0002:00000020       __imp_GetACP               000000018001f020     kernel32:KERNEL32.dll
 0002:00000028       __imp_IsValidCodePage      000000018001f028     kernel32:KERNEL32.dll
 0002:00000030       __imp_WriteConsoleW        000000018001f030     kernel32:KERNEL32.dll
 0002:00000038       __imp_WideCharToMultiByte  000000018001f038     kernel32:KERNEL32.dll
 0002:00000040       __imp_GetLastError         000000018001f040     kernel32:KERNEL32.dll
 0002:00000048       __imp_FormatMessageW       000000018001f048     kernel32:KERNEL32.dll
 0002:00000050       __imp_QueryPerformanceFrequency 000000018001f050     kernel32:KERNEL32.dll
 0002:00000058       __imp_QueryPerformanceCounter 000000018001f058     kernel32:KERNEL32.dll
 0002:00000060       __imp_LocalFree            000000018001f060     kernel32:KERNEL32.dll
 0002:00000068       __imp_FormatMessageA       000000018001f068     kernel32:KERNEL32.dll
 0002:00000070       __imp_TlsFree              000000018001f070     kernel32:KERNEL32.dll
 0002:00000078       __imp_TlsAlloc             000000018001f078     kernel32:KERNEL32.dll
 0002:00000080       __imp_LeaveCriticalSection 000000018001f080     kernel32:KERNEL32.dll
 0002:00000088       __imp_EnterCriticalSection 000000018001f088     kernel32:KERNEL32.dll
 0002:00000090       __imp_TlsGetValue          000000018001f090     kernel32:KERNEL32.dll
 0002:00000098       __imp_GetProcAddress       000000018001f098     kernel32:KERNEL32.dll
 0002:000000a0       __imp_CloseHandle          000000018001f0a0     kernel32:KERNEL32.dll
 0002:000000a8       __imp_CreateEventW         000000018001f0a8     kernel32:KERNEL32.dll
 0002:000000b0       __imp_SetLastError         000000018001f0b0     kernel32:KERNEL32.dll
 0002:000000b8       __imp_TlsSetValue          000000018001f0b8     kernel32:KERNEL32.dll
 0002:000000c0       __imp_DeleteCriticalSection 000000018001f0c0     kernel32:KERNEL32.dll
 0002:000000c8       __imp_InitializeCriticalSectionAndSpinCount 000000018001f0c8     kernel32:KERNEL32.dll
 0002:000000d0       __imp_FreeEnvironmentStringsW 000000018001f0d0     kernel32:KERNEL32.dll
 0002:000000d8       __imp_MultiByteToWideChar  000000018001f0d8     kernel32:KERNEL32.dll
 0002:000000e0       __imp_HeapReAlloc          000000018001f0e0     kernel32:KERNEL32.dll
 0002:000000e8       __imp_FlushFileBuffers     000000018001f0e8     kernel32:KERNEL32.dll
 0002:000000f0       __imp_LCMapStringW         000000018001f0f0     kernel32:KERNEL32.dll
 0002:000000f8       __imp_GetStdHandle         000000018001f0f8     kernel32:KERNEL32.dll
 0002:00000100       __imp_HeapAlloc            000000018001f100     kernel32:KERNEL32.dll
 0002:00000108       __imp_HeapFree             000000018001f108     kernel32:KERNEL32.dll
 0002:00000110       __imp_GetModuleFileNameW   000000018001f110     kernel32:KERNEL32.dll
 0002:00000118       __imp_ExitProcess          000000018001f118     kernel32:KERNEL32.dll
 0002:00000120       __imp_GetModuleHandleExW   000000018001f120     kernel32:KERNEL32.dll
 0002:00000128       __imp_GetConsoleOutputCP   000000018001f128     kernel32:KERNEL32.dll
 0002:00000130       __imp_WriteFile            000000018001f130     kernel32:KERNEL32.dll
 0002:00000138       __imp_GetConsoleMode       000000018001f138     kernel32:KERNEL32.dll
 0002:00000140       __imp_GetFileType          000000018001f140     kernel32:KERNEL32.dll
 0002:00000148       __imp_SetStdHandle         000000018001f148     kernel32:KERNEL32.dll
 0002:00000150       __imp_LoadLibraryExW       000000018001f150     kernel32:KERNEL32.dll
 0002:00000158       __imp_FreeLibrary          000000018001f158     kernel32:KERNEL32.dll
 0002:00000160       __imp_InterlockedFlushSList 000000018001f160     kernel32:KERNEL32.dll
 0002:00000168       __imp_RtlUnwindEx          000000018001f168     kernel32:KERNEL32.dll
 0002:00000170       __imp_InitializeSListHead  000000018001f170     kernel32:KERNEL32.dll
 0002:00000178       __imp_GetCurrentProcessId  000000018001f178     kernel32:KERNEL32.dll
 0002:00000180       __imp_GetStartupInfoW      000000018001f180     kernel32:KERNEL32.dll
 0002:00000188       __imp_IsDebuggerPresent    000000018001f188     kernel32:KERNEL32.dll
 0002:00000190       __imp_IsProcessorFeaturePresent 000000018001f190     kernel32:KERNEL32.dll
 0002:00000198       __imp_TerminateProcess     000000018001f198     kernel32:KERNEL32.dll
 0002:000001a0       __imp_GetProcessHeap       000000018001f1a0     kernel32:KERNEL32.dll
 0002:000001a8       __imp_HeapSize             000000018001f1a8     kernel32:KERNEL32.dll
 0002:000001b0       __imp_CreateFileW          000000018001f1b0     kernel32:KERNEL32.dll
 0002:000001b8       __imp_FindClose            000000018001f1b8     kernel32:KERNEL32.dll
 0002:000001c0       __imp_FindFirstFileExW     000000018001f1c0     kernel32:KERNEL32.dll
 0002:000001c8       __imp_FindNextFileW        000000018001f1c8     kernel32:KERNEL32.dll
 0002:000001d0       __imp_SetFilePointerEx     000000018001f1d0     kernel32:KERNEL32.dll
 0002:000001d8       __imp_InitializeCriticalSectionEx 000000018001f1d8     kernel32:KERNEL32.dll
 0002:000001e0       __imp_GetCurrentThreadId   000000018001f1e0     kernel32:KERNEL32.dll
 0002:000001e8       __imp_RtlPcToFileHeader    000000018001f1e8     kernel32:KERNEL32.dll
 0002:000001f0       __imp_RaiseException       000000018001f1f0     kernel32:KERNEL32.dll
 0002:000001f8       __imp_EncodePointer        000000018001f1f8     kernel32:KERNEL32.dll
 0002:00000200       __imp_DecodePointer        000000018001f200     kernel32:KERNEL32.dll
 0002:00000208       __imp_GetSystemTimeAsFileTime 000000018001f208     kernel32:KERNEL32.dll
 0002:00000210       __imp_GetModuleHandleW     000000018001f210     kernel32:KERNEL32.dll
 0002:00000218       __imp_GetCPInfo            000000018001f218     kernel32:KERNEL32.dll
 0002:00000220       __imp_GetStringTypeW       000000018001f220     kernel32:KERNEL32.dll
 0002:00000228       __imp_RtlCaptureContext    000000018001f228     kernel32:KERNEL32.dll
 0002:00000230       __imp_RtlLookupFunctionEntry 000000018001f230     kernel32:KERNEL32.dll
 0002:00000238       __imp_RtlVirtualUnwind     000000018001f238     kernel32:KERNEL32.dll
 0002:00000240       __imp_UnhandledExceptionFilter 000000018001f240     kernel32:KERNEL32.dll
 0002:00000248       __imp_SetUnhandledExceptionFilter 000000018001f248     kernel32:KERNEL32.dll
 0002:00000250       __imp_GetCurrentProcess    000000018001f250     kernel32:KERNEL32.dll
 0002:00000258       \177KERNEL32_NULL_THUNK_DATA 000000018001f258     kernel32:KERNEL32.dll
 0002:00000260       __imp_WSACleanup           000000018001f260     ws2_32:WS2_32.dll
 0002:00000268       __imp_WSAStartup           000000018001f268     ws2_32:WS2_32.dll
 0002:00000270       \177WS2_32_NULL_THUNK_DATA 000000018001f270     ws2_32:WS2_32.dll
 0002:00000278       __guard_check_icall_fptr   000000018001f278     LIBCMT:guard_support.obj
 0002:00000280       __guard_xfg_check_icall_fptr 000000018001f280     LIBCMT:guard_support.obj
 0002:00000288       __guard_dispatch_icall_fptr 000000018001f288     LIBCMT:guard_support.obj
 0002:00000290       __guard_xfg_dispatch_icall_fptr 000000018001f290     LIBCMT:guard_support.obj
 0002:00000298       __guard_xfg_table_dispatch_icall_fptr 000000018001f298     LIBCMT:guard_support.obj
 0002:000002a0       __castguard_check_failure_os_handled_fptr 000000018001f2a0     LIBCMT:guard_support.obj
 0002:000002a8       __guard_memcpy_fptr        000000018001f2a8     libvcruntime:softmemtag.obj
 0002:000002b0       __xc_a                     000000018001f2b0     LIBCMT:initializers.obj
 0002:000003b8       __xc_z                     000000018001f3b8     LIBCMT:initializers.obj
 0002:000003c0       __xi_a                     000000018001f3c0     LIBCMT:initializers.obj
 0002:000003d8       __acrt_stdio_initializer   000000018001f3d8     libucrt:stdio_initializer.obj
 0002:000003e0       __acrt_clock_initializer   000000018001f3e0     libucrt:clock_initializer.obj
 0002:000003e8       __acrt_tran_fma3_initializer 000000018001f3e8     libucrt:fma3_initializer.obj
 0002:000003f0       __acrt_timeset_initializer 000000018001f3f0     libucrt:timeset_initializer.obj
 0002:000003f8       __acrt_multibyte_initializer 000000018001f3f8     libucrt:multibyte_initializer.obj
 0002:00000400       __acrt_fmode_initializer   000000018001f400     libucrt:fmode_initializer.obj
 0002:00000408       __xi_z                     000000018001f408     LIBCMT:initializers.obj
 0002:00000410       __xl_a                     000000018001f410     LIBCMT:tlssup.obj
 0002:00000418       __xl_z                     000000018001f418     LIBCMT:tlssup.obj
 0002:00000420       __xp_a                     000000018001f420     LIBCMT:initializers.obj
 0002:00000428       __acrt_locale_terminator   000000018001f428     libucrt:locale_initializer.obj
 0002:00000430       __dcrt_console_output_terminator 000000018001f430     libucrt:console_output_initializer.obj
 0002:00000438       __acrt_stdio_terminator    000000018001f438     libucrt:stdio_initializer.obj
 0002:00000440       __xp_z                     000000018001f440     LIBCMT:initializers.obj
 0002:00000448       __xt_a                     000000018001f448     LIBCMT:initializers.obj
 0002:00000450       __xt_z                     000000018001f450     LIBCMT:initializers.obj
 0002:00000468       ??_7exception@std@@6B@     000000018001f468     libcpmt:xthrow.obj
 0002:00000480       ??_7bad_alloc@std@@6B@     000000018001f480     libcpmt:xthrow.obj
 0002:00000490       ??_C@_0P@GHFPNOJB@bad?5allocation@ 000000018001f490     libcpmt:xthrow.obj
 0002:000004a8       ??_7logic_error@std@@6B@   000000018001f4a8     libcpmt:xthrow.obj
 0002:000004c0       ??_7length_error@std@@6B@  000000018001f4c0     libcpmt:xthrow.obj
 0002:000004d8       ??_7runtime_error@std@@6B@ 000000018001f4d8     libcpmt:xthrow.obj
 0002:000004e8       ?_BADOFF@std@@3_JB         000000018001f4e8     libcpmt:ios.obj
 0002:00000c50       ??_C@_0BN@LKKBCCDB@address?5family?5not?5supported@ 000000018001fc50     libcpmt:syserror.obj
 0002:00000c70       ??_C@_0P@LDMLAFHI@address?5in?5use@ 000000018001fc70     libcpmt:syserror.obj
 0002:00000c80       ??_C@_0BG@DHPCNBJB@address?5not?5available@ 000000018001fc80     libcpmt:syserror.obj
 0002:00000c98       ??_C@_0BC@DFIBIBIL@already?5connected@ 000000018001fc98     libcpmt:syserror.obj
 0002:00000cb0       ??_C@_0BH@CAKOHOMI@argument?5list?5too?5long@ 000000018001fcb0     libcpmt:syserror.obj
 0002:00000cc8       ??_C@_0BH@CGIMPKIM@argument?5out?5of?5domain@ 000000018001fcc8     libcpmt:syserror.obj
 0002:00000ce0       ??_C@_0M@KGHGGJGL@bad?5address@ 000000018001fce0     libcpmt:syserror.obj
 0002:00000cf0       ??_C@_0BE@MPJPGCEO@bad?5file?5descriptor@ 000000018001fcf0     libcpmt:syserror.obj
 0002:00000d08       ??_C@_0M@PMMIEFCP@bad?5message@ 000000018001fd08     libcpmt:syserror.obj
 0002:00000d18       ??_C@_0M@KPHOFDBE@broken?5pipe@ 000000018001fd18     libcpmt:syserror.obj
 0002:00000d28       ??_C@_0BD@MGNDDEGM@connection?5aborted@ 000000018001fd28     libcpmt:syserror.obj
 0002:00000d40       ??_C@_0BP@KAIHPOGN@connection?5already?5in?5progress@ 000000018001fd40     libcpmt:syserror.obj
 0002:00000d60       ??_C@_0BD@PJLIIJEL@connection?5refused@ 000000018001fd60     libcpmt:syserror.obj
 0002:00000d78       ??_C@_0BB@IECNJNOI@connection?5reset@ 000000018001fd78     libcpmt:syserror.obj
 0002:00000d90       ??_C@_0BC@PPHBOELF@cross?5device?5link@ 000000018001fd90     libcpmt:syserror.obj
 0002:00000da8       ??_C@_0BN@KDMIFEIP@destination?5address?5required@ 000000018001fda8     libcpmt:syserror.obj
 0002:00000dc8       ??_C@_0BI@NGCEHDD@device?5or?5resource?5busy@ 000000018001fdc8     libcpmt:syserror.obj
 0002:00000de0       ??_C@_0BE@JIDOCPHM@directory?5not?5empty@ 000000018001fde0     libcpmt:syserror.obj
 0002:00000df8       ??_C@_0BI@BNCLIGPB@executable?5format?5error@ 000000018001fdf8     libcpmt:syserror.obj
 0002:00000e10       ??_C@_0M@MIDIAGJP@file?5exists@ 000000018001fe10     libcpmt:syserror.obj
 0002:00000e20       ??_C@_0P@DNAJLBJK@file?5too?5large@ 000000018001fe20     libcpmt:syserror.obj
 0002:00000e30       ??_C@_0BC@EJHOMAAK@filename?5too?5long@ 000000018001fe30     libcpmt:syserror.obj
 0002:00000e48       ??_C@_0BH@KEFGLDAF@function?5not?5supported@ 000000018001fe48     libcpmt:syserror.obj
 0002:00000e60       ??_C@_0BB@DHFDFGDM@host?5unreachable@ 000000018001fe60     libcpmt:syserror.obj
 0002:00000e78       ??_C@_0BD@JPHBMONG@identifier?5removed@ 000000018001fe78     libcpmt:syserror.obj
 0002:00000e90       ??_C@_0BG@CDNPAGJK@illegal?5byte?5sequence@ 000000018001fe90     libcpmt:syserror.obj
 0002:00000ea8       ??_C@_0CD@BNPLBMNA@inappropriate?5io?5control?5operat@ 000000018001fea8     libcpmt:syserror.obj
 0002:00000ed0       ??_C@_0M@EGEKIIMP@interrupted@ 000000018001fed0     libcpmt:syserror.obj
 0002:00000ee0       ??_C@_0BB@FCMFBGOM@invalid?5argument@ 000000018001fee0     libcpmt:syserror.obj
 0002:00000ef8       ??_C@_0N@OHAFKDEK@invalid?5seek@ 000000018001fef8     libcpmt:syserror.obj
 0002:00000f08       ??_C@_08GLNPIFBN@io?5error@ 000000018001ff08     libcpmt:syserror.obj
 0002:00000f18       ??_C@_0P@FLLDBIDK@is?5a?5directory@ 000000018001ff18     libcpmt:syserror.obj
 0002:00000f28       ??_C@_0N@IFLPBIOP@message?5size@ 000000018001ff28     libcpmt:syserror.obj
 0002:00000f38       ??_C@_0N@KIIEAAIO@network?5down@ 000000018001ff38     libcpmt:syserror.obj
 0002:00000f48       ??_C@_0O@FNPDBHEE@network?5reset@ 000000018001ff48     libcpmt:syserror.obj
 0002:00000f58       ??_C@_0BE@IFNCKGE@network?5unreachable@ 000000018001ff58     libcpmt:syserror.obj
 0002:00000f70       ??_C@_0BA@PFFCAOFK@no?5buffer?5space@ 000000018001ff70     libcpmt:syserror.obj
 0002:00000f80       ??_C@_0BB@IEPBLJHK@no?5child?5process@ 000000018001ff80     libcpmt:syserror.obj
 0002:00000f98       ??_C@_07PLECNNKG@no?5link@ 000000018001ff98     libcpmt:syserror.obj
 0002:00000fa0       ??_C@_0BC@NJECKMKE@no?5lock?5available@ 000000018001ffa0     libcpmt:syserror.obj
 0002:00000fb8       ??_C@_0BF@PBGGPKKE@no?5message?5available@ 000000018001ffb8     libcpmt:syserror.obj
 0002:00000fd0       ??_C@_0L@EDOLMPAK@no?5message@ 000000018001ffd0     libcpmt:syserror.obj
 0002:00000fe0       ??_C@_0BD@EAMBFIDF@no?5protocol?5option@ 000000018001ffe0     libcpmt:syserror.obj
 0002:00000ff8       ??_C@_0BD@IJDJKDEA@no?5space?5on?5device@ 000000018001fff8     libcpmt:syserror.obj
 0002:00001010       ??_C@_0BE@MKFDAFMP@no?5stream?5resources@ 0000000180020010     libcpmt:syserror.obj
 0002:00001028       ??_C@_0BK@IMCPHCBI@no?5such?5device?5or?5address@ 0000000180020028     libcpmt:syserror.obj
 0002:00001048       ??_C@_0P@FDINDDOK@no?5such?5device@ 0000000180020048     libcpmt:syserror.obj
 0002:00001058       ??_C@_0BK@NDOCBPGE@no?5such?5file?5or?5directory@ 0000000180020058     libcpmt:syserror.obj
 0002:00001078       ??_C@_0BA@ENLPPKBN@no?5such?5process@ 0000000180020078     libcpmt:syserror.obj
 0002:00001088       ??_C@_0BA@DOCPFFJG@not?5a?5directory@ 0000000180020088     libcpmt:syserror.obj
 0002:00001098       ??_C@_0N@POEIPGGF@not?5a?5socket@ 0000000180020098     libcpmt:syserror.obj
 0002:000010a8       ??_C@_0N@LGAPMMPI@not?5a?5stream@ 00000001800200a8     libcpmt:syserror.obj
 0002:000010b8       ??_C@_0O@GLMIBBEG@not?5connected@ 00000001800200b8     libcpmt:syserror.obj
 0002:000010c8       ??_C@_0BC@ENOOLCNF@not?5enough?5memory@ 00000001800200c8     libcpmt:syserror.obj
 0002:000010e0       ??_C@_0O@NHEDABJP@not?5supported@ 00000001800200e0     libcpmt:syserror.obj
 0002:000010f0       ??_C@_0BD@MOLBPMEA@operation?5canceled@ 00000001800200f0     libcpmt:syserror.obj
 0002:00001108       ??_C@_0BG@KDKHOPCO@operation?5in?5progress@ 0000000180020108     libcpmt:syserror.obj
 0002:00001120       ??_C@_0BI@OHIEJAAB@operation?5not?5permitted@ 0000000180020120     libcpmt:syserror.obj
 0002:00001138       ??_C@_0BI@LNEGIFLN@operation?5not?5supported@ 0000000180020138     libcpmt:syserror.obj
 0002:00001150       ??_C@_0BG@OEMDKMEE@operation?5would?5block@ 0000000180020150     libcpmt:syserror.obj
 0002:00001168       ??_C@_0L@BLPOFLNJ@owner?5dead@ 0000000180020168     libcpmt:syserror.obj
 0002:00001178       ??_C@_0BC@CIJDGCDI@permission?5denied@ 0000000180020178     libcpmt:syserror.obj
 0002:00001190       ??_C@_0P@FNPOCJBE@protocol?5error@ 0000000180020190     libcpmt:syserror.obj
 0002:000011a0       ??_C@_0BH@JPPPLHJB@protocol?5not?5supported@ 00000001800201a0     libcpmt:syserror.obj
 0002:000011b8       ??_C@_0BG@EICBIHDP@read?5only?5file?5system@ 00000001800201b8     libcpmt:syserror.obj
 0002:000011d0       ??_C@_0BO@BJBOMOEJ@resource?5deadlock?5would?5occur@ 00000001800201d0     libcpmt:syserror.obj
 0002:000011f0       ??_C@_0BP@LKNGHENJ@resource?5unavailable?5try?5again@ 00000001800201f0     libcpmt:syserror.obj
 0002:00001210       ??_C@_0BE@GOIPJJHG@result?5out?5of?5range@ 0000000180020210     libcpmt:syserror.obj
 0002:00001228       ??_C@_0BG@MPLKFPAE@state?5not?5recoverable@ 0000000180020228     libcpmt:syserror.obj
 0002:00001240       ??_C@_0P@DIIFGFCG@stream?5timeout@ 0000000180020240     libcpmt:syserror.obj
 0002:00001250       ??_C@_0P@IPFDMIFL@text?5file?5busy@ 0000000180020250     libcpmt:syserror.obj
 0002:00001260       ??_C@_09KJPPMAOI@timed?5out@ 0000000180020260     libcpmt:syserror.obj
 0002:00001270       ??_C@_0BO@HACHBEKI@too?5many?5files?5open?5in?5system@ 0000000180020270     libcpmt:syserror.obj
 0002:00001290       ??_C@_0BE@GHAFMPAH@too?5many?5files?5open@ 0000000180020290     libcpmt:syserror.obj
 0002:000012a8       ??_C@_0P@HCOMKFCC@too?5many?5links@ 00000001800202a8     libcpmt:syserror.obj
 0002:000012b8       ??_C@_0BO@EFGOJEF@too?5many?5symbolic?5link?5levels@ 00000001800202b8     libcpmt:syserror.obj
 0002:000012d8       ??_C@_0BA@KGKGOOJA@value?5too?5large@ 00000001800202d8     libcpmt:syserror.obj
 0002:000012e8       ??_C@_0BE@MIEJDDNH@wrong?5protocol?5type@ 00000001800202e8     libcpmt:syserror.obj
 0002:00001460       ??_7bad_array_new_length@std@@6B@ 0000000180020460     libcpmt:thread0.obj
 0002:00001478       ??_7bad_exception@std@@6B@ 0000000180020478     libcpmt:excptptr.obj
 0002:00001488       ??_C@_0O@DPKOEFFH@bad?5exception@ 0000000180020488     libcpmt:excptptr.obj
 0002:00001498       ??_C@_1BK@MGMFAEKH@?$AAk?$AAe?$AAr?$AAn?$AAe?$AAl?$AA3?$AA2?$AA?4?$AAd?$AAl?$AAl@ 0000000180020498     libcpmt:winapisupp.obj
 0002:000014b8       ??_C@_08KNHFBNJ@FlsAlloc@  00000001800204b8     libcpmt:winapisupp.obj
 0002:000014c8       ??_C@_07PEJMOBNF@FlsFree@  00000001800204c8     libcpmt:winapisupp.obj
 0002:000014d0       ??_C@_0M@GDNOONDI@FlsGetValue@ 00000001800204d0     libcpmt:winapisupp.obj
 0002:000014e0       ??_C@_0M@JCPCPOEF@FlsSetValue@ 00000001800204e0     libcpmt:winapisupp.obj
 0002:000014f0       ??_C@_0BM@HCFOFFN@InitializeCriticalSectionEx@ 00000001800204f0     libcpmt:winapisupp.obj
 0002:00001510       ??_C@_0BE@GPLMMCMH@InitOnceExecuteOnce@ 0000000180020510     libcpmt:winapisupp.obj
 0002:00001528       ??_C@_0P@DLHPPCNH@CreateEventExW@ 0000000180020528     libcpmt:winapisupp.obj
 0002:00001538       ??_C@_0BB@MEFPJLHN@CreateSemaphoreW@ 0000000180020538     libcpmt:winapisupp.obj
 0002:00001550       ??_C@_0BD@KIEEOEEH@CreateSemaphoreExW@ 0000000180020550     libcpmt:winapisupp.obj
 0002:00001568       ??_C@_0BG@OGFAJCKC@CreateThreadpoolTimer@ 0000000180020568     libcpmt:winapisupp.obj
 0002:00001580       ??_C@_0BD@LPLEMMDI@SetThreadpoolTimer@ 0000000180020580     libcpmt:winapisupp.obj
 0002:00001598       ??_C@_0CA@FMNJENH@WaitForThreadpoolTimerCallbacks@ 0000000180020598     libcpmt:winapisupp.obj
 0002:000015b8       ??_C@_0BF@DCFCCNOC@CloseThreadpoolTimer@ 00000001800205b8     libcpmt:winapisupp.obj
 0002:000015d0       ??_C@_0BF@FLABGKKM@CreateThreadpoolWait@ 00000001800205d0     libcpmt:winapisupp.obj
 0002:000015e8       ??_C@_0BC@MGCOHNA@SetThreadpoolWait@ 00000001800205e8     libcpmt:winapisupp.obj
 0002:00001600       ??_C@_0BE@OCIOMIMP@CloseThreadpoolWait@ 0000000180020600     libcpmt:winapisupp.obj
 0002:00001618       ??_C@_0BJ@LKGHFHBO@FlushProcessWriteBuffers@ 0000000180020618     libcpmt:winapisupp.obj
 0002:00001638       ??_C@_0BP@KALKKPMO@FreeLibraryWhenCallbackReturns@ 0000000180020638     libcpmt:winapisupp.obj
 0002:00001658       ??_C@_0BK@DFNBACLA@GetCurrentProcessorNumber@ 0000000180020658     libcpmt:winapisupp.obj
 0002:00001678       ??_C@_0BE@FKKLLFLM@CreateSymbolicLinkW@ 0000000180020678     libcpmt:winapisupp.obj
 0002:00001690       ??_C@_0BE@JOGNEJCI@GetCurrentPackageId@ 0000000180020690     libcpmt:winapisupp.obj
 0002:000016a8       ??_C@_0P@CDHHOHKP@GetTickCount64@ 00000001800206a8     libcpmt:winapisupp.obj
 0002:000016b8       ??_C@_0BN@NEEHBBPO@GetFileInformationByHandleEx@ 00000001800206b8     libcpmt:winapisupp.obj
 0002:000016d8       ??_C@_0BL@KBBHGKCM@SetFileInformationByHandle@ 00000001800206d8     libcpmt:winapisupp.obj
 0002:000016f8       ??_C@_0BP@FPNJPEJC@GetSystemTimePreciseAsFileTime@ 00000001800206f8     libcpmt:winapisupp.obj
 0002:00001718       ??_C@_0BM@HLJJNPAH@InitializeConditionVariable@ 0000000180020718     libcpmt:winapisupp.obj
 0002:00001738       ??_C@_0BG@BFNILBLN@WakeConditionVariable@ 0000000180020738     libcpmt:winapisupp.obj
 0002:00001750       ??_C@_0BJ@PGPPEPCC@WakeAllConditionVariable@ 0000000180020750     libcpmt:winapisupp.obj
 0002:00001770       ??_C@_0BJ@JEBJOJFJ@SleepConditionVariableCS@ 0000000180020770     libcpmt:winapisupp.obj
 0002:00001790       ??_C@_0BC@MMLHEBPB@InitializeSRWLock@ 0000000180020790     libcpmt:winapisupp.obj
 0002:000017a8       ??_C@_0BI@OMNLIJDB@AcquireSRWLockExclusive@ 00000001800207a8     libcpmt:winapisupp.obj
 0002:000017c0       ??_C@_0BL@OGHFEMNA@TryAcquireSRWLockExclusive@ 00000001800207c0     libcpmt:winapisupp.obj
 0002:000017e0       ??_C@_0BI@HMIEPCNJ@ReleaseSRWLockExclusive@ 00000001800207e0     libcpmt:winapisupp.obj
 0002:000017f8       ??_C@_0BK@LGACAGIC@SleepConditionVariableSRW@ 00000001800207f8     libcpmt:winapisupp.obj
 0002:00001818       ??_C@_0BF@GGPHFPJA@CreateThreadpoolWork@ 0000000180020818     libcpmt:winapisupp.obj
 0002:00001830       ??_C@_0BF@NHDAIMMO@SubmitThreadpoolWork@ 0000000180020830     libcpmt:winapisupp.obj
 0002:00001848       ??_C@_0BE@NPHIPNPD@CloseThreadpoolWork@ 0000000180020848     libcpmt:winapisupp.obj
 0002:00001860       ??_C@_0BA@IHGNDAEB@CompareStringEx@ 0000000180020860     libcpmt:winapisupp.obj
 0002:00001870       ??_C@_0BA@ONOKGCMP@GetLocaleInfoEx@ 0000000180020870     libcpmt:winapisupp.obj
 0002:00001880       ??_C@_0O@KKBNKAPF@LCMapStringEx@ 0000000180020880     libcpmt:winapisupp.obj
 0002:00001890       ??_C@_11LOCGONAA@@         0000000180020890     libcpmt:wlocale.obj
 0002:00001940       ??_7type_info@@6B@         0000000180020940     LIBCMT:std_type_info_static.obj
 0002:00001950       ??_C@_1EC@JIJBPKFM@?$AAa?$AAp?$AAi?$AA?9?$AAm?$AAs?$AA?9?$AAw?$AAi?$AAn?$AA?9?$AAc?$AAo?$AAr?$AAe@ 0000000180020950     LIBCMT:thread_safe_statics.obj
 0002:000019a0       __xmm@ffffffffffffffffffffffffffffffff 00000001800209a0     LIBCMT:utility.obj
 0002:000019c0       _pDefaultRawDllMain        00000001800209c0     LIBCMT:dll_dllmain.obj
 0002:000019c0       _pRawDllMain               00000001800209c0     LIBCMT:dll_dllmain.obj
 0002:000019c8       ?s_negLengthTab@FH4@@3QBCB 00000001800209c8     libvcruntime:risctrnsctrl.obj
 0002:000019d8       ?s_shiftTab@FH4@@3QBEB     00000001800209d8     libvcruntime:risctrnsctrl.obj
 0002:00001a88       _pDestructExceptionObject  0000000180020a88     libvcruntime:ehhelpers.obj
 0002:000021a0       ??_C@_08EHJDFFNH@__based?$CI@ 00000001800211a0     libvcruntime:undname.obj
 0002:000021b0       ??_C@_07KOLFKCDI@__cdecl@  00000001800211b0     libvcruntime:undname.obj
 0002:000021b8       ??_C@_08GHMPAG@__pascal@   00000001800211b8     libvcruntime:undname.obj
 0002:000021c8       ??_C@_09IFJBGAPI@__stdcall@ 00000001800211c8     libvcruntime:undname.obj
 0002:000021d8       ??_C@_0L@NPHFGOKO@__thiscall@ 00000001800211d8     libvcruntime:undname.obj
 0002:000021e8       ??_C@_0L@JMKHOMEK@__fastcall@ 00000001800211e8     libvcruntime:undname.obj
 0002:000021f8       ??_C@_0N@BCKKPABJ@__vectorcall@ 00000001800211f8     libvcruntime:undname.obj
 0002:00002208       ??_C@_09HIJEGCPM@__clrcall@ 0000000180021208     libvcruntime:undname.obj
 0002:00002214       ??_C@_06GHPCKEAG@__eabi@   0000000180021214     libvcruntime:undname.obj
 0002:00002220       ??_C@_09IOPIDJLG@__swift_1@ 0000000180021220     libvcruntime:undname.obj
 0002:00002230       ??_C@_09KFNFGKHF@__swift_2@ 0000000180021230     libvcruntime:undname.obj
 0002:00002240       ??_C@_09LMMOFLDE@__swift_3@ 0000000180021240     libvcruntime:undname.obj
 0002:00002250       ??_C@_07JOMMBBKO@__ptr64@  0000000180021250     libvcruntime:undname.obj
 0002:00002258       ??_C@_0L@PILCLIHE@__restrict@ 0000000180021258     libvcruntime:undname.obj
 0002:00002268       ??_C@_0M@GFIIJFMG@__unaligned@ 0000000180021268     libvcruntime:undname.obj
 0002:00002278       ??_C@_09DHDLOLLB@restrict?$CI@ 0000000180021278     libvcruntime:undname.obj
 0002:00002284       ??_C@_04NIHEBCM@?5new@     0000000180021284     libvcruntime:undname.obj
 0002:00002290       ??_C@_07FPCDHGMM@?5delete@ 0000000180021290     libvcruntime:undname.obj
 0002:00002298       ??_C@_01NEMOKFLO@?$DN@     0000000180021298     libvcruntime:undname.obj
 0002:0000229c       ??_C@_01DCLJPIOD@?$CB@     000000018002129c     libvcruntime:undname.obj
 0002:000022a0       ??_C@_02EGOFBIJA@?$DN?$DN@ 00000001800212a0     libvcruntime:undname.obj
 0002:000022a4       ??_C@_02FDNJECIE@?$CB?$DN@ 00000001800212a4     libvcruntime:undname.obj
 0002:000022a8       ??_C@_08LHJFAFGD@operator@ 00000001800212a8     libvcruntime:undname.obj
 0002:000022b4       ??_C@_02HBOOOICD@?9?$DO@   00000001800212b4     libvcruntime:undname.obj
 0002:000022b8       ??_C@_02ECNGHCIF@?$CL?$CL@ 00000001800212b8     libvcruntime:undname.obj
 0002:000022bc       ??_C@_02BAABKJLB@?9?9@     00000001800212bc     libvcruntime:undname.obj
 0002:000022c0       ??_C@_01HNPIGOCE@?$CG@     00000001800212c0     libvcruntime:undname.obj
 0002:000022c4       ??_C@_03MNHNFDLC@?9?$DO?$CK@ 00000001800212c4     libvcruntime:undname.obj
 0002:000022c8       ??_C@_01KMDKNFGN@?1@       00000001800212c8     libvcruntime:undname.obj
 0002:000022cc       ??_C@_01FGNFDNOH@?$CF@     00000001800212cc     libvcruntime:undname.obj
 0002:000022d0       ??_C@_02EHCHHCKH@?$DM?$DN@ 00000001800212d0     libvcruntime:undname.obj
 0002:000022d4       ??_C@_02EEKDKGMJ@?$DO?$DN@ 00000001800212d4     libvcruntime:undname.obj
 0002:000022d8       ??_C@_01IHBHIGKO@?0@       00000001800212d8     libvcruntime:undname.obj
 0002:000022dc       ??_C@_02HCKGKOFO@?$CI?$CJ@ 00000001800212dc     libvcruntime:undname.obj
 0002:000022e0       ??_C@_01PJKLJHI@?$HO@      00000001800212e0     libvcruntime:undname.obj
 0002:000022e4       ??_C@_01JKBOJNNK@?$FO@     00000001800212e4     libvcruntime:undname.obj
 0002:000022e8       ??_C@_01DNKMNLPK@?$HM@     00000001800212e8     libvcruntime:undname.obj
 0002:000022ec       ??_C@_02PPKAJPJL@?$CG?$CG@ 00000001800212ec     libvcruntime:undname.obj
 0002:000022f0       ??_C@_02NONPIBCD@?$HM?$HM@ 00000001800212f0     libvcruntime:undname.obj
 0002:000022f4       ??_C@_02FPIMKNGF@?$CK?$DN@ 00000001800212f4     libvcruntime:undname.obj
 0002:000022f8       ??_C@_02FOEOMHFC@?$CL?$DN@ 00000001800212f8     libvcruntime:undname.obj
 0002:000022fc       ??_C@_02FKMDLLOA@?9?$DN@   00000001800212fc     libvcruntime:undname.obj
 0002:00002300       ??_C@_02FJEHGPIO@?1?$DN@   0000000180021300     libvcruntime:undname.obj
 0002:00002304       ??_C@_02FENAOKFI@?$CF?$DN@ 0000000180021304     libvcruntime:undname.obj
 0002:00002308       ??_C@_03IKFCCPFF@?$DO?$DO?$DN@ 0000000180021308     libvcruntime:undname.obj
 0002:0000230c       ??_C@_03CDNPDDLA@?$DM?$DM?$DN@ 000000018002130c     libvcruntime:undname.obj
 0002:00002310       ??_C@_02FGJGFEAB@?$CG?$DN@ 0000000180021310     libvcruntime:undname.obj
 0002:00002314       ??_C@_02DHLNPPGH@?$HM?$DN@ 0000000180021314     libvcruntime:undname.obj
 0002:00002318       ??_C@_02MHEGNOJ@?$FO?$DN@  0000000180021318     libvcruntime:undname.obj
 0002:00002320       ??_C@_09IFPLHPGF@?$GAvftable?8@ 0000000180021320     libvcruntime:undname.obj
 0002:00002330       ??_C@_09BLBHBJP@?$GAvbtable?8@ 0000000180021330     libvcruntime:undname.obj
 0002:00002340       ??_C@_07FEEIOKP@?$GAvcall?8@ 0000000180021340     libvcruntime:undname.obj
 0002:00002348       ??_C@_08LLFFHHDJ@?$GAtypeof?8@ 0000000180021348     libvcruntime:undname.obj
 0002:00002358       ??_C@_0BF@KDPPACIK@?$GAlocal?5static?5guard?8@ 0000000180021358     libvcruntime:undname.obj
 0002:00002370       ??_C@_08OBABFOLI@?$GAstring?8@ 0000000180021370     libvcruntime:undname.obj
 0002:00002380       ??_C@_0BD@JDLKDPAB@?$GAvbase?5destructor?8@ 0000000180021380     libvcruntime:undname.obj
 0002:00002398       ??_C@_0BN@DEGPLNFK@?$GAvector?5deleting?5destructor?8@ 0000000180021398     libvcruntime:undname.obj
 0002:000023b8       ??_C@_0BO@OBMKPJIG@?$GAdefault?5constructor?5closure?8@ 00000001800213b8     libvcruntime:undname.obj
 0002:000023d8       ??_C@_0BN@IMDCHIKM@?$GAscalar?5deleting?5destructor?8@ 00000001800213d8     libvcruntime:undname.obj
 0002:000023f8       ??_C@_0BO@PFGOCPJJ@?$GAvector?5constructor?5iterator?8@ 00000001800213f8     libvcruntime:undname.obj
 0002:00002418       ??_C@_0BN@LFPFMEDL@?$GAvector?5destructor?5iterator?8@ 0000000180021418     libvcruntime:undname.obj
 0002:00002438       ??_C@_0CE@IKBNEHA@?$GAvector?5vbase?5constructor?5itera@ 0000000180021438     libvcruntime:undname.obj
 0002:00002460       ??_C@_0BL@NILFHHPC@?$GAvirtual?5displacement?5map?8@ 0000000180021460     libvcruntime:undname.obj
 0002:00002480       ??_C@_0CB@JONCMFFK@?$GAeh?5vector?5constructor?5iterator@ 0000000180021480     libvcruntime:undname.obj
 0002:000024a8       ??_C@_0CA@GCEOPDGL@?$GAeh?5vector?5destructor?5iterator?8@ 00000001800214a8     libvcruntime:undname.obj
 0002:000024c8       ??_C@_0CH@OOJPLCPH@?$GAeh?5vector?5vbase?5constructor?5it@ 00000001800214c8     libvcruntime:undname.obj
 0002:000024f0       ??_C@_0BL@LLKPOHJI@?$GAcopy?5constructor?5closure?8@ 00000001800214f0     libvcruntime:undname.obj
 0002:00002510       ??_C@_0BA@KBCDOMBN@?$GAudt?5returning?8@ 0000000180021510     libvcruntime:undname.obj
 0002:00002520       ??_C@_03KLGMFNMG@?$GAEH@   0000000180021520     libvcruntime:undname.obj
 0002:00002524       ??_C@_05KHLCHHI@?$GARTTI@  0000000180021524     libvcruntime:undname.obj
 0002:00002530       ??_C@_0BA@KKLDJDLB@?$GAlocal?5vftable?8@ 0000000180021530     libvcruntime:undname.obj
 0002:00002540       ??_C@_0CE@IIHCMGGL@?$GAlocal?5vftable?5constructor?5clos@ 0000000180021540     libvcruntime:undname.obj
 0002:00002564       ??_C@_06FHBGPFGH@?5new?$FL?$FN@ 0000000180021564     libvcruntime:undname.obj
 0002:00002570       ??_C@_09LBNFPBCA@?5delete?$FL?$FN@ 0000000180021570     libvcruntime:undname.obj
 0002:00002580       ??_C@_0P@HJKNJFNN@?$GAomni?5callsig?8@ 0000000180021580     libvcruntime:undname.obj
 0002:00002590       ??_C@_0BL@CNOONJFP@?$GAplacement?5delete?5closure?8@ 0000000180021590     libvcruntime:undname.obj
 0002:000025b0       ??_C@_0BN@CKNJLHMB@?$GAplacement?5delete?$FL?$FN?5closure?8@ 00000001800215b0     libvcruntime:undname.obj
 0002:000025d0       ??_C@_0CG@CFDHKGGD@?$GAmanaged?5vector?5constructor?5ite@ 00000001800215d0     libvcruntime:undname.obj
 0002:000025f8       ??_C@_0CF@IMGKMJNO@?$GAmanaged?5vector?5destructor?5iter@ 00000001800215f8     libvcruntime:undname.obj
 0002:00002620       ??_C@_0CG@HLDDJMAG@?$GAeh?5vector?5copy?5constructor?5ite@ 0000000180021620     libvcruntime:undname.obj
 0002:00002648       ??_C@_0CM@FCBBDIGB@?$GAeh?5vector?5vbase?5copy?5construct@ 0000000180021648     libvcruntime:undname.obj
 0002:00002678       ??_C@_0BL@CLIPGLGB@?$GAdynamic?5initializer?5for?5?8@ 0000000180021678     libvcruntime:undname.obj
 0002:00002698       ??_C@_0CB@PDBIFEP@?$GAdynamic?5atexit?5destructor?5for?5@ 0000000180021698     libvcruntime:undname.obj
 0002:000026c0       ??_C@_0CD@CGAJBKEJ@?$GAvector?5copy?5constructor?5iterat@ 00000001800216c0     libvcruntime:undname.obj
 0002:000026e8       ??_C@_0CJ@GJELGAMM@?$GAvector?5vbase?5copy?5constructor?5@ 00000001800216e8     libvcruntime:undname.obj
 0002:00002718       ??_C@_0CL@FGIJHLCE@?$GAmanaged?5vector?5copy?5constructo@ 0000000180021718     libvcruntime:undname.obj
 0002:00002748       ??_C@_0BM@PMGGMLDN@?$GAlocal?5static?5thread?5guard?8@ 0000000180021748     libvcruntime:undname.obj
 0002:00002768       ??_C@_0N@BDNMDMOL@operator?5?$CC?$CC?5@ 0000000180021768     libvcruntime:undname.obj
 0002:00002778       ??_C@_0BC@GGEBGALA@operator?5co_await@ 0000000180021778     libvcruntime:undname.obj
 0002:00002790       ??_C@_0M@GAAIMMOH@operator?$DM?$DN?$DO@ 0000000180021790     libvcruntime:undname.obj
 0002:000027a0       ??_C@_0BC@DAFEJGAK@?5Type?5Descriptor?8@ 00000001800217a0     libvcruntime:undname.obj
 0002:000027b8       ??_C@_0BM@LDKODKLH@?5Base?5Class?5Descriptor?5at?5?$CI@ 00000001800217b8     libvcruntime:undname.obj
 0002:000027d8       ??_C@_0BD@LGICGFMM@?5Base?5Class?5Array?8@ 00000001800217d8     libvcruntime:undname.obj
 0002:000027f0       ??_C@_0BN@MECKDCOJ@?5Class?5Hierarchy?5Descriptor?8@ 00000001800217f0     libvcruntime:undname.obj
 0002:00002810       ??_C@_0BK@CFCOFLF@?5Complete?5Object?5Locator?8@ 0000000180021810     libvcruntime:undname.obj
 0002:00002830       ??_C@_0BG@JNJLAMPM@?$GAanonymous?5namespace?8@ 0000000180021830     libvcruntime:undname.obj
 0002:00002860       ??_C@_1DM@KHCHBNEB@?$AAa?$AAp?$AAi?$AA?9?$AAm?$AAs?$AA?9?$AAw?$AAi?$AAn?$AA?9?$AAc?$AAo?$AAr?$AAe@ 0000000180021860     libvcruntime:winapi_downlevel.obj
 0002:000028a0       ??_C@_1DK@LPPGFMPP@?$AAa?$AAp?$AAi?$AA?9?$AAm?$AAs?$AA?9?$AAw?$AAi?$AAn?$AA?9?$AAc?$AAo?$AAr?$AAe@ 00000001800218a0     libvcruntime:winapi_downlevel.obj
 0002:000028e0       ??_C@_1BC@GDMECMAK@?$AAk?$AAe?$AAr?$AAn?$AAe?$AAl?$AA3?$AA2@ 00000001800218e0     libvcruntime:winapi_downlevel.obj
 0002:000028f8       ??_C@_1BA@PFFKHIOG@?$AAa?$AAp?$AAi?$AA?9?$AAm?$AAs?$AA?9@ 00000001800218f8     libvcruntime:winapi_downlevel.obj
 0002:00002930       ?standard_lookup_table_spectre@__crt_stdio_output@@3V?$spectre_mitigated_lookup_table@Ustate_transition_pair@__crt_stdio_output@@$0IA@@1@B 0000000180021930     libucrt:output.obj
 0002:00002d30       ??_C@_1O@CEDCILHN@?$AA?$CI?$AAn?$AAu?$AAl?$AAl?$AA?$CJ@ 0000000180021d30     libucrt:output.obj
 0002:00002d40       ??_C@_06OJHGLDPL@?$CInull?$CJ@ 0000000180021d40     libucrt:output.obj
 0002:00002ec0       ?large_power_data@?1??multiply_by_power_of_ten@__crt_strtox@@YA_NAEAUbig_integer@2@I@Z@4QBIB 0000000180021ec0     libucrt:input.obj
 0002:000037d0       ?large_power_indices@?1??multiply_by_power_of_ten@__crt_strtox@@YA_NAEAUbig_integer@2@I@Z@4QBUunpack_index@?1??12@YA_N0I@Z@B 00000001800227d0     libucrt:input.obj
 0002:00003868       ?small_powers_of_ten@?1??multiply_by_power_of_ten@__crt_strtox@@YA_NAEAUbig_integer@2@I@Z@4QBIB 0000000180022868     libucrt:input.obj
 0002:00003890       __real@3ff0000000000000    0000000180022890     libucrt:frexp.obj
 0002:000038a0       __newctype                 00000001800228a0     libucrt:ctype.obj
 0002:00003ba0       __newclmap                 0000000180022ba0     libucrt:ctype.obj
 0002:00003d20       __newcumap                 0000000180022d20     libucrt:ctype.obj
 0002:00005b50       __acrt_exception_action_table 0000000180024b50     libucrt:exception_filter.obj
 0002:00005c10       __acrt_signal_action_table_count 0000000180024c10     libucrt:exception_filter.obj
 0002:00005c18       __acrt_signal_action_first_fpe_index 0000000180024c18     libucrt:exception_filter.obj
 0002:00005c20       __acrt_signal_action_fpe_count 0000000180024c20     libucrt:exception_filter.obj
 0002:00005c28       ??_C@_1BI@BGOHAHKC@?$AAm?$AAs?$AAc?$AAo?$AAr?$AAe?$AAe?$AA?4?$AAd?$AAl?$AAl@ 0000000180024c28     libucrt:exit.obj
 0002:00005c40       ??_C@_0P@MIGLKIOC@CorExitProcess@ 0000000180024c40     libucrt:exit.obj
 0002:00005dd0       ??_C@_09OFJJIMPC@NAN?$CISNAN?$CJ@ 0000000180024dd0     libucrt:cvt.obj
 0002:00005de0       ??_C@_09IPFBKMDL@nan?$CIsnan?$CJ@ 0000000180024de0     libucrt:cvt.obj
 0002:00005df0       ??_C@_08IKHNHAJ@NAN?$CIIND?$CJ@ 0000000180024df0     libucrt:cvt.obj
 0002:00005e00       ??_C@_08OFCDMILK@nan?$CIind?$CJ@ 0000000180024e00     libucrt:cvt.obj
 0002:00005e0c       ??_C@_05KLBDPFGC@e?$CL000@ 0000000180024e0c     libucrt:cvt.obj
 0002:00005e20       __lc_time_c                0000000180024e20     libucrt:nlsdata.obj
 0002:000060e0       ??_C@_03KOEHGMDN@Sun@      00000001800250e0     libucrt:nlsdata.obj
 0002:000060e4       ??_C@_03PDAGKDH@Mon@       00000001800250e4     libucrt:nlsdata.obj
 0002:000060e8       ??_C@_03NAGEINEP@Tue@      00000001800250e8     libucrt:nlsdata.obj
 0002:000060ec       ??_C@_03MHOMLAJA@Wed@      00000001800250ec     libucrt:nlsdata.obj
 0002:000060f0       ??_C@_03IOFIKPDN@Thu@      00000001800250f0     libucrt:nlsdata.obj
 0002:000060f4       ??_C@_03IDIOELNC@Fri@      00000001800250f4     libucrt:nlsdata.obj
 0002:000060f8       ??_C@_03FEFJNEK@Sat@       00000001800250f8     libucrt:nlsdata.obj
 0002:000060fc       ??_C@_06OOPIFAJ@Sunday@    00000001800250fc     libucrt:nlsdata.obj
 0002:00006104       ??_C@_06JLEDEDGH@Monday@   0000000180025104     libucrt:nlsdata.obj
 0002:00006110       ??_C@_07BAAGCFCM@Tuesday@  0000000180025110     libucrt:nlsdata.obj
 0002:00006118       ??_C@_09DLIGFAKA@Wednesday@ 0000000180025118     libucrt:nlsdata.obj
 0002:00006128       ??_C@_08HACCIKIA@Thursday@ 0000000180025128     libucrt:nlsdata.obj
 0002:00006134       ??_C@_06JECMNKMI@Friday@   0000000180025134     libucrt:nlsdata.obj
 0002:00006140       ??_C@_08INBOOONO@Saturday@ 0000000180025140     libucrt:nlsdata.obj
 0002:0000614c       ??_C@_03JIHJHPIE@Jan@      000000018002514c     libucrt:nlsdata.obj
 0002:00006150       ??_C@_03HJBDCHOM@Feb@      0000000180025150     libucrt:nlsdata.obj
 0002:00006154       ??_C@_03ODNJBKGA@Mar@      0000000180025154     libucrt:nlsdata.obj
 0002:00006158       ??_C@_03LEOLGMJP@Apr@      0000000180025158     libucrt:nlsdata.obj
 0002:0000615c       ??_C@_03CNMDKL@May@        000000018002515c     libucrt:nlsdata.obj
 0002:00006160       ??_C@_03IDFGHECI@Jun@      0000000180025160     libucrt:nlsdata.obj
 0002:00006164       ??_C@_03LBGABGKK@Jul@      0000000180025164     libucrt:nlsdata.obj
 0002:00006168       ??_C@_03IFJFEIGA@Aug@      0000000180025168     libucrt:nlsdata.obj
 0002:0000616c       ??_C@_03GGCAPAJC@Sep@      000000018002516c     libucrt:nlsdata.obj
 0002:00006170       ??_C@_03BMAOKBAD@Oct@      0000000180025170     libucrt:nlsdata.obj
 0002:00006174       ??_C@_03JPJOFNIA@Nov@      0000000180025174     libucrt:nlsdata.obj
 0002:00006178       ??_C@_03MKABNOCG@Dec@      0000000180025178     libucrt:nlsdata.obj
 0002:00006180       ??_C@_07CGJPFGJA@January@  0000000180025180     libucrt:nlsdata.obj
 0002:00006188       ??_C@_08GNJGEPFN@February@ 0000000180025188     libucrt:nlsdata.obj
 0002:00006194       ??_C@_05HPCKOFNC@March@    0000000180025194     libucrt:nlsdata.obj
 0002:0000619c       ??_C@_05DMJDNLEJ@April@    000000018002519c     libucrt:nlsdata.obj
 0002:000061a4       ??_C@_04CNLMGBGM@June@     00000001800251a4     libucrt:nlsdata.obj
 0002:000061ac       ??_C@_04MIEPOIFP@July@     00000001800251ac     libucrt:nlsdata.obj
 0002:000061b4       ??_C@_06LBBHFDDG@August@   00000001800251b4     libucrt:nlsdata.obj
 0002:000061c0       ??_C@_09BHHEALKD@September@ 00000001800251c0     libucrt:nlsdata.obj
 0002:000061d0       ??_C@_07JJNFCEND@October@  00000001800251d0     libucrt:nlsdata.obj
 0002:000061d8       ??_C@_08HCHEGEOA@November@ 00000001800251d8     libucrt:nlsdata.obj
 0002:000061e8       ??_C@_08EDHMEBNP@December@ 00000001800251e8     libucrt:nlsdata.obj
 0002:000061f4       ??_C@_02DEDBPAFC@AM@       00000001800251f4     libucrt:nlsdata.obj
 0002:000061f8       ??_C@_02CJNFDJBF@PM@       00000001800251f8     libucrt:nlsdata.obj
 0002:00006200       ??_C@_08BPBNCDIB@MM?1dd?1yy@ 0000000180025200     libucrt:nlsdata.obj
 0002:00006210       ??_C@_0BE@CKGJFCPC@dddd?0?5MMMM?5dd?0?5yyyy@ 0000000180025210     libucrt:nlsdata.obj
 0002:00006228       ??_C@_08JCCMCCIL@HH?3mm?3ss@ 0000000180025228     libucrt:nlsdata.obj
 0002:00006238       ??_C@_17MBGCMIPB@?$AAS?$AAu?$AAn@ 0000000180025238     libucrt:nlsdata.obj
 0002:00006240       ??_C@_17KBOMKBF@?$AAM?$AAo?$AAn@ 0000000180025240     libucrt:nlsdata.obj
 0002:00006248       ??_C@_17BMKGEGOJ@?$AAT?$AAu?$AAe@ 0000000180025248     libucrt:nlsdata.obj
 0002:00006250       ??_C@_17CJEDCEPE@?$AAW?$AAe?$AAd@ 0000000180025250     libucrt:nlsdata.obj
 0002:00006258       ??_C@_17PDPHAADD@?$AAT?$AAh?$AAu@ 0000000180025258     libucrt:nlsdata.obj
 0002:00006260       ??_C@_17HFOLPPLP@?$AAF?$AAr?$AAi@ 0000000180025260     libucrt:nlsdata.obj
 0002:00006268       ??_C@_17GGIBDPIH@?$AAS?$AAa?$AAt@ 0000000180025268     libucrt:nlsdata.obj
 0002:00006270       ??_C@_1O@IHNHDHPB@?$AAS?$AAu?$AAn?$AAd?$AAa?$AAy@ 0000000180025270     libucrt:nlsdata.obj
 0002:00006280       ??_C@_1O@MMNBFLIA@?$AAM?$AAo?$AAn?$AAd?$AAa?$AAy@ 0000000180025280     libucrt:nlsdata.obj
 0002:00006290       ??_C@_1BA@ENFBFFEK@?$AAT?$AAu?$AAe?$AAs?$AAd?$AAa?$AAy@ 0000000180025290     libucrt:nlsdata.obj
 0002:000062a0       ??_C@_1BE@EBOGMDOH@?$AAW?$AAe?$AAd?$AAn?$AAe?$AAs?$AAd?$AAa?$AAy@ 00000001800252a0     libucrt:nlsdata.obj
 0002:000062b8       ??_C@_1BC@HHMNLIHE@?$AAT?$AAh?$AAu?$AAr?$AAs?$AAd?$AAa?$AAy@ 00000001800252b8     libucrt:nlsdata.obj
 0002:000062d0       ??_C@_1O@PDICJHAG@?$AAF?$AAr?$AAi?$AAd?$AAa?$AAy@ 00000001800252d0     libucrt:nlsdata.obj
 0002:000062e0       ??_C@_1BC@ENMNNPAJ@?$AAS?$AAa?$AAt?$AAu?$AAr?$AAd?$AAa?$AAy@ 00000001800252e0     libucrt:nlsdata.obj
 0002:000062f8       ??_C@_17DKNBKCHM@?$AAJ?$AAa?$AAn@ 00000001800252f8     libucrt:nlsdata.obj
 0002:00006300       ??_C@_17LMDJEKJN@?$AAF?$AAe?$AAb@ 0000000180025300     libucrt:nlsdata.obj
 0002:00006308       ??_C@_17CKNLEDEC@?$AAM?$AAa?$AAr@ 0000000180025308     libucrt:nlsdata.obj
 0002:00006310       ??_C@_17LFPOIHDD@?$AAA?$AAp?$AAr@ 0000000180025310     libucrt:nlsdata.obj
 0002:00006318       ??_C@_17PNNKMEED@?$AAM?$AAa?$AAy@ 0000000180025318     libucrt:nlsdata.obj
 0002:00006320       ??_C@_17KCJGOCPB@?$AAJ?$AAu?$AAn@ 0000000180025320     libucrt:nlsdata.obj
 0002:00006328       ??_C@_17IJPCKHK@?$AAJ?$AAu?$AAl@ 0000000180025328     libucrt:nlsdata.obj
 0002:00006330       ??_C@_17ICPELBCN@?$AAA?$AAu?$AAg@ 0000000180025330     libucrt:nlsdata.obj
 0002:00006338       ??_C@_17HCHCOKMG@?$AAS?$AAe?$AAp@ 0000000180025338     libucrt:nlsdata.obj
 0002:00006340       ??_C@_17FNLKOI@?$AAO?$AAc?$AAt@ 0000000180025340     libucrt:nlsdata.obj
 0002:00006348       ??_C@_17BBDMLCIG@?$AAN?$AAo?$AAv@ 0000000180025348     libucrt:nlsdata.obj
 0002:00006350       ??_C@_17EGKACKIF@?$AAD?$AAe?$AAc@ 0000000180025350     libucrt:nlsdata.obj
 0002:00006358       ??_C@_1BA@EFMEIEBA@?$AAJ?$AAa?$AAn?$AAu?$AAa?$AAr?$AAy@ 0000000180025358     libucrt:nlsdata.obj
 0002:00006368       ??_C@_1BC@JGDDFFAM@?$AAF?$AAe?$AAb?$AAr?$AAu?$AAa?$AAr?$AAy@ 0000000180025368     libucrt:nlsdata.obj
 0002:00006380       ??_C@_1M@IKEENEDF@?$AAM?$AAa?$AAr?$AAc?$AAh@ 0000000180025380     libucrt:nlsdata.obj
 0002:00006390       ??_C@_1M@GJNLMHFD@?$AAA?$AAp?$AAr?$AAi?$AAl@ 0000000180025390     libucrt:nlsdata.obj
 0002:000063a0       ??_C@_19EPFLPGAP@?$AAJ?$AAu?$AAn?$AAe@ 00000001800253a0     libucrt:nlsdata.obj
 0002:000063b0       ??_C@_19BIFMLPCD@?$AAJ?$AAu?$AAl?$AAy@ 00000001800253b0     libucrt:nlsdata.obj
 0002:000063c0       ??_C@_1O@PAHLKOAC@?$AAA?$AAu?$AAg?$AAu?$AAs?$AAt@ 00000001800253c0     libucrt:nlsdata.obj
 0002:000063d0       ??_C@_1BE@DKAAMBJL@?$AAS?$AAe?$AAp?$AAt?$AAe?$AAm?$AAb?$AAe?$AAr@ 00000001800253d0     libucrt:nlsdata.obj
 0002:000063e8       ??_C@_1BA@EPANDLNG@?$AAO?$AAc?$AAt?$AAo?$AAb?$AAe?$AAr@ 00000001800253e8     libucrt:nlsdata.obj
 0002:000063f8       ??_C@_1BC@BGLIFPF@?$AAN?$AAo?$AAv?$AAe?$AAm?$AAb?$AAe?$AAr@ 00000001800253f8     libucrt:nlsdata.obj
 0002:00006410       ??_C@_1BC@FEMKIFH@?$AAD?$AAe?$AAc?$AAe?$AAm?$AAb?$AAe?$AAr@ 0000000180025410     libucrt:nlsdata.obj
 0002:00006424       ??_C@_15ODEHAHHF@?$AAA?$AAM@ 0000000180025424     libucrt:nlsdata.obj
 0002:0000642c       ??_C@_15CLMNNGEL@?$AAP?$AAM@ 000000018002542c     libucrt:nlsdata.obj
 0002:00006438       ??_C@_1BC@IEBCMHCM@?$AAM?$AAM?$AA?1?$AAd?$AAd?$AA?1?$AAy?$AAy@ 0000000180025438     libucrt:nlsdata.obj
 0002:00006450       ??_C@_1CI@KNAKOEBC@?$AAd?$AAd?$AAd?$AAd?$AA?0?$AA?5?$AAM?$AAM?$AAM?$AAM?$AA?5?$AAd?$AAd?$AA?0?$AA?5@ 0000000180025450     libucrt:nlsdata.obj
 0002:00006478       ??_C@_1BC@GDGBMEMK@?$AAH?$AAH?$AA?3?$AAm?$AAm?$AA?3?$AAs?$AAs@ 0000000180025478     libucrt:nlsdata.obj
 0002:00006490       ??_C@_1M@BMHNFIME@?$AAe?$AAn?$AA?9?$AAU?$AAS@ 0000000180025490     libucrt:nlsdata.obj
 0002:00006540       ??_C@_1EA@JGEFHKEI@?$AAa?$AAp?$AAi?$AA?9?$AAm?$AAs?$AA?9?$AAw?$AAi?$AAn?$AA?9?$AAc?$AAo?$AAr?$AAe@ 0000000180025540     libucrt:winapi_thunks.obj
 0002:00006580       ??_C@_1DI@IJCEHOCB@?$AAa?$AAp?$AAi?$AA?9?$AAm?$AAs?$AA?9?$AAw?$AAi?$AAn?$AA?9?$AAc?$AAo?$AAr?$AAe@ 0000000180025580     libucrt:winapi_thunks.obj
 0002:000065c0       ??_C@_1EI@MPIAOHOC@?$AAa?$AAp?$AAi?$AA?9?$AAm?$AAs?$AA?9?$AAw?$AAi?$AAn?$AA?9?$AAc?$AAo?$AAr?$AAe@ 00000001800255c0     libucrt:winapi_thunks.obj
 0002:00006610       ??_C@_1FK@FPHCKFIE@?$AAa?$AAp?$AAi?$AA?9?$AAm?$AAs?$AA?9?$AAw?$AAi?$AAn?$AA?9?$AAc?$AAo?$AAr?$AAe@ 0000000180025610     libucrt:winapi_thunks.obj
 0002:00006670       ??_C@_1EM@DILCGIIO@?$AAa?$AAp?$AAi?$AA?9?$AAm?$AAs?$AA?9?$AAw?$AAi?$AAn?$AA?9?$AAc?$AAo?$AAr?$AAe@ 0000000180025670     libucrt:winapi_thunks.obj
 0002:000066c0       ??_C@_1DM@LNCGDDPN@?$AAa?$AAp?$AAi?$AA?9?$AAm?$AAs?$AA?9?$AAw?$AAi?$AAn?$AA?9?$AAc?$AAo?$AAr?$AAe@ 00000001800256c0     libucrt:winapi_thunks.obj
 0002:00006700       ??_C@_1DO@FPAPJEMD@?$AAa?$AAp?$AAi?$AA?9?$AAm?$AAs?$AA?9?$AAw?$AAi?$AAn?$AA?9?$AAc?$AAo?$AAr?$AAe@ 0000000180025700     libucrt:winapi_thunks.obj
 0002:00006740       ??_C@_1DK@NDHNAHIO@?$AAa?$AAp?$AAi?$AA?9?$AAm?$AAs?$AA?9?$AAw?$AAi?$AAn?$AA?9?$AAc?$AAo?$AAr?$AAe@ 0000000180025740     libucrt:winapi_thunks.obj
 0002:00006780       ??_C@_1DM@KGHDGBCM@?$AAa?$AAp?$AAi?$AA?9?$AAm?$AAs?$AA?9?$AAw?$AAi?$AAn?$AA?9?$AAc?$AAo?$AAr?$AAe@ 0000000180025780     libucrt:winapi_thunks.obj
 0002:000067c0       ??_C@_1EO@IJIOEFOH@?$AAa?$AAp?$AAi?$AA?9?$AAm?$AAs?$AA?9?$AAw?$AAi?$AAn?$AA?9?$AAr?$AAt?$AAc?$AAo@ 00000001800257c0     libucrt:winapi_thunks.obj
 0002:00006810       ??_C@_1FG@HHGEKANL@?$AAa?$AAp?$AAi?$AA?9?$AAm?$AAs?$AA?9?$AAw?$AAi?$AAn?$AA?9?$AAs?$AAe?$AAc?$AAu@ 0000000180025810     libucrt:winapi_thunks.obj
 0002:00006870       ??_C@_1EG@DBIOJECG@?$AAe?$AAx?$AAt?$AA?9?$AAm?$AAs?$AA?9?$AAw?$AAi?$AAn?$AA?9?$AAn?$AAt?$AAu?$AAs@ 0000000180025870     libucrt:winapi_thunks.obj
 0002:000068c0       ??_C@_1EO@FIHMJCLF@?$AAe?$AAx?$AAt?$AA?9?$AAm?$AAs?$AA?9?$AAw?$AAi?$AAn?$AA?9?$AAn?$AAt?$AAu?$AAs@ 00000001800258c0     libucrt:winapi_thunks.obj
 0002:00006910       ??_C@_1BC@DNHGCMLG@?$AAa?$AAd?$AAv?$AAa?$AAp?$AAi?$AA3?$AA2@ 0000000180025910     libucrt:winapi_thunks.obj
 0002:00006928       ??_C@_1M@OAIMIKLP@?$AAn?$AAt?$AAd?$AAl?$AAl@ 0000000180025928     libucrt:winapi_thunks.obj
 0002:00006940       ??_C@_1EG@DPGNFKGC@?$AAa?$AAp?$AAi?$AA?9?$AAm?$AAs?$AA?9?$AAw?$AAi?$AAn?$AA?9?$AAa?$AAp?$AAp?$AAm@ 0000000180025940     libucrt:winapi_thunks.obj
 0002:00006988       ??_C@_1O@BCCLBEOE@?$AAu?$AAs?$AAe?$AAr?$AA3?$AA2@ 0000000180025988     libucrt:winapi_thunks.obj
 0002:00006998       ??_C@_1BA@IAIFMGEF@?$AAe?$AAx?$AAt?$AA?9?$AAm?$AAs?$AA?9@ 0000000180025998     libucrt:winapi_thunks.obj
 0002:000069b0       ??_C@_0BA@FHFNEAED@AreFileApisANSI@ 00000001800259b0     libucrt:winapi_thunks.obj
 0002:000069f8       ??_C@_0BB@HBDEELFH@LocaleNameToLCID@ 00000001800259f8     libucrt:winapi_thunks.obj
 0002:00006a10       ??_C@_0CF@OJOFEIGO@AppPolicyGetProcessTerminationM@ 0000000180025a10     libucrt:winapi_thunks.obj
 0002:00006a38       ??_C@_03JGHBODFD@pow@      0000000180025a38     libucrt:fpexcept.obj
 0002:00006a3c       ??_C@_05HGHHAHAP@log10@    0000000180025a3c     libucrt:fpexcept.obj
 0002:00006a50       __log_256_lead             0000000180025a50     libucrt:log_256_lead_tail_table.obj
 0002:00007260       __log_256_tail             0000000180026260     libucrt:log_256_lead_tail_table.obj
 0002:00007a70       __two_to_jby64_head_table  0000000180026a70     libucrt:two_to_jby64_head_tail_table.obj
 0002:00007c70       __two_to_jby64_tail_table  0000000180026c70     libucrt:two_to_jby64_head_tail_table.obj
 0002:00007e70       ??_C@_04MBFDLNIM@powf@     0000000180026e70     libucrt:pow_special.obj
 0002:00007e80       __two_to_jby64_table       0000000180026e80     libucrt:two_to_jby64_table.obj
 0002:00008080       __log_F_inv_qword          0000000180027080     libucrt:log_f_inv_qword_table.obj
 0002:000088b0       ??_C@_1M@HPNHIDJI@?$AAj?$AAa?$AA?9?$AAJ?$AAP@ 00000001800278b0     libucrt:mbctype.obj
 0002:000088c0       ??_C@_1M@BIBDDEMK@?$AAz?$AAh?$AA?9?$AAC?$AAN@ 00000001800278c0     libucrt:mbctype.obj
 0002:000088d0       ??_C@_1M@JLOOOEGK@?$AAk?$AAo?$AA?9?$AAK?$AAR@ 00000001800278d0     libucrt:mbctype.obj
 0002:000088e0       ??_C@_1M@CLNBBOPM@?$AAz?$AAh?$AA?9?$AAT?$AAW@ 00000001800278e0     libucrt:mbctype.obj
 0002:000088ec       ??_C@_01GBGANLPD@0@        00000001800278ec     libucrt:cfout.obj
 0002:000088f0       ??_C@_05DNEBIAHO@1?$CDINF@ 00000001800278f0     libucrt:cfout.obj
 0002:000088f8       ??_C@_06IMKFLFPG@1?$CDQNAN@ 00000001800278f8     libucrt:cfout.obj
 0002:00008900       ??_C@_06PGGFOGJG@1?$CDSNAN@ 0000000180027900     libucrt:cfout.obj
 0002:00008908       ??_C@_05PHHOCPM@1?$CDIND@  0000000180027908     libucrt:cfout.obj
 0002:00008910       ??_C@_15PJPFLCCM@?$AAu?$AAk@ 0000000180027910     libucrt:get_qualified_locale.obj
 0002:00009760       ??_C@_15EMKDOKLE@?$AAa?$AAr@ 0000000180028760     libucrt:lcidtoname_downlevel.obj
 0002:00009768       ??_C@_15KNPADPLH@?$AAb?$AAg@ 0000000180028768     libucrt:lcidtoname_downlevel.obj
 0002:00009770       ??_C@_15EDMHLDMO@?$AAc?$AAa@ 0000000180028770     libucrt:lcidtoname_downlevel.obj
 0002:00009778       ??_C@_1O@BPEAJADD@?$AAz?$AAh?$AA?9?$AAC?$AAH?$AAS@ 0000000180028778     libucrt:lcidtoname_downlevel.obj
 0002:00009788       ??_C@_15LJNHCMNK@?$AAc?$AAs@ 0000000180028788     libucrt:lcidtoname_downlevel.obj
 0002:00009790       ??_C@_15FOMCIDHG@?$AAd?$AAa@ 0000000180028790     libucrt:lcidtoname_downlevel.obj
 0002:00009798       ??_C@_15NBKABECB@?$AAd?$AAe@ 0000000180028798     libucrt:lcidtoname_downlevel.obj
 0002:000097a0       ??_C@_15GHPEIIAO@?$AAe?$AAl@ 00000001800287a0     libucrt:lcidtoname_downlevel.obj
 0002:000097a8       ??_C@_15MNPNEAIF@?$AAe?$AAn@ 00000001800287a8     libucrt:lcidtoname_downlevel.obj
 0002:000097b0       ??_C@_15GPIOMPMH@?$AAe?$AAs@ 00000001800287b0     libucrt:lcidtoname_downlevel.obj
 0002:000097b8       ??_C@_15NGLOAKJC@?$AAf?$AAi@ 00000001800287b8     libucrt:lcidtoname_downlevel.obj
 0002:000097c0       ??_C@_15FBKGNKAM@?$AAf?$AAr@ 00000001800287c0     libucrt:lcidtoname_downlevel.obj
 0002:000097c8       ??_C@_15KGGCNEFK@?$AAh?$AAe@ 00000001800287c8     libucrt:lcidtoname_downlevel.obj
 0002:000097d0       ??_C@_15PGHLIDMF@?$AAh?$AAu@ 00000001800287d0     libucrt:lcidtoname_downlevel.obj
 0002:000097d8       ??_C@_15BIEMAPLM@?$AAi?$AAs@ 00000001800287d8     libucrt:lcidtoname_downlevel.obj
 0002:000097e0       ??_C@_15IFJLDHAF@?$AAi?$AAt@ 00000001800287e0     libucrt:lcidtoname_downlevel.obj
 0002:000097e8       ??_C@_15GEMIOCAG@?$AAj?$AAa@ 00000001800287e8     libucrt:lcidtoname_downlevel.obj
 0002:000097f0       ??_C@_15EPELEGJA@?$AAk?$AAo@ 00000001800287f0     libucrt:lcidtoname_downlevel.obj
 0002:000097f8       ??_C@_15NDDHIMN@?$AAn?$AAl@ 00000001800287f8     libucrt:lcidtoname_downlevel.obj
 0002:00009800       ??_C@_15BPIGNHCD@?$AAn?$AAo@ 0000000180028800     libucrt:lcidtoname_downlevel.obj
 0002:00009808       ??_C@_15DEOPBLCG@?$AAp?$AAl@ 0000000180028808     libucrt:lcidtoname_downlevel.obj
 0002:00009810       ??_C@_15KBECGEFG@?$AAp?$AAt@ 0000000180028810     libucrt:lcidtoname_downlevel.obj
 0002:00009818       ??_C@_15GLJCBFMD@?$AAr?$AAo@ 0000000180028818     libucrt:lcidtoname_downlevel.obj
 0002:00009820       ??_C@_15FEDGKCDI@?$AAr?$AAu@ 0000000180028820     libucrt:lcidtoname_downlevel.obj
 0002:00009828       ??_C@_15GLKMLLHM@?$AAh?$AAr@ 0000000180028828     libucrt:lcidtoname_downlevel.obj
 0002:00009830       ??_C@_15CPKMFBDB@?$AAs?$AAk@ 0000000180028830     libucrt:lcidtoname_downlevel.obj
 0002:00009838       ??_C@_15BAAIOGMK@?$AAs?$AAq@ 0000000180028838     libucrt:lcidtoname_downlevel.obj
 0002:00009840       ??_C@_15INNPNOHD@?$AAs?$AAv@ 0000000180028840     libucrt:lcidtoname_downlevel.obj
 0002:00009848       ??_C@_15CABMMOGH@?$AAt?$AAh@ 0000000180028848     libucrt:lcidtoname_downlevel.obj
 0002:00009850       ??_C@_15BPLIHJJM@?$AAt?$AAr@ 0000000180028850     libucrt:lcidtoname_downlevel.obj
 0002:00009858       ??_C@_15NEOEKKDJ@?$AAu?$AAr@ 0000000180028858     libucrt:lcidtoname_downlevel.obj
 0002:00009860       ??_C@_15NFICGAJK@?$AAi?$AAd@ 0000000180028860     libucrt:lcidtoname_downlevel.obj
 0002:00009868       ??_C@_15HPJPHDM@?$AAb?$AAe@ 0000000180028868     libucrt:lcidtoname_downlevel.obj
 0002:00009870       ??_C@_15LCHLGJII@?$AAs?$AAl@ 0000000180028870     libucrt:lcidtoname_downlevel.obj
 0002:00009878       ??_C@_15PCFJPHHO@?$AAe?$AAt@ 0000000180028878     libucrt:lcidtoname_downlevel.obj
 0002:00009880       ??_C@_15HPFPGODN@?$AAl?$AAv@ 0000000180028880     libucrt:lcidtoname_downlevel.obj
 0002:00009888       ??_C@_15NFFGKGLG@?$AAl?$AAt@ 0000000180028888     libucrt:lcidtoname_downlevel.obj
 0002:00009890       ??_C@_15BDAKCCHN@?$AAf?$AAa@ 0000000180028890     libucrt:lcidtoname_downlevel.obj
 0002:00009898       ??_C@_15NFGIAIAJ@?$AAv?$AAi@ 0000000180028898     libucrt:lcidtoname_downlevel.obj
 0002:000098a0       ??_C@_15LMKNDMHN@?$AAh?$AAy@ 00000001800288a0     libucrt:lcidtoname_downlevel.obj
 0002:000098a8       ??_C@_15IJBHMCFL@?$AAa?$AAz@ 00000001800288a8     libucrt:lcidtoname_downlevel.obj
 0002:000098b0       ??_C@_15EKOFJABL@?$AAe?$AAu@ 00000001800288b0     libucrt:lcidtoname_downlevel.obj
 0002:000098b8       ??_C@_15BGHADCNK@?$AAm?$AAk@ 00000001800288b8     libucrt:lcidtoname_downlevel.obj
 0002:000098c0       ??_C@_15JDNICKHM@?$AAa?$AAf@ 00000001800288c0     libucrt:lcidtoname_downlevel.obj
 0002:000098c8       ??_C@_15KPJEDBKD@?$AAk?$AAa@ 00000001800288c8     libucrt:lcidtoname_downlevel.obj
 0002:000098d0       ??_C@_15PDNFFFEO@?$AAf?$AAo@ 00000001800288d0     libucrt:lcidtoname_downlevel.obj
 0002:000098d8       ??_C@_15OMLEGLOC@?$AAh?$AAi@ 00000001800288d8     libucrt:lcidtoname_downlevel.obj
 0002:000098e0       ??_C@_15IDNNENKK@?$AAm?$AAs@ 00000001800288e0     libucrt:lcidtoname_downlevel.obj
 0002:000098e8       ??_C@_15MACJNBMH@?$AAk?$AAk@ 00000001800288e8     libucrt:lcidtoname_downlevel.obj
 0002:000098f0       ??_C@_15DKDJEOND@?$AAk?$AAy@ 00000001800288f0     libucrt:lcidtoname_downlevel.obj
 0002:000098f8       ??_C@_15DFGDLJBG@?$AAs?$AAw@ 00000001800288f8     libucrt:lcidtoname_downlevel.obj
 0002:00009900       ??_C@_15BBFAICNG@?$AAu?$AAz@ 0000000180028900     libucrt:lcidtoname_downlevel.obj
 0002:00009908       ??_C@_15DKNDCGEA@?$AAt?$AAt@ 0000000180028908     libucrt:lcidtoname_downlevel.obj
 0002:00009910       ??_C@_15MGIFMDPL@?$AAp?$AAa@ 0000000180028910     libucrt:lcidtoname_downlevel.obj
 0002:00009918       ??_C@_15HCNDBBA@?$AAg?$AAu@ 0000000180028918     libucrt:lcidtoname_downlevel.obj
 0002:00009920       ??_C@_15FNBEIBON@?$AAt?$AAa@ 0000000180028920     libucrt:lcidtoname_downlevel.obj
 0002:00009928       ??_C@_15NCHGBGLK@?$AAt?$AAe@ 0000000180028928     libucrt:lcidtoname_downlevel.obj
 0002:00009930       ??_C@_15PHPHCBPF@?$AAk?$AAn@ 0000000180028930     libucrt:lcidtoname_downlevel.obj
 0002:00009938       ??_C@_15DLGBCKMP@?$AAm?$AAr@ 0000000180028938     libucrt:lcidtoname_downlevel.obj
 0002:00009940       ??_C@_15EABBLBFF@?$AAs?$AAa@ 0000000180028940     libucrt:lcidtoname_downlevel.obj
 0002:00009948       ??_C@_15CBKOMCOI@?$AAm?$AAn@ 0000000180028948     libucrt:lcidtoname_downlevel.obj
 0002:00009950       ??_C@_15CKDMCJAF@?$AAg?$AAl@ 0000000180028950     libucrt:lcidtoname_downlevel.obj
 0002:00009958       ??_C@_17CNJFBPG@?$AAk?$AAo?$AAk@ 0000000180028958     libucrt:lcidtoname_downlevel.obj
 0002:00009960       ??_C@_17FFBJICPL@?$AAs?$AAy?$AAr@ 0000000180028960     libucrt:lcidtoname_downlevel.obj
 0002:00009968       ??_C@_17KPNDCPAF@?$AAd?$AAi?$AAv@ 0000000180028968     libucrt:lcidtoname_downlevel.obj
 0002:00009970       ??_C@_1M@OKAHONE@?$AAa?$AAr?$AA?9?$AAS?$AAA@ 0000000180028970     libucrt:lcidtoname_downlevel.obj
 0002:00009980       ??_C@_1M@FFFIGIGK@?$AAb?$AAg?$AA?9?$AAB?$AAG@ 0000000180028980     libucrt:lcidtoname_downlevel.obj
 0002:00009990       ??_C@_1M@BJNKEDC@?$AAc?$AAa?$AA?9?$AAE?$AAS@ 0000000180028990     libucrt:lcidtoname_downlevel.obj
 0002:000099a0       ??_C@_1M@IJJHFJHA@?$AAc?$AAs?$AA?9?$AAC?$AAZ@ 00000001800289a0     libucrt:lcidtoname_downlevel.obj
 0002:000099b0       ??_C@_1M@CLPEOBGI@?$AAd?$AAa?$AA?9?$AAD?$AAK@ 00000001800289b0     libucrt:lcidtoname_downlevel.obj
 0002:000099c0       ??_C@_1M@MCMADGCB@?$AAd?$AAe?$AA?9?$AAD?$AAE@ 00000001800289c0     libucrt:lcidtoname_downlevel.obj
 0002:000099d0       ??_C@_1M@OOCKEMAM@?$AAe?$AAl?$AA?9?$AAG?$AAR@ 00000001800289d0     libucrt:lcidtoname_downlevel.obj
 0002:000099e0       ??_C@_1M@DDNJFGID@?$AAf?$AAi?$AA?9?$AAF?$AAI@ 00000001800289e0     libucrt:lcidtoname_downlevel.obj
 0002:000099f0       ??_C@_1M@GLIPPMAC@?$AAf?$AAr?$AA?9?$AAF?$AAR@ 00000001800289f0     libucrt:lcidtoname_downlevel.obj
 0002:00009a00       ??_C@_1M@GFMCHPE@?$AAh?$AAe?$AA?9?$AAI?$AAL@ 0000000180028a00     libucrt:lcidtoname_downlevel.obj
 0002:00009a10       ??_C@_1M@MHLPGNKM@?$AAh?$AAu?$AA?9?$AAH?$AAU@ 0000000180028a10     libucrt:lcidtoname_downlevel.obj
 0002:00009a20       ??_C@_1M@LPDDNNPN@?$AAi?$AAs?$AA?9?$AAI?$AAS@ 0000000180028a20     libucrt:lcidtoname_downlevel.obj
 0002:00009a30       ??_C@_1M@MADIPODN@?$AAi?$AAt?$AA?9?$AAI?$AAT@ 0000000180028a30     libucrt:lcidtoname_downlevel.obj
 0002:00009a40       ??_C@_1M@IHBJJGG@?$AAn?$AAl?$AA?9?$AAN?$AAL@ 0000000180028a40     libucrt:lcidtoname_downlevel.obj
 0002:00009a50       ??_C@_1M@EANAGDL@?$AAn?$AAb?$AA?9?$AAN?$AAO@ 0000000180028a50     libucrt:lcidtoname_downlevel.obj
 0002:00009a60       ??_C@_1M@NEIEMEGP@?$AAp?$AAl?$AA?9?$AAP?$AAL@ 0000000180028a60     libucrt:lcidtoname_downlevel.obj
 0002:00009a70       ??_C@_1M@BOCFIGEP@?$AAp?$AAt?$AA?9?$AAB?$AAR@ 0000000180028a70     libucrt:lcidtoname_downlevel.obj
 0002:00009a80       ??_C@_1M@IMPFOPBG@?$AAr?$AAo?$AA?9?$AAR?$AAO@ 0000000180028a80     libucrt:lcidtoname_downlevel.obj
 0002:00009a90       ??_C@_1M@IDNNEJMM@?$AAr?$AAu?$AA?9?$AAR?$AAU@ 0000000180028a90     libucrt:lcidtoname_downlevel.obj
 0002:00009aa0       ??_C@_1M@LILEEOGM@?$AAh?$AAr?$AA?9?$AAH?$AAR@ 0000000180028aa0     libucrt:lcidtoname_downlevel.obj
 0002:00009ab0       ??_C@_1M@FKIFEHPB@?$AAs?$AAk?$AA?9?$AAS?$AAK@ 0000000180028ab0     libucrt:lcidtoname_downlevel.obj
 0002:00009ac0       ??_C@_1M@LJMAMNPJ@?$AAs?$AAq?$AA?9?$AAA?$AAL@ 0000000180028ac0     libucrt:lcidtoname_downlevel.obj
 0002:00009ad0       ??_C@_1M@GIAKDKJK@?$AAs?$AAv?$AA?9?$AAS?$AAE@ 0000000180028ad0     libucrt:lcidtoname_downlevel.obj
 0002:00009ae0       ??_C@_1M@MKJKIKCL@?$AAt?$AAh?$AA?9?$AAT?$AAH@ 0000000180028ae0     libucrt:lcidtoname_downlevel.obj
 0002:00009af0       ??_C@_1M@MFLCCMPB@?$AAt?$AAr?$AA?9?$AAT?$AAR@ 0000000180028af0     libucrt:lcidtoname_downlevel.obj
 0002:00009b00       ??_C@_1M@OIJHDKJN@?$AAu?$AAr?$AA?9?$AAP?$AAK@ 0000000180028b00     libucrt:lcidtoname_downlevel.obj
 0002:00009b10       ??_C@_1M@LHIPCIEK@?$AAi?$AAd?$AA?9?$AAI?$AAD@ 0000000180028b10     libucrt:lcidtoname_downlevel.obj
 0002:00009b20       ??_C@_1M@MFMOBGI@?$AAu?$AAk?$AA?9?$AAU?$AAA@ 0000000180028b20     libucrt:lcidtoname_downlevel.obj
 0002:00009b30       ??_C@_1M@OBGLJIPL@?$AAb?$AAe?$AA?9?$AAB?$AAY@ 0000000180028b30     libucrt:lcidtoname_downlevel.obj
 0002:00009b40       ??_C@_1M@BCFAJEAD@?$AAs?$AAl?$AA?9?$AAS?$AAI@ 0000000180028b40     libucrt:lcidtoname_downlevel.obj
 0002:00009b50       ??_C@_1M@FKFFEDDN@?$AAe?$AAt?$AA?9?$AAE?$AAE@ 0000000180028b50     libucrt:lcidtoname_downlevel.obj
 0002:00009b60       ??_C@_1M@KGKKAACI@?$AAl?$AAv?$AA?9?$AAL?$AAV@ 0000000180028b60     libucrt:lcidtoname_downlevel.obj
 0002:00009b70       ??_C@_1M@IFGBIJO@?$AAl?$AAt?$AA?9?$AAL?$AAT@ 0000000180028b70     libucrt:lcidtoname_downlevel.obj
 0002:00009b80       ??_C@_1M@FGEAHEDM@?$AAf?$AAa?$AA?9?$AAI?$AAR@ 0000000180028b80     libucrt:lcidtoname_downlevel.obj
 0002:00009b90       ??_C@_1M@KBMAIBFN@?$AAv?$AAi?$AA?9?$AAV?$AAN@ 0000000180028b90     libucrt:lcidtoname_downlevel.obj
 0002:00009ba0       ??_C@_1M@GPCBKDJK@?$AAh?$AAy?$AA?9?$AAA?$AAM@ 0000000180028ba0     libucrt:lcidtoname_downlevel.obj
 0002:00009bb0       ??_C@_1BG@BECMDDJB@?$AAa?$AAz?$AA?9?$AAA?$AAZ?$AA?9?$AAL?$AAa?$AAt?$AAn@ 0000000180028bb0     libucrt:lcidtoname_downlevel.obj
 0002:00009bc8       ??_C@_1M@MAOFCAEA@?$AAe?$AAu?$AA?9?$AAE?$AAS@ 0000000180028bc8     libucrt:lcidtoname_downlevel.obj
 0002:00009bd8       ??_C@_1M@IGHABKPI@?$AAm?$AAk?$AA?9?$AAM?$AAK@ 0000000180028bd8     libucrt:lcidtoname_downlevel.obj
 0002:00009be8       ??_C@_1M@IAIGNEJG@?$AAt?$AAn?$AA?9?$AAZ?$AAA@ 0000000180028be8     libucrt:lcidtoname_downlevel.obj
 0002:00009bf8       ??_C@_1M@IIJCOJFA@?$AAx?$AAh?$AA?9?$AAZ?$AAA@ 0000000180028bf8     libucrt:lcidtoname_downlevel.obj
 0002:00009c08       ??_C@_1M@LGPJHNJH@?$AAz?$AAu?$AA?9?$AAZ?$AAA@ 0000000180028c08     libucrt:lcidtoname_downlevel.obj
 0002:00009c18       ??_C@_1M@HOKAOIO@?$AAa?$AAf?$AA?9?$AAZ?$AAA@ 0000000180028c18     libucrt:lcidtoname_downlevel.obj
 0002:00009c28       ??_C@_1M@DPCLHLIE@?$AAk?$AAa?$AA?9?$AAG?$AAE@ 0000000180028c28     libucrt:lcidtoname_downlevel.obj
 0002:00009c38       ??_C@_1M@BLKMHJBI@?$AAf?$AAo?$AA?9?$AAF?$AAO@ 0000000180028c38     libucrt:lcidtoname_downlevel.obj
 0002:00009c48       ??_C@_1M@LGGJAPPB@?$AAh?$AAi?$AA?9?$AAI?$AAN@ 0000000180028c48     libucrt:lcidtoname_downlevel.obj
 0002:00009c58       ??_C@_1M@FIKPIHFE@?$AAm?$AAt?$AA?9?$AAM?$AAT@ 0000000180028c58     libucrt:lcidtoname_downlevel.obj
 0002:00009c68       ??_C@_1M@HEGGPBFA@?$AAs?$AAe?$AA?9?$AAN?$AAO@ 0000000180028c68     libucrt:lcidtoname_downlevel.obj
 0002:00009c78       ??_C@_1M@EIBJEEPA@?$AAm?$AAs?$AA?9?$AAM?$AAY@ 0000000180028c78     libucrt:lcidtoname_downlevel.obj
 0002:00009c88       ??_C@_1M@FHLBGMPP@?$AAk?$AAk?$AA?9?$AAK?$AAZ@ 0000000180028c88     libucrt:lcidtoname_downlevel.obj
 0002:00009c98       ??_C@_1M@NGJJLCGI@?$AAk?$AAy?$AA?9?$AAK?$AAG@ 0000000180028c98     libucrt:lcidtoname_downlevel.obj
 0002:00009ca8       ??_C@_1M@GIENNBFC@?$AAs?$AAw?$AA?9?$AAK?$AAE@ 0000000180028ca8     libucrt:lcidtoname_downlevel.obj
 0002:00009cb8       ??_C@_1BG@NDGMJIMJ@?$AAu?$AAz?$AA?9?$AAU?$AAZ?$AA?9?$AAL?$AAa?$AAt?$AAn@ 0000000180028cb8     libucrt:lcidtoname_downlevel.obj
 0002:00009cd0       ??_C@_1M@IDCCIHBC@?$AAt?$AAt?$AA?9?$AAR?$AAU@ 0000000180028cd0     libucrt:lcidtoname_downlevel.obj
 0002:00009ce0       ??_C@_1M@LOICPMOJ@?$AAb?$AAn?$AA?9?$AAI?$AAN@ 0000000180028ce0     libucrt:lcidtoname_downlevel.obj
 0002:00009cf0       ??_C@_1M@KPKKNEAH@?$AAp?$AAa?$AA?9?$AAI?$AAN@ 0000000180028cf0     libucrt:lcidtoname_downlevel.obj
 0002:00009d00       ??_C@_1M@PJGPPBOG@?$AAg?$AAu?$AA?9?$AAI?$AAN@ 0000000180028d00     libucrt:lcidtoname_downlevel.obj
 0002:00009d10       ??_C@_1M@KMKMOPHI@?$AAt?$AAa?$AA?9?$AAI?$AAN@ 0000000180028d10     libucrt:lcidtoname_downlevel.obj
 0002:00009d20       ??_C@_1M@KFEHEPAC@?$AAt?$AAe?$AA?9?$AAI?$AAN@ 0000000180028d20     libucrt:lcidtoname_downlevel.obj
 0002:00009d30       ??_C@_1M@CDCLMGHI@?$AAk?$AAn?$AA?9?$AAI?$AAN@ 0000000180028d30     libucrt:lcidtoname_downlevel.obj
 0002:00009d40       ??_C@_1M@MIODLDKF@?$AAm?$AAl?$AA?9?$AAI?$AAN@ 0000000180028d40     libucrt:lcidtoname_downlevel.obj
 0002:00009d50       ??_C@_1M@PBIEACPO@?$AAm?$AAr?$AA?9?$AAI?$AAN@ 0000000180028d50     libucrt:lcidtoname_downlevel.obj
 0002:00009d60       ??_C@_1M@NIDEAGPH@?$AAs?$AAa?$AA?9?$AAI?$AAN@ 0000000180028d60     libucrt:lcidtoname_downlevel.obj
 0002:00009d70       ??_C@_1M@FHIHCBIO@?$AAm?$AAn?$AA?9?$AAM?$AAN@ 0000000180028d70     libucrt:lcidtoname_downlevel.obj
 0002:00009d80       ??_C@_1M@JAIJPENP@?$AAc?$AAy?$AA?9?$AAG?$AAB@ 0000000180028d80     libucrt:lcidtoname_downlevel.obj
 0002:00009d90       ??_C@_1M@PHGFBEPN@?$AAg?$AAl?$AA?9?$AAE?$AAS@ 0000000180028d90     libucrt:lcidtoname_downlevel.obj
 0002:00009da0       ??_C@_1O@KPIPDNCP@?$AAk?$AAo?$AAk?$AA?9?$AAI?$AAN@ 0000000180028da0     libucrt:lcidtoname_downlevel.obj
 0002:00009db0       ??_C@_1O@KNHJLDJA@?$AAs?$AAy?$AAr?$AA?9?$AAS?$AAY@ 0000000180028db0     libucrt:lcidtoname_downlevel.obj
 0002:00009dc0       ??_C@_1O@MKEKBLAH@?$AAd?$AAi?$AAv?$AA?9?$AAM?$AAV@ 0000000180028dc0     libucrt:lcidtoname_downlevel.obj
 0002:00009dd0       ??_C@_1O@OHDCKDDF@?$AAq?$AAu?$AAz?$AA?9?$AAB?$AAO@ 0000000180028dd0     libucrt:lcidtoname_downlevel.obj
 0002:00009de0       ??_C@_1M@LEPJNLFD@?$AAn?$AAs?$AA?9?$AAZ?$AAA@ 0000000180028de0     libucrt:lcidtoname_downlevel.obj
 0002:00009df0       ??_C@_1M@OMLEIIJB@?$AAm?$AAi?$AA?9?$AAN?$AAZ@ 0000000180028df0     libucrt:lcidtoname_downlevel.obj
 0002:00009e00       ??_C@_1M@PMPEAILG@?$AAa?$AAr?$AA?9?$AAI?$AAQ@ 0000000180028e00     libucrt:lcidtoname_downlevel.obj
 0002:00009e10       ??_C@_1M@CNKPNOEE@?$AAd?$AAe?$AA?9?$AAC?$AAH@ 0000000180028e10     libucrt:lcidtoname_downlevel.obj
 0002:00009e20       ??_C@_1M@LKMGMLKO@?$AAe?$AAn?$AA?9?$AAG?$AAB@ 0000000180028e20     libucrt:lcidtoname_downlevel.obj
 0002:00009e30       ??_C@_1M@PGKJFFGL@?$AAe?$AAs?$AA?9?$AAM?$AAX@ 0000000180028e30     libucrt:lcidtoname_downlevel.obj
 0002:00009e40       ??_C@_1M@DNNANBDC@?$AAf?$AAr?$AA?9?$AAB?$AAE@ 0000000180028e40     libucrt:lcidtoname_downlevel.obj
 0002:00009e50       ??_C@_1M@HLGMDFHM@?$AAi?$AAt?$AA?9?$AAC?$AAH@ 0000000180028e50     libucrt:lcidtoname_downlevel.obj
 0002:00009e60       ??_C@_1M@CLLBGJH@?$AAn?$AAl?$AA?9?$AAB?$AAE@ 0000000180028e60     libucrt:lcidtoname_downlevel.obj
 0002:00009e70       ??_C@_1M@BODBOGLF@?$AAn?$AAn?$AA?9?$AAN?$AAO@ 0000000180028e70     libucrt:lcidtoname_downlevel.obj
 0002:00009e80       ??_C@_1M@HFFAHKAD@?$AAp?$AAt?$AA?9?$AAP?$AAT@ 0000000180028e80     libucrt:lcidtoname_downlevel.obj
 0002:00009e90       ??_C@_1BG@LNOAKHIE@?$AAs?$AAr?$AA?9?$AAS?$AAP?$AA?9?$AAL?$AAa?$AAt?$AAn@ 0000000180028e90     libucrt:lcidtoname_downlevel.obj
 0002:00009ea8       ??_C@_1M@HBMHBGAK@?$AAs?$AAv?$AA?9?$AAF?$AAI@ 0000000180028ea8     libucrt:lcidtoname_downlevel.obj
 0002:00009eb8       ??_C@_1BG@DGCJGJBE@?$AAa?$AAz?$AA?9?$AAA?$AAZ?$AA?9?$AAC?$AAy?$AAr?$AAl@ 0000000180028eb8     libucrt:lcidtoname_downlevel.obj
 0002:00009ed0       ??_C@_1M@KEJDAAHB@?$AAs?$AAe?$AA?9?$AAS?$AAE@ 0000000180028ed0     libucrt:lcidtoname_downlevel.obj
 0002:00009ee0       ??_C@_1M@HEIBJJAD@?$AAm?$AAs?$AA?9?$AAB?$AAN@ 0000000180028ee0     libucrt:lcidtoname_downlevel.obj
 0002:00009ef0       ??_C@_1BG@PBGJMCEM@?$AAu?$AAz?$AA?9?$AAU?$AAZ?$AA?9?$AAC?$AAy?$AAr?$AAl@ 0000000180028ef0     libucrt:lcidtoname_downlevel.obj
 0002:00009f08       ??_C@_1O@LAOBCMDF@?$AAq?$AAu?$AAz?$AA?9?$AAE?$AAC@ 0000000180028f08     libucrt:lcidtoname_downlevel.obj
 0002:00009f18       ??_C@_1M@POEEMAIO@?$AAa?$AAr?$AA?9?$AAE?$AAG@ 0000000180028f18     libucrt:lcidtoname_downlevel.obj
 0002:00009f28       ??_C@_1M@EFAKDEDL@?$AAz?$AAh?$AA?9?$AAH?$AAK@ 0000000180028f28     libucrt:lcidtoname_downlevel.obj
 0002:00009f38       ??_C@_1M@HKKIJHGI@?$AAd?$AAe?$AA?9?$AAA?$AAT@ 0000000180028f38     libucrt:lcidtoname_downlevel.obj
 0002:00009f48       ??_C@_1M@KBFBEHJF@?$AAe?$AAn?$AA?9?$AAA?$AAU@ 0000000180028f48     libucrt:lcidtoname_downlevel.obj
 0002:00009f58       ??_C@_1M@MNPLFAAH@?$AAe?$AAs?$AA?9?$AAE?$AAS@ 0000000180028f58     libucrt:lcidtoname_downlevel.obj
 0002:00009f68       ??_C@_1M@HJOOJFMA@?$AAf?$AAr?$AA?9?$AAC?$AAA@ 0000000180028f68     libucrt:lcidtoname_downlevel.obj
 0002:00009f78       ??_C@_1BG@JPOFPNAB@?$AAs?$AAr?$AA?9?$AAS?$AAP?$AA?9?$AAC?$AAy?$AAr?$AAl@ 0000000180028f78     libucrt:lcidtoname_downlevel.obj
 0002:00009f90       ??_C@_1M@LNFOCMOB@?$AAs?$AAe?$AA?9?$AAF?$AAI@ 0000000180028f90     libucrt:lcidtoname_downlevel.obj
 0002:00009fa0       ??_C@_1O@MGJBOAMB@?$AAq?$AAu?$AAz?$AA?9?$AAP?$AAE@ 0000000180028fa0     libucrt:lcidtoname_downlevel.obj
 0002:00009fb0       ??_C@_1M@GJINLBOK@?$AAa?$AAr?$AA?9?$AAL?$AAY@ 0000000180028fb0     libucrt:lcidtoname_downlevel.obj
 0002:00009fc0       ??_C@_1M@GGMNHJNL@?$AAz?$AAh?$AA?9?$AAS?$AAG@ 0000000180028fc0     libucrt:lcidtoname_downlevel.obj
 0002:00009fd0       ??_C@_1M@HOIKODND@?$AAd?$AAe?$AA?9?$AAL?$AAU@ 0000000180028fd0     libucrt:lcidtoname_downlevel.obj
 0002:00009fe0       ??_C@_1M@DDOCCGFG@?$AAe?$AAn?$AA?9?$AAC?$AAA@ 0000000180028fe0     libucrt:lcidtoname_downlevel.obj
 0002:00009ff0       ??_C@_1M@BNOEMJLF@?$AAe?$AAs?$AA?9?$AAG?$AAT@ 0000000180028ff0     libucrt:lcidtoname_downlevel.obj
 0002:0000a000       ??_C@_1M@EOGNKEK@?$AAf?$AAr?$AA?9?$AAC?$AAH@ 0000000180029000     libucrt:lcidtoname_downlevel.obj
 0002:0000a010       ??_C@_1M@FLIDJFHL@?$AAh?$AAr?$AA?9?$AAB?$AAA@ 0000000180029010     libucrt:lcidtoname_downlevel.obj
 0002:0000a020       ??_C@_1O@FMCELNAJ@?$AAs?$AAm?$AAj?$AA?9?$AAN?$AAO@ 0000000180029020     libucrt:lcidtoname_downlevel.obj
 0002:0000a030       ??_C@_1M@JHGLJMGJ@?$AAa?$AAr?$AA?9?$AAD?$AAZ@ 0000000180029030     libucrt:lcidtoname_downlevel.obj
 0002:0000a040       ??_C@_1M@JKKFDCNP@?$AAz?$AAh?$AA?9?$AAM?$AAO@ 0000000180029040     libucrt:lcidtoname_downlevel.obj
 0002:0000a050       ??_C@_1M@GEEFALPE@?$AAd?$AAe?$AA?9?$AAL?$AAI@ 0000000180029050     libucrt:lcidtoname_downlevel.obj
 0002:0000a060       ??_C@_1M@IGEOFBG@?$AAe?$AAn?$AA?9?$AAN?$AAZ@ 0000000180029060     libucrt:lcidtoname_downlevel.obj
 0002:0000a070       ??_C@_1M@KDBONEHP@?$AAe?$AAs?$AA?9?$AAC?$AAR@ 0000000180029070     libucrt:lcidtoname_downlevel.obj
 0002:0000a080       ??_C@_1M@FHMDOHNN@?$AAf?$AAr?$AA?9?$AAL?$AAU@ 0000000180029080     libucrt:lcidtoname_downlevel.obj
 0002:0000a090       ??_C@_1BG@NFKKMAFG@?$AAb?$AAs?$AA?9?$AAB?$AAA?$AA?9?$AAL?$AAa?$AAt?$AAn@ 0000000180029090     libucrt:lcidtoname_downlevel.obj
 0002:0000a0a8       ??_C@_1O@IMNBEMCI@?$AAs?$AAm?$AAj?$AA?9?$AAS?$AAE@ 00000001800290a8     libucrt:lcidtoname_downlevel.obj
 0002:0000a0b8       ??_C@_1M@DHHMBNDP@?$AAa?$AAr?$AA?9?$AAM?$AAA@ 00000001800290b8     libucrt:lcidtoname_downlevel.obj
 0002:0000a0c8       ??_C@_1M@BNBLJCGH@?$AAe?$AAn?$AA?9?$AAI?$AAE@ 00000001800290c8     libucrt:lcidtoname_downlevel.obj
 0002:0000a0d8       ??_C@_1M@GEPAFMDL@?$AAe?$AAs?$AA?9?$AAP?$AAA@ 00000001800290d8     libucrt:lcidtoname_downlevel.obj
 0002:0000a0e8       ??_C@_1M@OJONDMDL@?$AAf?$AAr?$AA?9?$AAM?$AAC@ 00000001800290e8     libucrt:lcidtoname_downlevel.obj
 0002:0000a0f8       ??_C@_1BG@OBCNFJB@?$AAs?$AAr?$AA?9?$AAB?$AAA?$AA?9?$AAL?$AAa?$AAt?$AAn@ 00000001800290f8     libucrt:lcidtoname_downlevel.obj
 0002:0000a110       ??_C@_1O@KEMEEGPO@?$AAs?$AAm?$AAa?$AA?9?$AAN?$AAO@ 0000000180029110     libucrt:lcidtoname_downlevel.obj
 0002:0000a120       ??_C@_1M@ELMGFODK@?$AAa?$AAr?$AA?9?$AAT?$AAN@ 0000000180029120     libucrt:lcidtoname_downlevel.obj
 0002:0000a130       ??_C@_1M@BHDLHFAF@?$AAe?$AAn?$AA?9?$AAZ?$AAA@ 0000000180029130     libucrt:lcidtoname_downlevel.obj
 0002:0000a140       ??_C@_1M@BMGIGLIF@?$AAe?$AAs?$AA?9?$AAD?$AAO@ 0000000180029140     libucrt:lcidtoname_downlevel.obj
 0002:0000a150       ??_C@_1BG@CMBHIPBE@?$AAs?$AAr?$AA?9?$AAB?$AAA?$AA?9?$AAC?$AAy?$AAr?$AAl@ 0000000180029150     libucrt:lcidtoname_downlevel.obj
 0002:0000a168       ??_C@_1O@HEDBLHNP@?$AAs?$AAm?$AAa?$AA?9?$AAS?$AAE@ 0000000180029168     libucrt:lcidtoname_downlevel.obj
 0002:0000a178       ??_C@_1M@DAGCADIM@?$AAa?$AAr?$AA?9?$AAO?$AAM@ 0000000180029178     libucrt:lcidtoname_downlevel.obj
 0002:0000a188       ??_C@_1M@FODLMICG@?$AAe?$AAn?$AA?9?$AAJ?$AAM@ 0000000180029188     libucrt:lcidtoname_downlevel.obj
 0002:0000a198       ??_C@_1M@DNMLCIHB@?$AAe?$AAs?$AA?9?$AAV?$AAE@ 0000000180029198     libucrt:lcidtoname_downlevel.obj
 0002:0000a1a8       ??_C@_1O@EOKHMKJK@?$AAs?$AAm?$AAs?$AA?9?$AAF?$AAI@ 00000001800291a8     libucrt:lcidtoname_downlevel.obj
 0002:0000a1b8       ??_C@_1M@CAFJMKOF@?$AAa?$AAr?$AA?9?$AAY?$AAE@ 00000001800291b8     libucrt:lcidtoname_downlevel.obj
 0002:0000a1c8       ??_C@_1M@CBFHIJLI@?$AAe?$AAn?$AA?9?$AAC?$AAB@ 00000001800291c8     libucrt:lcidtoname_downlevel.obj
 0002:0000a1d8       ??_C@_1M@BGNFLDN@?$AAe?$AAs?$AA?9?$AAC?$AAO@ 00000001800291d8     libucrt:lcidtoname_downlevel.obj
 0002:0000a1e8       ??_C@_1O@JMPHMAMC@?$AAs?$AAm?$AAn?$AA?9?$AAF?$AAI@ 00000001800291e8     libucrt:lcidtoname_downlevel.obj
 0002:0000a1f8       ??_C@_1M@JLANABKE@?$AAa?$AAr?$AA?9?$AAS?$AAY@ 00000001800291f8     libucrt:lcidtoname_downlevel.obj
 0002:0000a208       ??_C@_1M@HPKGCFGN@?$AAe?$AAn?$AA?9?$AAB?$AAZ@ 0000000180029208     libucrt:lcidtoname_downlevel.obj
 0002:0000a218       ??_C@_1M@OLJCMLGM@?$AAe?$AAs?$AA?9?$AAP?$AAE@ 0000000180029218     libucrt:lcidtoname_downlevel.obj
 0002:0000a228       ??_C@_1M@MKKGFKLE@?$AAa?$AAr?$AA?9?$AAJ?$AAO@ 0000000180029228     libucrt:lcidtoname_downlevel.obj
 0002:0000a238       ??_C@_1M@EKPGLDNI@?$AAe?$AAn?$AA?9?$AAT?$AAT@ 0000000180029238     libucrt:lcidtoname_downlevel.obj
 0002:0000a248       ??_C@_1M@OONGHFHE@?$AAe?$AAs?$AA?9?$AAA?$AAR@ 0000000180029248     libucrt:lcidtoname_downlevel.obj
 0002:0000a258       ??_C@_1M@OOJFGBHE@?$AAa?$AAr?$AA?9?$AAL?$AAB@ 0000000180029258     libucrt:lcidtoname_downlevel.obj
 0002:0000a268       ??_C@_1M@GCEJHNEG@?$AAe?$AAn?$AA?9?$AAZ?$AAW@ 0000000180029268     libucrt:lcidtoname_downlevel.obj
 0002:0000a278       ??_C@_1M@JNOCAHJI@?$AAe?$AAs?$AA?9?$AAE?$AAC@ 0000000180029278     libucrt:lcidtoname_downlevel.obj
 0002:0000a288       ??_C@_1M@JEFHPGGB@?$AAa?$AAr?$AA?9?$AAK?$AAW@ 0000000180029288     libucrt:lcidtoname_downlevel.obj
 0002:0000a298       ??_C@_1M@MLKIBJOJ@?$AAe?$AAn?$AA?9?$AAP?$AAH@ 0000000180029298     libucrt:lcidtoname_downlevel.obj
 0002:0000a2a8       ??_C@_1M@BDNIPEND@?$AAe?$AAs?$AA?9?$AAC?$AAL@ 00000001800292a8     libucrt:lcidtoname_downlevel.obj
 0002:0000a2b8       ??_C@_1M@MPNMEKBD@?$AAa?$AAr?$AA?9?$AAA?$AAE@ 00000001800292b8     libucrt:lcidtoname_downlevel.obj
 0002:0000a2c8       ??_C@_1M@KBJALCPI@?$AAe?$AAs?$AA?9?$AAU?$AAY@ 00000001800292c8     libucrt:lcidtoname_downlevel.obj
 0002:0000a2d8       ??_C@_1M@LLCCOAGA@?$AAa?$AAr?$AA?9?$AAB?$AAH@ 00000001800292d8     libucrt:lcidtoname_downlevel.obj
 0002:0000a2e8       ??_C@_1M@PBFNCDEL@?$AAe?$AAs?$AA?9?$AAP?$AAY@ 00000001800292e8     libucrt:lcidtoname_downlevel.obj
 0002:0000a2f8       ??_C@_1M@EDGINPNP@?$AAa?$AAr?$AA?9?$AAQ?$AAA@ 00000001800292f8     libucrt:lcidtoname_downlevel.obj
 0002:0000a308       ??_C@_1M@MKDBIIJI@?$AAe?$AAs?$AA?9?$AAB?$AAO@ 0000000180029308     libucrt:lcidtoname_downlevel.obj
 0002:0000a318       ??_C@_1M@CPKKEBLD@?$AAe?$AAs?$AA?9?$AAS?$AAV@ 0000000180029318     libucrt:lcidtoname_downlevel.obj
 0002:0000a328       ??_C@_1M@NDBGMMJL@?$AAe?$AAs?$AA?9?$AAH?$AAN@ 0000000180029328     libucrt:lcidtoname_downlevel.obj
 0002:0000a338       ??_C@_1M@JIJIBHDP@?$AAe?$AAs?$AA?9?$AAN?$AAI@ 0000000180029338     libucrt:lcidtoname_downlevel.obj
 0002:0000a348       ??_C@_1M@CGFMKEEK@?$AAe?$AAs?$AA?9?$AAP?$AAR@ 0000000180029348     libucrt:lcidtoname_downlevel.obj
 0002:0000a358       ??_C@_1O@ICJHKIIK@?$AAz?$AAh?$AA?9?$AAC?$AAH?$AAT@ 0000000180029358     libucrt:lcidtoname_downlevel.obj
 0002:0000a368       ??_C@_15CLNEJCE@?$AAs?$AAr@ 0000000180029368     libucrt:lcidtoname_downlevel.obj
 0002:0000b1b0       ??_C@_1M@KAHEKEIG@?$AAa?$AAf?$AA?9?$AAz?$AAa@ 000000018002a1b0     libucrt:lcidtoname_downlevel.obj
 0002:0000b1c0       ??_C@_1M@GIECOABL@?$AAa?$AAr?$AA?9?$AAa?$AAe@ 000000018002a1c0     libucrt:lcidtoname_downlevel.obj
 0002:0000b1d0       ??_C@_1M@BMLMEKGI@?$AAa?$AAr?$AA?9?$AAb?$AAh@ 000000018002a1d0     libucrt:lcidtoname_downlevel.obj
 0002:0000b1e0       ??_C@_1M@DAPFDGGB@?$AAa?$AAr?$AA?9?$AAd?$AAz@ 000000018002a1e0     libucrt:lcidtoname_downlevel.obj
 0002:0000b1f0       ??_C@_1M@FJNKGKIG@?$AAa?$AAr?$AA?9?$AAe?$AAg@ 000000018002a1f0     libucrt:lcidtoname_downlevel.obj
 0002:0000b200       ??_C@_1M@FLGKKCLO@?$AAa?$AAr?$AA?9?$AAi?$AAq@ 000000018002a200     libucrt:lcidtoname_downlevel.obj
 0002:0000b210       ??_C@_1M@GNDIPALM@?$AAa?$AAr?$AA?9?$AAj?$AAo@ 000000018002a210     libucrt:lcidtoname_downlevel.obj
 0002:0000b220       ??_C@_1M@DDMJFMGJ@?$AAa?$AAr?$AA?9?$AAk?$AAw@ 000000018002a220     libucrt:lcidtoname_downlevel.obj
 0002:0000b230       ??_C@_1M@EJALMLHM@?$AAa?$AAr?$AA?9?$AAl?$AAb@ 000000018002a230     libucrt:lcidtoname_downlevel.obj
 0002:0000b240       ??_C@_1M@MOBDBLOC@?$AAa?$AAr?$AA?9?$AAl?$AAy@ 000000018002a240     libucrt:lcidtoname_downlevel.obj
 0002:0000b250       ??_C@_1M@JAOCLHDH@?$AAa?$AAr?$AA?9?$AAm?$AAa@ 000000018002a250     libucrt:lcidtoname_downlevel.obj
 0002:0000b260       ??_C@_1M@JHPMKJIE@?$AAa?$AAr?$AA?9?$AAo?$AAm@ 000000018002a260     libucrt:lcidtoname_downlevel.obj
 0002:0000b270       ??_C@_1M@OEPGHFNH@?$AAa?$AAr?$AA?9?$AAq?$AAa@ 000000018002a270     libucrt:lcidtoname_downlevel.obj
 0002:0000b280       ??_C@_1M@KJDONENM@?$AAa?$AAr?$AA?9?$AAs?$AAa@ 000000018002a280     libucrt:lcidtoname_downlevel.obj
 0002:0000b290       ??_C@_1M@DMJDKLKM@?$AAa?$AAr?$AA?9?$AAs?$AAy@ 000000018002a290     libucrt:lcidtoname_downlevel.obj
 0002:0000b2a0       ??_C@_1M@OMFIPEDC@?$AAa?$AAr?$AA?9?$AAt?$AAn@ 000000018002a2a0     libucrt:lcidtoname_downlevel.obj
 0002:0000b2b0       ??_C@_1M@IHMHGAON@?$AAa?$AAr?$AA?9?$AAy?$AAe@ 000000018002a2b0     libucrt:lcidtoname_downlevel.obj
 0002:0000b2c0       ??_C@_1BG@KDCPGJGB@?$AAa?$AAz?$AA?9?$AAa?$AAz?$AA?9?$AAc?$AAy?$AAr?$AAl@ 000000018002a2c0     libucrt:lcidtoname_downlevel.obj
 0002:0000b2d8       ??_C@_1BG@IBCKDDOE@?$AAa?$AAz?$AA?9?$AAa?$AAz?$AA?9?$AAl?$AAa?$AAt?$AAn@ 000000018002a2d8     libucrt:lcidtoname_downlevel.obj
 0002:0000b2f0       ??_C@_1M@EGPFDCPD@?$AAb?$AAe?$AA?9?$AAb?$AAy@ 000000018002a2f0     libucrt:lcidtoname_downlevel.obj
 0002:0000b300       ??_C@_1M@PCMGMCGC@?$AAb?$AAg?$AA?9?$AAb?$AAg@ 000000018002a300     libucrt:lcidtoname_downlevel.obj
 0002:0000b310       ??_C@_1M@BJBMFGOB@?$AAb?$AAn?$AA?9?$AAi?$AAn@ 000000018002a310     libucrt:lcidtoname_downlevel.obj
 0002:0000b320       ??_C@_1BG@EAKMMACD@?$AAb?$AAs?$AA?9?$AAb?$AAa?$AA?9?$AAl?$AAa?$AAt?$AAn@ 000000018002a320     libucrt:lcidtoname_downlevel.obj
 0002:0000b338       ??_C@_1M@KGADAODK@?$AAc?$AAa?$AA?9?$AAe?$AAs@ 000000018002a338     libucrt:lcidtoname_downlevel.obj
 0002:0000b348       ??_C@_1M@COAJPDHI@?$AAc?$AAs?$AA?9?$AAc?$AAz@ 000000018002a348     libucrt:lcidtoname_downlevel.obj
 0002:0000b358       ??_C@_1M@DHBHFONH@?$AAc?$AAy?$AA?9?$AAg?$AAb@ 000000018002a358     libucrt:lcidtoname_downlevel.obj
 0002:0000b368       ??_C@_1M@IMGKELGA@?$AAd?$AAa?$AA?9?$AAd?$AAk@ 000000018002a368     libucrt:lcidtoname_downlevel.obj
 0002:0000b378       ??_C@_1M@NNDGDNGA@?$AAd?$AAe?$AA?9?$AAa?$AAt@ 000000018002a378     libucrt:lcidtoname_downlevel.obj
 0002:0000b388       ??_C@_1M@IKDBHEEM@?$AAd?$AAe?$AA?9?$AAc?$AAh@ 000000018002a388     libucrt:lcidtoname_downlevel.obj
 0002:0000b398       ??_C@_1M@GFFOJMCJ@?$AAd?$AAe?$AA?9?$AAd?$AAe@ 000000018002a398     libucrt:lcidtoname_downlevel.obj
 0002:0000b3a8       ??_C@_1M@MDNLKBPM@?$AAd?$AAe?$AA?9?$AAl?$AAi@ 000000018002a3a8     libucrt:lcidtoname_downlevel.obj
 0002:0000b3b8       ??_C@_1M@NJBEEJNL@?$AAd?$AAe?$AA?9?$AAl?$AAu@ 000000018002a3b8     libucrt:lcidtoname_downlevel.obj
 0002:0000b3c8       ??_C@_1O@GNNELBAP@?$AAd?$AAi?$AAv?$AA?9?$AAm?$AAv@ 000000018002a3c8     libucrt:lcidtoname_downlevel.obj
 0002:0000b3d8       ??_C@_1M@EJLEOGAE@?$AAe?$AAl?$AA?9?$AAg?$AAr@ 000000018002a3d8     libucrt:lcidtoname_downlevel.obj
 0002:0000b3e8       ??_C@_1M@GMPONJN@?$AAe?$AAn?$AA?9?$AAa?$AAu@ 000000018002a3e8     libucrt:lcidtoname_downlevel.obj
 0002:0000b3f8       ??_C@_1M@NIDIIPGF@?$AAe?$AAn?$AA?9?$AAb?$AAz@ 000000018002a3f8     libucrt:lcidtoname_downlevel.obj
 0002:0000b408       ??_C@_1M@JEHMIMFO@?$AAe?$AAn?$AA?9?$AAc?$AAa@ 000000018002a408     libucrt:lcidtoname_downlevel.obj
 0002:0000b418       ??_C@_1M@IGMJCDLA@?$AAe?$AAn?$AA?9?$AAc?$AAb@ 000000018002a418     libucrt:lcidtoname_downlevel.obj
 0002:0000b428       ??_C@_1M@BNFIGBKG@?$AAe?$AAn?$AA?9?$AAg?$AAb@ 000000018002a428     libucrt:lcidtoname_downlevel.obj
 0002:0000b438       ??_C@_1M@LKIFDIGP@?$AAe?$AAn?$AA?9?$AAi?$AAe@ 000000018002a438     libucrt:lcidtoname_downlevel.obj
 0002:0000b448       ??_C@_1M@PJKFGCCO@?$AAe?$AAn?$AA?9?$AAj?$AAm@ 000000018002a448     libucrt:lcidtoname_downlevel.obj
 0002:0000b458       ??_C@_1M@KPPKEPBO@?$AAe?$AAn?$AA?9?$AAn?$AAz@ 000000018002a458     libucrt:lcidtoname_downlevel.obj
 0002:0000b468       ??_C@_1M@GMDGLDOB@?$AAe?$AAn?$AA?9?$AAp?$AAh@ 000000018002a468     libucrt:lcidtoname_downlevel.obj
 0002:0000b478       ??_C@_1M@ONGIBJNA@?$AAe?$AAn?$AA?9?$AAt?$AAt@ 000000018002a478     libucrt:lcidtoname_downlevel.obj
 0002:0000b488       ??_C@_1M@LLODPCMM@?$AAe?$AAn?$AA?9?$AAu?$AAs@ 000000018002a488     libucrt:lcidtoname_downlevel.obj
 0002:0000b498       ??_C@_1M@LAKFNPAN@?$AAe?$AAn?$AA?9?$AAz?$AAa@ 000000018002a498     libucrt:lcidtoname_downlevel.obj
 0002:0000b4a8       ??_C@_1M@MFNHNHEO@?$AAe?$AAn?$AA?9?$AAz?$AAw@ 000000018002a4a8     libucrt:lcidtoname_downlevel.obj
 0002:0000b4b8       ??_C@_1M@EJEINPHM@?$AAe?$AAs?$AA?9?$AAa?$AAr@ 000000018002a4b8     libucrt:lcidtoname_downlevel.obj
 0002:0000b4c8       ??_C@_1M@GNKPCCJA@?$AAe?$AAs?$AA?9?$AAb?$AAo@ 000000018002a4c8     libucrt:lcidtoname_downlevel.obj
 0002:0000b4d8       ??_C@_1M@LEEGFONL@?$AAe?$AAs?$AA?9?$AAc?$AAl@ 000000018002a4d8     libucrt:lcidtoname_downlevel.obj
 0002:0000b4e8       ??_C@_1M@KGPDPBDF@?$AAe?$AAs?$AA?9?$AAc?$AAo@ 000000018002a4e8     libucrt:lcidtoname_downlevel.obj
 0002:0000b4f8       ??_C@_1M@EIAHOHH@?$AAe?$AAs?$AA?9?$AAc?$AAr@ 000000018002a4f8     libucrt:lcidtoname_downlevel.obj
 0002:0000b508       ??_C@_1M@LLPGMBIN@?$AAe?$AAs?$AA?9?$AAd?$AAo@ 000000018002a508     libucrt:lcidtoname_downlevel.obj
 0002:0000b518       ??_C@_1M@DKHMKNJA@?$AAe?$AAs?$AA?9?$AAe?$AAc@ 000000018002a518     libucrt:lcidtoname_downlevel.obj
 0002:0000b528       ??_C@_1M@GKGFPKAP@?$AAe?$AAs?$AA?9?$AAe?$AAs@ 000000018002a528     libucrt:lcidtoname_downlevel.obj
 0002:0000b538       ??_C@_1M@LKHKGDLN@?$AAe?$AAs?$AA?9?$AAg?$AAt@ 000000018002a538     libucrt:lcidtoname_downlevel.obj
 0002:0000b548       ??_C@_1M@HEIIGGJD@?$AAe?$AAs?$AA?9?$AAh?$AAn@ 000000018002a548     libucrt:lcidtoname_downlevel.obj
 0002:0000b558       ??_C@_1M@FBDHPPGD@?$AAe?$AAs?$AA?9?$AAm?$AAx@ 000000018002a558     libucrt:lcidtoname_downlevel.obj
 0002:0000b568       ??_C@_1M@DPAGLNDH@?$AAe?$AAs?$AA?9?$AAn?$AAi@ 000000018002a568     libucrt:lcidtoname_downlevel.obj
 0002:0000b578       ??_C@_1M@MDGOPGDD@?$AAe?$AAs?$AA?9?$AAp?$AAa@ 000000018002a578     libucrt:lcidtoname_downlevel.obj
 0002:0000b588       ??_C@_1M@EMAMGBGE@?$AAe?$AAs?$AA?9?$AAp?$AAe@ 000000018002a588     libucrt:lcidtoname_downlevel.obj
 0002:0000b598       ??_C@_1M@IBMCAOEC@?$AAe?$AAs?$AA?9?$AAp?$AAr@ 000000018002a598     libucrt:lcidtoname_downlevel.obj
 0002:0000b5a8       ??_C@_1M@FGMDIJED@?$AAe?$AAs?$AA?9?$AAp?$AAy@ 000000018002a5a8     libucrt:lcidtoname_downlevel.obj
 0002:0000b5b8       ??_C@_1M@IIDEOLLL@?$AAe?$AAs?$AA?9?$AAs?$AAv@ 000000018002a5b8     libucrt:lcidtoname_downlevel.obj
 0002:0000b5c8       ??_C@_1M@GAOBIPA@?$AAe?$AAs?$AA?9?$AAu?$AAy@ 000000018002a5c8     libucrt:lcidtoname_downlevel.obj
 0002:0000b5d8       ??_C@_1M@JKFFICHJ@?$AAe?$AAs?$AA?9?$AAv?$AAe@ 000000018002a5d8     libucrt:lcidtoname_downlevel.obj
 0002:0000b5e8       ??_C@_1M@PNMLOJDF@?$AAe?$AAt?$AA?9?$AAe?$AAe@ 000000018002a5e8     libucrt:lcidtoname_downlevel.obj
 0002:0000b5f8       ??_C@_1M@GHHLIKEI@?$AAe?$AAu?$AA?9?$AAe?$AAs@ 000000018002a5f8     libucrt:lcidtoname_downlevel.obj
 0002:0000b608       ??_C@_1M@PBNONODE@?$AAf?$AAa?$AA?9?$AAi?$AAr@ 000000018002a608     libucrt:lcidtoname_downlevel.obj
 0002:0000b618       ??_C@_1M@JEEHPMIL@?$AAf?$AAi?$AA?9?$AAf?$AAi@ 000000018002a618     libucrt:lcidtoname_downlevel.obj
 0002:0000b628       ??_C@_1M@LMDCNDBA@?$AAf?$AAo?$AA?9?$AAf?$AAo@ 000000018002a628     libucrt:lcidtoname_downlevel.obj
 0002:0000b638       ??_C@_1M@JKEOHLDK@?$AAf?$AAr?$AA?9?$AAb?$AAe@ 000000018002a638     libucrt:lcidtoname_downlevel.obj
 0002:0000b648       ??_C@_1M@NOHADPMI@?$AAf?$AAr?$AA?9?$AAc?$AAa@ 000000018002a648     libucrt:lcidtoname_downlevel.obj
 0002:0000b658       ??_C@_1M@KDHIHAEC@?$AAf?$AAr?$AA?9?$AAc?$AAh@ 000000018002a658     libucrt:lcidtoname_downlevel.obj
 0002:0000b668       ??_C@_1M@MMBBFGAK@?$AAf?$AAr?$AA?9?$AAf?$AAr@ 000000018002a668     libucrt:lcidtoname_downlevel.obj
 0002:0000b678       ??_C@_1M@PAFNENNF@?$AAf?$AAr?$AA?9?$AAl?$AAu@ 000000018002a678     libucrt:lcidtoname_downlevel.obj
 0002:0000b688       ??_C@_1M@EOHDJGDD@?$AAf?$AAr?$AA?9?$AAm?$AAc@ 000000018002a688     libucrt:lcidtoname_downlevel.obj
 0002:0000b698       ??_C@_1M@FAPLLOPF@?$AAg?$AAl?$AA?9?$AAe?$AAs@ 000000018002a698     libucrt:lcidtoname_downlevel.obj
 0002:0000b6a8       ??_C@_1M@FOPBFLOO@?$AAg?$AAu?$AA?9?$AAi?$AAn@ 000000018002a6a8     libucrt:lcidtoname_downlevel.obj
 0002:0000b6b8       ??_C@_1M@KBMCINPM@?$AAh?$AAe?$AA?9?$AAi?$AAl@ 000000018002a6b8     libucrt:lcidtoname_downlevel.obj
 0002:0000b6c8       ??_C@_1M@BBPHKFPJ@?$AAh?$AAi?$AA?9?$AAi?$AAn@ 000000018002a6c8     libucrt:lcidtoname_downlevel.obj
 0002:0000b6d8       ??_C@_1M@PMBNDPHD@?$AAh?$AAr?$AA?9?$AAb?$AAa@ 000000018002a6d8     libucrt:lcidtoname_downlevel.obj
 0002:0000b6e8       ??_C@_1M@BPCKOEGE@?$AAh?$AAr?$AA?9?$AAh?$AAr@ 000000018002a6e8     libucrt:lcidtoname_downlevel.obj
 0002:0000b6f8       ??_C@_1M@GACBMHKE@?$AAh?$AAu?$AA?9?$AAh?$AAu@ 000000018002a6f8     libucrt:lcidtoname_downlevel.obj
 0002:0000b708       ??_C@_1M@MILPAJJC@?$AAh?$AAy?$AA?9?$AAa?$AAm@ 000000018002a708     libucrt:lcidtoname_downlevel.obj
 0002:0000b718       ??_C@_1M@BABBICEC@?$AAi?$AAd?$AA?9?$AAi?$AAd@ 000000018002a718     libucrt:lcidtoname_downlevel.obj
 0002:0000b728       ??_C@_1M@BIKNHHPF@?$AAi?$AAs?$AA?9?$AAi?$AAs@ 000000018002a728     libucrt:lcidtoname_downlevel.obj
 0002:0000b738       ??_C@_1M@NMPCJPHE@?$AAi?$AAt?$AA?9?$AAc?$AAh@ 000000018002a738     libucrt:lcidtoname_downlevel.obj
 0002:0000b748       ??_C@_1M@GHKGFEDF@?$AAi?$AAt?$AA?9?$AAi?$AAt@ 000000018002a748     libucrt:lcidtoname_downlevel.obj
 0002:0000b758       ??_C@_1M@NIEJCJJA@?$AAj?$AAa?$AA?9?$AAj?$AAp@ 000000018002a758     libucrt:lcidtoname_downlevel.obj
 0002:0000b768       ??_C@_1M@JILFNBIM@?$AAk?$AAa?$AA?9?$AAg?$AAe@ 000000018002a768     libucrt:lcidtoname_downlevel.obj
 0002:0000b778       ??_C@_1M@PACPMGPH@?$AAk?$AAk?$AA?9?$AAk?$AAz@ 000000018002a778     libucrt:lcidtoname_downlevel.obj
 0002:0000b788       ??_C@_1M@IELFGMHA@?$AAk?$AAn?$AA?9?$AAi?$AAn@ 000000018002a788     libucrt:lcidtoname_downlevel.obj
 0002:0000b798       ??_C@_1O@IBBJHCH@?$AAk?$AAo?$AAk?$AA?9?$AAi?$AAn@ 000000018002a798     libucrt:lcidtoname_downlevel.obj
 0002:0000b7a8       ??_C@_1M@DMHAEOGC@?$AAk?$AAo?$AA?9?$AAk?$AAr@ 000000018002a7a8     libucrt:lcidtoname_downlevel.obj
 0002:0000b7b8       ??_C@_1M@HBAHBIGA@?$AAk?$AAy?$AA?9?$AAk?$AAg@ 000000018002a7b8     libucrt:lcidtoname_downlevel.obj
 0002:0000b7c8       ??_C@_1M@KPMILCJG@?$AAl?$AAt?$AA?9?$AAl?$AAt@ 000000018002a7c8     libucrt:lcidtoname_downlevel.obj
 0002:0000b7d8       ??_C@_1M@BDEKKCA@?$AAl?$AAv?$AA?9?$AAl?$AAv@ 000000018002a7d8     libucrt:lcidtoname_downlevel.obj
 0002:0000b7e8       ??_C@_1M@ELCKCCJJ@?$AAm?$AAi?$AA?9?$AAn?$AAz@ 000000018002a7e8     libucrt:lcidtoname_downlevel.obj
 0002:0000b7f8       ??_C@_1M@CBOOLAPA@?$AAm?$AAk?$AA?9?$AAm?$AAk@ 000000018002a7f8     libucrt:lcidtoname_downlevel.obj
 0002:0000b808       ??_C@_1M@GPHNBJKN@?$AAm?$AAl?$AA?9?$AAi?$AAn@ 000000018002a808     libucrt:lcidtoname_downlevel.obj
 0002:0000b818       ??_C@_1M@PABJILIG@?$AAm?$AAn?$AA?9?$AAm?$AAn@ 000000018002a818     libucrt:lcidtoname_downlevel.obj
 0002:0000b828       ??_C@_1M@FGBKKIPG@?$AAm?$AAr?$AA?9?$AAi?$AAn@ 000000018002a828     libucrt:lcidtoname_downlevel.obj
 0002:0000b838       ??_C@_1M@NDBPDDAL@?$AAm?$AAs?$AA?9?$AAb?$AAn@ 000000018002a838     libucrt:lcidtoname_downlevel.obj
 0002:0000b848       ??_C@_1M@OPIHOOPI@?$AAm?$AAs?$AA?9?$AAm?$AAy@ 000000018002a848     libucrt:lcidtoname_downlevel.obj
 0002:0000b858       ??_C@_1M@PPDBCNFM@?$AAm?$AAt?$AA?9?$AAm?$AAt@ 000000018002a858     libucrt:lcidtoname_downlevel.obj
 0002:0000b868       ??_C@_1M@KDJDKMDD@?$AAn?$AAb?$AA?9?$AAn?$AAo@ 000000018002a868     libucrt:lcidtoname_downlevel.obj
 0002:0000b878       ??_C@_1M@KFCFLMJP@?$AAn?$AAl?$AA?9?$AAb?$AAe@ 000000018002a878     libucrt:lcidtoname_downlevel.obj
 0002:0000b888       ??_C@_1M@KPOPDDGO@?$AAn?$AAl?$AA?9?$AAn?$AAl@ 000000018002a888     libucrt:lcidtoname_downlevel.obj
 0002:0000b898       ??_C@_1M@LJKPEMLN@?$AAn?$AAn?$AA?9?$AAn?$AAo@ 000000018002a898     libucrt:lcidtoname_downlevel.obj
 0002:0000b8a8       ??_C@_1M@BDGHHBFL@?$AAn?$AAs?$AA?9?$AAz?$AAa@ 000000018002a8a8     libucrt:lcidtoname_downlevel.obj
 0002:0000b8b8       ??_C@_1M@IDEHOAP@?$AAp?$AAa?$AA?9?$AAi?$AAn@ 000000018002a8b8     libucrt:lcidtoname_downlevel.obj
 0002:0000b8c8       ??_C@_1M@HDBKGOGH@?$AAp?$AAl?$AA?9?$AAp?$AAl@ 000000018002a8c8     libucrt:lcidtoname_downlevel.obj
 0002:0000b8d8       ??_C@_1M@LJLLCMEH@?$AAp?$AAt?$AA?9?$AAb?$AAr@ 000000018002a8d8     libucrt:lcidtoname_downlevel.obj
 0002:0000b8e8       ??_C@_1M@NCMONAAL@?$AAp?$AAt?$AA?9?$AAp?$AAt@ 000000018002a8e8     libucrt:lcidtoname_downlevel.obj
 0002:0000b8f8       ??_C@_1O@EAKMAJDN@?$AAq?$AAu?$AAz?$AA?9?$AAb?$AAo@ 000000018002a8f8     libucrt:lcidtoname_downlevel.obj
 0002:0000b908       ??_C@_1O@BHHPIGDN@?$AAq?$AAu?$AAz?$AA?9?$AAe?$AAc@ 000000018002a908     libucrt:lcidtoname_downlevel.obj
 0002:0000b918       ??_C@_1O@GBAPEKMJ@?$AAq?$AAu?$AAz?$AA?9?$AAp?$AAe@ 000000018002a918     libucrt:lcidtoname_downlevel.obj
 0002:0000b928       ??_C@_1M@CLGLEFBO@?$AAr?$AAo?$AA?9?$AAr?$AAo@ 000000018002a928     libucrt:lcidtoname_downlevel.obj
 0002:0000b938       ??_C@_1M@CEEDODME@?$AAr?$AAu?$AA?9?$AAr?$AAu@ 000000018002a938     libucrt:lcidtoname_downlevel.obj
 0002:0000b948       ??_C@_1M@HPKKKMPP@?$AAs?$AAa?$AA?9?$AAi?$AAn@ 000000018002a948     libucrt:lcidtoname_downlevel.obj
 0002:0000b958       ??_C@_1M@BKMAIGOJ@?$AAs?$AAe?$AA?9?$AAf?$AAi@ 000000018002a958     libucrt:lcidtoname_downlevel.obj
 0002:0000b968       ??_C@_1M@NDPIFLFI@?$AAs?$AAe?$AA?9?$AAn?$AAo@ 000000018002a968     libucrt:lcidtoname_downlevel.obj
 0002:0000b978       ??_C@_1M@DANKKHJ@?$AAs?$AAe?$AA?9?$AAs?$AAe@ 000000018002a978     libucrt:lcidtoname_downlevel.obj
 0002:0000b988       ??_C@_1M@PNBLONPJ@?$AAs?$AAk?$AA?9?$AAs?$AAk@ 000000018002a988     libucrt:lcidtoname_downlevel.obj
 0002:0000b998       ??_C@_1M@LFMODOAL@?$AAs?$AAl?$AA?9?$AAs?$AAi@ 000000018002a998     libucrt:lcidtoname_downlevel.obj
 0002:0000b9a8       ??_C@_1O@DFKOMPG@?$AAs?$AAm?$AAa?$AA?9?$AAn?$AAo@ 000000018002a9a8     libucrt:lcidtoname_downlevel.obj
 0002:0000b9b8       ??_C@_1O@NDKPBNNH@?$AAs?$AAm?$AAa?$AA?9?$AAs?$AAe@ 000000018002a9b8     libucrt:lcidtoname_downlevel.obj
 0002:0000b9c8       ??_C@_1O@PLLKBHAB@?$AAs?$AAm?$AAj?$AA?9?$AAn?$AAo@ 000000018002a9c8     libucrt:lcidtoname_downlevel.obj
 0002:0000b9d8       ??_C@_1O@CLEPOGCA@?$AAs?$AAm?$AAj?$AA?9?$AAs?$AAe@ 000000018002a9d8     libucrt:lcidtoname_downlevel.obj
 0002:0000b9e8       ??_C@_1O@DLGJGKMK@?$AAs?$AAm?$AAn?$AA?9?$AAf?$AAi@ 000000018002a9e8     libucrt:lcidtoname_downlevel.obj
 0002:0000b9f8       ??_C@_1O@OJDJGAJC@?$AAs?$AAm?$AAs?$AA?9?$AAf?$AAi@ 000000018002a9f8     libucrt:lcidtoname_downlevel.obj
 0002:0000ba08       ??_C@_1M@BOFOGHPB@?$AAs?$AAq?$AA?9?$AAa?$AAl@ 000000018002aa08     libucrt:lcidtoname_downlevel.obj
 0002:0000ba18       ??_C@_1BG@LJBBIPGB@?$AAs?$AAr?$AA?9?$AAb?$AAa?$AA?9?$AAc?$AAy?$AAr?$AAl@ 000000018002aa18     libucrt:lcidtoname_downlevel.obj
 0002:0000ba30       ??_C@_1BG@JLBENFOE@?$AAs?$AAr?$AA?9?$AAb?$AAa?$AA?9?$AAl?$AAa?$AAt?$AAn@ 000000018002aa30     libucrt:lcidtoname_downlevel.obj
 0002:0000ba48       ??_C@_1BG@KODPNHE@?$AAs?$AAr?$AA?9?$AAs?$AAp?$AA?9?$AAc?$AAy?$AAr?$AAl@ 000000018002aa48     libucrt:lcidtoname_downlevel.obj
 0002:0000ba60       ??_C@_1BG@CIOGKHPB@?$AAs?$AAr?$AA?9?$AAs?$AAp?$AA?9?$AAl?$AAa?$AAt?$AAn@ 000000018002aa60     libucrt:lcidtoname_downlevel.obj
 0002:0000ba78       ??_C@_1M@NGFJLMAC@?$AAs?$AAv?$AA?9?$AAf?$AAi@ 000000018002aa78     libucrt:lcidtoname_downlevel.obj
 0002:0000ba88       ??_C@_1M@MPJEJAJC@?$AAs?$AAv?$AA?9?$AAs?$AAe@ 000000018002aa88     libucrt:lcidtoname_downlevel.obj
 0002:0000ba98       ??_C@_1M@MPNDHLFK@?$AAs?$AAw?$AA?9?$AAk?$AAe@ 000000018002aa98     libucrt:lcidtoname_downlevel.obj
 0002:0000baa8       ??_C@_1O@KOHBJJI@?$AAs?$AAy?$AAr?$AA?9?$AAs?$AAy@ 000000018002aaa8     libucrt:lcidtoname_downlevel.obj
 0002:0000bab8       ??_C@_1M@LDCEFHA@?$AAt?$AAa?$AA?9?$AAi?$AAn@ 000000018002aab8     libucrt:lcidtoname_downlevel.obj
 0002:0000bac8       ??_C@_1M@CNJOFAK@?$AAt?$AAe?$AA?9?$AAi?$AAn@ 000000018002aac8     libucrt:lcidtoname_downlevel.obj
 0002:0000bad8       ??_C@_1M@GNAECACD@?$AAt?$AAh?$AA?9?$AAt?$AAh@ 000000018002aad8     libucrt:lcidtoname_downlevel.obj
 0002:0000bae8       ??_C@_1M@CHBIHOJO@?$AAt?$AAn?$AA?9?$AAz?$AAa@ 000000018002aae8     libucrt:lcidtoname_downlevel.obj
 0002:0000baf8       ??_C@_1M@GCCMIGPJ@?$AAt?$AAr?$AA?9?$AAt?$AAr@ 000000018002aaf8     libucrt:lcidtoname_downlevel.obj
 0002:0000bb08       ??_C@_1M@CELMCNBK@?$AAt?$AAt?$AA?9?$AAr?$AAu@ 000000018002ab08     libucrt:lcidtoname_downlevel.obj
 0002:0000bb18       ??_C@_1M@KLMCELGA@?$AAu?$AAk?$AA?9?$AAu?$AAa@ 000000018002ab18     libucrt:lcidtoname_downlevel.obj
 0002:0000bb28       ??_C@_1M@EPAJJAJF@?$AAu?$AAr?$AA?9?$AAp?$AAk@ 000000018002ab28     libucrt:lcidtoname_downlevel.obj
 0002:0000bb38       ??_C@_1BG@GEGPMCDJ@?$AAu?$AAz?$AA?9?$AAu?$AAz?$AA?9?$AAc?$AAy?$AAr?$AAl@ 000000018002ab38     libucrt:lcidtoname_downlevel.obj
 0002:0000bb50       ??_C@_1BG@EGGKJILM@?$AAu?$AAz?$AA?9?$AAu?$AAz?$AA?9?$AAl?$AAa?$AAt?$AAn@ 000000018002ab50     libucrt:lcidtoname_downlevel.obj
 0002:0000bb68       ??_C@_1M@GFOCLFF@?$AAv?$AAi?$AA?9?$AAv?$AAn@ 000000018002ab68     libucrt:lcidtoname_downlevel.obj
 0002:0000bb78       ??_C@_1M@CPAMEDFI@?$AAx?$AAh?$AA?9?$AAz?$AAa@ 000000018002ab78     libucrt:lcidtoname_downlevel.obj
 0002:0000bb88       ??_C@_1O@EBKIFIGN@?$AAz?$AAh?$AA?9?$AAc?$AAh?$AAs@ 000000018002ab88     libucrt:lcidtoname_downlevel.obj
 0002:0000bb98       ??_C@_1O@NMHPGANE@?$AAz?$AAh?$AA?9?$AAc?$AAh?$AAt@ 000000018002ab98     libucrt:lcidtoname_downlevel.obj
 0002:0000bba8       ??_C@_1M@LPINJOMC@?$AAz?$AAh?$AA?9?$AAc?$AAn@ 000000018002aba8     libucrt:lcidtoname_downlevel.obj
 0002:0000bbb8       ??_C@_1M@OCJEJODD@?$AAz?$AAh?$AA?9?$AAh?$AAk@ 000000018002abb8     libucrt:lcidtoname_downlevel.obj
 0002:0000bbc8       ??_C@_1M@DNDLJINH@?$AAz?$AAh?$AA?9?$AAm?$AAo@ 000000018002abc8     libucrt:lcidtoname_downlevel.obj
 0002:0000bbd8       ??_C@_1M@MBFDNDND@?$AAz?$AAh?$AA?9?$AAs?$AAg@ 000000018002abd8     libucrt:lcidtoname_downlevel.obj
 0002:0000bbe8       ??_C@_1M@IMEPLEPE@?$AAz?$AAh?$AA?9?$AAt?$AAw@ 000000018002abe8     libucrt:lcidtoname_downlevel.obj
 0002:0000bbf8       ??_C@_1M@BBGHNHJP@?$AAz?$AAu?$AA?9?$AAz?$AAa@ 000000018002abf8     libucrt:lcidtoname_downlevel.obj
 0002:0000bc08       ??_C@_1BA@BALFACEM@?$AAC?$AAO?$AAN?$AAO?$AAU?$AAT?$AA$@ 000000018002ac08     libucrt:initcon.obj
 0002:0000be80       __log10_256_lead           000000018002ae80     libucrt:log10_256_lead_tail_table.obj
 0002:0000c690       __log10_256_tail           000000018002b690     libucrt:log10_256_lead_tail_table.obj
 0002:0000ce98       ??_C@_03OEIAHPBN@INF@      000000018002be98     format.obj
 0002:0000ce9c       ??_C@_03OJHLLCGB@inf@      000000018002be9c     format.obj
 0002:0000cea0       ??_C@_03LKNCIKJB@NAN@      000000018002bea0     format.obj
 0002:0000cea4       ??_C@_03LHCJEHON@nan@      000000018002bea4     format.obj
 0002:0000cea8       ??_C@_00CNPNBAHC@@         000000018002bea8     format.obj
 0002:0000ceb0       ??_C@_0BA@JFNIOLAK@string?5too?5long@ 000000018002beb0     format.obj
 0002:0000cec0       ??_C@_0BF@KINCDENJ@bad?5array?5new?5length@ 000000018002bec0     format.obj
 0002:0000ced8       ??_C@_0BC@EOODALEL@Unknown?5exception@ 000000018002bed8     format.obj
 0002:0000ceec       ??_C@_01MNNFJEPP@?$DM@     000000018002beec     imgui.obj
 0002:0000cef0       ??_C@_01PPODPGHN@?$DO@     000000018002bef0     imgui.obj
 0002:0000cef4       ??_C@_02DPKJAMEF@?$CFd@    000000018002bef4     imgui.obj
 0002:000111b8       ??_C@_01NBENCBCI@?$CK@     00000001800301b8     imgui.obj
 0002:000111bc       ??_C@_02NJPGOMH@?$CFf@     00000001800301bc     imguivariouscontrols.obj
 0002:000111c0       ??_C@_02GMHACPFF@?$CFu@    00000001800301c0     imgui_demo.obj
 0002:000111c4       ??_C@_05LLAMLEHD@?$CFI64d@ 00000001800301c4     imgui_demo.obj
 0002:000111cc       ??_C@_02FODMEDOG@?$DM?$DM@ 00000001800301cc     imgui_demo.obj
 0002:000111d0       ??_C@_02GPIOPFAK@?$DO?$DO@ 00000001800301d0     imgui_demo.obj
 0002:000111d4       ??_C@_05OINFJHGD@?$CFI64u@ 00000001800301d4     imgui_rangeslider.obj
 0002:000111dc       ??_C@_03DLDNIBIK@?$CFlf@   00000001800301dc     imgui_rangeslider.obj
 0002:000111e0       ??_C@_01JOAMLHOP@?9@       00000001800301e0     imgui_widgets.obj
 0002:000111e4       ??_C@_01MIFGBAGJ@?$CL@     00000001800301e4     imgui_widgets.obj
 0002:000111e8       ??_C@_02LMMGGCAJ@?3?5@     00000001800301e8     logsys.obj
 0002:000111ec       ??_C@_06FHFOAHML@system@   00000001800301ec     logsys.obj
 0002:000111f8       ??_C@_0N@HKIDHHCI@Underwater_P@ 00000001800301f8     privatematch_wrapper.obj
 0002:00011208       ??_C@_06DAIAOCLN@Park_P@   0000000180030208     privatematch_wrapper.obj
 0002:00011210       ??_C@_0N@MPNIONOM@Park_Night_P@ 0000000180030210     privatematch_wrapper.obj
 0002:00011220       ??_C@_0N@JAADMLOC@Park_Rainy_P@ 0000000180030220     privatematch_wrapper.obj
 0002:00011230       ??_C@_04NGBKBKHG@cs_p@     0000000180030230     privatematch_wrapper.obj
 0002:00011238       ??_C@_08OCIFLFMB@cs_day_p@ 0000000180030238     privatematch_wrapper.obj
 0002:00011244       ??_C@_04DNPADDM@bb_p@      0000000180030244     privatematch_wrapper.obj
 0002:00011250       ??_C@_08DOINHGK@outlaw_p@  0000000180030250     privatematch_wrapper.obj
 0002:00011260       ??_C@_09IKHPNKOC@Stadium_P@ 0000000180030260     privatematch_wrapper.obj
 0002:00011270       ??_C@_0BD@GFEOBEA@Stadium_Race_Day_p@ 0000000180030270     privatematch_wrapper.obj
 0002:00011288       ??_C@_0O@PBJHKKKB@stadium_day_p@ 0000000180030288     privatematch_wrapper.obj
 0002:00011298       ??_C@_0BB@HDLMKDPD@Stadium_Winter_P@ 0000000180030298     privatematch_wrapper.obj
 0002:000112b0       ??_C@_0BA@HFJCLIDN@Stadium_Foggy_P@ 00000001800302b0     privatematch_wrapper.obj
 0002:000112c0       ??_C@_06ELNMAJKL@farm_p@   00000001800302c0     privatematch_wrapper.obj
 0002:000112c8       ??_C@_0N@NGCEOEKM@Farm_Night_P@ 00000001800302c8     privatematch_wrapper.obj
 0002:000112d8       ??_C@_0O@FAAMBGLD@CHN_Stadium_P@ 00000001800302d8     privatematch_wrapper.obj
 0002:000112e8       ??_C@_0BC@CHMLOFPB@CHN_Stadium_Day_P@ 00000001800302e8     privatematch_wrapper.obj
 0002:00011300       ??_C@_0O@NBNCOAMN@EuroStadium_P@ 0000000180030300     privatematch_wrapper.obj
 0002:00011310       ??_C@_0BE@HHBOMOPD@EuroStadium_Night_P@ 0000000180030310     privatematch_wrapper.obj
 0002:00011328       ??_C@_0BI@IIMAJKN@eurostadium_snownight_p@ 0000000180030328     privatematch_wrapper.obj
 0002:00011340       ??_C@_0BE@CIMFOIPN@EuroStadium_Rainy_P@ 0000000180030340     privatematch_wrapper.obj
 0002:00011358       ??_C@_0BE@GPGIEKMK@NeoTokyo_Standard_P@ 0000000180030358     privatematch_wrapper.obj
 0002:00011370       ??_C@_07BHLLEILF@music_p@  0000000180030370     privatematch_wrapper.obj
 0002:00011378       ??_C@_07PDJEEDII@cs_hw_p@  0000000180030378     privatematch_wrapper.obj
 0002:00011380       ??_C@_07OPGONOEF@beach_P@  0000000180030380     privatematch_wrapper.obj
 0002:00011388       ??_C@_0O@IOEPCBON@beach_night_p@ 0000000180030388     privatematch_wrapper.obj
 0002:00011398       ??_C@_0P@PAPNCHOB@arc_standard_p@ 0000000180030398     privatematch_wrapper.obj
 0002:000113a8       ??_C@_0P@IKMFBDLF@TrainStation_P@ 00000001800303a8     privatematch_wrapper.obj
 0002:000113b8       ??_C@_0BE@NBOKLHGL@TrainStation_Dawn_P@ 00000001800303b8     privatematch_wrapper.obj
 0002:000113d0       ??_C@_0BF@DCNMMFKF@TrainStation_Night_P@ 00000001800303d0     privatematch_wrapper.obj
 0002:000113e8       ??_C@_0BA@PPHCALEG@UtopiaStadium_P@ 00000001800303e8     privatematch_wrapper.obj
 0002:000113f8       ??_C@_0BF@IDJDJBMP@UtopiaStadium_Dusk_P@ 00000001800303f8     privatematch_wrapper.obj
 0002:00011410       ??_C@_0BF@PHCEFDHD@UtopiaStadium_Snow_P@ 0000000180030410     privatematch_wrapper.obj
 0002:00011428       ??_C@_0O@DNIOMOFF@wasteland_s_p@ 0000000180030428     privatematch_wrapper.obj
 0002:00011438       ??_C@_0BE@LEBHBAN@wasteland_Night_S_P@ 0000000180030438     privatematch_wrapper.obj
 0002:00011450       ??_C@_0FI@BAEAFPMC@class?5std?3?3basic_string?$DMchar?0st@ 0000000180030450     privatematch_wrapper.obj
 0002:000114a8       ?instance@?$static_instance@Uimpl@boost_asio_query_fn@@@boost_asio_query_fn@@2Uimpl@2@B 00000001800304a8     privatematch_wrapper.obj
 0002:000114a8       ?instance@?$static_instance@Uimpl@boost_asio_execution_execute_fn@@@boost_asio_execution_execute_fn@@2Uimpl@2@B 00000001800304a8     privatematch_wrapper.obj
 0002:000114a8       ?instance@?$static_instance@Uimpl@boost_asio_prefer_fn@@@boost_asio_prefer_fn@@2Uimpl@2@B 00000001800304a8     privatematch_wrapper.obj
 0002:000114a8       ?instance@?$static_instance@Uimpl@boost_asio_require_fn@@@boost_asio_require_fn@@2Uimpl@2@B 00000001800304a8     privatematch_wrapper.obj
 0002:000114ac       ??_C@_02GBLMOEJC@?5?$FL@   00000001800304ac     privatematch_wrapper.obj
 0002:000114b0       ??_C@_04JIFBILD@std?3@     00000001800304b0     privatematch_wrapper.obj
 0002:000114b8       ??_C@_03HODKBCIO@?3?$CFd@  00000001800304b8     privatematch_wrapper.obj
 0002:000114bc       ??_C@_04LNPKFDKO@?5at?5@   00000001800304bc     privatematch_wrapper.obj
 0002:000114c8       ??_C@_0BK@HJONCHJ@?$CIunknown?5source?5location?$CJ@ 00000001800304c8     privatematch_wrapper.obj
 0002:000114e4       ??_C@_04FPMGLCO@?3?$CFld@  00000001800304e4     privatematch_wrapper.obj
 0002:000114f0       ??_C@_0P@BJENGOLD@?5in?5function?5?8@ 00000001800304f0     privatematch_wrapper.obj
 0002:00011500       ??_C@_09GPGAJHPD@?$CIunknown?$CJ@ 0000000180030500     privatematch_wrapper.obj
 0002:00011510       ?loc@?1??location@error_code@system@boost@@QEBAAEBUsource_location@4@XZ@4U54@B 0000000180030510     privatematch_wrapper.obj
 0002:00011528       ??_C@_01LBDDMOBJ@?$FN@     0000000180030528     privatematch_wrapper.obj
 0002:00011538       ??_7?$wrapexcept@Vsystem_error@system@boost@@@boost@@6Bclone_base@exception_detail@1@@ 0000000180030538     privatematch_wrapper.obj
 0002:00011558       ??_7?$wrapexcept@Vsystem_error@system@boost@@@boost@@6Bsystem_error@system@1@@ 0000000180030558     privatematch_wrapper.obj
 0002:00011570       ??_7?$wrapexcept@Vsystem_error@system@boost@@@boost@@6Bexception@1@@ 0000000180030570     privatematch_wrapper.obj
 0002:00011580       ??_7system_error@system@boost@@6B@ 0000000180030580     privatematch_wrapper.obj
 0002:00011598       ??_7clone_base@exception_detail@boost@@6B@ 0000000180030598     privatematch_wrapper.obj
 0002:000115b8       ??_7exception@boost@@6B@   00000001800305b8     privatematch_wrapper.obj
 0002:000115c0       ??_C@_03GIEDOLBE@tss@      00000001800305c0     privatematch_wrapper.obj
 0002:000115c8       ??_C@_0BD@EHCCJHF@Unknown?5error?5?$CI?$CFd?$CJ@ 00000001800305c8     privatematch_wrapper.obj
 0002:000115e8       ??_7system_error_category@detail@system@boost@@6B@ 00000001800305e8     privatematch_wrapper.obj
 0002:00011620       ??_C@_02GPECMEKF@?$FL?$FN@ 0000000180030620     settings.obj
 0002:00011628       ??_C@_09GECDJHDA@1?40?40?4134@ 0000000180030628     SixMansPlugin-Rework.obj
 0002:00011640       ??_C@_0GG@DAJCNKFO@C?3?2Users?2tyler?2Documents?2C?$CL?$CL?5Re@ 0000000180030640     SixMansPlugin-Rework.obj
 0002:000116a8       ??_C@_0O@DMNBIIDE@SixMansPlugin@ 00000001800306a8     SixMansPlugin-Rework.obj
 0002:000116b8       ??_C@_0BA@BLGJBKEA@Six?5Mans?5Plugin@ 00000001800306b8     SixMansPlugin-Rework.obj
 0002:000116d0       ??_7?$_Ref_count@VSixMansPlugin@@@std@@6B@ 00000001800306d0     SixMansPlugin-Rework.obj
 0002:000116f8       ??_7SixMansPlugin@@6B@     00000001800306f8     SixMansPlugin-Rework.obj
 0002:00011710       ??_7BakkesModPlugin@Plugin@BakkesMod@@6B@ 0000000180030710     SixMansPlugin-Rework.obj
 0002:00011720       __xmm@000000000000000f0000000000000000 0000000180030720     privatematch_wrapper.obj
 0002:00011860       __Lcosfarray               0000000180030860     libucrt:lsincosf_array.obj
 0002:00011890       __Lsinfarray               0000000180030890     libucrt:lsincosf_array.obj
 0002:000118b0       __L_2_by_pi_bits           00000001800308b0     libucrt:l2_by_pi_bits.obj
 0002:00011a00       ??_C@_04LAGPAAHP@sinf@     0000000180030a00     libucrt:sincos_special.obj
 0002:00011a10       _load_config_used          0000000180030a10     LIBCMT:loadcfg.obj
 0002:00011c00       _tls_used                  0000000180030c00     LIBCMT:tlssup.obj
 0002:00011c30       ??_R4bad_exception@std@@6B@ 0000000180030c30     libcpmt:excptptr.obj
 0002:00011c58       ??_R3bad_exception@std@@8  0000000180030c58     libcpmt:excptptr.obj
 0002:00011c70       ??_R2bad_exception@std@@8  0000000180030c70     libcpmt:excptptr.obj
 0002:00011c88       ??_R1A@?0A@EA@bad_exception@std@@8 0000000180030c88     libcpmt:excptptr.obj
 0002:00011cb0       ??_R4type_info@@6B@        0000000180030cb0     LIBCMT:std_type_info_static.obj
 0002:00011cd8       ??_R3type_info@@8          0000000180030cd8     LIBCMT:std_type_info_static.obj
 0002:00011cf0       ??_R2type_info@@8          0000000180030cf0     LIBCMT:std_type_info_static.obj
 0002:00011d00       ??_R1A@?0A@EA@type_info@@8 0000000180030d00     LIBCMT:std_type_info_static.obj
 0002:00011d28       ??_R4runtime_error@std@@6B@ 0000000180030d28     format.obj
 0002:00011d50       ??_R2runtime_error@std@@8  0000000180030d50     format.obj
 0002:00011d68       ??_R3runtime_error@std@@8  0000000180030d68     format.obj
 0002:00011d80       ??_R1A@?0A@EA@runtime_error@std@@8 0000000180030d80     format.obj
 0002:00011da8       ??_R1A@?0A@EA@bad_array_new_length@std@@8 0000000180030da8     format.obj
 0002:00011dd0       ??_R2bad_array_new_length@std@@8 0000000180030dd0     format.obj
 0002:00011df0       ??_R3bad_array_new_length@std@@8 0000000180030df0     format.obj
 0002:00011e08       ??_R4bad_array_new_length@std@@6B@ 0000000180030e08     format.obj
 0002:00011e30       ??_R1A@?0A@EA@bad_alloc@std@@8 0000000180030e30     format.obj
 0002:00011e58       ??_R2bad_alloc@std@@8      0000000180030e58     format.obj
 0002:00011e70       ??_R3bad_alloc@std@@8      0000000180030e70     format.obj
 0002:00011e88       ??_R4bad_alloc@std@@6B@    0000000180030e88     format.obj
 0002:00011eb0       ??_R1A@?0A@EA@exception@std@@8 0000000180030eb0     format.obj
 0002:00011ed8       ??_R2exception@std@@8      0000000180030ed8     format.obj
 0002:00011ee8       ??_R3exception@std@@8      0000000180030ee8     format.obj
 0002:00011f00       ??_R4exception@std@@6B@    0000000180030f00     format.obj
 0002:00011f28       ??_R4?$wrapexcept@Vsystem_error@system@boost@@@boost@@6Bclone_base@exception_detail@1@@ 0000000180030f28     privatematch_wrapper.obj
 0002:00011f50       ??_R4?$wrapexcept@Vsystem_error@system@boost@@@boost@@6Bsystem_error@system@1@@ 0000000180030f50     privatematch_wrapper.obj
 0002:00011f78       ??_R1A@?0A@EA@?$wrapexcept@Vsystem_error@system@boost@@@boost@@8 0000000180030f78     privatematch_wrapper.obj
 0002:00011fa0       ??_R17?0A@EA@system_error@system@boost@@8 0000000180030fa0     privatematch_wrapper.obj
 0002:00011fc8       ??_R17?0A@EA@runtime_error@std@@8 0000000180030fc8     privatematch_wrapper.obj
 0002:00011ff0       ??_R1DI@?0A@EA@exception@boost@@8 0000000180030ff0     privatematch_wrapper.obj
 0002:00012018       ??_R2?$wrapexcept@Vsystem_error@system@boost@@@boost@@8 0000000180031018     privatematch_wrapper.obj
 0002:00012050       ??_R3?$wrapexcept@Vsystem_error@system@boost@@@boost@@8 0000000180031050     privatematch_wrapper.obj
 0002:00012068       ??_R4?$wrapexcept@Vsystem_error@system@boost@@@boost@@6Bexception@1@@ 0000000180031068     privatematch_wrapper.obj
 0002:00012090       ??_R1A@?0A@EA@system_error@system@boost@@8 0000000180031090     privatematch_wrapper.obj
 0002:000120b8       ??_R2system_error@system@boost@@8 00000001800310b8     privatematch_wrapper.obj
 0002:000120d8       ??_R3system_error@system@boost@@8 00000001800310d8     privatematch_wrapper.obj
 0002:000120f0       ??_R4system_error@system@boost@@6B@ 00000001800310f0     privatematch_wrapper.obj
 0002:00012118       ??_R2_Ref_count_base@std@@8 0000000180031118     privatematch_wrapper.obj
 0002:00012128       ??_R3_Ref_count_base@std@@8 0000000180031128     privatematch_wrapper.obj
 0002:00012140       ??_R1A@?0A@EA@_Ref_count_base@std@@8 0000000180031140     privatematch_wrapper.obj
 0002:00012168       ??_R17?0A@EA@exception@std@@8 0000000180031168     privatematch_wrapper.obj
 0002:00012190       ??_R1A@?0A@EA@clone_base@exception_detail@boost@@8 0000000180031190     privatematch_wrapper.obj
 0002:000121b8       ??_R2clone_base@exception_detail@boost@@8 00000001800311b8     privatematch_wrapper.obj
 0002:000121c8       ??_R3clone_base@exception_detail@boost@@8 00000001800311c8     privatematch_wrapper.obj
 0002:000121e0       ??_R4clone_base@exception_detail@boost@@6B@ 00000001800311e0     privatematch_wrapper.obj
 0002:00012208       ??_R1A@?0A@EA@exception@boost@@8 0000000180031208     privatematch_wrapper.obj
 0002:00012230       ??_R2exception@boost@@8    0000000180031230     privatematch_wrapper.obj
 0002:00012240       ??_R3exception@boost@@8    0000000180031240     privatematch_wrapper.obj
 0002:00012258       ??_R4exception@boost@@6B@  0000000180031258     privatematch_wrapper.obj
 0002:00012280       ??_R1A@?0A@EA@system_error_category@detail@system@boost@@8 0000000180031280     privatematch_wrapper.obj
 0002:000122a8       ??_R2error_category@system@boost@@8 00000001800312a8     privatematch_wrapper.obj
 0002:000122b8       ??_R3error_category@system@boost@@8 00000001800312b8     privatematch_wrapper.obj
 0002:000122d0       ??_R1A@?0A@EA@error_category@system@boost@@8 00000001800312d0     privatematch_wrapper.obj
 0002:000122f8       ??_R2system_error_category@detail@system@boost@@8 00000001800312f8     privatematch_wrapper.obj
 0002:00012310       ??_R3system_error_category@detail@system@boost@@8 0000000180031310     privatematch_wrapper.obj
 0002:00012328       ??_R4system_error_category@detail@system@boost@@6B@ 0000000180031328     privatematch_wrapper.obj
 0002:00012350       ??_R1A@?0A@EA@length_error@std@@8 0000000180031350     server.obj
 0002:00012378       ??_R2length_error@std@@8   0000000180031378     server.obj
 0002:00012398       ??_R3length_error@std@@8   0000000180031398     server.obj
 0002:000123b0       ??_R4length_error@std@@6B@ 00000001800313b0     server.obj
 0002:000123d8       ??_R1A@?0A@EA@logic_error@std@@8 00000001800313d8     server.obj
 0002:00012400       ??_R2logic_error@std@@8    0000000180031400     server.obj
 0002:00012418       ??_R3logic_error@std@@8    0000000180031418     server.obj
 0002:00012430       ??_R4logic_error@std@@6B@  0000000180031430     server.obj
 0002:00012458       ??_R2?$_Ref_count@VSixMansPlugin@@@std@@8 0000000180031458     SixMansPlugin-Rework.obj
 0002:00012470       ??_R2SixMansPlugin@@8      0000000180031470     SixMansPlugin-Rework.obj
 0002:00012488       ??_R1A@?0A@EA@?$_Ref_count@VSixMansPlugin@@@std@@8 0000000180031488     SixMansPlugin-Rework.obj
 0002:000124b0       ??_R1A@?0A@EA@SixMansPlugin@@8 00000001800314b0     SixMansPlugin-Rework.obj
 0002:000124d8       ??_R3?$_Ref_count@VSixMansPlugin@@@std@@8 00000001800314d8     SixMansPlugin-Rework.obj
 0002:000124f0       ??_R3SixMansPlugin@@8      00000001800314f0     SixMansPlugin-Rework.obj
 0002:00012508       ??_R4?$_Ref_count@VSixMansPlugin@@@std@@6B@ 0000000180031508     SixMansPlugin-Rework.obj
 0002:00012530       ??_R4SixMansPlugin@@6B@    0000000180031530     SixMansPlugin-Rework.obj
 0002:00012558       ??_R1A@?0A@EA@BakkesModPlugin@Plugin@BakkesMod@@8 0000000180031558     SixMansPlugin-Rework.obj
 0002:00012580       ??_R2BakkesModPlugin@Plugin@BakkesMod@@8 0000000180031580     SixMansPlugin-Rework.obj
 0002:00012590       ??_R3BakkesModPlugin@Plugin@BakkesMod@@8 0000000180031590     SixMansPlugin-Rework.obj
 0002:000125a8       ??_R4BakkesModPlugin@Plugin@BakkesMod@@6B@ 00000001800315a8     SixMansPlugin-Rework.obj
 0002:000125cc       __volatile_metadata        00000001800315cc     <linker-defined>
 0002:00012b48       __rtc_iaa                  0000000180031b48     LIBCMT:initsect.obj
 0002:00012b50       __rtc_izz                  0000000180031b50     LIBCMT:initsect.obj
 0002:00012b58       __rtc_taa                  0000000180031b58     LIBCMT:initsect.obj
 0002:00012b60       __rtc_tzz                  0000000180031b60     LIBCMT:initsect.obj
 0002:00012b68       _tls_start                 0000000180031b68     LIBCMT:tlssup.obj
 0002:00012b6c       _Init_thread_epoch         0000000180031b6c     LIBCMT:thread_safe_statics.obj
 0002:00012b70       _tls_end                   0000000180031b70     LIBCMT:tlssup.obj
 0002:00014bb0       _TI2?AVbad_alloc@std@@     0000000180033bb0     libcpmt:xthrow.obj
 0002:00014bd0       _CTA2?AVbad_alloc@std@@    0000000180033bd0     libcpmt:xthrow.obj
 0002:00014be8       _CT??_R0?AVlogic_error@std@@@8??0logic_error@std@@QEAA@AEBV01@@Z24 0000000180033be8     libcpmt:xthrow.obj
 0002:00014c10       _TI3?AVlength_error@std@@  0000000180033c10     libcpmt:xthrow.obj
 0002:00014c30       _CTA3?AVlength_error@std@@ 0000000180033c30     libcpmt:xthrow.obj
 0002:00014c50       _CT??_R0?AVlength_error@std@@@8??0length_error@std@@QEAA@AEBV01@@Z24 0000000180033c50     libcpmt:xthrow.obj
 0002:00014c78       _TI2?AVbad_exception@std@@ 0000000180033c78     libcpmt:excptptr.obj
 0002:00014c98       _CTA2?AVbad_exception@std@@ 0000000180033c98     libcpmt:excptptr.obj
 0002:00014cb0       _CT??_R0?AVbad_exception@std@@@8??0bad_exception@std@@QEAA@AEBV01@@Z24 0000000180033cb0     libcpmt:excptptr.obj
 0002:00014cd8       _CT??_R0?AVbad_array_new_length@std@@@8??0bad_array_new_length@std@@QEAA@AEBV01@@Z24 0000000180033cd8     format.obj
 0002:00014d00       _CT??_R0?AVbad_alloc@std@@@8??0bad_alloc@std@@QEAA@AEBV01@@Z24 0000000180033d00     format.obj
 0002:00014d28       _CT??_R0?AVexception@std@@@8??0exception@std@@QEAA@AEBV01@@Z24 0000000180033d28     format.obj
 0002:00014d50       _CTA3?AVbad_array_new_length@std@@ 0000000180033d50     format.obj
 0002:00014d70       _TI3?AVbad_array_new_length@std@@ 0000000180033d70     format.obj
 0002:00014d90       _CT??_R0?AU?$wrapexcept@Vsystem_error@system@boost@@@boost@@@8??0?$wrapexcept@Vsystem_error@system@boost@@@boost@@QEAA@AEBU01@@Z96 0000000180033d90     privatematch_wrapper.obj
 0002:00014db8       _CT??_R0?AVsystem_error@system@boost@@@8??0system_error@system@boost@@QEAA@AEBV012@@Z488 0000000180033db8     privatematch_wrapper.obj
 0002:00014de0       _CT??_R0?AVruntime_error@std@@@8??0runtime_error@std@@QEAA@AEBV01@@Z248 0000000180033de0     privatematch_wrapper.obj
 0002:00014e08       _CT??_R0?AVexception@boost@@@8??0exception@boost@@QEAA@AEBV01@@Z4056 0000000180033e08     privatematch_wrapper.obj
 0002:00014e30       _CTA6?AU?$wrapexcept@Vsystem_error@system@boost@@@boost@@ 0000000180033e30     privatematch_wrapper.obj
 0002:00014e68       _TI6?AU?$wrapexcept@Vsystem_error@system@boost@@@boost@@ 0000000180033e68     privatematch_wrapper.obj
 0002:00014e88       _CT??_R0?AVclone_base@exception_detail@boost@@@8??0clone_base@exception_detail@boost@@QEAA@AEBV012@@Z8 0000000180033e88     privatematch_wrapper.obj
 0002:00014eb0       _CT??_R0?AVexception@std@@@8??0exception@std@@QEAA@AEBV01@@Z248 0000000180033eb0     privatematch_wrapper.obj
 0002:000151cc       __IMPORT_DESCRIPTOR_KERNEL32 00000001800341cc     kernel32:KERNEL32.dll
 0002:000151e0       __IMPORT_DESCRIPTOR_WS2_32 00000001800341e0     ws2_32:WS2_32.dll
 0002:000151f4       __NULL_IMPORT_DESCRIPTOR   00000001800341f4     pluginsdk:pluginsdk.dll
 0003:00000004       ?_Sync@ios_base@std@@0_NA  0000000180035004     libcpmt:ios.obj
 0003:00000010       _Init_global_epoch         0000000180035010     LIBCMT:thread_safe_statics.obj
 0003:00000014       __scrt_native_dllmain_reason 0000000180035014     LIBCMT:utility.obj
 0003:00000018       __security_cookie          0000000180035018     LIBCMT:gs_cookie.obj
 0003:00000020       __security_cookie_complement 0000000180035020     LIBCMT:gs_cookie.obj
 0003:00000030       _fltused                   0000000180035030     LIBCMT:fltused.obj
 0003:00000038       __isa_available            0000000180035038     LIBCMT:cpu_disp.obj
 0003:0000003c       __isa_enabled              000000018003503c     LIBCMT:cpu_disp.obj
 0003:00000040       __memset_fast_string_threshold 0000000180035040     LIBCMT:cpu_disp.obj
 0003:00000048       __memset_nt_threshold      0000000180035048     LIBCMT:cpu_disp.obj
 0003:00000060       _iob                       0000000180035060     libucrt:_file.obj
 0003:00000170       __acrt_lconv_c             0000000180035170     libucrt:localeconv.obj
 0003:00000208       __acrt_lconv_static_decimal 0000000180035208     libucrt:localeconv.obj
 0003:0000020c       __acrt_lconv_static_W_decimal 000000018003520c     libucrt:localeconv.obj
 0003:00000210       _lookuptrailbytes          0000000180035210     libucrt:read.obj
 0003:00000310       __abort_behavior           0000000180035310     libucrt:abort.obj
 0003:00000330       __acrt_initial_locale_data 0000000180035330     libucrt:nlsdata.obj
 0003:00000488       __acrt_initial_locale_pointers 0000000180035488     libucrt:nlsdata.obj
 0003:00000498       __acrt_wide_c_locale_string 0000000180035498     libucrt:nlsdata.obj
 0003:000004a0       __globallocalestatus       00000001800354a0     libucrt:glstatus.obj
 0003:00000650       __acrt_initial_multibyte_data 0000000180035650     libucrt:mbctype.obj
 0003:00000bb0       ?ButtonTooltips@InputComboWithAutoCompletionData@ImGui@@2PAY0IA@DA 0000000180035bb0     imguivariouscontrols.obj
 0003:00000d30       ?ButtonCharcters@InputComboWithAutoCompletionData@ImGui@@2PAY04DA 0000000180035d30     imguivariouscontrols.obj
 0003:00000d40       exports                    0000000180035d40     SixMansPlugin-Rework.obj
 0003:00002880       ?instance@?$system_cat_holder@X@detail@system@boost@@2Vsystem_error_category@234@B 0000000180037880     privatematch_wrapper.obj
 0003:000028a0       ??_R0?AVbad_exception@std@@@8 00000001800378a0     libcpmt:excptptr.obj
 0003:000028c8       ??_R0?AVruntime_error@std@@@8 00000001800378c8     format.obj
 0003:000028f0       ??_R0?AVbad_array_new_length@std@@@8 00000001800378f0     format.obj
 0003:00002920       ??_R0?AVbad_alloc@std@@@8  0000000180037920     format.obj
 0003:00002948       ??_R0?AVexception@std@@@8  0000000180037948     format.obj
 0003:00002970       ??_R0?AU?$wrapexcept@Vsystem_error@system@boost@@@boost@@@8 0000000180037970     privatematch_wrapper.obj
 0003:000029b8       ??_R0?AVsystem_error@system@boost@@@8 00000001800379b8     privatematch_wrapper.obj
 0003:000029e8       ??_R0?AVclone_base@exception_detail@boost@@@8 00000001800379e8     privatematch_wrapper.obj
 0003:00002a20       ??_R0?AVexception@boost@@@8 0000000180037a20     privatematch_wrapper.obj
 0003:00002a48       ??_R0?AVlength_error@std@@@8 0000000180037a48     server.obj
 0003:00002a70       ??_R0?AVlogic_error@std@@@8 0000000180037a70     server.obj
 0003:00002aa0       ??_R0?AVtype_info@@@8      0000000180037aa0     LIBCMT:std_type_info_static.obj
 0003:00002ac0       ??_R0?AV_Ref_count_base@std@@@8 0000000180037ac0     privatematch_wrapper.obj
 0003:00002af0       ??_R0?AVsystem_error_category@detail@system@boost@@@8 0000000180037af0     privatematch_wrapper.obj
 0003:00002b30       ??_R0?AVerror_category@system@boost@@@8 0000000180037b30     privatematch_wrapper.obj
 0003:00002b68       ??_R0?AV?$_Ref_count@VSixMansPlugin@@@std@@@8 0000000180037b68     SixMansPlugin-Rework.obj
 0003:00002ba0       ??_R0?AVSixMansPlugin@@@8  0000000180037ba0     SixMansPlugin-Rework.obj
 0003:00002bc8       ??_R0?AVBakkesModPlugin@Plugin@BakkesMod@@@8 0000000180037bc8     SixMansPlugin-Rework.obj
 0003:00002c00       ?_Id_cnt@id@locale@std@@0HA 0000000180037c00     libcpmt:locale0.obj
 0003:00002c08       ?_Clocptr@_Locimp@locale@std@@0PEAV123@EA 0000000180037c08     libcpmt:locale0.obj
 0003:00002c10       ?id@?$ctype@_W@std@@2V0locale@2@A 0000000180037c10     libcpmt:locale0.obj
 0003:00002c18       ?id@?$ctype@D@std@@2V0locale@2@A 0000000180037c18     libcpmt:locale0.obj
 0003:00002c20       ?id@?$codecvt@GDU_Mbstatet@@@std@@2V0locale@2@A 0000000180037c20     libcpmt:locale0.obj
 0003:00002c28       ?id@?$ctype@G@std@@2V0locale@2@A 0000000180037c28     libcpmt:locale0.obj
 0003:00002c40       ?id@?$codecvt@_WDU_Mbstatet@@@std@@2V0locale@2@A 0000000180037c40     libcpmt:locale0.obj
 0003:00002db0       ?_Index@ios_base@std@@0HA  0000000180037db0     libcpmt:ios.obj
 0003:00002e1c       ?__stl_sync_api_impl_mode@@3W4__stl_sync_api_modes_enum@@A 0000000180037e1c     libcpmt:mutex.obj
 0003:00003150       ?id@?$num_get@DV?$istreambuf_iterator@DU?$char_traits@D@std@@@std@@@std@@2V0locale@2@A 0000000180038150     libcpmt:locale.obj
 0003:00003160       ?_Ptr_cin@std@@3PEAV?$basic_istream@DU?$char_traits@D@std@@@1@EA 0000000180038160     libcpmt:iosptrs.obj
 0003:00003168       ?_Ptr_cout@std@@3PEAV?$basic_ostream@DU?$char_traits@D@std@@@1@EA 0000000180038168     libcpmt:iosptrs.obj
 0003:00003170       ?_Ptr_cerr@std@@3PEAV?$basic_ostream@DU?$char_traits@D@std@@@1@EA 0000000180038170     libcpmt:iosptrs.obj
 0003:00003178       ?_Ptr_clog@std@@3PEAV?$basic_ostream@DU?$char_traits@D@std@@@1@EA 0000000180038178     libcpmt:iosptrs.obj
 0003:00003180       ?_Ptr_wcin@std@@3PEAV?$basic_istream@_WU?$char_traits@_W@std@@@1@EA 0000000180038180     libcpmt:iosptrs.obj
 0003:00003188       ?_Ptr_wcout@std@@3PEAV?$basic_ostream@_WU?$char_traits@_W@std@@@1@EA 0000000180038188     libcpmt:iosptrs.obj
 0003:00003190       ?_Ptr_wcerr@std@@3PEAV?$basic_ostream@_WU?$char_traits@_W@std@@@1@EA 0000000180038190     libcpmt:iosptrs.obj
 0003:00003198       ?_Ptr_wclog@std@@3PEAV?$basic_ostream@_WU?$char_traits@_W@std@@@1@EA 0000000180038198     libcpmt:iosptrs.obj
 0003:00003200       __KERNEL32Functions        0000000180038200     libcpmt:winapisupp.obj
 0003:00003340       ?id@?$time_put@_WV?$ostreambuf_iterator@_WU?$char_traits@_W@std@@@std@@@std@@2V0locale@2@A 0000000180038340     libcpmt:wlocale.obj
 0003:00003348       ?id@?$num_get@_WV?$istreambuf_iterator@_WU?$char_traits@_W@std@@@std@@@std@@2V0locale@2@A 0000000180038348     libcpmt:wlocale.obj
 0003:00003350       ?id@?$num_put@_WV?$ostreambuf_iterator@_WU?$char_traits@_W@std@@@std@@@std@@2V0locale@2@A 0000000180038350     libcpmt:wlocale.obj
 0003:00003358       ?id@?$collate@_W@std@@2V0locale@2@A 0000000180038358     libcpmt:wlocale.obj
 0003:00003360       ?id@?$messages@_W@std@@2V0locale@2@A 0000000180038360     libcpmt:wlocale.obj
 0003:00003368       ?id@?$money_get@_WV?$istreambuf_iterator@_WU?$char_traits@_W@std@@@std@@@std@@2V0locale@2@A 0000000180038368     libcpmt:wlocale.obj
 0003:00003370       ?id@?$money_put@_WV?$ostreambuf_iterator@_WU?$char_traits@_W@std@@@std@@@std@@2V0locale@2@A 0000000180038370     libcpmt:wlocale.obj
 0003:00003378       ?id@?$moneypunct@_W$0A@@std@@2V0locale@2@A 0000000180038378     libcpmt:wlocale.obj
 0003:00003380       ?id@?$moneypunct@_W$00@std@@2V0locale@2@A 0000000180038380     libcpmt:wlocale.obj
 0003:00003388       ?id@?$time_get@_WV?$istreambuf_iterator@_WU?$char_traits@_W@std@@@std@@@std@@2V0locale@2@A 0000000180038388     libcpmt:wlocale.obj
 0003:00003390       ?id@?$num_get@GV?$istreambuf_iterator@GU?$char_traits@G@std@@@std@@@std@@2V0locale@2@A 0000000180038390     libcpmt:wlocale.obj
 0003:00003398       ?id@?$num_put@GV?$ostreambuf_iterator@GU?$char_traits@G@std@@@std@@@std@@2V0locale@2@A 0000000180038398     libcpmt:wlocale.obj
 0003:000033a0       ?id@?$numpunct@G@std@@2V0locale@2@A 00000001800383a0     libcpmt:wlocale.obj
 0003:000033a8       ?id@?$collate@G@std@@2V0locale@2@A 00000001800383a8     libcpmt:wlocale.obj
 0003:000033b0       ?id@?$messages@G@std@@2V0locale@2@A 00000001800383b0     libcpmt:wlocale.obj
 0003:000033b8       ?id@?$money_get@GV?$istreambuf_iterator@GU?$char_traits@G@std@@@std@@@std@@2V0locale@2@A 00000001800383b8     libcpmt:wlocale.obj
 0003:000033c0       ?id@?$money_put@GV?$ostreambuf_iterator@GU?$char_traits@G@std@@@std@@@std@@2V0locale@2@A 00000001800383c0     libcpmt:wlocale.obj
 0003:000033c8       ?id@?$moneypunct@G$0A@@std@@2V0locale@2@A 00000001800383c8     libcpmt:wlocale.obj
 0003:000033d0       ?id@?$moneypunct@G$00@std@@2V0locale@2@A 00000001800383d0     libcpmt:wlocale.obj
 0003:000033d8       ?id@?$time_get@GV?$istreambuf_iterator@GU?$char_traits@G@std@@@std@@@std@@2V0locale@2@A 00000001800383d8     libcpmt:wlocale.obj
 0003:000033e0       ?id@?$time_put@GV?$ostreambuf_iterator@GU?$char_traits@G@std@@@std@@@std@@2V0locale@2@A 00000001800383e0     libcpmt:wlocale.obj
 0003:000033e8       ?id@?$messages@D@std@@2V0locale@2@A 00000001800383e8     libcpmt:xlocale.obj
 0003:000033f0       ?id@?$money_get@DV?$istreambuf_iterator@DU?$char_traits@D@std@@@std@@@std@@2V0locale@2@A 00000001800383f0     libcpmt:xlocale.obj
 0003:000033f8       ?id@?$money_put@DV?$ostreambuf_iterator@DU?$char_traits@D@std@@@std@@@std@@2V0locale@2@A 00000001800383f8     libcpmt:xlocale.obj
 0003:00003400       ?id@?$moneypunct@D$0A@@std@@2V0locale@2@A 0000000180038400     libcpmt:xlocale.obj
 0003:00003408       ?id@?$moneypunct@D$00@std@@2V0locale@2@A 0000000180038408     libcpmt:xlocale.obj
 0003:00003410       ?id@?$time_get@DV?$istreambuf_iterator@DU?$char_traits@D@std@@@std@@@std@@2V0locale@2@A 0000000180038410     libcpmt:xlocale.obj
 0003:00003418       ?id@?$time_put@DV?$ostreambuf_iterator@DU?$char_traits@D@std@@@std@@@std@@2V0locale@2@A 0000000180038418     libcpmt:xlocale.obj
 0003:00003468       __scrt_current_native_startup_state 0000000180038468     LIBCMT:utility.obj
 0003:00003470       __scrt_native_startup_lock 0000000180038470     LIBCMT:utility.obj
 0003:00003a24       __scrt_debugger_hook_flag  0000000180038a24     LIBCMT:utility_desktop.obj
 0003:00003a28       _tls_index                 0000000180038a28     LIBCMT:tlssup.obj
 0003:00003a2c       __favor                    0000000180038a2c     LIBCMT:cpu_disp.obj
 0003:00003a30       ?__type_info_root_node@@3U__type_info_node@@A 0000000180038a30     LIBCMT:tncleanup.obj
 0003:00003a40       ?__WinRTOutOfMemoryExceptionCallback@@3P6APEAXXZEA 0000000180038a40     libvcruntime:ehhelpers.obj
 0003:00003ad0       __pPurecall                0000000180038ad0     libvcruntime:purevirt_data.obj
 0003:00003ad8       ?pArgList@UnDecorator@@0PEAVReplicator@@EA 0000000180038ad8     libvcruntime:undname.obj
 0003:00003ae0       ?pZNameList@UnDecorator@@0PEAVReplicator@@EA 0000000180038ae0     libvcruntime:undname.obj
 0003:00003ae8       ?pTemplateArgList@UnDecorator@@0PEAVReplicator@@EA 0000000180038ae8     libvcruntime:undname.obj
 0003:00003af0       ?gName@UnDecorator@@0PEBDEB 0000000180038af0     libvcruntime:undname.obj
 0003:00003af8       ?name@UnDecorator@@0PEBDEB 0000000180038af8     libvcruntime:undname.obj
 0003:00003b00       ?disableFlags@UnDecorator@@0KA 0000000180038b00     libvcruntime:undname.obj
 0003:00003b04       ?fExplicitTemplateParams@UnDecorator@@0_NA 0000000180038b04     libvcruntime:undname.obj
 0003:00003b05       ?fGetTemplateArgumentList@UnDecorator@@0_NA 0000000180038b05     libvcruntime:undname.obj
 0003:00003b08       ?m_pGetParameter@UnDecorator@@0P6APEADJ@ZEA 0000000180038b08     libvcruntime:undname.obj
 0003:00003b10       ?m_CHPENameOffset@UnDecorator@@0KA 0000000180038b10     libvcruntime:undname.obj
 0003:00003b14       ?m_recursionLevel@UnDecorator@@0KA 0000000180038b14     libvcruntime:undname.obj
 0003:00003bb0       _nstream                   0000000180038bb0     libucrt:_file.obj
 0003:00003bb8       __piob                     0000000180038bb8     libucrt:_file.obj
 0003:00003bc8       __acrt_lconv_static_null   0000000180038bc8     libucrt:localeconv.obj
 0003:00003bcc       __acrt_lconv_static_W_null 0000000180038bcc     libucrt:localeconv.obj
 0003:00003e50       ?c_exit_complete@?1???R<lambda_6e4b09c48022b2350581041d5f6b0c4c>@@QEBA@XZ@4_NA 0000000180038e50     libucrt:exit.obj
 0003:00003f68       _environ_table             0000000180038f68     libucrt:environment_initialization.obj
 0003:00003f70       _wenviron_table            0000000180038f70     libucrt:environment_initialization.obj
 0003:00003f78       __dcrt_initial_wide_environment 0000000180038f78     libucrt:environment_initialization.obj
 0003:00003f80       __dcrt_initial_narrow_environment 0000000180038f80     libucrt:environment_initialization.obj
 0003:00003f88       __acrt_atexit_table        0000000180038f88     libucrt:onexit.obj
 0003:00003fa0       __acrt_at_quick_exit_table 0000000180038fa0     libucrt:onexit.obj
 0003:00003fc8       __acrt_stdout_buffer       0000000180038fc8     libucrt:_sftbuf.obj
 0003:00003fd0       __acrt_stderr_buffer       0000000180038fd0     libucrt:_sftbuf.obj
 0003:00003fd8       __acrt_locale_changed_data 0000000180038fd8     libucrt:wsetlocale.obj
 0003:00003fe0       __acrt_current_locale_data 0000000180038fe0     libucrt:nlsdata.obj
 0003:00003ff0       __pioinfo                  0000000180038ff0     libucrt:ioinit.obj
 0003:000043f0       _nhandle                   00000001800393f0     libucrt:ioinit.obj
 0003:000045b4       __fma3_is_available        00000001800395b4     libucrt:fma3_available.obj
 0003:000045b8       __use_fma3_lib             00000001800395b8     libucrt:fma3_available.obj
 0003:000045c0       ?_timezone@@3V?$dual_state_global@J@__crt_state_management@@A 00000001800395c0     libucrt:timeset.obj
 0003:000045c4       ?_daylight@@3V?$dual_state_global@H@__crt_state_management@@A 00000001800395c4     libucrt:timeset.obj
 0003:000045c8       ?_dstbias@@3V?$dual_state_global@J@__crt_state_management@@A 00000001800395c8     libucrt:timeset.obj
 0003:000046a0       _mbctype                   00000001800396a0     libucrt:mbctype.obj
 0003:000046a8       _mbcasemap                 00000001800396a8     libucrt:mbctype.obj
 0003:000046b0       __acrt_current_multibyte_data 00000001800396b0     libucrt:mbctype.obj
 0003:000046c0       _pgmptr                    00000001800396c0     libucrt:argv_data.obj
 0003:000046c8       __argc                     00000001800396c8     libucrt:argv_data.obj
 0003:000046d0       __argv                     00000001800396d0     libucrt:argv_data.obj
 0003:000046d8       __wargv                    00000001800396d8     libucrt:argv_data.obj
 0003:000046e0       _acmdln                    00000001800396e0     libucrt:argv_data.obj
 0003:000046e8       _wcmdln                    00000001800396e8     libucrt:argv_data.obj
 0003:000046f0       __acrt_heap                00000001800396f0     libucrt:heap_handle.obj
 0003:00004704       _fmode                     0000000180039704     libucrt:txtmode.obj
 0003:00004710       ?_OptionsStorage@?1??__local_stdio_printf_options@@9@4_KA 0000000180039710     format.obj
 0003:00004718       ?_OptionsStorage@?1??__local_stdio_scanf_options@@9@4_KA 0000000180039718     imgui.obj
 0003:00004720       ?EmptyString@ImGuiTextBuffer@@2PADA 0000000180039720     imgui.obj
 0003:00004730       ?GImGui@@3PEAUImGuiContext@@EA 0000000180039730     imgui.obj
 0003:00004738       ?FontArrowGlyphs@TreeView@ImGui@@1PAY04DA 0000000180039738     imguivariouscontrols.obj
 0003:00004748       ?FontCheckBoxGlyphs@TreeView@ImGui@@1PAY04DA 0000000180039748     imguivariouscontrols.obj
 0003:00004768       ?self_ref@@3PEAVSixMansPlugin@@EA 0000000180039768     SixMansPlugin-Rework.obj
 0003:00004770       ?ContextMenuData@MyTreeViewHelperStruct@ImGui@@2UContextMenuDataStruct@12@A 0000000180039770     imguivariouscontrols.obj
 0003:00004790       ?NameEditing@MyTreeViewHelperStruct@ImGui@@2UNameEditingStruct@12@A 0000000180039790     imguivariouscontrols.obj
 0003:000048a0       ?server_thread@@3Vthread@std@@A 00000001800398a0     SixMansPlugin-Rework.obj
 0003:000048c0       ?_globalCvarManager@@3V?$shared_ptr@VCVarManagerWrapper@@@std@@A 00000001800398c0     SixMansPlugin-Rework.obj
 0003:000048d0       ?data_@?$winsock_init@$01$0A@@detail@asio@boost@@0Udata@winsock_init_base@234@A 00000001800398d0     server.obj
 0003:000048d8       __@@_PchSym_@00@UfhvihUgboviUwlxfnvmghUxQQLivklhUhrcnzmhkoftrmRivdlipUyfrowUOrmgvinvwrzgvhUivovzhvUkxsOlyq@4B2008FD98C1DD4 00000001800398d8     pch.obj
 0003:000048e0       ?id@?$numpunct@D@std@@2V0locale@2@A 00000001800398e0     format.obj
 0003:000048e8       ?id@?$numpunct@_W@std@@2V0locale@2@A 00000001800398e8     format.obj
 0003:000048f0       ?id@?$codecvt@DDU_Mbstatet@@@std@@2V0locale@2@A 00000001800398f0     logsys.obj
 0003:000048f8       ?top_@?$call_stack@Vthread_context@detail@asio@boost@@Vthread_info_base@234@@detail@asio@boost@@0V?$tss_ptr@Vcontext@?$call_stack@Vthread_context@detail@asio@boost@@Vthread_info_base@234@@detail@asio@boost@@@234@A 00000001800398f8     privatematch_wrapper.obj
 0003:00004900       ?id@?$num_put@DV?$ostreambuf_iterator@DU?$char_traits@D@std@@@std@@@std@@2V0locale@2@A 0000000180039900     privatematch_wrapper.obj
 0003:00004908       ?id@?$execution_context_service_base@Vwin_iocp_io_context@detail@asio@boost@@@detail@asio@boost@@2V?$service_id@Vwin_iocp_io_context@detail@asio@boost@@@234@A 0000000180039908     privatematch_wrapper.obj
 0003:00004909       ?id@?$execution_context_service_base@V?$deadline_timer_service@U?$chrono_time_traits@Usteady_clock@chrono@std@@U?$wait_traits@Usteady_clock@chrono@std@@@asio@boost@@@detail@asio@boost@@@detail@asio@boost@@@detail@asio@boost@@2V?$service_id@V?$deadline_timer_service@U?$chrono_time_traits@Usteady_clock@chrono@std@@U?$wait_traits@Usteady_clock@chrono@std@@@asio@boost@@@detail@asio@boost@@@detail@asio@boost@@@234@A 0000000180039909     privatematch_wrapper.obj
 0003:0000490a       ?id@?$execution_context_service_base@V?$win_iocp_socket_service@Vtcp@ip@asio@boost@@@detail@asio@boost@@@detail@asio@boost@@2V?$service_id@V?$win_iocp_socket_service@Vtcp@ip@asio@boost@@@detail@asio@boost@@@234@A 000000018003990a     privatematch_wrapper.obj
 0003:00004910       ?id@?$collate@D@std@@2V0locale@2@A 0000000180039910     server.obj
 0003:00004918       ?id@?$service_base@Vstrand_service@detail@asio@boost@@@detail@asio@boost@@2V?$service_id@Vstrand_service@detail@asio@boost@@@234@A 0000000180039918     pch.obj
 0003:00004919       ?id@?$execution_context_service_base@Vnull_reactor@detail@asio@boost@@@detail@asio@boost@@2V?$service_id@Vnull_reactor@detail@asio@boost@@@234@A 0000000180039919     pch.obj
 0003:0000491c       ?tss_ptr_@?$win_global_impl@Vsystem_context@asio@boost@@@detail@asio@boost@@2V?$tss_ptr@Vsystem_context@asio@boost@@@234@A 000000018003991c     pch.obj
 0003:00004920       ?top_@?$call_stack@Vstrand_impl@strand_service@detail@asio@boost@@E@detail@asio@boost@@0V?$tss_ptr@Vcontext@?$call_stack@Vstrand_impl@strand_service@detail@asio@boost@@E@detail@asio@boost@@@234@A 0000000180039920     pch.obj
 0003:00004924       ?id@?$execution_context_service_base@Vscheduler@detail@asio@boost@@@detail@asio@boost@@2V?$service_id@Vscheduler@detail@asio@boost@@@234@A 0000000180039924     pch.obj
 0003:00004928       ?top_@?$call_stack@Vstrand_impl@strand_executor_service@detail@asio@boost@@E@detail@asio@boost@@0V?$tss_ptr@Vcontext@?$call_stack@Vstrand_impl@strand_executor_service@detail@asio@boost@@E@detail@asio@boost@@@234@A 0000000180039928     pch.obj
 0003:0000492c       ?id@?$execution_context_service_base@Vselect_reactor@detail@asio@boost@@@detail@asio@boost@@2V?$service_id@Vselect_reactor@detail@asio@boost@@@234@A 000000018003992c     pch.obj
 0003:00004930       __dyn_tls_init_callback    0000000180039930     <common>
 0003:00004938       __scrt_ucrt_dll_is_in_use  0000000180039938     <common>

 entry point at        0001:00006984

 Static symbols

 0000:fffc1000       .debug$S                   0000000180000000     SixMansPlugin-Rework.exp
 0000:fffc1000       .debug$S                   0000000180000000     d3dcompiler:D3DCOMPILER_47.dll
 0002:fffe1000       .idata$6                   0000000180000000     d3dcompiler:D3DCOMPILER_47.dll
 0000:fffc1000       .debug$S                   0000000180000000     imm32:IMM32.dll
 0000:fffc1000       .debug$S                   0000000180000000     imm32:IMM32.dll
 0000:fffc1000       .debug$S                   0000000180000000     imm32:IMM32.dll
 0002:fffe1000       .idata$6                   0000000180000000     imm32:IMM32.dll
 0000:fffc1000       .debug$S                   0000000180000000     kernel32:KERNEL32.dll
 0000:fffc1000       .debug$S                   0000000180000000     kernel32:KERNEL32.dll
 0000:fffc1000       .debug$S                   0000000180000000     kernel32:KERNEL32.dll
 0000:fffc1000       .debug$S                   0000000180000000     kernel32:KERNEL32.dll
 0000:fffc1000       .debug$S                   0000000180000000     kernel32:KERNEL32.dll
 0000:fffc1000       .debug$S                   0000000180000000     kernel32:KERNEL32.dll
 0000:fffc1000       .debug$S                   0000000180000000     kernel32:KERNEL32.dll
 0000:fffc1000       .debug$S                   0000000180000000     kernel32:KERNEL32.dll
 0000:fffc1000       .debug$S                   0000000180000000     kernel32:KERNEL32.dll
 0000:fffc1000       .debug$S                   0000000180000000     kernel32:KERNEL32.dll
 0000:fffc1000       .debug$S                   0000000180000000     kernel32:KERNEL32.dll
 0000:fffc1000       .debug$S                   0000000180000000     kernel32:KERNEL32.dll
 0000:fffc1000       .debug$S                   0000000180000000     kernel32:KERNEL32.dll
 0000:fffc1000       .debug$S                   0000000180000000     kernel32:KERNEL32.dll
 0000:fffc1000       .debug$S                   0000000180000000     kernel32:KERNEL32.dll
 0000:fffc1000       .debug$S                   0000000180000000     kernel32:KERNEL32.dll
 0000:fffc1000       .debug$S                   0000000180000000     kernel32:KERNEL32.dll
 0000:fffc1000       .debug$S                   0000000180000000     kernel32:KERNEL32.dll
 0000:fffc1000       .debug$S                   0000000180000000     kernel32:KERNEL32.dll
 0000:fffc1000       .debug$S                   0000000180000000     kernel32:KERNEL32.dll
 0000:fffc1000       .debug$S                   0000000180000000     kernel32:KERNEL32.dll
 0000:fffc1000       .debug$S                   0000000180000000     kernel32:KERNEL32.dll
 0000:fffc1000       .debug$S                   0000000180000000     kernel32:KERNEL32.dll
 0000:fffc1000       .debug$S                   0000000180000000     kernel32:KERNEL32.dll
 0000:fffc1000       .debug$S                   0000000180000000     kernel32:KERNEL32.dll
 0000:fffc1000       .debug$S                   0000000180000000     kernel32:KERNEL32.dll
 0000:fffc1000       .debug$S                   0000000180000000     kernel32:KERNEL32.dll
 0000:fffc1000       .debug$S                   0000000180000000     kernel32:KERNEL32.dll
 0000:fffc1000       .debug$S                   0000000180000000     kernel32:KERNEL32.dll
 0000:fffc1000       .debug$S                   0000000180000000     kernel32:KERNEL32.dll
 0000:fffc1000       .debug$S                   0000000180000000     kernel32:KERNEL32.dll
 0000:fffc1000       .debug$S                   0000000180000000     kernel32:KERNEL32.dll
 0000:fffc1000       .debug$S                   0000000180000000     kernel32:KERNEL32.dll
 0000:fffc1000       .debug$S                   0000000180000000     kernel32:KERNEL32.dll
 0000:fffc1000       .debug$S                   0000000180000000     kernel32:KERNEL32.dll
 0000:fffc1000       .debug$S                   0000000180000000     kernel32:KERNEL32.dll
 0000:fffc1000       .debug$S                   0000000180000000     kernel32:KERNEL32.dll
 0000:fffc1000       .debug$S                   0000000180000000     kernel32:KERNEL32.dll
 0000:fffc1000       .debug$S                   0000000180000000     kernel32:KERNEL32.dll
 0000:fffc1000       .debug$S                   0000000180000000     kernel32:KERNEL32.dll
 0000:fffc1000       .debug$S                   0000000180000000     kernel32:KERNEL32.dll
 0000:fffc1000       .debug$S                   0000000180000000     kernel32:KERNEL32.dll
 0000:fffc1000       .debug$S                   0000000180000000     kernel32:KERNEL32.dll
 0000:fffc1000       .debug$S                   0000000180000000     kernel32:KERNEL32.dll
 0000:fffc1000       .debug$S                   0000000180000000     kernel32:KERNEL32.dll
 0000:fffc1000       .debug$S                   0000000180000000     kernel32:KERNEL32.dll
 0000:fffc1000       .debug$S                   0000000180000000     kernel32:KERNEL32.dll
 0000:fffc1000       .debug$S                   0000000180000000     kernel32:KERNEL32.dll
 0000:fffc1000       .debug$S                   0000000180000000     kernel32:KERNEL32.dll
 0000:fffc1000       .debug$S                   0000000180000000     kernel32:KERNEL32.dll
 0000:fffc1000       .debug$S                   0000000180000000     kernel32:KERNEL32.dll
 0000:fffc1000       .debug$S                   0000000180000000     kernel32:KERNEL32.dll
 0000:fffc1000       .debug$S                   0000000180000000     kernel32:KERNEL32.dll
 0000:fffc1000       .debug$S                   0000000180000000     kernel32:KERNEL32.dll
 0000:fffc1000       .debug$S                   0000000180000000     kernel32:KERNEL32.dll
 0000:fffc1000       .debug$S                   0000000180000000     kernel32:KERNEL32.dll
 0000:fffc1000       .debug$S                   0000000180000000     kernel32:KERNEL32.dll
 0000:fffc1000       .debug$S                   0000000180000000     kernel32:KERNEL32.dll
 0000:fffc1000       .debug$S                   0000000180000000     kernel32:KERNEL32.dll
 0000:fffc1000       .debug$S                   0000000180000000     kernel32:KERNEL32.dll
 0000:fffc1000       .debug$S                   0000000180000000     kernel32:KERNEL32.dll
 0000:fffc1000       .debug$S                   0000000180000000     kernel32:KERNEL32.dll
 0000:fffc1000       .debug$S                   0000000180000000     kernel32:KERNEL32.dll
 0000:fffc1000       .debug$S                   0000000180000000     kernel32:KERNEL32.dll
 0000:fffc1000       .debug$S                   0000000180000000     kernel32:KERNEL32.dll
 0000:fffc1000       .debug$S                   0000000180000000     kernel32:KERNEL32.dll
 0000:fffc1000       .debug$S                   0000000180000000     kernel32:KERNEL32.dll
 0000:fffc1000       .debug$S                   0000000180000000     kernel32:KERNEL32.dll
 0000:fffc1000       .debug$S                   0000000180000000     kernel32:KERNEL32.dll
 0000:fffc1000       .debug$S                   0000000180000000     kernel32:KERNEL32.dll
 0000:fffc1000       .debug$S                   0000000180000000     kernel32:KERNEL32.dll
 0000:fffc1000       .debug$S                   0000000180000000     kernel32:KERNEL32.dll
 0000:fffc1000       .debug$S                   0000000180000000     kernel32:KERNEL32.dll
 0000:fffc1000       .debug$S                   0000000180000000     kernel32:KERNEL32.dll
 0000:fffc1000       .debug$S                   0000000180000000     kernel32:KERNEL32.dll
 0000:fffc1000       .debug$S                   0000000180000000     kernel32:KERNEL32.dll
 0000:fffc1000       .debug$S                   0000000180000000     kernel32:KERNEL32.dll
 0000:fffc1000       .debug$S                   0000000180000000     kernel32:KERNEL32.dll
 0000:fffc1000       .debug$S                   0000000180000000     kernel32:KERNEL32.dll
 0000:fffc1000       .debug$S                   0000000180000000     kernel32:KERNEL32.dll
 0000:fffc1000       .debug$S                   0000000180000000     kernel32:KERNEL32.dll
 0000:fffc1000       .debug$S                   0000000180000000     kernel32:KERNEL32.dll
 0000:fffc1000       .debug$S                   0000000180000000     kernel32:KERNEL32.dll
 0000:fffc1000       .debug$S                   0000000180000000     kernel32:KERNEL32.dll
 0000:fffc1000       .debug$S                   0000000180000000     kernel32:KERNEL32.dll
 0000:fffc1000       .debug$S                   0000000180000000     kernel32:KERNEL32.dll
 0000:fffc1000       .debug$S                   0000000180000000     kernel32:KERNEL32.dll
 0000:fffc1000       .debug$S                   0000000180000000     kernel32:KERNEL32.dll
 0000:fffc1000       .debug$S                   0000000180000000     kernel32:KERNEL32.dll
 0000:fffc1000       .debug$S                   0000000180000000     kernel32:KERNEL32.dll
 0000:fffc1000       .debug$S                   0000000180000000     kernel32:KERNEL32.dll
 0000:fffc1000       .debug$S                   0000000180000000     kernel32:KERNEL32.dll
 0000:fffc1000       .debug$S                   0000000180000000     kernel32:KERNEL32.dll
 0000:fffc1000       .debug$S                   0000000180000000     kernel32:KERNEL32.dll
 0000:fffc1000       .debug$S                   0000000180000000     kernel32:KERNEL32.dll
 0000:fffc1000       .debug$S                   0000000180000000     kernel32:KERNEL32.dll
 0000:fffc1000       .debug$S                   0000000180000000     kernel32:KERNEL32.dll
 0000:fffc1000       .debug$S                   0000000180000000     kernel32:KERNEL32.dll
 0000:fffc1000       .debug$S                   0000000180000000     kernel32:KERNEL32.dll
 0000:fffc1000       .debug$S                   0000000180000000     kernel32:KERNEL32.dll
 0000:fffc1000       .debug$S                   0000000180000000     kernel32:KERNEL32.dll
 0000:fffc1000       .debug$S                   0000000180000000     kernel32:KERNEL32.dll
 0000:fffc1000       .debug$S                   0000000180000000     kernel32:KERNEL32.dll
 0000:fffc1000       .debug$S                   0000000180000000     kernel32:KERNEL32.dll
 0000:fffc1000       .debug$S                   0000000180000000     kernel32:KERNEL32.dll
 0000:fffc1000       .debug$S                   0000000180000000     kernel32:KERNEL32.dll
 0000:fffc1000       .debug$S                   0000000180000000     kernel32:KERNEL32.dll
 0000:fffc1000       .debug$S                   0000000180000000     kernel32:KERNEL32.dll
 0000:fffc1000       .debug$S                   0000000180000000     kernel32:KERNEL32.dll
 0000:fffc1000       .debug$S                   0000000180000000     kernel32:KERNEL32.dll
 0000:fffc1000       .debug$S                   0000000180000000     kernel32:KERNEL32.dll
 0000:fffc1000       .debug$S                   0000000180000000     kernel32:KERNEL32.dll
 0000:fffc1000       .debug$S                   0000000180000000     kernel32:KERNEL32.dll
 0000:fffc1000       .debug$S                   0000000180000000     kernel32:KERNEL32.dll
 0000:fffc1000       .debug$S                   0000000180000000     kernel32:KERNEL32.dll
 0000:fffc1000       .debug$S                   0000000180000000     kernel32:KERNEL32.dll
 0000:fffc1000       .debug$S                   0000000180000000     kernel32:KERNEL32.dll
 0000:fffc1000       .debug$S                   0000000180000000     kernel32:KERNEL32.dll
 0000:fffc1000       .debug$S                   0000000180000000     kernel32:KERNEL32.dll
 0000:fffc1000       .debug$S                   0000000180000000     kernel32:KERNEL32.dll
 0000:fffc1000       .debug$S                   0000000180000000     kernel32:KERNEL32.dll
 0000:fffc1000       .debug$S                   0000000180000000     kernel32:KERNEL32.dll
 0000:fffc1000       .debug$S                   0000000180000000     kernel32:KERNEL32.dll
 0000:fffc1000       .debug$S                   0000000180000000     kernel32:KERNEL32.dll
 0000:fffc1000       .debug$S                   0000000180000000     kernel32:KERNEL32.dll
 0000:fffc1000       .debug$S                   0000000180000000     kernel32:KERNEL32.dll
 0000:fffc1000       .debug$S                   0000000180000000     kernel32:KERNEL32.dll
 0000:fffc1000       .debug$S                   0000000180000000     kernel32:KERNEL32.dll
 0000:fffc1000       .debug$S                   0000000180000000     kernel32:KERNEL32.dll
 0000:fffc1000       .debug$S                   0000000180000000     kernel32:KERNEL32.dll
 0000:fffc1000       .debug$S                   0000000180000000     kernel32:KERNEL32.dll
 0000:fffc1000       .debug$S                   0000000180000000     kernel32:KERNEL32.dll
 0000:fffc1000       .debug$S                   0000000180000000     kernel32:KERNEL32.dll
 0000:fffc1000       .debug$S                   0000000180000000     kernel32:KERNEL32.dll
 0000:fffc1000       .debug$S                   0000000180000000     kernel32:KERNEL32.dll
 0000:fffc1000       .debug$S                   0000000180000000     kernel32:KERNEL32.dll
 0000:fffc1000       .debug$S                   0000000180000000     kernel32:KERNEL32.dll
 0000:fffc1000       .debug$S                   0000000180000000     kernel32:KERNEL32.dll
 0000:fffc1000       .debug$S                   0000000180000000     kernel32:KERNEL32.dll
 0000:fffc1000       .debug$S                   0000000180000000     kernel32:KERNEL32.dll
 0000:fffc1000       .debug$S                   0000000180000000     kernel32:KERNEL32.dll
 0000:fffc1000       .debug$S                   0000000180000000     kernel32:KERNEL32.dll
 0000:fffc1000       .debug$S                   0000000180000000     kernel32:KERNEL32.dll
 0000:fffc1000       .debug$S                   0000000180000000     kernel32:KERNEL32.dll
 0000:fffc1000       .debug$S                   0000000180000000     kernel32:KERNEL32.dll
 0000:fffc1000       .debug$S                   0000000180000000     kernel32:KERNEL32.dll
 0000:fffc1000       .debug$S                   0000000180000000     kernel32:KERNEL32.dll
 0000:fffc1000       .debug$S                   0000000180000000     kernel32:KERNEL32.dll
 0000:fffc1000       .debug$S                   0000000180000000     kernel32:KERNEL32.dll
 0000:fffc1000       .debug$S                   0000000180000000     kernel32:KERNEL32.dll
 0000:fffc1000       .debug$S                   0000000180000000     kernel32:KERNEL32.dll
 0000:fffc1000       .debug$S                   0000000180000000     kernel32:KERNEL32.dll
 0000:fffc1000       .debug$S                   0000000180000000     kernel32:KERNEL32.dll
 0000:fffc1000       .debug$S                   0000000180000000     kernel32:KERNEL32.dll
 0000:fffc1000       .debug$S                   0000000180000000     kernel32:KERNEL32.dll
 0000:fffc1000       .debug$S                   0000000180000000     kernel32:KERNEL32.dll
 0000:fffc1000       .debug$S                   0000000180000000     kernel32:KERNEL32.dll
 0000:fffc1000       .debug$S                   0000000180000000     kernel32:KERNEL32.dll
 0000:fffc1000       .debug$S                   0000000180000000     kernel32:KERNEL32.dll
 0000:fffc1000       .debug$S                   0000000180000000     kernel32:KERNEL32.dll
 0000:fffc1000       .debug$S                   0000000180000000     kernel32:KERNEL32.dll
 0000:fffc1000       .debug$S                   0000000180000000     kernel32:KERNEL32.dll
 0000:fffc1000       .debug$S                   0000000180000000     kernel32:KERNEL32.dll
 0000:fffc1000       .debug$S                   0000000180000000     kernel32:KERNEL32.dll
 0000:fffc1000       .debug$S                   0000000180000000     kernel32:KERNEL32.dll
 0000:fffc1000       .debug$S                   0000000180000000     kernel32:KERNEL32.dll
 0000:fffc1000       .debug$S                   0000000180000000     kernel32:KERNEL32.dll
 0000:fffc1000       .debug$S                   0000000180000000     kernel32:KERNEL32.dll
 0000:fffc1000       .debug$S                   0000000180000000     kernel32:KERNEL32.dll
 0000:fffc1000       .debug$S                   0000000180000000     kernel32:KERNEL32.dll
 0000:fffc1000       .debug$S                   0000000180000000     kernel32:KERNEL32.dll
 0000:fffc1000       .debug$S                   0000000180000000     kernel32:KERNEL32.dll
 0000:fffc1000       .debug$S                   0000000180000000     kernel32:KERNEL32.dll
 0000:fffc1000       .debug$S                   0000000180000000     kernel32:KERNEL32.dll
 0000:fffc1000       .debug$S                   0000000180000000     kernel32:KERNEL32.dll
 0000:fffc1000       .debug$S                   0000000180000000     kernel32:KERNEL32.dll
 0000:fffc1000       .debug$S                   0000000180000000     kernel32:KERNEL32.dll
 0000:fffc1000       .debug$S                   0000000180000000     kernel32:KERNEL32.dll
 0000:fffc1000       .debug$S                   0000000180000000     kernel32:KERNEL32.dll
 0000:fffc1000       .debug$S                   0000000180000000     kernel32:KERNEL32.dll
 0000:fffc1000       .debug$S                   0000000180000000     mswsock:MSWSOCK.dll
 0000:fffc1000       .debug$S                   0000000180000000     mswsock:MSWSOCK.dll
 0002:fffe1000       .idata$6                   0000000180000000     mswsock:MSWSOCK.dll
 0000:fffc1000       .debug$S                   0000000180000000     user32:USER32.dll
 0000:fffc1000       .debug$S                   0000000180000000     user32:USER32.dll
 0000:fffc1000       .debug$S                   0000000180000000     user32:USER32.dll
 0000:fffc1000       .debug$S                   0000000180000000     user32:USER32.dll
 0000:fffc1000       .debug$S                   0000000180000000     user32:USER32.dll
 0000:fffc1000       .debug$S                   0000000180000000     user32:USER32.dll
 0000:fffc1000       .debug$S                   0000000180000000     user32:USER32.dll
 0000:fffc1000       .debug$S                   0000000180000000     user32:USER32.dll
 0000:fffc1000       .debug$S                   0000000180000000     user32:USER32.dll
 0000:fffc1000       .debug$S                   0000000180000000     user32:USER32.dll
 0000:fffc1000       .debug$S                   0000000180000000     user32:USER32.dll
 0000:fffc1000       .debug$S                   0000000180000000     user32:USER32.dll
 0000:fffc1000       .debug$S                   0000000180000000     user32:USER32.dll
 0000:fffc1000       .debug$S                   0000000180000000     user32:USER32.dll
 0000:fffc1000       .debug$S                   0000000180000000     user32:USER32.dll
 0000:fffc1000       .debug$S                   0000000180000000     user32:USER32.dll
 0000:fffc1000       .debug$S                   0000000180000000     user32:USER32.dll
 0000:fffc1000       .debug$S                   0000000180000000     user32:USER32.dll
 0002:fffe1000       .idata$6                   0000000180000000     user32:USER32.dll
 0000:fffc1000       .debug$S                   0000000180000000     ws2_32:WS2_32.dll
 0000:fffc1000       .debug$S                   0000000180000000     ws2_32:WS2_32.dll
 0000:fffc1000       .debug$S                   0000000180000000     ws2_32:WS2_32.dll
 0000:fffc1000       .debug$S                   0000000180000000     ws2_32:WS2_32.dll
 0000:fffc1000       .debug$S                   0000000180000000     ws2_32:WS2_32.dll
 0000:fffc1000       .debug$S                   0000000180000000     ws2_32:WS2_32.dll
 0000:fffc1000       .debug$S                   0000000180000000     ws2_32:WS2_32.dll
 0000:fffc1000       .debug$S                   0000000180000000     ws2_32:WS2_32.dll
 0000:fffc1000       .debug$S                   0000000180000000     ws2_32:WS2_32.dll
 0000:fffc1000       .debug$S                   0000000180000000     ws2_32:WS2_32.dll
 0000:fffc1000       .debug$S                   0000000180000000     ws2_32:WS2_32.dll
 0000:fffc1000       .debug$S                   0000000180000000     ws2_32:WS2_32.dll
 0000:fffc1000       .debug$S                   0000000180000000     ws2_32:WS2_32.dll
 0000:fffc1000       .debug$S                   0000000180000000     ws2_32:WS2_32.dll
 0000:fffc1000       .debug$S                   0000000180000000     ws2_32:WS2_32.dll
 0000:fffc1000       .debug$S                   0000000180000000     ws2_32:WS2_32.dll
 0000:fffc1000       .debug$S                   0000000180000000     ws2_32:WS2_32.dll
 0000:fffc1000       .debug$S                   0000000180000000     ws2_32:WS2_32.dll
 0000:fffc1000       .debug$S                   0000000180000000     ws2_32:WS2_32.dll
 0000:fffc1000       .debug$S                   0000000180000000     pluginsdk:pluginsdk.dll
 0000:fffc1000       .debug$S                   0000000180000000     pluginsdk:pluginsdk.dll
 0000:fffc1000       .debug$S                   0000000180000000     pluginsdk:pluginsdk.dll
 0000:fffc1000       .debug$S                   0000000180000000     pluginsdk:pluginsdk.dll
 0000:fffc1000       .debug$S                   0000000180000000     pluginsdk:pluginsdk.dll
 0000:fffc1000       .debug$S                   0000000180000000     pluginsdk:pluginsdk.dll
 0000:fffc1000       .debug$S                   0000000180000000     pluginsdk:pluginsdk.dll
 0000:fffc1000       .debug$S                   0000000180000000     pluginsdk:pluginsdk.dll
 0000:fffc1000       .debug$S                   0000000180000000     pluginsdk:pluginsdk.dll
 0000:fffc1000       .debug$S                   0000000180000000     pluginsdk:pluginsdk.dll
 0000:fffc1000       .debug$S                   0000000180000000     pluginsdk:pluginsdk.dll
 0000:fffc1000       .debug$S                   0000000180000000     pluginsdk:pluginsdk.dll
 0002:fffe1000       .idata$6                   0000000180000000     pluginsdk:pluginsdk.dll
 0001:00000000       ??__EMAP_CODENAMES@@YAXXZ  0000000180001000 f   privatematch_wrapper.obj
 0001:00000740       ??__Estr_typename@@YAXXZ   0000000180001740 f   privatematch_wrapper.obj
 0001:00000770       ??__E?id@?$execution_context_service_base@V?$win_iocp_socket_service@Vtcp@ip@asio@boost@@@detail@asio@boost@@@detail@asio@boost@@2V?$service_id@V?$win_iocp_socket_service@Vtcp@ip@asio@boost@@@detail@asio@boost@@@234@A@@YAXXZ 0000000180001770 f   privatematch_wrapper.obj
 0001:00000780       ??__E?id@?$execution_context_service_base@V?$deadline_timer_service@U?$chrono_time_traits@Usteady_clock@chrono@std@@U?$wait_traits@Usteady_clock@chrono@std@@@asio@boost@@@detail@asio@boost@@@detail@asio@boost@@@detail@asio@boost@@2V?$service_id@V?$deadline_timer_service@U?$chrono_time_traits@Usteady_clock@chrono@std@@U?$wait_traits@Usteady_clock@chrono@std@@@asio@boost@@@detail@asio@boost@@@detail@asio@boost@@@234@A@@YAXXZ 0000000180001780 f   privatematch_wrapper.obj
 0001:00000790       ??__E?id@?$execution_context_service_base@Vwin_iocp_io_context@detail@asio@boost@@@detail@asio@boost@@2V?$service_id@Vwin_iocp_io_context@detail@asio@boost@@@234@A@@YAXXZ 0000000180001790 f   privatematch_wrapper.obj
 0001:000007a0       ??__E?top_@?$call_stack@Vthread_context@detail@asio@boost@@Vthread_info_base@234@@detail@asio@boost@@0V?$tss_ptr@Vcontext@?$call_stack@Vthread_context@detail@asio@boost@@Vthread_info_base@234@@detail@asio@boost@@@234@A@@YAXXZ 00000001800017a0 f   privatematch_wrapper.obj
 0001:000007c0       ??__EMAP_CODENAMES@@YAXXZ  00000001800017c0 f   server.obj
 0001:00000f00       ??__Estr_typename@@YAXXZ   0000000180001f00 f   server.obj
 0001:00000f30       ??__EMAP_CODENAMES@@YAXXZ  0000000180001f30 f   settings.obj
 0001:00001670       ??__Estr_typename@@YAXXZ   0000000180002670 f   settings.obj
 0001:000016a0       ??__EMAP_CODENAMES@@YAXXZ  00000001800026a0 f   SixMansPlugin-Rework.obj
 0001:00001de0       ??__Estr_typename@@YAXXZ   0000000180002de0 f   SixMansPlugin-Rework.obj
 0001:00001e10       ??__Fsingleton@@YAXXZ      0000000180002e10 f   SixMansPlugin-Rework.obj
 0001:00001e20       ??__F_globalCvarManager@@YAXXZ 0000000180002e20 f   SixMansPlugin-Rework.obj
 0001:00001e30       ??__Eserver_thread@@YAXXZ  0000000180002e30 f   SixMansPlugin-Rework.obj
 0001:00001e40       ??__EMAP_CODENAMES@@YAXXZ  0000000180002e40 f   SixMansPlugin-ReworkGUI.obj
 0001:00002580       ??__Estr_typename@@YAXXZ   0000000180003580 f   SixMansPlugin-ReworkGUI.obj
 0001:000025b0       ??__EMAP_CODENAMES@@YAXXZ  00000001800035b0 f   timer.obj
 0001:00002cf0       ??__Estr_typename@@YAXXZ   0000000180003cf0 f   timer.obj
 0001:00002d20       ??__Ewinsock_init_instance@detail@asio@boost@@YAXXZ 0000000180003d20 f   pch.obj
 0001:00002d90       ??__E?top_@?$call_stack@Vstrand_impl@strand_service@detail@asio@boost@@E@detail@asio@boost@@0V?$tss_ptr@Vcontext@?$call_stack@Vstrand_impl@strand_service@detail@asio@boost@@E@detail@asio@boost@@@234@A@@YAXXZ 0000000180003d90 f   pch.obj
 0001:00002db0       ??__E?top_@?$call_stack@Vstrand_impl@strand_executor_service@detail@asio@boost@@E@detail@asio@boost@@0V?$tss_ptr@Vcontext@?$call_stack@Vstrand_impl@strand_executor_service@detail@asio@boost@@E@detail@asio@boost@@@234@A@@YAXXZ 0000000180003db0 f   pch.obj
 0001:00002dd0       ??__E?id@?$service_base@Vstrand_service@detail@asio@boost@@@detail@asio@boost@@2V?$service_id@Vstrand_service@detail@asio@boost@@@234@A@@YAXXZ 0000000180003dd0 f   pch.obj
 0001:00002de0       ??__E?id@?$execution_context_service_base@Vscheduler@detail@asio@boost@@@detail@asio@boost@@2V?$service_id@Vscheduler@detail@asio@boost@@@234@A@@YAXXZ 0000000180003de0 f   pch.obj
 0001:00002df0       ??__E?id@?$execution_context_service_base@Vnull_reactor@detail@asio@boost@@@detail@asio@boost@@2V?$service_id@Vnull_reactor@detail@asio@boost@@@234@A@@YAXXZ 0000000180003df0 f   pch.obj
 0001:00002e00       ??__E?id@?$execution_context_service_base@Vselect_reactor@detail@asio@boost@@@detail@asio@boost@@2V?$service_id@Vselect_reactor@detail@asio@boost@@@234@A@@YAXXZ 0000000180003e00 f   pch.obj
 0001:00002e10       ??__E?tss_ptr_@?$win_global_impl@Vsystem_context@asio@boost@@@detail@asio@boost@@2V?$tss_ptr@Vsystem_context@asio@boost@@@234@A@@YAXXZ 0000000180003e10 f   pch.obj
 0001:00002e30       ??__Eclassic_locale@std@@YAXXZ 0000000180003e30 f   libcpmt:locale0.obj
 0001:00002e3c       ??__F_Fac_tidy_reg@std@@YAXXZ 0000000180003e3c f   libcpmt:locale0.obj
 0001:00002e48       ??__Einitlocks@std@@YAXXZ  0000000180003e48 f   libcpmt:xlock.obj
 0001:00002e68       ??__Einitlocks@std@@YAXXZ  0000000180003e68 f   libcpmt:iosptrs.obj
 0001:00002e88       ??__Finit_atexit@@YAXXZ    0000000180003e88 f   libcpmt:iosptrs.obj
 0001:00003480       ?MallocWrapper@@YAPEAX_KPEAX@Z 0000000180004480 f   imgui.obj
 0001:00003490       ?FreeWrapper@@YAXPEAX0@Z   0000000180004490 f   imgui.obj
 0001:000047f0       $LN96                      00000001800057f0     privatematch_wrapper.obj
 0001:00004840       $LN95                      0000000180005840     privatematch_wrapper.obj
 0001:00004918       $LN94                      0000000180005918     privatematch_wrapper.obj
 0001:00004994       $LN93                      0000000180005994     privatematch_wrapper.obj
 0001:00005a28       ?initialize_pointers@@YAHXZ 0000000180006a28 f   libcpmt:winapisupp.obj
 0001:00005de0       $$000000                   0000000180006de0     LIBCMT:amdsecgs.obj
 0001:00005f50       ?__scrt_initialize_thread_safe_statics@@YAHXZ 0000000180006f50 f   LIBCMT:thread_safe_statics.obj
 0001:00006020       ?__scrt_uninitialize_thread_safe_statics@@YAXXZ 0000000180007020 f   LIBCMT:thread_safe_statics.obj
 0001:00006580       capture_current_context    0000000180007580 f   LIBCMT:gs_report.obj
 0001:000065f0       capture_previous_context   00000001800075f0 f   LIBCMT:gs_report.obj
 0001:00006664       ?dllmain_crt_dispatch@@YAHQEAUHINSTANCE__@@KQEAX@Z 0000000180007664 f   LIBCMT:dll_dllmain.obj
 0001:000066b4       ?dllmain_crt_process_attach@@YAHQEAUHINSTANCE__@@QEAX@Z 00000001800076b4 f   LIBCMT:dll_dllmain.obj
 0001:000067cc       ?dllmain_crt_process_detach@@YAH_N@Z 00000001800077cc f   LIBCMT:dll_dllmain.obj
 0001:00006850       ?dllmain_dispatch@@YAHQEAUHINSTANCE__@@KQEAX@Z 0000000180007850 f   LIBCMT:dll_dllmain.obj
 0001:00006ac0       $$000000                   0000000180007ac0     LIBCMT:chkstk.obj
 0001:00007cc0       $$000000                   0000000180008cc0     libvcruntime:memcpy.obj
 0001:00008370       $$000000                   0000000180009370     libvcruntime:memset.obj
 0001:00008730       $$000000                   0000000180009730     libvcruntime:memcmp.obj
 0001:00008810       $$000000                   0000000180009810     libvcruntime:memchr.obj
 0001:00008bbc       ??$BuildCatchObjectHelperInternal@V__FrameHandler4@@@@YAHPEAUEHExceptionRecord@@PEAXPEAUHandlerType4@FH4@@PEBU_s_CatchableType@@@Z 0000000180009bbc f   libvcruntime:frame.obj
 0001:00008dc0       ??$BuildCatchObjectInternal@V__FrameHandler4@@@@YAXPEAUEHExceptionRecord@@PEAXPEAUHandlerType4@FH4@@PEBU_s_CatchableType@@@Z 0000000180009dc0 f   libvcruntime:frame.obj
 0001:00008e84       ??$CatchIt@V__FrameHandler4@@@@YAXPEAUEHExceptionRecord@@PEA_KPEAU_CONTEXT@@PEAU_xDISPATCHER_CONTEXT@@PEAUFuncInfo4@FH4@@PEAUHandlerType4@4@PEBU_s_CatchableType@@PEAUTryBlockMapEntry4@4@H1EE@Z 0000000180009e84 f   libvcruntime:frame.obj
 0001:00008f58       ??$FindHandler@V__FrameHandler4@@@@YAXPEAUEHExceptionRecord@@PEA_KPEAU_CONTEXT@@PEAU_xDISPATCHER_CONTEXT@@PEAUFuncInfo4@FH4@@EH1@Z 0000000180009f58 f   libvcruntime:frame.obj
 0001:00009454       ??$FindHandlerForForeignException@V__FrameHandler4@@@@YAXPEAUEHExceptionRecord@@PEA_KPEAU_CONTEXT@@PEAU_xDISPATCHER_CONTEXT@@PEAUFuncInfo4@FH4@@HH1@Z 000000018000a454 f   libvcruntime:frame.obj
 0001:0000a194       ?ExFilterRethrow@@YAHPEAU_EXCEPTION_POINTERS@@PEAUEHExceptionRecord@@PEAH@Z 000000018000b194 f   libvcruntime:frame.obj
 0001:0000a21c       ?ExFilterRethrowFH4@@YAHPEAU_EXCEPTION_POINTERS@@PEAUEHExceptionRecord@@HPEAH@Z 000000018000b21c f   libvcruntime:frame.obj
 0001:0000a548       ?IsInExceptionSpec@@YAEPEAUEHExceptionRecord@@PEBU_s_ESTypeList@@@Z 000000018000b548 f   libvcruntime:frame.obj
 0001:0000a638       ?Is_bad_exception_allowed@@YAEPEBU_s_ESTypeList@@@Z 000000018000b638 f   libvcruntime:frame.obj
 0001:0000a900       $$000000                   000000018000b900     libvcruntime:notify.obj
 0001:0000a9fc       ?try_get_function@@YAPEAXW4function_id@?A0x5d44c8f9@@QEBDQEBW4module_id@2@2@Z 000000018000b9fc f   libvcruntime:winapi_downlevel.obj
 0001:0000ace0       $$000000                   000000018000bce0     libvcruntime:handlers.obj
 0001:0000ade8       ??$common_vsprintf@Vstandard_base@__crt_stdio_output@@D@@YAH_KQEAD0QEBDQEAU__crt_locale_pointers@@1@Z 000000018000bde8 f   libucrt:output.obj
 0001:0000bb88       $LN17                      000000018000cb88     libucrt:output.obj
 0001:0000ce38       ??$?RV<lambda_751a882b2c74d4b022dec766aa51a29a>@@AEAV<lambda_628dfdc04ba53c8bfc02c9951375f3f5>@@V<lambda_f6c7be5f7998530c34de24c7437d6b54>@@@?$__crt_seh_guarded_call@H@@QEAAH$$QEAV<lambda_751a882b2c74d4b022dec766aa51a29a>@@AEAV<lambda_628dfdc04ba53c8bfc02c9951375f3f5>@@$$QEAV<lambda_f6c7be5f7998530c34de24c7437d6b54>@@@Z 000000018000de38 f   libucrt:close.obj
 0001:0000d010       ?write_double_translated_ansi_nolock@@YA?AUwrite_result@?A0x17268360@@HQEBDI@Z 000000018000e010 f   libucrt:write.obj
 0001:0000d4fc       ?write_text_ansi_nolock@@YA?AUwrite_result@?A0x17268360@@HQEBDI@Z 000000018000e4fc f   libucrt:write.obj
 0001:0000d600       ?write_text_utf16le_nolock@@YA?AUwrite_result@?A0x17268360@@HQEBDI@Z 000000018000e600 f   libucrt:write.obj
 0001:0000d71c       ?write_text_utf8_nolock@@YA?AUwrite_result@?A0x17268360@@HQEBDI@Z 000000018000e71c f   libucrt:write.obj
 0001:0000dc70       $$000000                   000000018000ec70     libucrt:strncpy.obj
 0001:0000e190       ??$?RV<lambda_842d9ff0dc9ef11c61343bbaebe7f885>@@AEAV<lambda_c5860995281e5c4ce005b3de8f5874ee>@@V<lambda_d90129c13df834fdcbf8d2b88dafcf2d>@@@?$__crt_seh_guarded_call@X@@QEAAX$$QEAV<lambda_842d9ff0dc9ef11c61343bbaebe7f885>@@AEAV<lambda_c5860995281e5c4ce005b3de8f5874ee>@@$$QEAV<lambda_d90129c13df834fdcbf8d2b88dafcf2d>@@@Z 000000018000f190 f   libucrt:fflush.obj
 0001:0000e22c       ??$?RV<lambda_886d6c58226a84441f68b9f2b8217b83>@@AEAV<lambda_ab61a845afdef5b7c387490eaf3616ee>@@V<lambda_f7f22ab5edc0698d5f6905b0d3f44752>@@@?$__crt_seh_guarded_call@X@@QEAAX$$QEAV<lambda_886d6c58226a84441f68b9f2b8217b83>@@AEAV<lambda_ab61a845afdef5b7c387490eaf3616ee>@@$$QEAV<lambda_f7f22ab5edc0698d5f6905b0d3f44752>@@@Z 000000018000f22c f   libucrt:fflush.obj
 0001:0000e30c       ?common_flush_all@@YAH_N@Z 000000018000f30c f   libucrt:fflush.obj
 0001:0000e8e4       memcpy_s                   000000018000f8e4 f   libucrt:cfout.obj
 0001:0000e8e4       memcpy_s                   000000018000f8e4 f   libucrt:input.obj
 0001:0000e970       $$000000                   000000018000f970     libucrt:strncmp.obj
 0001:0000ed84       ??$?RV<lambda_450d765d439847d4c735a33c368b5fc0>@@AEAV<lambda_44731a7d0e6d81c3e6aa82d741081786>@@V<lambda_601a2a7da3b7a96e9554ac7215c4b07c>@@@?$__crt_seh_guarded_call@P6AXH@Z@@QEAAP6AXH@Z$$QEAV<lambda_450d765d439847d4c735a33c368b5fc0>@@AEAV<lambda_44731a7d0e6d81c3e6aa82d741081786>@@$$QEAV<lambda_601a2a7da3b7a96e9554ac7215c4b07c>@@@Z 000000018000fd84 f   libucrt:signal.obj
 0001:0000f1d0       $$000000                   00000001800101d0     libucrt:pow.obj
 0001:00010870       $$000000                   0000000180011870     libucrt:powf.obj
 0001:00011d90       ??$?RV<lambda_d80eeec6fff315bfe5c115232f3240e3>@@AEAV<lambda_6e4b09c48022b2350581041d5f6b0c4c>@@V<lambda_2358e3775559c9db80273638284d5e45>@@@?$__crt_seh_guarded_call@X@@QEAAX$$QEAV<lambda_d80eeec6fff315bfe5c115232f3240e3>@@AEAV<lambda_6e4b09c48022b2350581041d5f6b0c4c>@@$$QEAV<lambda_2358e3775559c9db80273638284d5e45>@@@Z 0000000180012d90 f   libucrt:exit.obj
 0001:00011dc8       ??R<lambda_6e4b09c48022b2350581041d5f6b0c4c>@@QEBA@XZ 0000000180012dc8 f   libucrt:exit.obj
 0001:00011e8c       ?atexit_exception_filter@@YAHK@Z 0000000180012e8c f   libucrt:exit.obj
 0001:00011e98       ?common_exit@@YAXHW4_crt_exit_cleanup_mode@@W4_crt_exit_return_mode@@@Z 0000000180012e98 f   libucrt:exit.obj
 0001:00011f54       ?exit_or_terminate_process@@YAXI@Z 0000000180012f54 f   libucrt:exit.obj
 0001:00011fa0       ?try_cor_exit_process@@YAXI@Z 0000000180012fa0 f   libucrt:exit.obj
 0001:00012028       ??$parse_command_line@D@@YAXPEADPEAPEAD0PEA_K2@Z 0000000180013028 f   libucrt:argv_parsing.obj
 0001:000123d0       ??$common_initialize_environment_nolock@D@@YAHXZ 00000001800133d0 f   libucrt:environment_initialization.obj
 0001:0001243c       ??$create_environment@D@@YAQEAPEADQEAD@Z 000000018001343c f   libucrt:environment_initialization.obj
 0001:00012544       ??$free_environment@D@@YAXQEAPEAD@Z 0000000180013544 f   libucrt:environment_initialization.obj
 0001:00012544       ??$free_environment@_W@@YAXQEAPEA_W@Z 0000000180013544 f   libucrt:environment_initialization.obj
 0001:00012588       ??$uninitialize_environment_internal@D@@YAXAEAPEAPEAD@Z 0000000180013588 f   libucrt:environment_initialization.obj
 0001:000125a4       ??$uninitialize_environment_internal@_W@@YAXAEAPEAPEA_W@Z 00000001800135a4 f   libucrt:environment_initialization.obj
 0001:00012600       ??$?RV<lambda_638799b9deba96c50f710eeac98168cd>@@AEAV<lambda_22ebabd17bc4fa466a2aca6d8deb888d>@@V<lambda_a6f7d7db0129f75315ebf26d50c089f1>@@@?$__crt_seh_guarded_call@H@@QEAAH$$QEAV<lambda_638799b9deba96c50f710eeac98168cd>@@AEAV<lambda_22ebabd17bc4fa466a2aca6d8deb888d>@@$$QEAV<lambda_a6f7d7db0129f75315ebf26d50c089f1>@@@Z 0000000180013600 f   libucrt:onexit.obj
 0001:0001263c       ??$?RV<lambda_7777bce6b2f8c936911f934f8298dc43>@@AEAV<lambda_f03950bc5685219e0bcd2087efbe011e>@@V<lambda_3883c3dff614d5e0c5f61bb1ac94921c>@@@?$__crt_seh_guarded_call@H@@QEAAH$$QEAV<lambda_7777bce6b2f8c936911f934f8298dc43>@@AEAV<lambda_f03950bc5685219e0bcd2087efbe011e>@@$$QEAV<lambda_3883c3dff614d5e0c5f61bb1ac94921c>@@@Z 000000018001363c f   libucrt:onexit.obj
 0001:00012678       ??R<lambda_22ebabd17bc4fa466a2aca6d8deb888d>@@QEBAHXZ 0000000180013678 f   libucrt:onexit.obj
 0001:00012828       ??R<lambda_f03950bc5685219e0bcd2087efbe011e>@@QEBAHXZ 0000000180013828 f   libucrt:onexit.obj
 0001:000129fc       initialize_global_variables 00000001800139fc f   libucrt:initialization.obj
 0001:00012a10       initialize_c               0000000180013a10 f   libucrt:initialization.obj
 0001:00012a34       initialize_environment     0000000180013a34 f   libucrt:initialization.obj
 0001:00012a34       initialize_global_state_isolation 0000000180013a34 f   libucrt:initialization.obj
 0001:00012a34       report_memory_leaks        0000000180013a34 f   libucrt:initialization.obj
 0001:00012a34       uninitialize_c             0000000180013a34 f   libucrt:initialization.obj
 0001:00012a34       uninitialize_global_state_isolation 0000000180013a34 f   libucrt:initialization.obj
 0001:00012a38       uninitialize_environment   0000000180013a38 f   libucrt:initialization.obj
 0001:00012a48       initialize_pointers        0000000180013a48 f   libucrt:initialization.obj
 0001:00012a88       uninitialize_vcruntime     0000000180013a88 f   libucrt:initialization.obj
 0001:00012a90       uninitialize_allocated_memory 0000000180013a90 f   libucrt:initialization.obj
 0001:00012ad0       uninitialize_allocated_io_buffers 0000000180013ad0 f   libucrt:initialization.obj
 0001:000130a0       ??$?RV<lambda_0ae27a3a962d80f24befdcbee591983d>@@AEAV<lambda_8d0ee55de4b1038c4002e0adecdf1839>@@V<lambda_dc504788e8f1664fe9b84e20bfb512f2>@@@?$__crt_seh_guarded_call@X@@QEAAX$$QEAV<lambda_0ae27a3a962d80f24befdcbee591983d>@@AEAV<lambda_8d0ee55de4b1038c4002e0adecdf1839>@@$$QEAV<lambda_dc504788e8f1664fe9b84e20bfb512f2>@@@Z 00000001800140a0 f   libucrt:per_thread_data.obj
 0001:000130e0       ??$?RV<lambda_2d41944a1d46af3157314b8a01080d33>@@AEAV<lambda_8f455de75cd7d7f24b4096f044d8b9e6>@@V<lambda_aa500f224e6afead328df44964fe2772>@@@?$__crt_seh_guarded_call@X@@QEAAX$$QEAV<lambda_2d41944a1d46af3157314b8a01080d33>@@AEAV<lambda_8f455de75cd7d7f24b4096f044d8b9e6>@@$$QEAV<lambda_aa500f224e6afead328df44964fe2772>@@@Z 00000001800140e0 f   libucrt:per_thread_data.obj
 0001:00013120       ??$?RV<lambda_aa87e3671a710a21b5dc78c0bdf72e11>@@AEAV<lambda_92619d2358a28f41a33ba319515a20b9>@@V<lambda_6992ecaafeb10aed2b74cb1fae11a551>@@@?$__crt_seh_guarded_call@X@@QEAAX$$QEAV<lambda_aa87e3671a710a21b5dc78c0bdf72e11>@@AEAV<lambda_92619d2358a28f41a33ba319515a20b9>@@$$QEAV<lambda_6992ecaafeb10aed2b74cb1fae11a551>@@@Z 0000000180014120 f   libucrt:per_thread_data.obj
 0001:00013168       ??$?RV<lambda_f2e299630e499de9f9a165e60fcd3db5>@@AEAV<lambda_2ae9d31cdba2644fcbeaf08da7c24588>@@V<lambda_40d01ff24d0e7b3814fdbdcee8eab3c7>@@@?$__crt_seh_guarded_call@X@@QEAAX$$QEAV<lambda_f2e299630e499de9f9a165e60fcd3db5>@@AEAV<lambda_2ae9d31cdba2644fcbeaf08da7c24588>@@$$QEAV<lambda_40d01ff24d0e7b3814fdbdcee8eab3c7>@@@Z 0000000180014168 f   libucrt:per_thread_data.obj
 0001:000131c8       ?construct_ptd_array@@YAXQEAU__acrt_ptd@@@Z 00000001800141c8 f   libucrt:per_thread_data.obj
 0001:00013298       ?destroy_fls@@YAXPEAX@Z    0000000180014298 f   libucrt:per_thread_data.obj
 0001:000132b8       ?destroy_ptd_array@@YAXQEAU__acrt_ptd@@@Z 00000001800142b8 f   libucrt:per_thread_data.obj
 0001:000133b0       ?replace_current_thread_locale_nolock@@YAXQEAU__acrt_ptd@@QEAU__crt_locale_data@@@Z 00000001800143b0 f   libucrt:per_thread_data.obj
 0001:0001376c       ?fp_format_a@@YAHQEBNPEAD_KQEAD2H_NIQEAU__crt_locale_pointers@@W4__acrt_rounding_mode@@@Z 000000018001476c f   libucrt:cvt.obj
 0001:00013aec       ?fp_format_e@@YAHQEBNQEAD_K12H_NIQEAU__crt_locale_pointers@@W4__acrt_rounding_mode@@@Z 0000000180014aec f   libucrt:cvt.obj
 0001:00013bdc       ?fp_format_e_internal@@YAHQEAD_KH_NIQEAU_strflt@@2QEAU__crt_locale_pointers@@@Z 0000000180014bdc f   libucrt:cvt.obj
 0001:00013db0       ?fp_format_f_internal@@YAHQEAD_KHQEAU_strflt@@_NQEAU__crt_locale_pointers@@@Z 0000000180014db0 f   libucrt:cvt.obj
 0001:00013f18       ?fp_format_g@@YAHQEBNQEAD_K12H_NIW4__acrt_rounding_mode@@QEAU__crt_locale_pointers@@@Z 0000000180014f18 f   libucrt:cvt.obj
 0001:00014060       ?should_round_up@@YA_NQEBN_KFW4__acrt_rounding_mode@@@Z 0000000180015060 f   libucrt:cvt.obj
 0001:000144c8       ??$?RV<lambda_410d79af7f07d98d83a3f525b3859a53>@@AEAV<lambda_3e16ef9562a7dcce91392c22ab16ea36>@@V<lambda_38119f0e861e05405d8a144b9b982f0a>@@@?$__crt_seh_guarded_call@X@@QEAAX$$QEAV<lambda_410d79af7f07d98d83a3f525b3859a53>@@AEAV<lambda_3e16ef9562a7dcce91392c22ab16ea36>@@$$QEAV<lambda_38119f0e861e05405d8a144b9b982f0a>@@@Z 00000001800154c8 f   libucrt:wsetlocale.obj
 0001:00014574       ?initialize_inherited_file_handles_nolock@@YAXXZ 0000000180015574 f   libucrt:ioinit.obj
 0001:00014664       ?initialize_stdio_handles_nolock@@YAXXZ 0000000180015664 f   libucrt:ioinit.obj
 0001:00014864       ?try_get_function@@YAPEAXW4function_id@?A0x391cf84c@@QEBDQEBW4module_id@2@2@Z 0000000180015864 f   libucrt:winapi_thunks.obj
 0001:00015044       ??$common_lseek_nolock@_J@@YA_JH_JH@Z 0000000180016044 f   libucrt:lseek.obj
 0001:00015420       ?__acrt_LCMapStringA_stat@@YAHPEAU__crt_locale_pointers@@PEB_WKPEBDHPEADHHH@Z 0000000180016420 f   libucrt:lcmapstringa.obj
 0001:000157d0       ??$?RV<lambda_a37b2b86f63e897a80ea819b0eb08c01>@@AEAV<lambda_38ce7e780aa69e748d6df282ebc68efe>@@V<lambda_99fb1378e971ab6e7edea83e3a7a83a2>@@@?$__crt_seh_guarded_call@H@@QEAAH$$QEAV<lambda_a37b2b86f63e897a80ea819b0eb08c01>@@AEAV<lambda_38ce7e780aa69e748d6df282ebc68efe>@@$$QEAV<lambda_99fb1378e971ab6e7edea83e3a7a83a2>@@@Z 00000001800167d0 f   libucrt:commit.obj
 0001:00016430       ?<lambda_invoker_cdecl>@<lambda_a1ce4c8ae42411fd470c77163914f50e>@@CAHPEBX0@Z 0000000180017430 f   libucrt:argv_wildcards.obj
 0001:000165d0       ??$common_expand_argv_wildcards@D@@YAHQEAPEADQEAPEAPEAD@Z 00000001800175d0 f   libucrt:argv_wildcards.obj
 0001:000167dc       ??$copy_and_add_argument_to_buffer@D@@YAHQEBD0_KAEAV?$argument_list@D@?A0x5f5c8891@@@Z 00000001800177dc f   libucrt:argv_wildcards.obj
 0001:00016964       ??$expand_argument_wildcards@D@@YAHQEAD0AEAV?$argument_list@D@?A0x5f5c8891@@@Z 0000000180017964 f   libucrt:argv_wildcards.obj
 0001:00016d9c       ??$?RV<lambda_efdfa57d1f175319df784efa44bb7b81>@@AEAV<lambda_5f0a4c1567f8adc6734073e5d1e1b35c>@@V<lambda_2e8a7d3640ea6ccb4c2413664c2db6fd>@@@?$__crt_seh_guarded_call@X@@QEAAX$$QEAV<lambda_efdfa57d1f175319df784efa44bb7b81>@@AEAV<lambda_5f0a4c1567f8adc6734073e5d1e1b35c>@@$$QEAV<lambda_2e8a7d3640ea6ccb4c2413664c2db6fd>@@@Z 0000000180017d9c f   libucrt:mbctype.obj
 0001:00016f58       ?getSystemCP@@YAHH@Z       0000000180017f58 f   libucrt:mbctype.obj
 0001:00016fd8       ?setSBCS@@YAXPEAU__crt_multibyte_data@@@Z 0000000180017fd8 f   libucrt:mbctype.obj
 0001:00017068       ?setSBUpLow@@YAXPEAU__crt_multibyte_data@@@Z 0000000180018068 f   libucrt:mbctype.obj
 0001:0001724c       ?setmbcp_internal@@YAHH_NQEAU__acrt_ptd@@QEAPEAU__crt_multibyte_data@@@Z 000000018001824c f   libucrt:mbctype.obj
 0001:0001740c       ?update_thread_multibyte_data_internal@@YAPEAU__crt_multibyte_data@@QEAU__acrt_ptd@@QEAPEAU1@@Z 000000018001840c f   libucrt:mbctype.obj
 0001:000177fc       ?x_ismbbtype_l@@YAHPEAU__crt_locale_pointers@@IHH@Z 00000001800187fc f   libucrt:ismbbyte.obj
 0001:00019568       ?free_crt_array_internal@@YAXQEAPEBX_K@Z 000000018001a568 f   libucrt:inittime.obj
 0001:00019dc0       $$000000                   000000018001adc0     libucrt:fpsr.obj
 0001:00019e20       _call_matherr              000000018001ae20 f   libucrt:libm_error.obj
 0001:00019e88       _exception_enabled         000000018001ae88 f   libucrt:libm_error.obj
 0001:0001a1cc       fallbackMethod             000000018001b1cc f   libucrt:strpbrk.obj
 0001:0001a57c       $LN78                      000000018001b57c     libucrt:strpbrk.obj
 0001:0001a5b8       $LN77                      000000018001b5b8     libucrt:strpbrk.obj
 0001:0001a5f8       $LN76                      000000018001b5f8     libucrt:strpbrk.obj
 0001:0001a6d4       ?initialize_multibyte@@YAHXZ 000000018001b6d4 f   libucrt:multibyte_initializer.obj
 0001:0001a910       $$000000                   000000018001b910     libucrt:log10.obj
 0001:0001af34       common_control87           000000018001bf34 f   libucrt:ieee.obj
 0001:0001b220       _log_special_common        000000018001c220 f   libucrt:log_special.obj
 0001:0001b550       $$000000                   000000018001c550     libucrt:sinf.obj
 0001:0001bc50       $$000000                   000000018001cc50     libucrt:strcmp.obj
 0001:0001bcd0       $$000000                   000000018001ccd0     libucrt:remainder_piby2f_forc.obj
 0001:0001be5c       _sincosf_special           000000018001ce5c f   libucrt:sincos_special.obj
 0001:0001bf00       $$000000                   000000018001cf00     LIBCMT:guard_dispatch.obj
 0001:0001bf20       $$000000                   000000018001cf20     LIBCMT:guard_xfg_dispatch.obj
 0001:0001bf40       ?dtor$0@?0???__EMAP_CODENAMES@@YAXXZ@4HA 000000018001cf40 f   privatematch_wrapper.obj
 0001:0001bf4c       ?dtor$1@?0???__EMAP_CODENAMES@@YAXXZ@4HA 000000018001cf4c f   privatematch_wrapper.obj
 0001:0001bf58       ?dtor$2@?0???__EMAP_CODENAMES@@YAXXZ@4HA 000000018001cf58 f   privatematch_wrapper.obj
 0001:0001bf64       ?dtor$3@?0???__EMAP_CODENAMES@@YAXXZ@4HA 000000018001cf64 f   privatematch_wrapper.obj
 0001:0001bf70       ?dtor$4@?0???__EMAP_CODENAMES@@YAXXZ@4HA 000000018001cf70 f   privatematch_wrapper.obj
 0001:0001bf7c       ?dtor$5@?0???__EMAP_CODENAMES@@YAXXZ@4HA 000000018001cf7c f   privatematch_wrapper.obj
 0001:0001bf88       ?dtor$6@?0???__EMAP_CODENAMES@@YAXXZ@4HA 000000018001cf88 f   privatematch_wrapper.obj
 0001:0001bf94       ?dtor$7@?0???__EMAP_CODENAMES@@YAXXZ@4HA 000000018001cf94 f   privatematch_wrapper.obj
 0001:0001bfa0       ?dtor$8@?0???__EMAP_CODENAMES@@YAXXZ@4HA 000000018001cfa0 f   privatematch_wrapper.obj
 0001:0001bfac       ?dtor$9@?0???__EMAP_CODENAMES@@YAXXZ@4HA 000000018001cfac f   privatematch_wrapper.obj
 0001:0001bfb8       ?dtor$10@?0???__EMAP_CODENAMES@@YAXXZ@4HA 000000018001cfb8 f   privatematch_wrapper.obj
 0001:0001bfc4       ?dtor$11@?0???__EMAP_CODENAMES@@YAXXZ@4HA 000000018001cfc4 f   privatematch_wrapper.obj
 0001:0001bfd0       ?dtor$12@?0???__EMAP_CODENAMES@@YAXXZ@4HA 000000018001cfd0 f   privatematch_wrapper.obj
 0001:0001bfdc       ?dtor$13@?0???__EMAP_CODENAMES@@YAXXZ@4HA 000000018001cfdc f   privatematch_wrapper.obj
 0001:0001bfe8       ?dtor$14@?0???__EMAP_CODENAMES@@YAXXZ@4HA 000000018001cfe8 f   privatematch_wrapper.obj
 0001:0001bff4       ?dtor$15@?0???__EMAP_CODENAMES@@YAXXZ@4HA 000000018001cff4 f   privatematch_wrapper.obj
 0001:0001c000       ?dtor$16@?0???__EMAP_CODENAMES@@YAXXZ@4HA 000000018001d000 f   privatematch_wrapper.obj
 0001:0001c00c       ?dtor$17@?0???__EMAP_CODENAMES@@YAXXZ@4HA 000000018001d00c f   privatematch_wrapper.obj
 0001:0001c018       ?dtor$18@?0???__EMAP_CODENAMES@@YAXXZ@4HA 000000018001d018 f   privatematch_wrapper.obj
 0001:0001c024       ?dtor$19@?0???__EMAP_CODENAMES@@YAXXZ@4HA 000000018001d024 f   privatematch_wrapper.obj
 0001:0001c030       ?dtor$20@?0???__EMAP_CODENAMES@@YAXXZ@4HA 000000018001d030 f   privatematch_wrapper.obj
 0001:0001c03c       ?dtor$21@?0???__EMAP_CODENAMES@@YAXXZ@4HA 000000018001d03c f   privatematch_wrapper.obj
 0001:0001c048       ?dtor$22@?0???__EMAP_CODENAMES@@YAXXZ@4HA 000000018001d048 f   privatematch_wrapper.obj
 0001:0001c054       ?dtor$23@?0???__EMAP_CODENAMES@@YAXXZ@4HA 000000018001d054 f   privatematch_wrapper.obj
 0001:0001c060       ?dtor$24@?0???__EMAP_CODENAMES@@YAXXZ@4HA 000000018001d060 f   privatematch_wrapper.obj
 0001:0001c06c       ?dtor$25@?0???__EMAP_CODENAMES@@YAXXZ@4HA 000000018001d06c f   privatematch_wrapper.obj
 0001:0001c078       ?dtor$26@?0???__EMAP_CODENAMES@@YAXXZ@4HA 000000018001d078 f   privatematch_wrapper.obj
 0001:0001c084       ?dtor$27@?0???__EMAP_CODENAMES@@YAXXZ@4HA 000000018001d084 f   privatematch_wrapper.obj
 0001:0001c090       ?dtor$28@?0???__EMAP_CODENAMES@@YAXXZ@4HA 000000018001d090 f   privatematch_wrapper.obj
 0001:0001c09c       ?dtor$29@?0???__EMAP_CODENAMES@@YAXXZ@4HA 000000018001d09c f   privatematch_wrapper.obj
 0001:0001c0a8       ?dtor$30@?0???__EMAP_CODENAMES@@YAXXZ@4HA 000000018001d0a8 f   privatematch_wrapper.obj
 0001:0001c0b4       ?dtor$31@?0???__EMAP_CODENAMES@@YAXXZ@4HA 000000018001d0b4 f   privatematch_wrapper.obj
 0001:0001c0c0       ?dtor$32@?0???__EMAP_CODENAMES@@YAXXZ@4HA 000000018001d0c0 f   privatematch_wrapper.obj
 0001:0001c0cc       ?dtor$33@?0???__EMAP_CODENAMES@@YAXXZ@4HA 000000018001d0cc f   privatematch_wrapper.obj
 0001:0001c0e0       ?dtor$0@?0??to_string@error_code@system@boost@@QEBA?AV?$basic_string@DU?$char_traits@D@std@@V?$allocator@D@2@@std@@XZ@4HA 000000018001d0e0 f   privatematch_wrapper.obj
 0001:0001c0ec       ?dtor$2@?0??to_string@error_code@system@boost@@QEBA?AV?$basic_string@DU?$char_traits@D@std@@V?$allocator@D@2@@std@@XZ@4HA 000000018001d0ec f   privatematch_wrapper.obj
 0001:0001c100       ?dtor$1@?0??to_string@source_location@boost@@QEBA?AV?$basic_string@DU?$char_traits@D@std@@V?$allocator@D@2@@std@@XZ@4HA 000000018001d100 f   privatematch_wrapper.obj
 0001:0001c110       ?dtor$0@?0??what@error_code@system@boost@@QEBA?AV?$basic_string@DU?$char_traits@D@std@@V?$allocator@D@2@@std@@XZ@4HA 000000018001d110 f   privatematch_wrapper.obj
 0001:0001c136       ?dtor$1@?0??what@error_code@system@boost@@QEBA?AV?$basic_string@DU?$char_traits@D@std@@V?$allocator@D@2@@std@@XZ@4HA 000000018001d136 f   privatematch_wrapper.obj
 0001:0001c142       ?dtor$2@?0??what@error_code@system@boost@@QEBA?AV?$basic_string@DU?$char_traits@D@std@@V?$allocator@D@2@@std@@XZ@4HA 000000018001d142 f   privatematch_wrapper.obj
 0001:0001c150       ?dtor$2@?0???0system_error@system@boost@@QEAA@AEBVerror_code@12@PEBD@Z@4HA 000000018001d150 f   privatematch_wrapper.obj
 0001:0001c176       ?dtor$3@?0???0system_error@system@boost@@QEAA@AEBVerror_code@12@PEBD@Z@4HA 000000018001d176 f   privatematch_wrapper.obj
 0001:0001c190       ?dtor$0@?0??clone@?$wrapexcept@Vsystem_error@system@boost@@@boost@@UEBAPEBVclone_base@exception_detail@2@XZ@4HA 000000018001d190 f   privatematch_wrapper.obj
 0001:0001c1ad       ?dtor$1@?0??clone@?$wrapexcept@Vsystem_error@system@boost@@@boost@@UEBAPEBVclone_base@exception_detail@2@XZ@4HA 000000018001d1ad f   privatematch_wrapper.obj
 0001:0001c1c0       ?dtor$0@?0???0?$wrapexcept@Vsystem_error@system@boost@@@boost@@QEAA@AEBU01@@Z@4HA 000000018001d1c0 f   privatematch_wrapper.obj
 0001:0001c1cc       ?dtor$1@?0???0?$wrapexcept@Vsystem_error@system@boost@@@boost@@QEAA@AEBU01@@Z@4HA 000000018001d1cc f   privatematch_wrapper.obj
 0001:0001c1e0       ?dtor$0@?0??do_throw_error@detail@asio@boost@@YAXAEBVerror_code@system@3@PEBD@Z@4HA 000000018001d1e0 f   privatematch_wrapper.obj
 0001:0001c1f0       ?dtor$0@?0??copy_boost_exception@exception_detail@boost@@YAXPEAVexception@2@PEBV32@@Z@4HA 000000018001d1f0 f   privatematch_wrapper.obj
 0001:0001c1fc       ?dtor$1@?0??copy_boost_exception@exception_detail@boost@@YAXPEAVexception@2@PEBV32@@Z@4HA 000000018001d1fc f   privatematch_wrapper.obj
 0001:0001c210       ?dtor$1@?0??system_category_message_win32@detail@system@boost@@YA?AV?$basic_string@DU?$char_traits@D@std@@V?$allocator@D@2@@std@@H@Z@4HA 000000018001d210 f   privatematch_wrapper.obj
 0001:0001c21c       ?dtor$2@?0??system_category_message_win32@detail@system@boost@@YA?AV?$basic_string@DU?$char_traits@D@std@@V?$allocator@D@2@@std@@H@Z@4HA 000000018001d21c f   privatematch_wrapper.obj
 0001:0001c230       ?dtor$0@?0???__EMAP_CODENAMES@@YAXXZ@4HA 000000018001d230 f   server.obj
 0001:0001c23c       ?dtor$1@?0???__EMAP_CODENAMES@@YAXXZ@4HA 000000018001d23c f   server.obj
 0001:0001c248       ?dtor$2@?0???__EMAP_CODENAMES@@YAXXZ@4HA 000000018001d248 f   server.obj
 0001:0001c254       ?dtor$3@?0???__EMAP_CODENAMES@@YAXXZ@4HA 000000018001d254 f   server.obj
 0001:0001c260       ?dtor$4@?0???__EMAP_CODENAMES@@YAXXZ@4HA 000000018001d260 f   server.obj
 0001:0001c26c       ?dtor$5@?0???__EMAP_CODENAMES@@YAXXZ@4HA 000000018001d26c f   server.obj
 0001:0001c278       ?dtor$6@?0???__EMAP_CODENAMES@@YAXXZ@4HA 000000018001d278 f   server.obj
 0001:0001c284       ?dtor$7@?0???__EMAP_CODENAMES@@YAXXZ@4HA 000000018001d284 f   server.obj
 0001:0001c290       ?dtor$8@?0???__EMAP_CODENAMES@@YAXXZ@4HA 000000018001d290 f   server.obj
 0001:0001c29c       ?dtor$9@?0???__EMAP_CODENAMES@@YAXXZ@4HA 000000018001d29c f   server.obj
 0001:0001c2a8       ?dtor$10@?0???__EMAP_CODENAMES@@YAXXZ@4HA 000000018001d2a8 f   server.obj
 0001:0001c2b4       ?dtor$11@?0???__EMAP_CODENAMES@@YAXXZ@4HA 000000018001d2b4 f   server.obj
 0001:0001c2c0       ?dtor$12@?0???__EMAP_CODENAMES@@YAXXZ@4HA 000000018001d2c0 f   server.obj
 0001:0001c2cc       ?dtor$13@?0???__EMAP_CODENAMES@@YAXXZ@4HA 000000018001d2cc f   server.obj
 0001:0001c2d8       ?dtor$14@?0???__EMAP_CODENAMES@@YAXXZ@4HA 000000018001d2d8 f   server.obj
 0001:0001c2e4       ?dtor$15@?0???__EMAP_CODENAMES@@YAXXZ@4HA 000000018001d2e4 f   server.obj
 0001:0001c2f0       ?dtor$16@?0???__EMAP_CODENAMES@@YAXXZ@4HA 000000018001d2f0 f   server.obj
 0001:0001c2fc       ?dtor$17@?0???__EMAP_CODENAMES@@YAXXZ@4HA 000000018001d2fc f   server.obj
 0001:0001c308       ?dtor$18@?0???__EMAP_CODENAMES@@YAXXZ@4HA 000000018001d308 f   server.obj
 0001:0001c314       ?dtor$19@?0???__EMAP_CODENAMES@@YAXXZ@4HA 000000018001d314 f   server.obj
 0001:0001c320       ?dtor$20@?0???__EMAP_CODENAMES@@YAXXZ@4HA 000000018001d320 f   server.obj
 0001:0001c32c       ?dtor$21@?0???__EMAP_CODENAMES@@YAXXZ@4HA 000000018001d32c f   server.obj
 0001:0001c338       ?dtor$22@?0???__EMAP_CODENAMES@@YAXXZ@4HA 000000018001d338 f   server.obj
 0001:0001c344       ?dtor$23@?0???__EMAP_CODENAMES@@YAXXZ@4HA 000000018001d344 f   server.obj
 0001:0001c350       ?dtor$24@?0???__EMAP_CODENAMES@@YAXXZ@4HA 000000018001d350 f   server.obj
 0001:0001c35c       ?dtor$25@?0???__EMAP_CODENAMES@@YAXXZ@4HA 000000018001d35c f   server.obj
 0001:0001c368       ?dtor$26@?0???__EMAP_CODENAMES@@YAXXZ@4HA 000000018001d368 f   server.obj
 0001:0001c374       ?dtor$27@?0???__EMAP_CODENAMES@@YAXXZ@4HA 000000018001d374 f   server.obj
 0001:0001c380       ?dtor$28@?0???__EMAP_CODENAMES@@YAXXZ@4HA 000000018001d380 f   server.obj
 0001:0001c38c       ?dtor$29@?0???__EMAP_CODENAMES@@YAXXZ@4HA 000000018001d38c f   server.obj
 0001:0001c398       ?dtor$30@?0???__EMAP_CODENAMES@@YAXXZ@4HA 000000018001d398 f   server.obj
 0001:0001c3a4       ?dtor$31@?0???__EMAP_CODENAMES@@YAXXZ@4HA 000000018001d3a4 f   server.obj
 0001:0001c3b0       ?dtor$32@?0???__EMAP_CODENAMES@@YAXXZ@4HA 000000018001d3b0 f   server.obj
 0001:0001c3bc       ?dtor$33@?0???__EMAP_CODENAMES@@YAXXZ@4HA 000000018001d3bc f   server.obj
 0001:0001c3d0       ?dtor$0@?0???__EMAP_CODENAMES@@YAXXZ@4HA 000000018001d3d0 f   settings.obj
 0001:0001c3dc       ?dtor$1@?0???__EMAP_CODENAMES@@YAXXZ@4HA 000000018001d3dc f   settings.obj
 0001:0001c3e8       ?dtor$2@?0???__EMAP_CODENAMES@@YAXXZ@4HA 000000018001d3e8 f   settings.obj
 0001:0001c3f4       ?dtor$3@?0???__EMAP_CODENAMES@@YAXXZ@4HA 000000018001d3f4 f   settings.obj
 0001:0001c400       ?dtor$4@?0???__EMAP_CODENAMES@@YAXXZ@4HA 000000018001d400 f   settings.obj
 0001:0001c40c       ?dtor$5@?0???__EMAP_CODENAMES@@YAXXZ@4HA 000000018001d40c f   settings.obj
 0001:0001c418       ?dtor$6@?0???__EMAP_CODENAMES@@YAXXZ@4HA 000000018001d418 f   settings.obj
 0001:0001c424       ?dtor$7@?0???__EMAP_CODENAMES@@YAXXZ@4HA 000000018001d424 f   settings.obj
 0001:0001c430       ?dtor$8@?0???__EMAP_CODENAMES@@YAXXZ@4HA 000000018001d430 f   settings.obj
 0001:0001c43c       ?dtor$9@?0???__EMAP_CODENAMES@@YAXXZ@4HA 000000018001d43c f   settings.obj
 0001:0001c448       ?dtor$10@?0???__EMAP_CODENAMES@@YAXXZ@4HA 000000018001d448 f   settings.obj
 0001:0001c454       ?dtor$11@?0???__EMAP_CODENAMES@@YAXXZ@4HA 000000018001d454 f   settings.obj
 0001:0001c460       ?dtor$12@?0???__EMAP_CODENAMES@@YAXXZ@4HA 000000018001d460 f   settings.obj
 0001:0001c46c       ?dtor$13@?0???__EMAP_CODENAMES@@YAXXZ@4HA 000000018001d46c f   settings.obj
 0001:0001c478       ?dtor$14@?0???__EMAP_CODENAMES@@YAXXZ@4HA 000000018001d478 f   settings.obj
 0001:0001c484       ?dtor$15@?0???__EMAP_CODENAMES@@YAXXZ@4HA 000000018001d484 f   settings.obj
 0001:0001c490       ?dtor$16@?0???__EMAP_CODENAMES@@YAXXZ@4HA 000000018001d490 f   settings.obj
 0001:0001c49c       ?dtor$17@?0???__EMAP_CODENAMES@@YAXXZ@4HA 000000018001d49c f   settings.obj
 0001:0001c4a8       ?dtor$18@?0???__EMAP_CODENAMES@@YAXXZ@4HA 000000018001d4a8 f   settings.obj
 0001:0001c4b4       ?dtor$19@?0???__EMAP_CODENAMES@@YAXXZ@4HA 000000018001d4b4 f   settings.obj
 0001:0001c4c0       ?dtor$20@?0???__EMAP_CODENAMES@@YAXXZ@4HA 000000018001d4c0 f   settings.obj
 0001:0001c4cc       ?dtor$21@?0???__EMAP_CODENAMES@@YAXXZ@4HA 000000018001d4cc f   settings.obj
 0001:0001c4d8       ?dtor$22@?0???__EMAP_CODENAMES@@YAXXZ@4HA 000000018001d4d8 f   settings.obj
 0001:0001c4e4       ?dtor$23@?0???__EMAP_CODENAMES@@YAXXZ@4HA 000000018001d4e4 f   settings.obj
 0001:0001c4f0       ?dtor$24@?0???__EMAP_CODENAMES@@YAXXZ@4HA 000000018001d4f0 f   settings.obj
 0001:0001c4fc       ?dtor$25@?0???__EMAP_CODENAMES@@YAXXZ@4HA 000000018001d4fc f   settings.obj
 0001:0001c508       ?dtor$26@?0???__EMAP_CODENAMES@@YAXXZ@4HA 000000018001d508 f   settings.obj
 0001:0001c514       ?dtor$27@?0???__EMAP_CODENAMES@@YAXXZ@4HA 000000018001d514 f   settings.obj
 0001:0001c520       ?dtor$28@?0???__EMAP_CODENAMES@@YAXXZ@4HA 000000018001d520 f   settings.obj
 0001:0001c52c       ?dtor$29@?0???__EMAP_CODENAMES@@YAXXZ@4HA 000000018001d52c f   settings.obj
 0001:0001c538       ?dtor$30@?0???__EMAP_CODENAMES@@YAXXZ@4HA 000000018001d538 f   settings.obj
 0001:0001c544       ?dtor$31@?0???__EMAP_CODENAMES@@YAXXZ@4HA 000000018001d544 f   settings.obj
 0001:0001c550       ?dtor$32@?0???__EMAP_CODENAMES@@YAXXZ@4HA 000000018001d550 f   settings.obj
 0001:0001c55c       ?dtor$33@?0???__EMAP_CODENAMES@@YAXXZ@4HA 000000018001d55c f   settings.obj
 0001:0001c570       ?dtor$0@?0???__EMAP_CODENAMES@@YAXXZ@4HA 000000018001d570 f   SixMansPlugin-Rework.obj
 0001:0001c57c       ?dtor$1@?0???__EMAP_CODENAMES@@YAXXZ@4HA 000000018001d57c f   SixMansPlugin-Rework.obj
 0001:0001c588       ?dtor$2@?0???__EMAP_CODENAMES@@YAXXZ@4HA 000000018001d588 f   SixMansPlugin-Rework.obj
 0001:0001c594       ?dtor$3@?0???__EMAP_CODENAMES@@YAXXZ@4HA 000000018001d594 f   SixMansPlugin-Rework.obj
 0001:0001c5a0       ?dtor$4@?0???__EMAP_CODENAMES@@YAXXZ@4HA 000000018001d5a0 f   SixMansPlugin-Rework.obj
 0001:0001c5ac       ?dtor$5@?0???__EMAP_CODENAMES@@YAXXZ@4HA 000000018001d5ac f   SixMansPlugin-Rework.obj
 0001:0001c5b8       ?dtor$6@?0???__EMAP_CODENAMES@@YAXXZ@4HA 000000018001d5b8 f   SixMansPlugin-Rework.obj
 0001:0001c5c4       ?dtor$7@?0???__EMAP_CODENAMES@@YAXXZ@4HA 000000018001d5c4 f   SixMansPlugin-Rework.obj
 0001:0001c5d0       ?dtor$8@?0???__EMAP_CODENAMES@@YAXXZ@4HA 000000018001d5d0 f   SixMansPlugin-Rework.obj
 0001:0001c5dc       ?dtor$9@?0???__EMAP_CODENAMES@@YAXXZ@4HA 000000018001d5dc f   SixMansPlugin-Rework.obj
 0001:0001c5e8       ?dtor$10@?0???__EMAP_CODENAMES@@YAXXZ@4HA 000000018001d5e8 f   SixMansPlugin-Rework.obj
 0001:0001c5f4       ?dtor$11@?0???__EMAP_CODENAMES@@YAXXZ@4HA 000000018001d5f4 f   SixMansPlugin-Rework.obj
 0001:0001c600       ?dtor$12@?0???__EMAP_CODENAMES@@YAXXZ@4HA 000000018001d600 f   SixMansPlugin-Rework.obj
 0001:0001c60c       ?dtor$13@?0???__EMAP_CODENAMES@@YAXXZ@4HA 000000018001d60c f   SixMansPlugin-Rework.obj
 0001:0001c618       ?dtor$14@?0???__EMAP_CODENAMES@@YAXXZ@4HA 000000018001d618 f   SixMansPlugin-Rework.obj
 0001:0001c624       ?dtor$15@?0???__EMAP_CODENAMES@@YAXXZ@4HA 000000018001d624 f   SixMansPlugin-Rework.obj
 0001:0001c630       ?dtor$16@?0???__EMAP_CODENAMES@@YAXXZ@4HA 000000018001d630 f   SixMansPlugin-Rework.obj
 0001:0001c63c       ?dtor$17@?0???__EMAP_CODENAMES@@YAXXZ@4HA 000000018001d63c f   SixMansPlugin-Rework.obj
 0001:0001c648       ?dtor$18@?0???__EMAP_CODENAMES@@YAXXZ@4HA 000000018001d648 f   SixMansPlugin-Rework.obj
 0001:0001c654       ?dtor$19@?0???__EMAP_CODENAMES@@YAXXZ@4HA 000000018001d654 f   SixMansPlugin-Rework.obj
 0001:0001c660       ?dtor$20@?0???__EMAP_CODENAMES@@YAXXZ@4HA 000000018001d660 f   SixMansPlugin-Rework.obj
 0001:0001c66c       ?dtor$21@?0???__EMAP_CODENAMES@@YAXXZ@4HA 000000018001d66c f   SixMansPlugin-Rework.obj
 0001:0001c678       ?dtor$22@?0???__EMAP_CODENAMES@@YAXXZ@4HA 000000018001d678 f   SixMansPlugin-Rework.obj
 0001:0001c684       ?dtor$23@?0???__EMAP_CODENAMES@@YAXXZ@4HA 000000018001d684 f   SixMansPlugin-Rework.obj
 0001:0001c690       ?dtor$24@?0???__EMAP_CODENAMES@@YAXXZ@4HA 000000018001d690 f   SixMansPlugin-Rework.obj
 0001:0001c69c       ?dtor$25@?0???__EMAP_CODENAMES@@YAXXZ@4HA 000000018001d69c f   SixMansPlugin-Rework.obj
 0001:0001c6a8       ?dtor$26@?0???__EMAP_CODENAMES@@YAXXZ@4HA 000000018001d6a8 f   SixMansPlugin-Rework.obj
 0001:0001c6b4       ?dtor$27@?0???__EMAP_CODENAMES@@YAXXZ@4HA 000000018001d6b4 f   SixMansPlugin-Rework.obj
 0001:0001c6c0       ?dtor$28@?0???__EMAP_CODENAMES@@YAXXZ@4HA 000000018001d6c0 f   SixMansPlugin-Rework.obj
 0001:0001c6cc       ?dtor$29@?0???__EMAP_CODENAMES@@YAXXZ@4HA 000000018001d6cc f   SixMansPlugin-Rework.obj
 0001:0001c6d8       ?dtor$30@?0???__EMAP_CODENAMES@@YAXXZ@4HA 000000018001d6d8 f   SixMansPlugin-Rework.obj
 0001:0001c6e4       ?dtor$31@?0???__EMAP_CODENAMES@@YAXXZ@4HA 000000018001d6e4 f   SixMansPlugin-Rework.obj
 0001:0001c6f0       ?dtor$32@?0???__EMAP_CODENAMES@@YAXXZ@4HA 000000018001d6f0 f   SixMansPlugin-Rework.obj
 0001:0001c6fc       ?dtor$33@?0???__EMAP_CODENAMES@@YAXXZ@4HA 000000018001d6fc f   SixMansPlugin-Rework.obj
 0001:0001c710       ?dtor$0@?0???__EMAP_CODENAMES@@YAXXZ@4HA 000000018001d710 f   SixMansPlugin-ReworkGUI.obj
 0001:0001c71c       ?dtor$1@?0???__EMAP_CODENAMES@@YAXXZ@4HA 000000018001d71c f   SixMansPlugin-ReworkGUI.obj
 0001:0001c728       ?dtor$2@?0???__EMAP_CODENAMES@@YAXXZ@4HA 000000018001d728 f   SixMansPlugin-ReworkGUI.obj
 0001:0001c734       ?dtor$3@?0???__EMAP_CODENAMES@@YAXXZ@4HA 000000018001d734 f   SixMansPlugin-ReworkGUI.obj
 0001:0001c740       ?dtor$4@?0???__EMAP_CODENAMES@@YAXXZ@4HA 000000018001d740 f   SixMansPlugin-ReworkGUI.obj
 0001:0001c74c       ?dtor$5@?0???__EMAP_CODENAMES@@YAXXZ@4HA 000000018001d74c f   SixMansPlugin-ReworkGUI.obj
 0001:0001c758       ?dtor$6@?0???__EMAP_CODENAMES@@YAXXZ@4HA 000000018001d758 f   SixMansPlugin-ReworkGUI.obj
 0001:0001c764       ?dtor$7@?0???__EMAP_CODENAMES@@YAXXZ@4HA 000000018001d764 f   SixMansPlugin-ReworkGUI.obj
 0001:0001c770       ?dtor$8@?0???__EMAP_CODENAMES@@YAXXZ@4HA 000000018001d770 f   SixMansPlugin-ReworkGUI.obj
 0001:0001c77c       ?dtor$9@?0???__EMAP_CODENAMES@@YAXXZ@4HA 000000018001d77c f   SixMansPlugin-ReworkGUI.obj
 0001:0001c788       ?dtor$10@?0???__EMAP_CODENAMES@@YAXXZ@4HA 000000018001d788 f   SixMansPlugin-ReworkGUI.obj
 0001:0001c794       ?dtor$11@?0???__EMAP_CODENAMES@@YAXXZ@4HA 000000018001d794 f   SixMansPlugin-ReworkGUI.obj
 0001:0001c7a0       ?dtor$12@?0???__EMAP_CODENAMES@@YAXXZ@4HA 000000018001d7a0 f   SixMansPlugin-ReworkGUI.obj
 0001:0001c7ac       ?dtor$13@?0???__EMAP_CODENAMES@@YAXXZ@4HA 000000018001d7ac f   SixMansPlugin-ReworkGUI.obj
 0001:0001c7b8       ?dtor$14@?0???__EMAP_CODENAMES@@YAXXZ@4HA 000000018001d7b8 f   SixMansPlugin-ReworkGUI.obj
 0001:0001c7c4       ?dtor$15@?0???__EMAP_CODENAMES@@YAXXZ@4HA 000000018001d7c4 f   SixMansPlugin-ReworkGUI.obj
 0001:0001c7d0       ?dtor$16@?0???__EMAP_CODENAMES@@YAXXZ@4HA 000000018001d7d0 f   SixMansPlugin-ReworkGUI.obj
 0001:0001c7dc       ?dtor$17@?0???__EMAP_CODENAMES@@YAXXZ@4HA 000000018001d7dc f   SixMansPlugin-ReworkGUI.obj
 0001:0001c7e8       ?dtor$18@?0???__EMAP_CODENAMES@@YAXXZ@4HA 000000018001d7e8 f   SixMansPlugin-ReworkGUI.obj
 0001:0001c7f4       ?dtor$19@?0???__EMAP_CODENAMES@@YAXXZ@4HA 000000018001d7f4 f   SixMansPlugin-ReworkGUI.obj
 0001:0001c800       ?dtor$20@?0???__EMAP_CODENAMES@@YAXXZ@4HA 000000018001d800 f   SixMansPlugin-ReworkGUI.obj
 0001:0001c80c       ?dtor$21@?0???__EMAP_CODENAMES@@YAXXZ@4HA 000000018001d80c f   SixMansPlugin-ReworkGUI.obj
 0001:0001c818       ?dtor$22@?0???__EMAP_CODENAMES@@YAXXZ@4HA 000000018001d818 f   SixMansPlugin-ReworkGUI.obj
 0001:0001c824       ?dtor$23@?0???__EMAP_CODENAMES@@YAXXZ@4HA 000000018001d824 f   SixMansPlugin-ReworkGUI.obj
 0001:0001c830       ?dtor$24@?0???__EMAP_CODENAMES@@YAXXZ@4HA 000000018001d830 f   SixMansPlugin-ReworkGUI.obj
 0001:0001c83c       ?dtor$25@?0???__EMAP_CODENAMES@@YAXXZ@4HA 000000018001d83c f   SixMansPlugin-ReworkGUI.obj
 0001:0001c848       ?dtor$26@?0???__EMAP_CODENAMES@@YAXXZ@4HA 000000018001d848 f   SixMansPlugin-ReworkGUI.obj
 0001:0001c854       ?dtor$27@?0???__EMAP_CODENAMES@@YAXXZ@4HA 000000018001d854 f   SixMansPlugin-ReworkGUI.obj
 0001:0001c860       ?dtor$28@?0???__EMAP_CODENAMES@@YAXXZ@4HA 000000018001d860 f   SixMansPlugin-ReworkGUI.obj
 0001:0001c86c       ?dtor$29@?0???__EMAP_CODENAMES@@YAXXZ@4HA 000000018001d86c f   SixMansPlugin-ReworkGUI.obj
 0001:0001c878       ?dtor$30@?0???__EMAP_CODENAMES@@YAXXZ@4HA 000000018001d878 f   SixMansPlugin-ReworkGUI.obj
 0001:0001c884       ?dtor$31@?0???__EMAP_CODENAMES@@YAXXZ@4HA 000000018001d884 f   SixMansPlugin-ReworkGUI.obj
 0001:0001c890       ?dtor$32@?0???__EMAP_CODENAMES@@YAXXZ@4HA 000000018001d890 f   SixMansPlugin-ReworkGUI.obj
 0001:0001c89c       ?dtor$33@?0???__EMAP_CODENAMES@@YAXXZ@4HA 000000018001d89c f   SixMansPlugin-ReworkGUI.obj
 0001:0001c8b0       ?dtor$0@?0???__EMAP_CODENAMES@@YAXXZ@4HA 000000018001d8b0 f   timer.obj
 0001:0001c8bc       ?dtor$1@?0???__EMAP_CODENAMES@@YAXXZ@4HA 000000018001d8bc f   timer.obj
 0001:0001c8c8       ?dtor$2@?0???__EMAP_CODENAMES@@YAXXZ@4HA 000000018001d8c8 f   timer.obj
 0001:0001c8d4       ?dtor$3@?0???__EMAP_CODENAMES@@YAXXZ@4HA 000000018001d8d4 f   timer.obj
 0001:0001c8e0       ?dtor$4@?0???__EMAP_CODENAMES@@YAXXZ@4HA 000000018001d8e0 f   timer.obj
 0001:0001c8ec       ?dtor$5@?0???__EMAP_CODENAMES@@YAXXZ@4HA 000000018001d8ec f   timer.obj
 0001:0001c8f8       ?dtor$6@?0???__EMAP_CODENAMES@@YAXXZ@4HA 000000018001d8f8 f   timer.obj
 0001:0001c904       ?dtor$7@?0???__EMAP_CODENAMES@@YAXXZ@4HA 000000018001d904 f   timer.obj
 0001:0001c910       ?dtor$8@?0???__EMAP_CODENAMES@@YAXXZ@4HA 000000018001d910 f   timer.obj
 0001:0001c91c       ?dtor$9@?0???__EMAP_CODENAMES@@YAXXZ@4HA 000000018001d91c f   timer.obj
 0001:0001c928       ?dtor$10@?0???__EMAP_CODENAMES@@YAXXZ@4HA 000000018001d928 f   timer.obj
 0001:0001c934       ?dtor$11@?0???__EMAP_CODENAMES@@YAXXZ@4HA 000000018001d934 f   timer.obj
 0001:0001c940       ?dtor$12@?0???__EMAP_CODENAMES@@YAXXZ@4HA 000000018001d940 f   timer.obj
 0001:0001c94c       ?dtor$13@?0???__EMAP_CODENAMES@@YAXXZ@4HA 000000018001d94c f   timer.obj
 0001:0001c958       ?dtor$14@?0???__EMAP_CODENAMES@@YAXXZ@4HA 000000018001d958 f   timer.obj
 0001:0001c964       ?dtor$15@?0???__EMAP_CODENAMES@@YAXXZ@4HA 000000018001d964 f   timer.obj
 0001:0001c970       ?dtor$16@?0???__EMAP_CODENAMES@@YAXXZ@4HA 000000018001d970 f   timer.obj
 0001:0001c97c       ?dtor$17@?0???__EMAP_CODENAMES@@YAXXZ@4HA 000000018001d97c f   timer.obj
 0001:0001c988       ?dtor$18@?0???__EMAP_CODENAMES@@YAXXZ@4HA 000000018001d988 f   timer.obj
 0001:0001c994       ?dtor$19@?0???__EMAP_CODENAMES@@YAXXZ@4HA 000000018001d994 f   timer.obj
 0001:0001c9a0       ?dtor$20@?0???__EMAP_CODENAMES@@YAXXZ@4HA 000000018001d9a0 f   timer.obj
 0001:0001c9ac       ?dtor$21@?0???__EMAP_CODENAMES@@YAXXZ@4HA 000000018001d9ac f   timer.obj
 0001:0001c9b8       ?dtor$22@?0???__EMAP_CODENAMES@@YAXXZ@4HA 000000018001d9b8 f   timer.obj
 0001:0001c9c4       ?dtor$23@?0???__EMAP_CODENAMES@@YAXXZ@4HA 000000018001d9c4 f   timer.obj
 0001:0001c9d0       ?dtor$24@?0???__EMAP_CODENAMES@@YAXXZ@4HA 000000018001d9d0 f   timer.obj
 0001:0001c9dc       ?dtor$25@?0???__EMAP_CODENAMES@@YAXXZ@4HA 000000018001d9dc f   timer.obj
 0001:0001c9e8       ?dtor$26@?0???__EMAP_CODENAMES@@YAXXZ@4HA 000000018001d9e8 f   timer.obj
 0001:0001c9f4       ?dtor$27@?0???__EMAP_CODENAMES@@YAXXZ@4HA 000000018001d9f4 f   timer.obj
 0001:0001ca00       ?dtor$28@?0???__EMAP_CODENAMES@@YAXXZ@4HA 000000018001da00 f   timer.obj
 0001:0001ca0c       ?dtor$29@?0???__EMAP_CODENAMES@@YAXXZ@4HA 000000018001da0c f   timer.obj
 0001:0001ca18       ?dtor$30@?0???__EMAP_CODENAMES@@YAXXZ@4HA 000000018001da18 f   timer.obj
 0001:0001ca24       ?dtor$31@?0???__EMAP_CODENAMES@@YAXXZ@4HA 000000018001da24 f   timer.obj
 0001:0001ca30       ?dtor$32@?0???__EMAP_CODENAMES@@YAXXZ@4HA 000000018001da30 f   timer.obj
 0001:0001ca3c       ?dtor$33@?0???__EMAP_CODENAMES@@YAXXZ@4HA 000000018001da3c f   timer.obj
 0001:0001ca48       ?dtor$0@?0???0bad_exception@std@@QEAA@AEBV01@@Z@4HA 000000018001da48 f   libcpmt:excptptr.obj
 0001:0001ca48       ?dtor$0@?0???1bad_exception@std@@UEAA@XZ@4HA 000000018001da48 f   libcpmt:excptptr.obj
 0001:0001ca48       ?dtor$0@?0???_Gbad_exception@std@@UEAAPEAXI@Z@4HA 000000018001da48 f   libcpmt:excptptr.obj
 0001:0001ca54       ?dtor$0@?0???0bad_exception@std@@QEAA@XZ@4HA 000000018001da54 f   libcpmt:excptptr.obj
 0001:0001ca60       ?fin$0@?0???_M@YAXPEAX_K1P6AX0@Z@Z@4HA 000000018001da60 f   LIBCMT:ehvecdtr.obj
 0001:0001ca8c       ?filt$0@?0??__ArrayUnwind@@YAXPEAX_K1P6AX0@Z@Z@4HA 000000018001da8c f   LIBCMT:ehvecdtr.obj
 0001:0001caeb       __scrt_is_nonwritable_in_current_image$filt$0 000000018001daeb f   LIBCMT:utility.obj
 0001:0001cb03       ?fin$0@?0??dllmain_crt_process_attach@@YAHQEAUHINSTANCE__@@QEAX@Z@4HA 000000018001db03 f   LIBCMT:dll_dllmain.obj
 0001:0001cb1a       ?fin$0@?0??dllmain_crt_process_detach@@YAH_N@Z@4HA 000000018001db1a f   LIBCMT:dll_dllmain.obj
 0001:0001cb33       ?fin$1@?0??dllmain_crt_process_detach@@YAH_N@Z@4HA 000000018001db33 f   LIBCMT:dll_dllmain.obj
 0001:0001cb47       ?filt$0@?0??dllmain_dispatch@@YAHQEAUHINSTANCE__@@KQEAX@Z@4HA 000000018001db47 f   LIBCMT:dll_dllmain.obj
 0001:0001cb7d       ?filt$0@?0???$_CallSETranslator@V__FrameHandler4@@@@YAHPEAUEHExceptionRecord@@PEA_KPEAU_CONTEXT@@PEAU_xDISPATCHER_CONTEXT@@PEAUFuncInfo4@FH4@@K1H@Z@4HA 000000018001db7d f   libvcruntime:risctrnsctrl.obj
 0001:0001cc1c       __DestructExceptionObject$filt$0 000000018001dc1c f   libvcruntime:ehhelpers.obj
 0001:0001ccb2       ?filt$0@?0??CxxCallCatchBlock@__FrameHandler4@@SAPEAXPEAU_EXCEPTION_RECORD@@@Z@4HA 000000018001dcb2 f   libvcruntime:frame.obj
 0001:0001cce1       ?fin$1@?0??CxxCallCatchBlock@__FrameHandler4@@SAPEAXPEAU_EXCEPTION_RECORD@@@Z@4HA 000000018001dce1 f   libvcruntime:frame.obj
 0001:0001cd72       ?filt$0@?0??FrameUnwindToState@__FrameHandler4@@SAXPEA_KPEAU_xDISPATCHER_CONTEXT@@PEAUFuncInfo4@FH4@@H@Z@4HA 000000018001dd72 f   libvcruntime:frame.obj
 0001:0001cd88       ?fin$1@?0??FrameUnwindToState@__FrameHandler4@@SAXPEA_KPEAU_xDISPATCHER_CONTEXT@@PEAUFuncInfo4@FH4@@H@Z@4HA 000000018001dd88 f   libvcruntime:frame.obj
 0001:0001cdab       __acrt_initialize_lowio$fin$0 000000018001ddab f   libucrt:ioinit.obj
 0001:0001cdab       __acrt_lowio_ensure_fh_exists$fin$0 000000018001ddab f   libucrt:osfinfo.obj
 0001:0001cdc4       fclose$fin$0               000000018001ddc4 f   libucrt:fclose.obj
 0001:0001cddc       ?fin$0@?0???$?RV<lambda_751a882b2c74d4b022dec766aa51a29a>@@AEAV<lambda_628dfdc04ba53c8bfc02c9951375f3f5>@@V<lambda_f6c7be5f7998530c34de24c7437d6b54>@@@?$__crt_seh_guarded_call@H@@QEAAH$$QEAV<lambda_751a882b2c74d4b022dec766aa51a29a>@@AEAV<lambda_628dfdc04ba53c8bfc02c9951375f3f5>@@$$QEAV<lambda_f6c7be5f7998530c34de24c7437d6b54>@@@Z@4HA 000000018001dddc f   libucrt:close.obj
 0001:0001cddc       ?fin$0@?0???$?RV<lambda_a37b2b86f63e897a80ea819b0eb08c01>@@AEAV<lambda_38ce7e780aa69e748d6df282ebc68efe>@@V<lambda_99fb1378e971ab6e7edea83e3a7a83a2>@@@?$__crt_seh_guarded_call@H@@QEAAH$$QEAV<lambda_a37b2b86f63e897a80ea819b0eb08c01>@@AEAV<lambda_38ce7e780aa69e748d6df282ebc68efe>@@$$QEAV<lambda_99fb1378e971ab6e7edea83e3a7a83a2>@@@Z@4HA 000000018001dddc f   libucrt:commit.obj
 0001:0001cdf6       _write$fin$0               000000018001ddf6 f   libucrt:write.obj
 0001:0001ce0d       ?fin$0@?0???$?RV<lambda_842d9ff0dc9ef11c61343bbaebe7f885>@@AEAV<lambda_c5860995281e5c4ce005b3de8f5874ee>@@V<lambda_d90129c13df834fdcbf8d2b88dafcf2d>@@@?$__crt_seh_guarded_call@X@@QEAAX$$QEAV<lambda_842d9ff0dc9ef11c61343bbaebe7f885>@@AEAV<lambda_c5860995281e5c4ce005b3de8f5874ee>@@$$QEAV<lambda_d90129c13df834fdcbf8d2b88dafcf2d>@@@Z@4HA 000000018001de0d f   libucrt:fflush.obj
 0001:0001ce28       ?fin$0@?0???$?RV<lambda_886d6c58226a84441f68b9f2b8217b83>@@AEAV<lambda_ab61a845afdef5b7c387490eaf3616ee>@@V<lambda_f7f22ab5edc0698d5f6905b0d3f44752>@@@?$__crt_seh_guarded_call@X@@QEAAX$$QEAV<lambda_886d6c58226a84441f68b9f2b8217b83>@@AEAV<lambda_ab61a845afdef5b7c387490eaf3616ee>@@$$QEAV<lambda_f7f22ab5edc0698d5f6905b0d3f44752>@@@Z@4HA 000000018001de28 f   libucrt:fflush.obj
 0001:0001ce45       ?fin$0@?0???$?RV<lambda_0ae27a3a962d80f24befdcbee591983d>@@AEAV<lambda_8d0ee55de4b1038c4002e0adecdf1839>@@V<lambda_dc504788e8f1664fe9b84e20bfb512f2>@@@?$__crt_seh_guarded_call@X@@QEAAX$$QEAV<lambda_0ae27a3a962d80f24befdcbee591983d>@@AEAV<lambda_8d0ee55de4b1038c4002e0adecdf1839>@@$$QEAV<lambda_dc504788e8f1664fe9b84e20bfb512f2>@@@Z@4HA 000000018001de45 f   libucrt:per_thread_data.obj
 0001:0001ce45       ?fin$0@?0???$?RV<lambda_2d41944a1d46af3157314b8a01080d33>@@AEAV<lambda_8f455de75cd7d7f24b4096f044d8b9e6>@@V<lambda_aa500f224e6afead328df44964fe2772>@@@?$__crt_seh_guarded_call@X@@QEAAX$$QEAV<lambda_2d41944a1d46af3157314b8a01080d33>@@AEAV<lambda_8f455de75cd7d7f24b4096f044d8b9e6>@@$$QEAV<lambda_aa500f224e6afead328df44964fe2772>@@@Z@4HA 000000018001de45 f   libucrt:per_thread_data.obj
 0001:0001ce45       ?fin$0@?0???$?RV<lambda_aa87e3671a710a21b5dc78c0bdf72e11>@@AEAV<lambda_92619d2358a28f41a33ba319515a20b9>@@V<lambda_6992ecaafeb10aed2b74cb1fae11a551>@@@?$__crt_seh_guarded_call@X@@QEAAX$$QEAV<lambda_aa87e3671a710a21b5dc78c0bdf72e11>@@AEAV<lambda_92619d2358a28f41a33ba319515a20b9>@@$$QEAV<lambda_6992ecaafeb10aed2b74cb1fae11a551>@@@Z@4HA 000000018001de45 f   libucrt:per_thread_data.obj
 0001:0001ce45       ?fin$0@?0???$?RV<lambda_f2e299630e499de9f9a165e60fcd3db5>@@AEAV<lambda_2ae9d31cdba2644fcbeaf08da7c24588>@@V<lambda_40d01ff24d0e7b3814fdbdcee8eab3c7>@@@?$__crt_seh_guarded_call@X@@QEAAX$$QEAV<lambda_f2e299630e499de9f9a165e60fcd3db5>@@AEAV<lambda_2ae9d31cdba2644fcbeaf08da7c24588>@@$$QEAV<lambda_40d01ff24d0e7b3814fdbdcee8eab3c7>@@@Z@4HA 000000018001de45 f   libucrt:per_thread_data.obj
 0001:0001ce45       ?fin$0@?0???$?RV<lambda_efdfa57d1f175319df784efa44bb7b81>@@AEAV<lambda_5f0a4c1567f8adc6734073e5d1e1b35c>@@V<lambda_2e8a7d3640ea6ccb4c2413664c2db6fd>@@@?$__crt_seh_guarded_call@X@@QEAAX$$QEAV<lambda_efdfa57d1f175319df784efa44bb7b81>@@AEAV<lambda_5f0a4c1567f8adc6734073e5d1e1b35c>@@$$QEAV<lambda_2e8a7d3640ea6ccb4c2413664c2db6fd>@@@Z@4HA 000000018001de45 f   libucrt:mbctype.obj
 0001:0001ce45       ?fin$0@?0???$?RV<lambda_450d765d439847d4c735a33c368b5fc0>@@AEAV<lambda_44731a7d0e6d81c3e6aa82d741081786>@@V<lambda_601a2a7da3b7a96e9554ac7215c4b07c>@@@?$__crt_seh_guarded_call@P6AXH@Z@@QEAAP6AXH@Z$$QEAV<lambda_450d765d439847d4c735a33c368b5fc0>@@AEAV<lambda_44731a7d0e6d81c3e6aa82d741081786>@@$$QEAV<lambda_601a2a7da3b7a96e9554ac7215c4b07c>@@@Z@4HA 000000018001de45 f   libucrt:signal.obj
 0001:0001ce45       ?fin$0@?0???$?RV<lambda_d80eeec6fff315bfe5c115232f3240e3>@@AEAV<lambda_6e4b09c48022b2350581041d5f6b0c4c>@@V<lambda_2358e3775559c9db80273638284d5e45>@@@?$__crt_seh_guarded_call@X@@QEAAX$$QEAV<lambda_d80eeec6fff315bfe5c115232f3240e3>@@AEAV<lambda_6e4b09c48022b2350581041d5f6b0c4c>@@$$QEAV<lambda_2358e3775559c9db80273638284d5e45>@@@Z@4HA 000000018001de45 f   libucrt:exit.obj
 0001:0001ce45       ?fin$0@?0???$?RV<lambda_638799b9deba96c50f710eeac98168cd>@@AEAV<lambda_22ebabd17bc4fa466a2aca6d8deb888d>@@V<lambda_a6f7d7db0129f75315ebf26d50c089f1>@@@?$__crt_seh_guarded_call@H@@QEAAH$$QEAV<lambda_638799b9deba96c50f710eeac98168cd>@@AEAV<lambda_22ebabd17bc4fa466a2aca6d8deb888d>@@$$QEAV<lambda_a6f7d7db0129f75315ebf26d50c089f1>@@@Z@4HA 000000018001de45 f   libucrt:onexit.obj
 0001:0001ce45       ?fin$0@?0???$?RV<lambda_7777bce6b2f8c936911f934f8298dc43>@@AEAV<lambda_f03950bc5685219e0bcd2087efbe011e>@@V<lambda_3883c3dff614d5e0c5f61bb1ac94921c>@@@?$__crt_seh_guarded_call@H@@QEAAH$$QEAV<lambda_7777bce6b2f8c936911f934f8298dc43>@@AEAV<lambda_f03950bc5685219e0bcd2087efbe011e>@@$$QEAV<lambda_3883c3dff614d5e0c5f61bb1ac94921c>@@@Z@4HA 000000018001de45 f   libucrt:onexit.obj
 0001:0001ce5f       raise$fin$0                000000018001de5f f   libucrt:signal.obj
 0001:0001ce80       _query_new_handler$fin$0   000000018001de80 f   libucrt:new_handler.obj
 0001:0001ce96       ?filt$0@?0???R<lambda_6e4b09c48022b2350581041d5f6b0c4c>@@QEBA@XZ@4HA 000000018001de96 f   libucrt:exit.obj
 0001:0001ceb1       ?fin$0@?0???$?RV<lambda_410d79af7f07d98d83a3f525b3859a53>@@AEAV<lambda_3e16ef9562a7dcce91392c22ab16ea36>@@V<lambda_38119f0e861e05405d8a144b9b982f0a>@@@?$__crt_seh_guarded_call@X@@QEAAX$$QEAV<lambda_410d79af7f07d98d83a3f525b3859a53>@@AEAV<lambda_3e16ef9562a7dcce91392c22ab16ea36>@@$$QEAV<lambda_38119f0e861e05405d8a144b9b982f0a>@@@Z@4HA 000000018001deb1 f   libucrt:wsetlocale.obj
 0001:0001cecb       _fcloseall$fin$0           000000018001decb f   libucrt:closeall.obj
 0001:0001cee4       _ctrlfp$filt$0             000000018001dee4 f   libucrt:fpctrl.obj
 0001:0001cee4       common_control87$filt$0    000000018001dee4 f   libucrt:ieee.obj
 0001:0001cf10       ?fin$0@?0??update_thread_multibyte_data_internal@@YAPEAU__crt_multibyte_data@@QEAU__acrt_ptd@@QEAPEAU1@@Z@4HA 000000018001df10 f   libucrt:mbctype.obj
 0001:0001cf29       __acrt_update_thread_locale_data$fin$0 000000018001df29 f   libucrt:locale_refcounting.obj
 0001:0001cf50       _IsNonwritableInCurrentImage$filt$0 000000018001df50 f   LIBCMT:pesect.obj
 0001:0001cf70       ??__FMAP_CODENAMES@@YAXXZ  000000018001df70 f   privatematch_wrapper.obj
 0001:0001cf90       ??__Fstr_typename@@YAXXZ   000000018001df90 f   privatematch_wrapper.obj
 0001:0001d000       ??__F?id@?$execution_context_service_base@V?$win_iocp_socket_service@Vtcp@ip@asio@boost@@@detail@asio@boost@@@detail@asio@boost@@2V?$service_id@V?$win_iocp_socket_service@Vtcp@ip@asio@boost@@@detail@asio@boost@@@234@A@@YAXXZ 000000018001e000 f   privatematch_wrapper.obj
 0001:0001d010       ??__F?id@?$execution_context_service_base@V?$deadline_timer_service@U?$chrono_time_traits@Usteady_clock@chrono@std@@U?$wait_traits@Usteady_clock@chrono@std@@@asio@boost@@@detail@asio@boost@@@detail@asio@boost@@@detail@asio@boost@@2V?$service_id@V?$deadline_timer_service@U?$chrono_time_traits@Usteady_clock@chrono@std@@U?$wait_traits@Usteady_clock@chrono@std@@@asio@boost@@@detail@asio@boost@@@detail@asio@boost@@@234@A@@YAXXZ 000000018001e010 f   privatematch_wrapper.obj
 0001:0001d020       ??__F?id@?$execution_context_service_base@Vwin_iocp_io_context@detail@asio@boost@@@detail@asio@boost@@2V?$service_id@Vwin_iocp_io_context@detail@asio@boost@@@234@A@@YAXXZ 000000018001e020 f   privatematch_wrapper.obj
 0001:0001d030       ??__F?top_@?$call_stack@Vthread_context@detail@asio@boost@@Vthread_info_base@234@@detail@asio@boost@@0V?$tss_ptr@Vcontext@?$call_stack@Vthread_context@detail@asio@boost@@Vthread_info_base@234@@detail@asio@boost@@@234@A@@YAXXZ 000000018001e030 f   privatematch_wrapper.obj
 0001:0001d040       ??__FMAP_CODENAMES@@YAXXZ  000000018001e040 f   server.obj
 0001:0001d060       ??__Fstr_typename@@YAXXZ   000000018001e060 f   server.obj
 0001:0001d0d0       ??__FMAP_CODENAMES@@YAXXZ  000000018001e0d0 f   settings.obj
 0001:0001d0f0       ??__Fstr_typename@@YAXXZ   000000018001e0f0 f   settings.obj
 0001:0001d160       ??__FMAP_CODENAMES@@YAXXZ  000000018001e160 f   SixMansPlugin-Rework.obj
 0001:0001d180       ??__Fstr_typename@@YAXXZ   000000018001e180 f   SixMansPlugin-Rework.obj
 0001:0001d1f0       ??__Fsingleton@@YAXXZ      000000018001e1f0 f   SixMansPlugin-Rework.obj
 0001:0001d240       ??__F_globalCvarManager@@YAXXZ 000000018001e240 f   SixMansPlugin-Rework.obj
 0001:0001d290       ??__Fserver_thread@@YAXXZ  000000018001e290 f   SixMansPlugin-Rework.obj
 0001:0001d2b0       ??__FMAP_CODENAMES@@YAXXZ  000000018001e2b0 f   SixMansPlugin-ReworkGUI.obj
 0001:0001d2d0       ??__Fstr_typename@@YAXXZ   000000018001e2d0 f   SixMansPlugin-ReworkGUI.obj
 0001:0001d340       ??__FMAP_CODENAMES@@YAXXZ  000000018001e340 f   timer.obj
 0001:0001d360       ??__Fstr_typename@@YAXXZ   000000018001e360 f   timer.obj
 0001:0001d3d0       ??__F$S7@@YAXXZ            000000018001e3d0 f   pch.obj
 0001:0001d3f0       ??__F?top_@?$call_stack@Vstrand_impl@strand_executor_service@detail@asio@boost@@E@detail@asio@boost@@0V?$tss_ptr@Vcontext@?$call_stack@Vstrand_impl@strand_executor_service@detail@asio@boost@@E@detail@asio@boost@@@234@A@@YAXXZ 000000018001e3f0 f   pch.obj
 0001:0001d400       ??__F?top_@?$call_stack@Vstrand_impl@strand_service@detail@asio@boost@@E@detail@asio@boost@@0V?$tss_ptr@Vcontext@?$call_stack@Vstrand_impl@strand_service@detail@asio@boost@@E@detail@asio@boost@@@234@A@@YAXXZ 000000018001e400 f   pch.obj
 0001:0001d410       ??__F?id@?$service_base@Vstrand_service@detail@asio@boost@@@detail@asio@boost@@2V?$service_id@Vstrand_service@detail@asio@boost@@@234@A@@YAXXZ 000000018001e410 f   pch.obj
 0001:0001d420       ??__F?tss_ptr_@?$win_global_impl@Vsystem_context@asio@boost@@@detail@asio@boost@@2V?$tss_ptr@Vsystem_context@asio@boost@@@234@A@@YAXXZ 000000018001e420 f   pch.obj
 0001:0001d430       ??__F?id@?$execution_context_service_base@Vselect_reactor@detail@asio@boost@@@detail@asio@boost@@2V?$service_id@Vselect_reactor@detail@asio@boost@@@234@A@@YAXXZ 000000018001e430 f   pch.obj
 0001:0001d440       ??__F?id@?$execution_context_service_base@Vnull_reactor@detail@asio@boost@@@detail@asio@boost@@2V?$service_id@Vnull_reactor@detail@asio@boost@@@234@A@@YAXXZ 000000018001e440 f   pch.obj
 0001:0001d450       ??__F?id@?$execution_context_service_base@Vscheduler@detail@asio@boost@@@detail@asio@boost@@2V?$service_id@Vscheduler@detail@asio@boost@@@234@A@@YAXXZ 000000018001e450 f   pch.obj
 0001:0001d454       ??__F_Fac_tidy_reg@std@@YAXXZ 000000018001e454 f   libcpmt:locale0.obj
 0001:0001d4b0       ??__Fclassic_locale@std@@YAXXZ 000000018001e4b0 f   libcpmt:locale0.obj
 0001:0001d4f0       ??__Finitlocks@std@@YAXXZ  000000018001e4f0 f   libcpmt:xlock.obj
 0001:0001d4fc       ??__Finit_atexit@@YAXXZ    000000018001e4fc f   libcpmt:iosptrs.obj
 0001:0001d53c       ??__Finitlocks@std@@YAXXZ  000000018001e53c f   libcpmt:iosptrs.obj
 0002:000002b8       ?initlocks$initializer$@std@@3P6AXXZEA 000000018001f2b8     libcpmt:xlock.obj
 0002:000002c0       ?initlocks$initializer$@std@@3P6AXXZEA 000000018001f2c0     libcpmt:iosptrs.obj
 0002:000002c8       ?init_atexit$initializer$@@3P6AXXZEA 000000018001f2c8     libcpmt:iosptrs.obj
 0002:000002d0       ?_Fac_tidy_reg$initializer$@std@@3P6AXXZEA 000000018001f2d0     libcpmt:locale0.obj
 0002:000002d8       ?classic_locale$initializer$@std@@3P6AXXZEA 000000018001f2d8     libcpmt:locale0.obj
 0002:000002e0       ??top_$initializer$@?$call_stack@Vthread_context@detail@asio@boost@@Vthread_info_base@234@@detail@asio@boost@@0P6AXXZEA@@3P6AXXZEA 000000018001f2e0     privatematch_wrapper.obj
 0002:000002e8       ??id$initializer$@?$execution_context_service_base@Vwin_iocp_io_context@detail@asio@boost@@@detail@asio@boost@@2P6AXXZEA@@3P6AXXZEA 000000018001f2e8     privatematch_wrapper.obj
 0002:000002f0       ??id$initializer$@?$execution_context_service_base@V?$deadline_timer_service@U?$chrono_time_traits@Usteady_clock@chrono@std@@U?$wait_traits@Usteady_clock@chrono@std@@@asio@boost@@@detail@asio@boost@@@detail@asio@boost@@@detail@asio@boost@@2P6AXXZEA@@3P6AXXZEA 000000018001f2f0     privatematch_wrapper.obj
 0002:000002f8       ??id$initializer$@?$execution_context_service_base@V?$win_iocp_socket_service@Vtcp@ip@asio@boost@@@detail@asio@boost@@@detail@asio@boost@@2P6AXXZEA@@3P6AXXZEA 000000018001f2f8     privatematch_wrapper.obj
 0002:00000300       ?MAP_CODENAMES$initializer$@@3P6AXXZEA 000000018001f300     privatematch_wrapper.obj
 0002:00000308       ?str_typename$initializer$@@3P6AXXZEA 000000018001f308     privatematch_wrapper.obj
 0002:00000310       ?MAP_CODENAMES$initializer$@@3P6AXXZEA 000000018001f310     server.obj
 0002:00000318       ?str_typename$initializer$@@3P6AXXZEA 000000018001f318     server.obj
 0002:00000320       ?MAP_CODENAMES$initializer$@@3P6AXXZEA 000000018001f320     settings.obj
 0002:00000328       ?str_typename$initializer$@@3P6AXXZEA 000000018001f328     settings.obj
 0002:00000330       ?MAP_CODENAMES$initializer$@@3P6AXXZEA 000000018001f330     SixMansPlugin-Rework.obj
 0002:00000338       ?str_typename$initializer$@@3P6AXXZEA 000000018001f338     SixMansPlugin-Rework.obj
 0002:00000340       ?singleton$initializer$@@3P6AXXZEA 000000018001f340     SixMansPlugin-Rework.obj
 0002:00000348       ?_globalCvarManager$initializer$@@3P6AXXZEA 000000018001f348     SixMansPlugin-Rework.obj
 0002:00000350       ?server_thread$initializer$@@3P6AXXZEA 000000018001f350     SixMansPlugin-Rework.obj
 0002:00000358       ?MAP_CODENAMES$initializer$@@3P6AXXZEA 000000018001f358     SixMansPlugin-ReworkGUI.obj
 0002:00000360       ?str_typename$initializer$@@3P6AXXZEA 000000018001f360     SixMansPlugin-ReworkGUI.obj
 0002:00000368       ?MAP_CODENAMES$initializer$@@3P6AXXZEA 000000018001f368     timer.obj
 0002:00000370       ?str_typename$initializer$@@3P6AXXZEA 000000018001f370     timer.obj
 0002:00000378       ?winsock_init_instance$initializer$@detail@asio@boost@@3P6AXXZEA 000000018001f378     pch.obj
 0002:00000380       ??top_$initializer$@?$call_stack@Vstrand_impl@strand_service@detail@asio@boost@@E@detail@asio@boost@@0P6AXXZEA@@3P6AXXZEA 000000018001f380     pch.obj
 0002:00000388       ??top_$initializer$@?$call_stack@Vstrand_impl@strand_executor_service@detail@asio@boost@@E@detail@asio@boost@@0P6AXXZEA@@3P6AXXZEA 000000018001f388     pch.obj
 0002:00000390       ??id$initializer$@?$service_base@Vstrand_service@detail@asio@boost@@@detail@asio@boost@@2P6AXXZEA@@3P6AXXZEA 000000018001f390     pch.obj
 0002:00000398       ??id$initializer$@?$execution_context_service_base@Vscheduler@detail@asio@boost@@@detail@asio@boost@@2P6AXXZEA@@3P6AXXZEA 000000018001f398     pch.obj
 0002:000003a0       ??id$initializer$@?$execution_context_service_base@Vnull_reactor@detail@asio@boost@@@detail@asio@boost@@2P6AXXZEA@@3P6AXXZEA 000000018001f3a0     pch.obj
 0002:000003a8       ??id$initializer$@?$execution_context_service_base@Vselect_reactor@detail@asio@boost@@@detail@asio@boost@@2P6AXXZEA@@3P6AXXZEA 000000018001f3a8     pch.obj
 0002:000003b0       ??tss_ptr_$initializer$@?$win_global_impl@Vsystem_context@asio@boost@@@detail@asio@boost@@2P6AXXZEA@@3P6AXXZEA 000000018001f3b0     pch.obj
 0002:000003c8       ?pinit@@3P6AHXZEA          000000018001f3c8     libcpmt:winapisupp.obj
 0002:000003d0       ?__scrt_initialize_tss_var@@3P6AHXZEA 000000018001f3d0     LIBCMT:thread_safe_statics.obj
 0002:000004f0       ?_Win_errtab@?A0x8174bdc8@@3QBU_Win_errtab_t@1@B 000000018001f4f0     libcpmt:syserror.obj
 0002:00000770       ?_Sys_errtab@?A0x8174bdc8@@3QBU_Sys_errtab_t@1@B 000000018001f770     libcpmt:syserror.obj
 0002:00001300       ?_Whitespace_bitmap@?A0xcbceb03b@@3U_Whitespace_bitmap_t@1@B 0000000180020300     libcpmt:syserror_import_lib.obj
 0002:00001400       ?msgs@std@@3QBQEBDB        0000000180020400     libcpmt:thread0.obj
 0002:00001438       ?codes@std@@3QBW4errc@1@B  0000000180020438     libcpmt:thread0.obj
 0002:00001898       digits                     0000000180020898     libcpmt:xstoul.obj
 0002:000018c0       ndigs                      00000001800208c0     libcpmt:xstoul.obj
 0002:000018e8       digits                     00000001800208e8     libcpmt:xstoull.obj
 0002:00001910       ndigs                      0000000180020910     libcpmt:xstoull.obj
 0002:000019b0       GS_ExceptionPointers       00000001800209b0     LIBCMT:gs_report.obj
 0002:000019f0       ?ExceptionTemplate@?1??UnwindNestedFrames@__FrameHandler4@@SAXPEA_KPEAUEHExceptionRecord@@PEAU_CONTEXT@@0PEAXPEAUFuncInfo4@FH4@@HHPEAUHandlerType4@6@PEAU_xDISPATCHER_CONTEXT@@E@Z@4U_EXCEPTION_RECORD@@B 00000001800209f0     libvcruntime:risctrnsctrl.obj
 0002:00001a90       ?tokenTable@@3QBUStringLiteral@@B 0000000180020a90     libvcruntime:undname.obj
 0002:00001ba0       ?nameTable@@3QBUStringLiteral@@B 0000000180020ba0     libvcruntime:undname.obj
 0002:000020d0       ?rttiTable@@3QBUStringLiteral@@B 00000001800210d0     libvcruntime:undname.obj
 0002:00002120       ?IndirectionName@@3QBUStringLiteral@@B 0000000180021120     libvcruntime:undname.obj
 0002:00002180       ?PrefixName@@3QBUStringLiteral@@B 0000000180021180     libvcruntime:undname.obj
 0002:00002848       ?module_names@?A0x5d44c8f9@@3QBQEB_WB 0000000180021848     libvcruntime:winapi_downlevel.obj
 0002:00002908       ?candidate_modules@?1??try_get_FlsAlloc@@YAP6AKP6AXPEAX@Z@ZXZ@4QBW4module_id@?A0x5d44c8f9@@B 0000000180021908     libvcruntime:winapi_downlevel.obj
 0002:00002910       ?candidate_modules@?1??try_get_FlsFree@@YAP6AHK@ZXZ@4QBW4module_id@?A0x5d44c8f9@@B 0000000180021910     libvcruntime:winapi_downlevel.obj
 0002:00002918       ?candidate_modules@?1??try_get_FlsGetValue@@YAP6APEAXK@ZXZ@4QBW4module_id@?A0x5d44c8f9@@B 0000000180021918     libvcruntime:winapi_downlevel.obj
 0002:00002920       ?candidate_modules@?1??try_get_FlsSetValue@@YAP6AHKPEAX@ZXZ@4QBW4module_id@?A0x5d44c8f9@@B 0000000180021920     libvcruntime:winapi_downlevel.obj
 0002:00002928       ?candidate_modules@?1??try_get_InitializeCriticalSectionEx@@YAP6AHPEAU_RTL_CRITICAL_SECTION@@KK@ZXZ@4QBW4module_id@?A0x5d44c8f9@@B 0000000180021928     libvcruntime:winapi_downlevel.obj
 0002:00002d50       ?errtable@@3QBUerrentry@?A0x31fdb9ec@@B 0000000180021d50     libucrt:errno.obj
 0002:00003ea0       __flag_x_one_y_snan        0000000180022ea0     libucrt:pow.obj
 0002:00003ea4       __flag_x_zero_z_inf        0000000180022ea4     libucrt:pow.obj
 0002:00003ea8       __flag_x_nan               0000000180022ea8     libucrt:pow.obj
 0002:00003eac       __flag_y_nan               0000000180022eac     libucrt:pow.obj
 0002:00003eb0       __flag_x_nan_y_nan         0000000180022eb0     libucrt:pow.obj
 0002:00003eb4       __flag_x_neg_y_notint      0000000180022eb4     libucrt:pow.obj
 0002:00003eb8       __flag_z_zero              0000000180022eb8     libucrt:pow.obj
 0002:00003ebc       __flag_z_denormal          0000000180022ebc     libucrt:pow.obj
 0002:00003ec0       __flag_z_inf               0000000180022ec0     libucrt:pow.obj
 0002:00003ed0       __ay_max_bound             0000000180022ed0     libucrt:pow.obj
 0002:00003ed8       __ay_min_bound             0000000180022ed8     libucrt:pow.obj
 0002:00003ee0       __sign_mask                0000000180022ee0     libucrt:pow.obj
 0002:00003ee8       __sign_and_exp_mask        0000000180022ee8     libucrt:pow.obj
 0002:00003ef0       __exp_mask                 0000000180022ef0     libucrt:pow.obj
 0002:00003ef8       __neg_inf                  0000000180022ef8     libucrt:pow.obj
 0002:00003f00       __pos_inf                  0000000180022f00     libucrt:pow.obj
 0002:00003f08       __pos_one                  0000000180022f08     libucrt:pow.obj
 0002:00003f10       __pos_zero                 0000000180022f10     libucrt:pow.obj
 0002:00003f18       __exp_mant_mask            0000000180022f18     libucrt:pow.obj
 0002:00003f20       __mant_mask                0000000180022f20     libucrt:pow.obj
 0002:00003f28       __ind_pattern              0000000180022f28     libucrt:pow.obj
 0002:00003f30       __neg_qnan                 0000000180022f30     libucrt:pow.obj
 0002:00003f38       __qnan                     0000000180022f38     libucrt:pow.obj
 0002:00003f40       __qnan_set                 0000000180022f40     libucrt:pow.obj
 0002:00003f48       __neg_one                  0000000180022f48     libucrt:pow.obj
 0002:00003f50       __neg_zero                 0000000180022f50     libucrt:pow.obj
 0002:00003f58       __exp_shift                0000000180022f58     libucrt:pow.obj
 0002:00003f60       __exp_bias                 0000000180022f60     libucrt:pow.obj
 0002:00003f68       __exp_bias_m1              0000000180022f68     libucrt:pow.obj
 0002:00003f70       __yexp_53                  0000000180022f70     libucrt:pow.obj
 0002:00003f78       __mant_full                0000000180022f78     libucrt:pow.obj
 0002:00003f80       __1_before_mant            0000000180022f80     libucrt:pow.obj
 0002:00003f88       __mask_mant_all8           0000000180022f88     libucrt:pow.obj
 0002:00003f90       __mask_mant9               0000000180022f90     libucrt:pow.obj
 0002:00003fa0       __real_fffffffff8000000    0000000180022fa0     libucrt:pow.obj
 0002:00003fb0       __mask_8000000000000000    0000000180022fb0     libucrt:pow.obj
 0002:00003fc0       __real_4090040000000000    0000000180022fc0     libucrt:pow.obj
 0002:00003fd0       __real_C090C80000000000    0000000180022fd0     libucrt:pow.obj
 0002:00003fe0       __real_ninf                0000000180022fe0     libucrt:pow.obj
 0002:00003ff0       __real_inf                 0000000180022ff0     libucrt:pow.obj
 0002:00004000       __real_nan                 0000000180023000     libucrt:pow.obj
 0002:00004010       __real_mant                0000000180023010     libucrt:pow.obj
 0002:00004020       __mask_1023                0000000180023020     libucrt:pow.obj
 0002:00004030       __mask_001                 0000000180023030     libucrt:pow.obj
 0002:00004040       __real_log2_lead           0000000180023040     libucrt:pow.obj
 0002:00004050       __real_log2_tail           0000000180023050     libucrt:pow.obj
 0002:00004060       __real_two                 0000000180023060     libucrt:pow.obj
 0002:00004070       __real_one                 0000000180023070     libucrt:pow.obj
 0002:00004080       __real_half                0000000180023080     libucrt:pow.obj
 0002:00004090       __mask_100                 0000000180023090     libucrt:pow.obj
 0002:000040a0       __real_1_over_2            00000001800230a0     libucrt:pow.obj
 0002:000040b0       __real_1_over_3            00000001800230b0     libucrt:pow.obj
 0002:000040c0       __real_1_over_4            00000001800230c0     libucrt:pow.obj
 0002:000040d0       __real_1_over_5            00000001800230d0     libucrt:pow.obj
 0002:000040e0       __real_1_over_6            00000001800230e0     libucrt:pow.obj
 0002:000040f0       __real_1_over_7            00000001800230f0     libucrt:pow.obj
 0002:00004100       __mask_1023_f              0000000180023100     libucrt:pow.obj
 0002:00004110       __mask_2045                0000000180023110     libucrt:pow.obj
 0002:00004120       __real_threshold           0000000180023120     libucrt:pow.obj
 0002:00004130       __real_notsign             0000000180023130     libucrt:pow.obj
 0002:00004140       __log_F_inv_head           0000000180023140     libucrt:pow.obj
 0002:00004950       __log_F_inv_tail           0000000180023950     libucrt:pow.obj
 0002:00005160       __denormal_threshold       0000000180024160     libucrt:pow.obj
 0002:00005170       __enable_almost_inf        0000000180024170     libucrt:pow.obj
 0002:00005180       __real_zero                0000000180024180     libucrt:pow.obj
 0002:00005190       __real_smallest_denormal   0000000180024190     libucrt:pow.obj
 0002:000051a0       __denormal_tiny_threshold  00000001800241a0     libucrt:pow.obj
 0002:000051b0       __real_p65536              00000001800241b0     libucrt:pow.obj
 0002:000051c0       __real_m68800              00000001800241c0     libucrt:pow.obj
 0002:000051d0       __real_64_by_log2          00000001800241d0     libucrt:pow.obj
 0002:000051e0       __real_log2_by_64_head     00000001800241e0     libucrt:pow.obj
 0002:000051f0       __real_log2_by_64_tail     00000001800241f0     libucrt:pow.obj
 0002:00005200       __real_1_by_720            0000000180024200     libucrt:pow.obj
 0002:00005210       __real_1_by_120            0000000180024210     libucrt:pow.obj
 0002:00005220       __real_1_by_24             0000000180024220     libucrt:pow.obj
 0002:00005230       __real_1_by_6              0000000180024230     libucrt:pow.obj
 0002:00005240       __real_1_by_2              0000000180024240     libucrt:pow.obj
 0002:00005250       __flag_x_one_y_snan        0000000180024250     libucrt:powf.obj
 0002:00005254       __flag_x_zero_z_inf        0000000180024254     libucrt:powf.obj
 0002:00005258       __flag_x_nan               0000000180024258     libucrt:powf.obj
 0002:0000525c       __flag_y_nan               000000018002425c     libucrt:powf.obj
 0002:00005260       __flag_x_nan_y_nan         0000000180024260     libucrt:powf.obj
 0002:00005264       __flag_x_neg_y_notint      0000000180024264     libucrt:powf.obj
 0002:00005268       __flag_z_zero              0000000180024268     libucrt:powf.obj
 0002:0000526c       __flag_z_denormal          000000018002426c     libucrt:powf.obj
 0002:00005270       __flag_z_inf               0000000180024270     libucrt:powf.obj
 0002:00005274       L__1_by_3                  0000000180024274     libucrt:powf.obj
 0002:0000527c       L__log2                    000000018002427c     libucrt:powf.obj
 0002:00005284       L__max_exp_arg             0000000180024284     libucrt:powf.obj
 0002:0000528c       L__min_exp_arg             000000018002428c     libucrt:powf.obj
 0002:00005294       L__real_log2_by_64         0000000180024294     libucrt:powf.obj
 0002:0000529c       L__1_by_6                  000000018002429c     libucrt:powf.obj
 0002:000052a4       L__real_threshold          00000001800242a4     libucrt:powf.obj
 0002:000052ac       L__real_one                00000001800242ac     libucrt:powf.obj
 0002:000052b4       L__real_two                00000001800242b4     libucrt:powf.obj
 0002:000052bc       L__neg_zero                00000001800242bc     libucrt:powf.obj
 0002:000052d0       L__real_ca42               00000001800242d0     libucrt:powf.obj
 0002:000052d8       L__real_ca4                00000001800242d8     libucrt:powf.obj
 0002:000052e0       L__real_ca31               00000001800242e0     libucrt:powf.obj
 0002:000052e8       L__real_ca3                00000001800242e8     libucrt:powf.obj
 0002:000052f0       L__clear_sign              00000001800242f0     libucrt:powf.obj
 0002:00005300       L__real_64_by_log2         0000000180024300     libucrt:powf.obj
 0002:00005310       L__1_by_2                  0000000180024310     libucrt:powf.obj
 0002:00005320       L__1023                    0000000180024320     libucrt:powf.obj
 0002:00005330       L__xexp_bits_xmantissa_bits 0000000180024330     libucrt:powf.obj
 0002:00005c50       __acrt_initializers        0000000180024c50     libucrt:initialization.obj
 0002:00005d50       ?strings@?1??fp_format_nan_or_infinity@@YAHW4__acrt_fp_class@@_NPEAD_K1@Z@4QAY03QEBDA 0000000180024d50     libucrt:cvt.obj
 0002:000064a0       ?module_names@?A0x391cf84c@@3QBQEB_WB 00000001800254a0     libucrt:winapi_thunks.obj
 0002:000069a8       ?candidate_modules@?1??try_get_AreFileApisANSI@@YAP6AHXZXZ@4QBW4module_id@?A0x391cf84c@@B 00000001800259a8     libucrt:winapi_thunks.obj
 0002:000069c0       ?candidate_modules@?1??try_get_FlsAlloc@@YAP6AKP6AXPEAX@Z@ZXZ@4QBW4module_id@?A0x391cf84c@@B 00000001800259c0     libucrt:winapi_thunks.obj
 0002:000069c8       ?candidate_modules@?1??try_get_FlsFree@@YAP6AHK@ZXZ@4QBW4module_id@?A0x391cf84c@@B 00000001800259c8     libucrt:winapi_thunks.obj
 0002:000069d0       ?candidate_modules@?1??try_get_FlsGetValue@@YAP6APEAXK@ZXZ@4QBW4module_id@?A0x391cf84c@@B 00000001800259d0     libucrt:winapi_thunks.obj
 0002:000069d8       ?candidate_modules@?1??try_get_FlsSetValue@@YAP6AHKPEAX@ZXZ@4QBW4module_id@?A0x391cf84c@@B 00000001800259d8     libucrt:winapi_thunks.obj
 0002:000069e0       ?candidate_modules@?1??try_get_InitializeCriticalSectionEx@@YAP6AHPEAU_RTL_CRITICAL_SECTION@@KK@ZXZ@4QBW4module_id@?A0x391cf84c@@B 00000001800259e0     libucrt:winapi_thunks.obj
 0002:000069e8       ?candidate_modules@?1??try_get_LCMapStringEx@@YAP6AHPEB_WK0HPEA_WHPEAU_nlsversioninfo@@PEAX_J@ZXZ@4QBW4module_id@?A0x391cf84c@@B 00000001800259e8     libucrt:winapi_thunks.obj
 0002:000069f0       ?candidate_modules@?1??try_get_LocaleNameToLCID@@YAP6AKPEB_WK@ZXZ@4QBW4module_id@?A0x391cf84c@@B 00000001800259f0     libucrt:winapi_thunks.obj
 0002:00006a0c       ?candidate_modules@?1??try_get_AppPolicyGetProcessTerminationMethod@@YAP6AJPEAXPEAW4AppPolicyProcessTerminationMethod@@@ZXZ@4QBW4module_id@?A0x391cf84c@@B 0000000180025a0c     libucrt:winapi_thunks.obj
 0002:00008890       ?_mb_locale_names@@3QBQEB_WB 0000000180027890     libucrt:mbctype.obj
 0002:00008920       ?LcidToLocaleNameTable@?A0x881e4c05@@3QBULcidToLocaleName@1@B 0000000180027920     libucrt:lcidtoname_downlevel.obj
 0002:0000a370       ?LocaleNameToIndexTable@?A0x881e4c05@@3QBULocaleNameIndex@1@B 0000000180029370     libucrt:lcidtoname_downlevel.obj
 0002:0000bc20       __real@433fffffffffffff    000000018002ac20     libucrt:fpsr.obj
 0002:0000bc28       __real@c33fffffffffffff    000000018002ac28     libucrt:fpsr.obj
 0002:0000bc30       __real_ninf                000000018002ac30     libucrt:log10.obj
 0002:0000bc40       __real_inf                 000000018002ac40     libucrt:log10.obj
 0002:0000bc50       __real_neg_qnan            000000018002ac50     libucrt:log10.obj
 0002:0000bc60       __real_qnanbit             000000018002ac60     libucrt:log10.obj
 0002:0000bc70       __int_1023                 000000018002ac70     libucrt:log10.obj
 0002:0000bc80       __mask_001                 000000018002ac80     libucrt:log10.obj
 0002:0000bc90       __mask_mant                000000018002ac90     libucrt:log10.obj
 0002:0000bca0       __mask_mant_top8           000000018002aca0     libucrt:log10.obj
 0002:0000bcb0       __mask_mant9               000000018002acb0     libucrt:log10.obj
 0002:0000bcc0       __real_log10_e             000000018002acc0     libucrt:log10.obj
 0002:0000bcd0       __real_log10_e_lead        000000018002acd0     libucrt:log10.obj
 0002:0000bce0       __real_log10_e_tail        000000018002ace0     libucrt:log10.obj
 0002:0000bcf0       __real_log10_2_lead        000000018002acf0     libucrt:log10.obj
 0002:0000bd00       __real_log10_2_tail        000000018002ad00     libucrt:log10.obj
 0002:0000bd10       __real_two                 000000018002ad10     libucrt:log10.obj
 0002:0000bd20       __real_one                 000000018002ad20     libucrt:log10.obj
 0002:0000bd30       __real_half                000000018002ad30     libucrt:log10.obj
 0002:0000bd40       __mask_100                 000000018002ad40     libucrt:log10.obj
 0002:0000bd50       __real_1_over_512          000000018002ad50     libucrt:log10.obj
 0002:0000bd60       __real_1_over_2            000000018002ad60     libucrt:log10.obj
 0002:0000bd70       __real_1_over_3            000000018002ad70     libucrt:log10.obj
 0002:0000bd80       __real_1_over_4            000000018002ad80     libucrt:log10.obj
 0002:0000bd90       __real_1_over_5            000000018002ad90     libucrt:log10.obj
 0002:0000bda0       __real_1_over_6            000000018002ada0     libucrt:log10.obj
 0002:0000bdb0       __real_neg_1023            000000018002adb0     libucrt:log10.obj
 0002:0000bdc0       __mask_2045                000000018002adc0     libucrt:log10.obj
 0002:0000bdd0       __real_threshold           000000018002add0     libucrt:log10.obj
 0002:0000bde0       __real_near_one_lt         000000018002ade0     libucrt:log10.obj
 0002:0000bdf0       __real_near_one_gt         000000018002adf0     libucrt:log10.obj
 0002:0000be00       __real_min_norm            000000018002ae00     libucrt:log10.obj
 0002:0000be10       __real_notsign             000000018002ae10     libucrt:log10.obj
 0002:0000be20       __real_ca1                 000000018002ae20     libucrt:log10.obj
 0002:0000be30       __real_ca2                 000000018002ae30     libucrt:log10.obj
 0002:0000be40       __real_ca3                 000000018002ae40     libucrt:log10.obj
 0002:0000be50       __real_ca4                 000000018002ae50     libucrt:log10.obj
 0002:0000be60       __mask_lower               000000018002ae60     libucrt:log10.obj
 0002:0000be70       __flag_x_zero              000000018002ae70     libucrt:log10.obj
 0002:0000be74       __flag_x_neg               000000018002ae74     libucrt:log10.obj
 0002:0000be78       __flag_x_nan               000000018002ae78     libucrt:log10.obj
 0002:0000cf00       ?GStyleVarInfo@@3QBUImGuiStyleVarInfo@@B 000000018002bf00     imgui.obj
 0002:0000d014       ?STB_TEXTEDIT_NEWLINE@ImStb@@3GA 000000018002c014     imgui_widgets.obj
 0002:0000d016       ?context@execution@asio@boost@@3U?$context_t@$0A@@detail@123@B 000000018002c016     privatematch_wrapper.obj
 0002:0000d017       ?allocator@execution@asio@boost@@3U?$allocator_t@X@123@B 000000018002c017     server.obj
 0002:0000d018       ?GImAllocatorFreeFunc@@3P6AXPEAX0@ZEA 000000018002c018     imgui.obj
 0002:0000d020       ?GCrc32LookupTable@@3QBIB  000000018002c020     imgui.obj
 0002:0000d420       ?GImAllocatorAllocFunc@@3P6APEAX_KPEAX@ZEA 000000018002c420     imgui.obj
 0002:0000d428       ?blocking@execution@asio@boost@@3U?$blocking_t@$0A@@detail@123@B 000000018002c428     privatematch_wrapper.obj
 0002:0000d42c       ?blocking@execution@asio@boost@@3U?$blocking_t@$0A@@detail@123@B 000000018002c42c     server.obj
 0002:0000d430       ?proggy_clean_ttf_compressed_data_base85@@3QBDB 000000018002c430     imgui_draw.obj
 0002:000102fd       ?context@execution@asio@boost@@3U?$context_t@$0A@@detail@123@B 000000018002f2fd     server.obj
 0002:000102fe       ?context@execution@asio@boost@@3U?$context_t@$0A@@detail@123@B 000000018002f2fe     settings.obj
 0002:000102ff       ?context@execution@asio@boost@@3U?$context_t@$0A@@detail@123@B 000000018002f2ff     SixMansPlugin-Rework.obj
 0002:00010300       ?FONT_ATLAS_DEFAULT_TEX_DATA_PIXELS@@3QBDB 000000018002f300     imgui_draw.obj
 0002:00010e65       ?context@execution@asio@boost@@3U?$context_t@$0A@@detail@123@B 000000018002fe65     SixMansPlugin-ReworkGUI.obj
 0002:00010e66       ?context@execution@asio@boost@@3U?$context_t@$0A@@detail@123@B 000000018002fe66     timer.obj
 0002:00010e67       ?context@execution@asio@boost@@3U?$context_t@$0A@@detail@123@B 000000018002fe67     pch.obj
 0002:00010e68       ?require@?A0x047a506b@asio@boost@@3AEBUimpl@boost_asio_require_fn@@EB 000000018002fe68     server.obj
 0002:00010e70       ?GDataTypeInfo@ImGui@@3QBUImGuiDataTypeInfo@@B 000000018002fe70     imgui_rangeslider.obj
 0002:00010f60       ?GDataTypeInfo@@3QBUImGuiDataTypeInfo@@B 000000018002ff60     imgui_widgets.obj
 0002:00011050       ?query@?A0x047a506b@asio@boost@@3AEBUimpl@boost_asio_query_fn@@EB 0000000180030050     server.obj
 0002:00011058       ?execute@?A0x047a506b@execution@asio@boost@@3AEBUimpl@boost_asio_execution_execute_fn@@EB 0000000180030058     server.obj
 0002:00011060       ?prefer@?A0x047a506b@asio@boost@@3AEBUimpl@boost_asio_prefer_fn@@EB 0000000180030060     server.obj
 0002:00011068       ?blocking@execution@asio@boost@@3U?$blocking_t@$0A@@detail@123@B 0000000180030068     settings.obj
 0002:0001106c       ?blocking@execution@asio@boost@@3U?$blocking_t@$0A@@detail@123@B 000000018003006c     SixMansPlugin-Rework.obj
 0002:00011070       ?blocking@execution@asio@boost@@3U?$blocking_t@$0A@@detail@123@B 0000000180030070     SixMansPlugin-ReworkGUI.obj
 0002:00011074       ?blocking@execution@asio@boost@@3U?$blocking_t@$0A@@detail@123@B 0000000180030074     timer.obj
 0002:00011078       ?blocking@execution@asio@boost@@3U?$blocking_t@$0A@@detail@123@B 0000000180030078     pch.obj
 0002:00011080       ?resize_grip_def@@3QBUImGuiResizeGripDef@@B 0000000180030080     imgui.obj
 0002:000110e0       ?FONT_ATLAS_DEFAULT_TEX_CURSOR_DATA@@3QAY02$$CBUImVec2@@A 00000001800300e0     imgui_draw.obj
 0002:00011730       L_signbit                  0000000180030730     libucrt:sinf.obj
 0002:00011740       L_sign_mask                0000000180030740     libucrt:sinf.obj
 0002:00011750       L_one                      0000000180030750     libucrt:sinf.obj
 0002:00011760       L_int_three                0000000180030760     libucrt:sinf.obj
 0002:00011770       L_one_half                 0000000180030770     libucrt:sinf.obj
 0002:00011780       L_twobypi                  0000000180030780     libucrt:sinf.obj
 0002:00011790       L_piby2_1                  0000000180030790     libucrt:sinf.obj
 0002:000117a0       L_one_sixth                00000001800307a0     libucrt:sinf.obj
 0002:000117b0       L_piby2_1tail              00000001800307b0     libucrt:sinf.obj
 0002:000117c0       L_piby2_2                  00000001800307c0     libucrt:sinf.obj
 0002:000117d0       L_piby2_2tail              00000001800307d0     libucrt:sinf.obj
 0002:000117e0       L_inf_mask_32              00000001800307e0     libucrt:sinf.obj
 0002:000117f0       L_int_two                  00000001800307f0     libucrt:sinf.obj
 0002:00011800       L_piby2_lead               0000000180030800     libucrt:sinf.obj
 0002:00011810       L_piby4                    0000000180030810     libucrt:sinf.obj
 0002:00011820       L_mask_3f2                 0000000180030820     libucrt:sinf.obj
 0002:00011830       L_mask_3f8                 0000000180030830     libucrt:sinf.obj
 0002:00011840       L_large_x_fma3             0000000180030840     libucrt:sinf.obj
 0002:00011848       L_large_x_sse2             0000000180030848     libucrt:sinf.obj
 0002:00011850       L_near_one                 0000000180030850     libucrt:sinf.obj
 0002:00011858       L_two_to_32                0000000180030858     libucrt:sinf.obj
 0002:00011950       L__piby2                   0000000180030950     libucrt:remainder_piby2f_forc.obj
 0002:00011960       L__2_by_pi_bits            0000000180030960     libucrt:remainder_piby2f_forc.obj
 0002:00012b78       $unwind$??$_Reallocate_grow_by@V<lambda_1>@?1??append@?$basic_string@DU?$char_traits@D@std@@V?$allocator@D@2@@std@@QEAAAEAV34@_KD@Z@_KD@?$basic_string@DU?$char_traits@D@std@@V?$allocator@D@2@@std@@AEAAAEAV01@_KV<lambda_1>@?1??append@01@QEAAAEAV01@0D@Z@_KD@Z 0000000180031b78     format.obj
 0002:00012b88       $chain$3$??$_Reallocate_grow_by@V<lambda_1>@?1??append@?$basic_string@DU?$char_traits@D@std@@V?$allocator@D@2@@std@@QEAAAEAV34@_KD@Z@_KD@?$basic_string@DU?$char_traits@D@std@@V?$allocator@D@2@@std@@AEAAAEAV01@_KV<lambda_1>@?1??append@01@QEAAAEAV01@0D@Z@_KD@Z 0000000180031b88     format.obj
 0002:00012ba8       $chain$5$??$_Reallocate_grow_by@V<lambda_1>@?1??append@?$basic_string@DU?$char_traits@D@std@@V?$allocator@D@2@@std@@QEAAAEAV34@_KD@Z@_KD@?$basic_string@DU?$char_traits@D@std@@V?$allocator@D@2@@std@@AEAAAEAV01@_KV<lambda_1>@?1??append@01@QEAAAEAV01@0D@Z@_KD@Z 0000000180031ba8     format.obj
 0002:00012ba8       $chain$7$??$_Reallocate_grow_by@V<lambda_1>@?1??append@?$basic_string@DU?$char_traits@D@std@@V?$allocator@D@2@@std@@QEAAAEAV34@_KD@Z@_KD@?$basic_string@DU?$char_traits@D@std@@V?$allocator@D@2@@std@@AEAAAEAV01@_KV<lambda_1>@?1??append@01@QEAAAEAV01@0D@Z@_KD@Z 0000000180031ba8     format.obj
 0002:00012bc8       $chain$6$??$_Reallocate_grow_by@V<lambda_1>@?1??append@?$basic_string@DU?$char_traits@D@std@@V?$allocator@D@2@@std@@QEAAAEAV34@_KD@Z@_KD@?$basic_string@DU?$char_traits@D@std@@V?$allocator@D@2@@std@@AEAAAEAV01@_KV<lambda_1>@?1??append@01@QEAAAEAV01@0D@Z@_KD@Z 0000000180031bc8     format.obj
 0002:00012bd8       $unwind$??_G?$_Ref_count@VSixMansPlugin@@@std@@UEAAPEAXI@Z 0000000180031bd8     SixMansPlugin-Rework.obj
 0002:00012bd8       $unwind$??__F_globalCvarManager@@YAXXZ 0000000180031bd8     SixMansPlugin-Rework.obj
 0002:00012bd8       $unwind$??__Fsingleton@@YAXXZ 0000000180031bd8     SixMansPlugin-Rework.obj
 0002:00012bd8       $unwind$?_Destroy@?$_Ref_count@VSixMansPlugin@@@std@@EEAAXXZ 0000000180031bd8     SixMansPlugin-Rework.obj
 0002:00012bd8       $unwind$??0bad_alloc@std@@QEAA@AEBV01@@Z 0000000180031bd8     format.obj
 0002:00012bd8       $unwind$??0bad_array_new_length@std@@QEAA@AEBV01@@Z 0000000180031bd8     format.obj
 0002:00012bd8       $unwind$??0exception@std@@QEAA@AEBV01@@Z 0000000180031bd8     format.obj
 0002:00012bd8       $unwind$??0runtime_error@std@@QEAA@AEBV01@@Z 0000000180031bd8     format.obj
 0002:00012bd8       $unwind$??1?$basic_string@DU?$char_traits@D@std@@V?$allocator@D@2@@std@@QEAA@XZ 0000000180031bd8     format.obj
 0002:00012bd8       $unwind$??_Gclone_base@exception_detail@boost@@UEAAPEAXI@Z 0000000180031bd8     privatematch_wrapper.obj
 0002:00012bd8       $unwind$??0length_error@std@@QEAA@AEBV01@@Z 0000000180031bd8     server.obj
 0002:00012bd8       $unwind$??0logic_error@std@@QEAA@AEBV01@@Z 0000000180031bd8     server.obj
 0002:00012bd8       $unwind$_calloc_base       0000000180031bd8     libucrt:calloc_base.obj
 0002:00012bd8       $unwind$_malloc_base       0000000180031bd8     libucrt:malloc_base.obj
 0002:00012bd8       $unwind$_callnewh          0000000180031bd8     libucrt:new_handler.obj
 0002:00012bd8       $unwind$initialize_pointers 0000000180031bd8     libucrt:initialization.obj
 0002:00012bd8       $unwind$uninitialize_allocated_memory 0000000180031bd8     libucrt:initialization.obj
 0002:00012bd8       $unwind$__acrt_initialize_locks 0000000180031bd8     libucrt:locks.obj
 0002:00012bd8       $unwind$__acrt_uninitialize_locks 0000000180031bd8     libucrt:locks.obj
 0002:00012bd8       $unwind$__acrt_freeptd     0000000180031bd8     libucrt:per_thread_data.obj
 0002:00012bd8       $unwind$__acrt_getptd_head 0000000180031bd8     libucrt:per_thread_data.obj
 0002:00012bd8       $unwind$__acrt_get_process_end_policy 0000000180031bd8     libucrt:win_policies.obj
 0002:00012bd8       $unwind$__acrt_AppPolicyGetProcessTerminationMethodInternal 0000000180031bd8     libucrt:winapi_thunks.obj
 0002:00012bd8       $unwind$__acrt_FlsAlloc    0000000180031bd8     libucrt:winapi_thunks.obj
 0002:00012bd8       $unwind$__acrt_FlsFree     0000000180031bd8     libucrt:winapi_thunks.obj
 0002:00012bd8       $unwind$__acrt_FlsGetValue 0000000180031bd8     libucrt:winapi_thunks.obj
 0002:00012bd8       $unwind$__acrt_uninitialize_winapi_thunks 0000000180031bd8     libucrt:winapi_thunks.obj
 0002:00012bd8       $unwind$__acrt_update_locale_info 0000000180031bd8     libucrt:locale_update.obj
 0002:00012bd8       $unwind$__acrt_update_multibyte_info 0000000180031bd8     libucrt:locale_update.obj
 0002:00012bd8       $unwind$__acrt_allocate_buffer_for_argv 0000000180031bd8     libucrt:argv_parsing.obj
 0002:00012bd8       $unwind$?exit_or_terminate_process@@YAXI@Z 0000000180031bd8     libucrt:exit.obj
 0002:00012bd8       $unwind$?try_cor_exit_process@@YAXI@Z 0000000180031bd8     libucrt:exit.obj
 0002:00012bd8       $unwind$__acrt_uninitialize_stdio 0000000180031bd8     libucrt:_file.obj
 0002:00012bd8       $unwind$__acrt_stdio_free_buffer_nolock 0000000180031bd8     libucrt:_freebuf.obj
 0002:00012bd8       $unwind$_fflush_nolock     0000000180031bd8     libucrt:fflush.obj
 0002:00012bd8       $unwind$?state_case_normal@?$output_processor@DV?$string_output_adapter@D@__crt_stdio_output@@V?$standard_base@DV?$string_output_adapter@D@__crt_stdio_output@@@2@@__crt_stdio_output@@AEAA_NXZ 0000000180031bd8     libucrt:output.obj
 0002:00012bd8       $unwind$?type_case_s@?$output_processor@DV?$string_output_adapter@D@__crt_stdio_output@@V?$standard_base@DV?$string_output_adapter@D@__crt_stdio_output@@@2@@__crt_stdio_output@@AEAA_NXZ 0000000180031bd8     libucrt:output.obj
 0002:00012bd8       $unwind$strcpy_s           0000000180031bd8     libucrt:strcpy_s.obj
 0002:00012bd8       $unwind$_clrfp             0000000180031bd8     libucrt:fpctrl.obj
 0002:00012bd8       $unwind$_set_statfp        0000000180031bd8     libucrt:fpctrl.obj
 0002:00012bd8       $unwind$_clearfp           0000000180031bd8     libucrt:ieee.obj
 0002:00012bd8       $unwind$_controlfp_s       0000000180031bd8     libucrt:contrlfp.obj
 0002:00012bd8       $unwind$fegetenv           0000000180031bd8     libucrt:fegetenv.obj
 0002:00012bd8       $unwind$feholdexcept       0000000180031bd8     libucrt:feholdexcept.obj
 0002:00012bd8       $unwind$fesetenv           0000000180031bd8     libucrt:fesetenv.obj
 0002:00012bd8       $unwind$__raise_securityfailure 0000000180031bd8     LIBCMT:gs_report.obj
 0002:00012bd8       $unwind$??2@YAPEAX_K@Z     0000000180031bd8     LIBCMT:new_scalar.obj
 0002:00012bd8       $unwind$??_Gtype_info@@UEAAPEAXI@Z 0000000180031bd8     LIBCMT:std_type_info_static.obj
 0002:00012bd8       $unwind$__scrt_initialize_crt 0000000180031bd8     LIBCMT:utility.obj
 0002:00012bd8       $unwind$__scrt_initialize_onexit_tables 0000000180031bd8     LIBCMT:utility.obj
 0002:00012bd8       $unwind$__scrt_release_startup_lock 0000000180031bd8     LIBCMT:utility.obj
 0002:00012bd8       $unwind$__scrt_uninitialize_crt 0000000180031bd8     LIBCMT:utility.obj
 0002:00012bd8       $unwind$_onexit            0000000180031bd8     LIBCMT:utility.obj
 0002:00012bd8       $unwind$??__F_Fac_tidy_reg@std@@YAXXZ 0000000180031bd8     libcpmt:locale0.obj
 0002:00012bd8       $unwind$?initialize_pointers@@YAHXZ 0000000180031bd8     libcpmt:winapisupp.obj
 0002:00012bd8       $unwind$??1_Init_locks@std@@QEAA@XZ 0000000180031bd8     libcpmt:xlock.obj
 0002:00012bd8       $unwind$_IsExceptionObjectToBeDestroyed 0000000180031bd8     libvcruntime:ehhelpers.obj
 0002:00012bd8       $unwind$??0HandlerMap4@FH4@@QEAA@PEBUTryBlockMapEntry4@1@_KH@Z 0000000180031bd8     libvcruntime:frame.obj
 0002:00012bd8       $unwind$__vcrt_initialize_locks 0000000180031bd8     libvcruntime:locks.obj
 0002:00012bd8       $unwind$__vcrt_uninitialize_locks 0000000180031bd8     libvcruntime:locks.obj
 0002:00012bd8       $unwind$__vcrt_freeptd     0000000180031bd8     libvcruntime:per_thread_data.obj
 0002:00012bd8       $unwind$_CreateFrameInfo   0000000180031bd8     libvcruntime:risctrnsctrl.obj
 0002:00012bd8       $unwind$_SetImageBase      0000000180031bd8     libvcruntime:risctrnsctrl.obj
 0002:00012bd8       $unwind$_SetThrowImageBase 0000000180031bd8     libvcruntime:risctrnsctrl.obj
 0002:00012bd8       $unwind$__std_exception_destroy 0000000180031bd8     libvcruntime:std_exception.obj
 0002:00012bd8       $unwind$__std_type_info_destroy_list 0000000180031bd8     libvcruntime:std_type_info.obj
 0002:00012bd8       $unwind$__vcrt_FlsAlloc    0000000180031bd8     libvcruntime:winapi_downlevel.obj
 0002:00012bd8       $unwind$__vcrt_FlsFree     0000000180031bd8     libvcruntime:winapi_downlevel.obj
 0002:00012bd8       $unwind$__vcrt_FlsGetValue 0000000180031bd8     libvcruntime:winapi_downlevel.obj
 0002:00012be0       $unwind$??__Fserver_thread@@YAXXZ 0000000180031be0     SixMansPlugin-Rework.obj
 0002:00012be0       $unwind$??__Fstr_typename@@YAXXZ 0000000180031be0     SixMansPlugin-Rework.obj
 0002:00012be0       $unwind$deleteMe           0000000180031be0     SixMansPlugin-Rework.obj
 0002:00012be0       $unwind$getPlugin          0000000180031be0     SixMansPlugin-Rework.obj
 0002:00012be0       $unwind$??__Fstr_typename@@YAXXZ 0000000180031be0     SixMansPlugin-ReworkGUI.obj
 0002:00012be0       $unwind$?_Xlen_string@std@@YAXXZ 0000000180031be0     format.obj
 0002:00012be0       $unwind$??__E?top_@?$call_stack@Vstrand_impl@strand_executor_service@detail@asio@boost@@E@detail@asio@boost@@0V?$tss_ptr@Vcontext@?$call_stack@Vstrand_impl@strand_executor_service@detail@asio@boost@@E@detail@asio@boost@@@234@A@@YAXXZ 0000000180031be0     pch.obj
 0002:00012be0       $unwind$??__E?top_@?$call_stack@Vstrand_impl@strand_service@detail@asio@boost@@E@detail@asio@boost@@0V?$tss_ptr@Vcontext@?$call_stack@Vstrand_impl@strand_service@detail@asio@boost@@E@detail@asio@boost@@@234@A@@YAXXZ 0000000180031be0     pch.obj
 0002:00012be0       $unwind$??__E?tss_ptr_@?$win_global_impl@Vsystem_context@asio@boost@@@detail@asio@boost@@2V?$tss_ptr@Vsystem_context@asio@boost@@@234@A@@YAXXZ 0000000180031be0     pch.obj
 0002:00012be0       $unwind$??__E?top_@?$call_stack@Vthread_context@detail@asio@boost@@Vthread_info_base@234@@detail@asio@boost@@0V?$tss_ptr@Vcontext@?$call_stack@Vthread_context@detail@asio@boost@@Vthread_info_base@234@@detail@asio@boost@@@234@A@@YAXXZ 0000000180031be0     privatematch_wrapper.obj
 0002:00012be0       $unwind$??__Fstr_typename@@YAXXZ 0000000180031be0     privatematch_wrapper.obj
 0002:00012be0       $unwind$?default_error_condition@system_error_category@detail@system@boost@@UEBA?AVerror_condition@34@H@Z 0000000180031be0     privatematch_wrapper.obj
 0002:00012be0       $unwind$??__Fstr_typename@@YAXXZ 0000000180031be0     server.obj
 0002:00012be0       $unwind$??__Fstr_typename@@YAXXZ 0000000180031be0     settings.obj
 0002:00012be0       $unwind$??__Fstr_typename@@YAXXZ 0000000180031be0     timer.obj
 0002:00012be0       $unwind$__dcrt_terminate_console_output 0000000180031be0     libucrt:initcon.obj
 0002:00012be0       $unwind$??$uninitialize_environment_internal@D@@YAXAEAPEAPEAD@Z 0000000180031be0     libucrt:environment_initialization.obj
 0002:00012be0       $unwind$??$uninitialize_environment_internal@_W@@YAXAEAPEAPEA_W@Z 0000000180031be0     libucrt:environment_initialization.obj
 0002:00012be0       $unwind$__dcrt_uninitialize_environments_nolock 0000000180031be0     libucrt:environment_initialization.obj
 0002:00012be0       $unwind$?__c32rtomb_utf8@__crt_mbstring@@YA_KPEAD_UPEAU_Mbstatet@@@Z 0000000180031be0     libucrt:c32rtomb.obj
 0002:00012be0       $unwind$__acrt_initialize_heap 0000000180031be0     libucrt:heap_handle.obj
 0002:00012be0       $unwind$_msize_base        0000000180031be0     libucrt:msize.obj
 0002:00012be0       $unwind$?initialize_multibyte@@YAHXZ 0000000180031be0     libucrt:multibyte_initializer.obj
 0002:00012be0       $unwind$__acrt_thread_attach 0000000180031be0     libucrt:initialization.obj
 0002:00012be0       $unwind$__acrt_thread_detach 0000000180031be0     libucrt:initialization.obj
 0002:00012be0       $unwind$__acrt_uninitialize 0000000180031be0     libucrt:initialization.obj
 0002:00012be0       $unwind$__acrt_uninitialize_critical 0000000180031be0     libucrt:initialization.obj
 0002:00012be0       $unwind$initialize_c       0000000180031be0     libucrt:initialization.obj
 0002:00012be0       $unwind$uninitialize_allocated_io_buffers 0000000180031be0     libucrt:initialization.obj
 0002:00012be0       $unwind$uninitialize_environment 0000000180031be0     libucrt:initialization.obj
 0002:00012be0       $unwind$__acrt_initialize_ptd 0000000180031be0     libucrt:per_thread_data.obj
 0002:00012be0       $unwind$__acrt_uninitialize_ptd 0000000180031be0     libucrt:per_thread_data.obj
 0002:00012be0       $unwind$__acrt_AreFileApisANSI 0000000180031be0     libucrt:winapi_thunks.obj
 0002:00012be0       $unwind$__pctype_func      0000000180031be0     libucrt:ctype.obj
 0002:00012be0       $unwind$__acrt_release_locale_ref 0000000180031be0     libucrt:locale_refcounting.obj
 0002:00012be0       $unwind$_isatty            0000000180031be0     libucrt:isatty.obj
 0002:00012be0       $unwind$_get_osfhandle     0000000180031be0     libucrt:osfinfo.obj
 0002:00012be0       $unwind$__acrt_initialize_multibyte 0000000180031be0     libucrt:mbctype.obj
 0002:00012be0       $unwind$__acrt_update_thread_multibyte_data 0000000180031be0     libucrt:mbctype.obj
 0002:00012be0       $unwind$__doserrno         0000000180031be0     libucrt:errno.obj
 0002:00012be0       $unwind$_errno             0000000180031be0     libucrt:errno.obj
 0002:00012be0       $unwind$_invoke_watson     0000000180031be0     libucrt:invalid_parameter.obj
 0002:00012be0       $unwind$abort              0000000180031be0     libucrt:abort.obj
 0002:00012be0       $unwind$__acrt_initialize_command_line 0000000180031be0     libucrt:argv_data.obj
 0002:00012be0       $unwind$_fileno            0000000180031be0     libucrt:fileno.obj
 0002:00012be0       $unwind$?state_case_normal_tchar@?$output_processor@DV?$string_output_adapter@D@__crt_stdio_output@@V?$standard_base@DV?$string_output_adapter@D@__crt_stdio_output@@@2@@__crt_stdio_output@@AEAA_ND@Z 0000000180031be0     libucrt:output.obj
 0002:00012be0       $unwind$?state_case_size@?$output_processor@DV?$string_output_adapter@D@__crt_stdio_output@@V?$standard_base@DV?$string_output_adapter@D@__crt_stdio_output@@@2@@__crt_stdio_output@@AEAA_NXZ 0000000180031be0     libucrt:output.obj
 0002:00012be0       $unwind$__acrt_initialize_clock 0000000180031be0     libucrt:clock.obj
 0002:00012be0       $unwind$_statfp            0000000180031be0     libucrt:fpctrl.obj
 0002:00012be0       $unwind$fegetround         0000000180031be0     libucrt:fegetround.obj
 0002:00012be0       $unwind$_set_errno_from_matherr 0000000180031be0     libucrt:fpexcept.obj
 0002:00012be0       $unwind$__scrt_initialize_default_local_stdio_options 0000000180031be0     LIBCMT:default_local_stdio_options.obj
 0002:00012be0       $unwind$?dllmain_crt_dispatch@@YAHQEAUHINSTANCE__@@KQEAX@Z 0000000180031be0     LIBCMT:dll_dllmain.obj
 0002:00012be0       $unwind$__report_rangecheckfailure 0000000180031be0     LIBCMT:gs_report.obj
 0002:00012be0       $unwind$__GSHandlerCheck   0000000180031be0     LIBCMT:gshandler.obj
 0002:00012be0       $unwind$?__scrt_uninitialize_thread_safe_statics@@YAXXZ 0000000180031be0     LIBCMT:thread_safe_statics.obj
 0002:00012be0       $unwind$__scrt_acquire_startup_lock 0000000180031be0     LIBCMT:utility.obj
 0002:00012be0       $unwind$__scrt_dllmain_after_initialize_c 0000000180031be0     LIBCMT:utility.obj
 0002:00012be0       $unwind$__scrt_dllmain_before_initialize_c 0000000180031be0     LIBCMT:utility.obj
 0002:00012be0       $unwind$__scrt_dllmain_crt_thread_attach 0000000180031be0     LIBCMT:utility.obj
 0002:00012be0       $unwind$__scrt_dllmain_crt_thread_detach 0000000180031be0     LIBCMT:utility.obj
 0002:00012be0       $unwind$__scrt_dllmain_uninitialize_c 0000000180031be0     LIBCMT:utility.obj
 0002:00012be0       $unwind$__scrt_dllmain_uninitialize_critical 0000000180031be0     LIBCMT:utility.obj
 0002:00012be0       $unwind$atexit             0000000180031be0     LIBCMT:utility.obj
 0002:00012be0       $unwind$??__Einitlocks@std@@YAXXZ 0000000180031be0     libcpmt:iosptrs.obj
 0002:00012be0       $unwind$??__Fclassic_locale@std@@YAXXZ 0000000180031be0     libcpmt:locale0.obj
 0002:00012be0       $unwind$??__Einitlocks@std@@YAXXZ 0000000180031be0     libcpmt:xlock.obj
 0002:00012be0       $unwind$__current_exception 0000000180031be0     libvcruntime:ehhelpers.obj
 0002:00012be0       $unwind$__current_exception_context 0000000180031be0     libvcruntime:ehhelpers.obj
 0002:00012be0       $unwind$__std_terminate    0000000180031be0     libvcruntime:ehhelpers.obj
 0002:00012be0       $unwind$__vcrt_initialize  0000000180031be0     libvcruntime:initialization.obj
 0002:00012be0       $unwind$__vcrt_thread_attach 0000000180031be0     libvcruntime:initialization.obj
 0002:00012be0       $unwind$__vcrt_thread_detach 0000000180031be0     libvcruntime:initialization.obj
 0002:00012be0       $unwind$__vcrt_uninitialize 0000000180031be0     libvcruntime:initialization.obj
 0002:00012be0       $unwind$__vcrt_uninitialize_critical 0000000180031be0     libvcruntime:initialization.obj
 0002:00012be0       $unwind$__vcrt_freefls     0000000180031be0     libvcruntime:per_thread_data.obj
 0002:00012be0       $unwind$__vcrt_getptd      0000000180031be0     libvcruntime:per_thread_data.obj
 0002:00012be0       $unwind$__vcrt_initialize_ptd 0000000180031be0     libvcruntime:per_thread_data.obj
 0002:00012be0       $unwind$__vcrt_uninitialize_ptd 0000000180031be0     libvcruntime:per_thread_data.obj
 0002:00012be0       $unwind$_purecall          0000000180031be0     libvcruntime:purevirt.obj
 0002:00012be0       $unwind$?FrameUnwindToEmptyState@__FrameHandler4@@SAXPEA_KPEAU_xDISPATCHER_CONTEXT@@PEAUFuncInfo4@FH4@@@Z 0000000180031be0     libvcruntime:risctrnsctrl.obj
 0002:00012be0       $unwind$_GetImageBase      0000000180031be0     libvcruntime:risctrnsctrl.obj
 0002:00012be0       $unwind$_GetThrowImageBase 0000000180031be0     libvcruntime:risctrnsctrl.obj
 0002:00012be8       $unwind$?assign@?$basic_string@DU?$char_traits@D@std@@V?$allocator@D@2@@std@@QEAAAEAV12@QEBD_K@Z 0000000180031be8     format.obj
 0002:00012be8       $unwind$?assign@?$basic_string@DU?$char_traits@D@std@@V?$allocator@D@2@@std@@QEAAAEAV12@_KD@Z 0000000180031be8     privatematch_wrapper.obj
 0002:00012bf8       $chain$0$?assign@?$basic_string@DU?$char_traits@D@std@@V?$allocator@D@2@@std@@QEAAAEAV12@QEBD_K@Z 0000000180031bf8     format.obj
 0002:00012c0c       $chain$2$?assign@?$basic_string@DU?$char_traits@D@std@@V?$allocator@D@2@@std@@QEAAAEAV12@QEBD_K@Z 0000000180031c0c     format.obj
 0002:00012c20       $chain$3$?assign@?$basic_string@DU?$char_traits@D@std@@V?$allocator@D@2@@std@@QEAAAEAV12@QEBD_K@Z 0000000180031c20     format.obj
 0002:00012c30       $unwind$??_Gbad_alloc@std@@UEAAPEAXI@Z 0000000180031c30     format.obj
 0002:00012c30       $unwind$??_Gbad_array_new_length@std@@UEAAPEAXI@Z 0000000180031c30     format.obj
 0002:00012c30       $unwind$??_Gexception@std@@UEAAPEAXI@Z 0000000180031c30     format.obj
 0002:00012c30       $unwind$??_Gruntime_error@std@@UEAAPEAXI@Z 0000000180031c30     format.obj
 0002:00012c30       $unwind$??0?$wrapexcept@Vsystem_error@system@boost@@@boost@@QEAA@AEBVsystem_error@system@1@@Z 0000000180031c30     privatematch_wrapper.obj
 0002:00012c30       $unwind$??0exception@boost@@QEAA@AEBV01@@Z 0000000180031c30     privatematch_wrapper.obj
 0002:00012c30       $unwind$??0system_error@system@boost@@QEAA@AEBV012@@Z 0000000180031c30     privatematch_wrapper.obj
 0002:00012c30       $unwind$??_Gsystem_error@system@boost@@UEAAPEAXI@Z 0000000180031c30     privatematch_wrapper.obj
 0002:00012c30       $unwind$??_Glength_error@std@@UEAAPEAXI@Z 0000000180031c30     server.obj
 0002:00012c30       $unwind$??_Glogic_error@std@@UEAAPEAXI@Z 0000000180031c30     server.obj
 0002:00012c30       $unwind$??$common_initialize_environment_nolock@D@@YAHXZ 0000000180031c30     libucrt:environment_initialization.obj
 0002:00012c30       $unwind$_realloc_base      0000000180031c30     libucrt:realloc_base.obj
 0002:00012c30       $unwind$?replace_current_thread_locale_nolock@@YAXQEAU__acrt_ptd@@QEAU__crt_locale_data@@@Z 0000000180031c30     libucrt:per_thread_data.obj
 0002:00012c30       $unwind$__acrt_execute_uninitializers 0000000180031c30     libucrt:shared_initialization.obj
 0002:00012c30       $unwind$__acrt_FlsSetValue 0000000180031c30     libucrt:winapi_thunks.obj
 0002:00012c30       $unwind$__acrt_LocaleNameToLCID 0000000180031c30     libucrt:winapi_thunks.obj
 0002:00012c30       $unwind$_updatetlocinfoEx_nolock 0000000180031c30     libucrt:locale_refcounting.obj
 0002:00012c30       $unwind$_close_nolock      0000000180031c30     libucrt:close.obj
 0002:00012c30       $unwind$__acrt_uninitialize_lowio 0000000180031c30     libucrt:ioinit.obj
 0002:00012c30       $unwind$__acrt_errno_map_os_error 0000000180031c30     libucrt:errno.obj
 0002:00012c30       $unwind$_initterm_e        0000000180031c30     libucrt:initterm.obj
 0002:00012c30       $unwind$_fclose_nolock     0000000180031c30     libucrt:fclose.obj
 0002:00012c30       $unwind$?type_case_n@?$output_processor@DV?$string_output_adapter@D@__crt_stdio_output@@V?$standard_base@DV?$string_output_adapter@D@__crt_stdio_output@@@2@@__crt_stdio_output@@AEAA_NXZ 0000000180031c30     libucrt:output.obj
 0002:00012c30       $unwind$strncpy_s          0000000180031c30     libucrt:strncpy_s.obj
 0002:00012c30       $unwind$_RTC_Initialize    0000000180031c30     LIBCMT:initsect.obj
 0002:00012c30       $unwind$_RTC_Terminate     0000000180031c30     LIBCMT:initsect.obj
 0002:00012c30       $unwind$?__scrt_initialize_thread_safe_statics@@YAHXZ 0000000180031c30     LIBCMT:thread_safe_statics.obj
 0002:00012c30       $unwind$??0_Init_locks@std@@QEAA@XZ 0000000180031c30     libcpmt:xlock.obj
 0002:00012c30       $unwind$__FrameUnwindFilter 0000000180031c30     libvcruntime:ehhelpers.obj
 0002:00012c30       $unwind$?ExFilterRethrow@@YAHPEAU_EXCEPTION_POINTERS@@PEAUEHExceptionRecord@@PEAH@Z 0000000180031c30     libvcruntime:frame.obj
 0002:00012c30       $unwind$?ExFilterRethrowFH4@@YAHPEAU_EXCEPTION_POINTERS@@PEAUEHExceptionRecord@@HPEAH@Z 0000000180031c30     libvcruntime:frame.obj
 0002:00012c30       $unwind$_FindAndUnlinkFrame 0000000180031c30     libvcruntime:risctrnsctrl.obj
 0002:00012c30       $unwind$__vcrt_FlsSetValue 0000000180031c30     libvcruntime:winapi_downlevel.obj
 0002:00012c3c       $unwind$??0runtime_error@std@@QEAA@AEBV?$basic_string@DU?$char_traits@D@std@@V?$allocator@D@2@@1@@Z 0000000180031c3c     format.obj
 0002:00012c3c       $unwind$??0length_error@std@@QEAA@PEBD@Z 0000000180031c3c     server.obj
 0002:00012c4c       $unwind$?_Throw_bad_array_new_length@std@@YAXXZ 0000000180031c4c     format.obj
 0002:00012c4c       $unwind$_raise_exc         0000000180031c4c     libucrt:fpexcept.obj
 0002:00012c4c       $unwind$_raise_excf        0000000180031c4c     libucrt:fpexcept.obj
 0002:00012c4c       $unwind$?__scrt_throw_std_bad_alloc@@YAXXZ 0000000180031c4c     LIBCMT:throw_bad_alloc.obj
 0002:00012c4c       $unwind$?__scrt_throw_std_bad_array_new_length@@YAXXZ 0000000180031c4c     LIBCMT:throw_bad_alloc.obj
 0002:00012c4c       $unwind$?_Xlength_error@std@@YAXPEBD@Z 0000000180031c4c     libcpmt:xthrow.obj
 0002:00012c54       $unwind$sprintf            0000000180031c54     imgui_demo.obj
 0002:00012c60       $unwind$??$_Reallocate_grow_by@V<lambda_1>@?1??append@?$basic_string@DU?$char_traits@D@std@@V?$allocator@D@2@@std@@QEAAAEAV34@QEBD_K@Z@PEBD_K@?$basic_string@DU?$char_traits@D@std@@V?$allocator@D@2@@std@@AEAAAEAV01@_KV<lambda_1>@?1??append@01@QEAAAEAV01@QEBD0@Z@PEBD_K@Z 0000000180031c60     imgui_rangeslider.obj
 0002:00012c70       $chain$2$??$_Reallocate_grow_by@V<lambda_1>@?1??append@?$basic_string@DU?$char_traits@D@std@@V?$allocator@D@2@@std@@QEAAAEAV34@QEBD_K@Z@PEBD_K@?$basic_string@DU?$char_traits@D@std@@V?$allocator@D@2@@std@@AEAAAEAV01@_KV<lambda_1>@?1??append@01@QEAAAEAV01@QEBD0@Z@PEBD_K@Z 0000000180031c70     imgui_rangeslider.obj
 0002:00012c8c       $chain$4$??$_Reallocate_grow_by@V<lambda_1>@?1??append@?$basic_string@DU?$char_traits@D@std@@V?$allocator@D@2@@std@@QEAAAEAV34@QEBD_K@Z@PEBD_K@?$basic_string@DU?$char_traits@D@std@@V?$allocator@D@2@@std@@AEAAAEAV01@_KV<lambda_1>@?1??append@01@QEAAAEAV01@QEBD0@Z@PEBD_K@Z 0000000180031c8c     imgui_rangeslider.obj
 0002:00012c8c       $chain$6$??$_Reallocate_grow_by@V<lambda_1>@?1??append@?$basic_string@DU?$char_traits@D@std@@V?$allocator@D@2@@std@@QEAAAEAV34@QEBD_K@Z@PEBD_K@?$basic_string@DU?$char_traits@D@std@@V?$allocator@D@2@@std@@AEAAAEAV01@_KV<lambda_1>@?1??append@01@QEAAAEAV01@QEBD0@Z@PEBD_K@Z 0000000180031c8c     imgui_rangeslider.obj
 0002:00012ca8       $chain$5$??$_Reallocate_grow_by@V<lambda_1>@?1??append@?$basic_string@DU?$char_traits@D@std@@V?$allocator@D@2@@std@@QEAAAEAV34@QEBD_K@Z@PEBD_K@?$basic_string@DU?$char_traits@D@std@@V?$allocator@D@2@@std@@AEAAAEAV01@_KV<lambda_1>@?1??append@01@QEAAAEAV01@QEBD0@Z@PEBD_K@Z 0000000180031ca8     imgui_rangeslider.obj
 0002:00012cb8       $unwind$?append@?$basic_string@DU?$char_traits@D@std@@V?$allocator@D@2@@std@@QEAAAEAV12@QEBD_K@Z 0000000180031cb8     imgui_rangeslider.obj
 0002:00012cc4       $chain$0$?append@?$basic_string@DU?$char_traits@D@std@@V?$allocator@D@2@@std@@QEAAAEAV12@QEBD_K@Z 0000000180031cc4     imgui_rangeslider.obj
 0002:00012cd8       $chain$1$?append@?$basic_string@DU?$char_traits@D@std@@V?$allocator@D@2@@std@@QEAAAEAV12@QEBD_K@Z 0000000180031cd8     imgui_rangeslider.obj
 0002:00012ce8       $unwind$??$_Reallocate_grow_by@V<lambda_1>@?1??push_back@?$basic_string@DU?$char_traits@D@std@@V?$allocator@D@2@@std@@QEAAXD@Z@D@?$basic_string@DU?$char_traits@D@std@@V?$allocator@D@2@@std@@AEAAAEAV01@_KV<lambda_1>@?1??push_back@01@QEAAXD@Z@D@Z 0000000180031ce8     logsys.obj
 0002:00012cf8       $chain$2$??$_Reallocate_grow_by@V<lambda_1>@?1??push_back@?$basic_string@DU?$char_traits@D@std@@V?$allocator@D@2@@std@@QEAAXD@Z@D@?$basic_string@DU?$char_traits@D@std@@V?$allocator@D@2@@std@@AEAAAEAV01@_KV<lambda_1>@?1??push_back@01@QEAAXD@Z@D@Z 0000000180031cf8     logsys.obj
 0002:00012d14       $chain$4$??$_Reallocate_grow_by@V<lambda_1>@?1??push_back@?$basic_string@DU?$char_traits@D@std@@V?$allocator@D@2@@std@@QEAAXD@Z@D@?$basic_string@DU?$char_traits@D@std@@V?$allocator@D@2@@std@@AEAAAEAV01@_KV<lambda_1>@?1??push_back@01@QEAAXD@Z@D@Z 0000000180031d14     logsys.obj
 0002:00012d14       $chain$6$??$_Reallocate_grow_by@V<lambda_1>@?1??push_back@?$basic_string@DU?$char_traits@D@std@@V?$allocator@D@2@@std@@QEAAXD@Z@D@?$basic_string@DU?$char_traits@D@std@@V?$allocator@D@2@@std@@AEAAAEAV01@_KV<lambda_1>@?1??push_back@01@QEAAXD@Z@D@Z 0000000180031d14     logsys.obj
 0002:00012d30       $chain$5$??$_Reallocate_grow_by@V<lambda_1>@?1??push_back@?$basic_string@DU?$char_traits@D@std@@V?$allocator@D@2@@std@@QEAAXD@Z@D@?$basic_string@DU?$char_traits@D@std@@V?$allocator@D@2@@std@@AEAAAEAV01@_KV<lambda_1>@?1??push_back@01@QEAAXD@Z@D@Z 0000000180031d30     logsys.obj
 0002:00012d40       $unwind$??__EMAP_CODENAMES@@YAXXZ 0000000180031d40     privatematch_wrapper.obj
 0002:00012d50       $cppxdata$??__EMAP_CODENAMES@@YAXXZ 0000000180031d50     privatematch_wrapper.obj
 0002:00012d59       $stateUnwindMap$??__EMAP_CODENAMES@@YAXXZ 0000000180031d59     privatematch_wrapper.obj
 0002:00012eb3       $ip2state$??__EMAP_CODENAMES@@YAXXZ 0000000180031eb3     SixMansPlugin-Rework.obj
 0002:00012eb3       $ip2state$??__EMAP_CODENAMES@@YAXXZ 0000000180031eb3     SixMansPlugin-ReworkGUI.obj
 0002:00012eb3       $ip2state$??__EMAP_CODENAMES@@YAXXZ 0000000180031eb3     privatematch_wrapper.obj
 0002:00012eb3       $ip2state$??__EMAP_CODENAMES@@YAXXZ 0000000180031eb3     server.obj
 0002:00012eb3       $ip2state$??__EMAP_CODENAMES@@YAXXZ 0000000180031eb3     settings.obj
 0002:00012eb3       $ip2state$??__EMAP_CODENAMES@@YAXXZ 0000000180031eb3     timer.obj
 0002:00012efc       $unwind$??__Estr_typename@@YAXXZ 0000000180031efc     SixMansPlugin-Rework.obj
 0002:00012efc       $unwind$??__Estr_typename@@YAXXZ 0000000180031efc     SixMansPlugin-ReworkGUI.obj
 0002:00012efc       $unwind$??__Estr_typename@@YAXXZ 0000000180031efc     privatematch_wrapper.obj
 0002:00012efc       $unwind$??__Estr_typename@@YAXXZ 0000000180031efc     server.obj
 0002:00012efc       $unwind$??__Estr_typename@@YAXXZ 0000000180031efc     settings.obj
 0002:00012efc       $unwind$??__Estr_typename@@YAXXZ 0000000180031efc     timer.obj
 0002:00012f0c       $cppxdata$??__Estr_typename@@YAXXZ 0000000180031f0c     SixMansPlugin-Rework.obj
 0002:00012f0c       $cppxdata$??__Estr_typename@@YAXXZ 0000000180031f0c     SixMansPlugin-ReworkGUI.obj
 0002:00012f0c       $cppxdata$??__Estr_typename@@YAXXZ 0000000180031f0c     privatematch_wrapper.obj
 0002:00012f0c       $cppxdata$??__Estr_typename@@YAXXZ 0000000180031f0c     server.obj
 0002:00012f0c       $cppxdata$??__Estr_typename@@YAXXZ 0000000180031f0c     settings.obj
 0002:00012f0c       $cppxdata$??__Estr_typename@@YAXXZ 0000000180031f0c     timer.obj
 0002:00012f15       $stateUnwindMap$??__Estr_typename@@YAXXZ 0000000180031f15     SixMansPlugin-Rework.obj
 0002:00012f15       $stateUnwindMap$??__Estr_typename@@YAXXZ 0000000180031f15     SixMansPlugin-ReworkGUI.obj
 0002:00012f15       $stateUnwindMap$??1?$wrapexcept@Vsystem_error@system@boost@@@boost@@UEAA@XZ 0000000180031f15     privatematch_wrapper.obj
 0002:00012f15       $stateUnwindMap$??_G?$wrapexcept@Vsystem_error@system@boost@@@boost@@UEAAPEAXI@Z 0000000180031f15     privatematch_wrapper.obj
 0002:00012f15       $stateUnwindMap$??__Estr_typename@@YAXXZ 0000000180031f15     privatematch_wrapper.obj
 0002:00012f15       $stateUnwindMap$?unknown_message_win32@detail@system@boost@@YA?AV?$basic_string@DU?$char_traits@D@std@@V?$allocator@D@2@@std@@H@Z 0000000180031f15     privatematch_wrapper.obj
 0002:00012f15       $stateUnwindMap$??__Estr_typename@@YAXXZ 0000000180031f15     server.obj
 0002:00012f15       $stateUnwindMap$??__Estr_typename@@YAXXZ 0000000180031f15     settings.obj
 0002:00012f15       $stateUnwindMap$??__Estr_typename@@YAXXZ 0000000180031f15     timer.obj
 0002:00012f15       $stateUnwindMap$??__Finit_atexit@@YAXXZ 0000000180031f15     libcpmt:iosptrs.obj
 0002:00012f1b       $ip2state$??__Estr_typename@@YAXXZ 0000000180031f1b     SixMansPlugin-Rework.obj
 0002:00012f1b       $ip2state$??__Estr_typename@@YAXXZ 0000000180031f1b     SixMansPlugin-ReworkGUI.obj
 0002:00012f1b       $ip2state$??__Estr_typename@@YAXXZ 0000000180031f1b     privatematch_wrapper.obj
 0002:00012f1b       $ip2state$??__Estr_typename@@YAXXZ 0000000180031f1b     server.obj
 0002:00012f1b       $ip2state$??__Estr_typename@@YAXXZ 0000000180031f1b     settings.obj
 0002:00012f1b       $ip2state$??__Estr_typename@@YAXXZ 0000000180031f1b     timer.obj
 0002:00012f20       $unwind$?to_string@error_code@system@boost@@QEBA?AV?$basic_string@DU?$char_traits@D@std@@V?$allocator@D@2@@std@@XZ 0000000180031f20     privatematch_wrapper.obj
 0002:00012f3c       $cppxdata$?to_string@error_code@system@boost@@QEBA?AV?$basic_string@DU?$char_traits@D@std@@V?$allocator@D@2@@std@@XZ 0000000180031f3c     privatematch_wrapper.obj
 0002:00012f45       $stateUnwindMap$?to_string@error_code@system@boost@@QEBA?AV?$basic_string@DU?$char_traits@D@std@@V?$allocator@D@2@@std@@XZ 0000000180031f45     privatematch_wrapper.obj
 0002:00012f58       $ip2state$?to_string@error_code@system@boost@@QEBA?AV?$basic_string@DU?$char_traits@D@std@@V?$allocator@D@2@@std@@XZ 0000000180031f58     privatematch_wrapper.obj
 0002:00012f64       $unwind$?to_string@source_location@boost@@QEBA?AV?$basic_string@DU?$char_traits@D@std@@V?$allocator@D@2@@std@@XZ 0000000180031f64     privatematch_wrapper.obj
 0002:00012f84       $cppxdata$?to_string@source_location@boost@@QEBA?AV?$basic_string@DU?$char_traits@D@std@@V?$allocator@D@2@@std@@XZ 0000000180031f84     privatematch_wrapper.obj
 0002:00012f8d       $stateUnwindMap$?to_string@source_location@boost@@QEBA?AV?$basic_string@DU?$char_traits@D@std@@V?$allocator@D@2@@std@@XZ 0000000180031f8d     privatematch_wrapper.obj
 0002:00012f9f       $ip2state$?to_string@source_location@boost@@QEBA?AV?$basic_string@DU?$char_traits@D@std@@V?$allocator@D@2@@std@@XZ 0000000180031f9f     privatematch_wrapper.obj
 0002:00012fa8       $unwind$?what@error_code@system@boost@@QEBA?AV?$basic_string@DU?$char_traits@D@std@@V?$allocator@D@2@@std@@XZ 0000000180031fa8     privatematch_wrapper.obj
 0002:00012fbc       $cppxdata$?what@error_code@system@boost@@QEBA?AV?$basic_string@DU?$char_traits@D@std@@V?$allocator@D@2@@std@@XZ 0000000180031fbc     privatematch_wrapper.obj
 0002:00012fc5       $stateUnwindMap$?what@error_code@system@boost@@QEBA?AV?$basic_string@DU?$char_traits@D@std@@V?$allocator@D@2@@std@@XZ 0000000180031fc5     privatematch_wrapper.obj
 0002:00012fd1       $ip2state$?what@error_code@system@boost@@QEBA?AV?$basic_string@DU?$char_traits@D@std@@V?$allocator@D@2@@std@@XZ 0000000180031fd1     privatematch_wrapper.obj
 0002:00012fe0       $unwind$?dtor$0@?0??clone@?$wrapexcept@Vsystem_error@system@boost@@@boost@@UEBAPEBVclone_base@exception_detail@2@XZ@4HA 0000000180031fe0     privatematch_wrapper.obj
 0002:00012fe0       $unwind$?dtor$0@?0??what@error_code@system@boost@@QEBA?AV?$basic_string@DU?$char_traits@D@std@@V?$allocator@D@2@@std@@XZ@4HA 0000000180031fe0     privatematch_wrapper.obj
 0002:00012fe0       $unwind$?dtor$2@?0???0system_error@system@boost@@QEAA@AEBVerror_code@12@PEBD@Z@4HA 0000000180031fe0     privatematch_wrapper.obj
 0002:00012fe0       $unwind$_query_new_handler$fin$0 0000000180031fe0     libucrt:new_handler.obj
 0002:00012fe0       $unwind$?fin$0@?0???$?RV<lambda_0ae27a3a962d80f24befdcbee591983d>@@AEAV<lambda_8d0ee55de4b1038c4002e0adecdf1839>@@V<lambda_dc504788e8f1664fe9b84e20bfb512f2>@@@?$__crt_seh_guarded_call@X@@QEAAX$$QEAV<lambda_0ae27a3a962d80f24befdcbee591983d>@@AEAV<lambda_8d0ee55de4b1038c4002e0adecdf1839>@@$$QEAV<lambda_dc504788e8f1664fe9b84e20bfb512f2>@@@Z@4HA 0000000180031fe0     libucrt:per_thread_data.obj
 0002:00012fe0       $unwind$?fin$0@?0???$?RV<lambda_2d41944a1d46af3157314b8a01080d33>@@AEAV<lambda_8f455de75cd7d7f24b4096f044d8b9e6>@@V<lambda_aa500f224e6afead328df44964fe2772>@@@?$__crt_seh_guarded_call@X@@QEAAX$$QEAV<lambda_2d41944a1d46af3157314b8a01080d33>@@AEAV<lambda_8f455de75cd7d7f24b4096f044d8b9e6>@@$$QEAV<lambda_aa500f224e6afead328df44964fe2772>@@@Z@4HA 0000000180031fe0     libucrt:per_thread_data.obj
 0002:00012fe0       $unwind$?fin$0@?0???$?RV<lambda_aa87e3671a710a21b5dc78c0bdf72e11>@@AEAV<lambda_92619d2358a28f41a33ba319515a20b9>@@V<lambda_6992ecaafeb10aed2b74cb1fae11a551>@@@?$__crt_seh_guarded_call@X@@QEAAX$$QEAV<lambda_aa87e3671a710a21b5dc78c0bdf72e11>@@AEAV<lambda_92619d2358a28f41a33ba319515a20b9>@@$$QEAV<lambda_6992ecaafeb10aed2b74cb1fae11a551>@@@Z@4HA 0000000180031fe0     libucrt:per_thread_data.obj
 0002:00012fe0       $unwind$?fin$0@?0???$?RV<lambda_f2e299630e499de9f9a165e60fcd3db5>@@AEAV<lambda_2ae9d31cdba2644fcbeaf08da7c24588>@@V<lambda_40d01ff24d0e7b3814fdbdcee8eab3c7>@@@?$__crt_seh_guarded_call@X@@QEAAX$$QEAV<lambda_f2e299630e499de9f9a165e60fcd3db5>@@AEAV<lambda_2ae9d31cdba2644fcbeaf08da7c24588>@@$$QEAV<lambda_40d01ff24d0e7b3814fdbdcee8eab3c7>@@@Z@4HA 0000000180031fe0     libucrt:per_thread_data.obj
 0002:00012fe0       $unwind$__acrt_update_thread_locale_data$fin$0 0000000180031fe0     libucrt:locale_refcounting.obj
 0002:00012fe0       $unwind$?fin$0@?0???$?RV<lambda_410d79af7f07d98d83a3f525b3859a53>@@AEAV<lambda_3e16ef9562a7dcce91392c22ab16ea36>@@V<lambda_38119f0e861e05405d8a144b9b982f0a>@@@?$__crt_seh_guarded_call@X@@QEAAX$$QEAV<lambda_410d79af7f07d98d83a3f525b3859a53>@@AEAV<lambda_3e16ef9562a7dcce91392c22ab16ea36>@@$$QEAV<lambda_38119f0e861e05405d8a144b9b982f0a>@@@Z@4HA 0000000180031fe0     libucrt:wsetlocale.obj
 0002:00012fe0       $unwind$?fin$0@?0???$?RV<lambda_751a882b2c74d4b022dec766aa51a29a>@@AEAV<lambda_628dfdc04ba53c8bfc02c9951375f3f5>@@V<lambda_f6c7be5f7998530c34de24c7437d6b54>@@@?$__crt_seh_guarded_call@H@@QEAAH$$QEAV<lambda_751a882b2c74d4b022dec766aa51a29a>@@AEAV<lambda_628dfdc04ba53c8bfc02c9951375f3f5>@@$$QEAV<lambda_f6c7be5f7998530c34de24c7437d6b54>@@@Z@4HA 0000000180031fe0     libucrt:close.obj
 0002:00012fe0       $unwind$?fin$0@?0???$?RV<lambda_a37b2b86f63e897a80ea819b0eb08c01>@@AEAV<lambda_38ce7e780aa69e748d6df282ebc68efe>@@V<lambda_99fb1378e971ab6e7edea83e3a7a83a2>@@@?$__crt_seh_guarded_call@H@@QEAAH$$QEAV<lambda_a37b2b86f63e897a80ea819b0eb08c01>@@AEAV<lambda_38ce7e780aa69e748d6df282ebc68efe>@@$$QEAV<lambda_99fb1378e971ab6e7edea83e3a7a83a2>@@@Z@4HA 0000000180031fe0     libucrt:commit.obj
 0002:00012fe0       $unwind$__acrt_initialize_lowio$fin$0 0000000180031fe0     libucrt:ioinit.obj
 0002:00012fe0       $unwind$__acrt_lowio_ensure_fh_exists$fin$0 0000000180031fe0     libucrt:osfinfo.obj
 0002:00012fe0       $unwind$_write$fin$0       0000000180031fe0     libucrt:write.obj
 0002:00012fe0       $unwind$?fin$0@?0???$?RV<lambda_efdfa57d1f175319df784efa44bb7b81>@@AEAV<lambda_5f0a4c1567f8adc6734073e5d1e1b35c>@@V<lambda_2e8a7d3640ea6ccb4c2413664c2db6fd>@@@?$__crt_seh_guarded_call@X@@QEAAX$$QEAV<lambda_efdfa57d1f175319df784efa44bb7b81>@@AEAV<lambda_5f0a4c1567f8adc6734073e5d1e1b35c>@@$$QEAV<lambda_2e8a7d3640ea6ccb4c2413664c2db6fd>@@@Z@4HA 0000000180031fe0     libucrt:mbctype.obj
 0002:00012fe0       $unwind$?fin$0@?0??update_thread_multibyte_data_internal@@YAPEAU__crt_multibyte_data@@QEAU__acrt_ptd@@QEAPEAU1@@Z@4HA 0000000180031fe0     libucrt:mbctype.obj
 0002:00012fe0       $unwind$?fin$0@?0???$?RV<lambda_450d765d439847d4c735a33c368b5fc0>@@AEAV<lambda_44731a7d0e6d81c3e6aa82d741081786>@@V<lambda_601a2a7da3b7a96e9554ac7215c4b07c>@@@?$__crt_seh_guarded_call@P6AXH@Z@@QEAAP6AXH@Z$$QEAV<lambda_450d765d439847d4c735a33c368b5fc0>@@AEAV<lambda_44731a7d0e6d81c3e6aa82d741081786>@@$$QEAV<lambda_601a2a7da3b7a96e9554ac7215c4b07c>@@@Z@4HA 0000000180031fe0     libucrt:signal.obj
 0002:00012fe0       $unwind$raise$fin$0        0000000180031fe0     libucrt:signal.obj
 0002:00012fe0       $unwind$?filt$0@?0???R<lambda_6e4b09c48022b2350581041d5f6b0c4c>@@QEBA@XZ@4HA 0000000180031fe0     libucrt:exit.obj
 0002:00012fe0       $unwind$?fin$0@?0???$?RV<lambda_d80eeec6fff315bfe5c115232f3240e3>@@AEAV<lambda_6e4b09c48022b2350581041d5f6b0c4c>@@V<lambda_2358e3775559c9db80273638284d5e45>@@@?$__crt_seh_guarded_call@X@@QEAAX$$QEAV<lambda_d80eeec6fff315bfe5c115232f3240e3>@@AEAV<lambda_6e4b09c48022b2350581041d5f6b0c4c>@@$$QEAV<lambda_2358e3775559c9db80273638284d5e45>@@@Z@4HA 0000000180031fe0     libucrt:exit.obj
 0002:00012fe0       $unwind$?fin$0@?0???$?RV<lambda_638799b9deba96c50f710eeac98168cd>@@AEAV<lambda_22ebabd17bc4fa466a2aca6d8deb888d>@@V<lambda_a6f7d7db0129f75315ebf26d50c089f1>@@@?$__crt_seh_guarded_call@H@@QEAAH$$QEAV<lambda_638799b9deba96c50f710eeac98168cd>@@AEAV<lambda_22ebabd17bc4fa466a2aca6d8deb888d>@@$$QEAV<lambda_a6f7d7db0129f75315ebf26d50c089f1>@@@Z@4HA 0000000180031fe0     libucrt:onexit.obj
 0002:00012fe0       $unwind$?fin$0@?0???$?RV<lambda_7777bce6b2f8c936911f934f8298dc43>@@AEAV<lambda_f03950bc5685219e0bcd2087efbe011e>@@V<lambda_3883c3dff614d5e0c5f61bb1ac94921c>@@@?$__crt_seh_guarded_call@H@@QEAAH$$QEAV<lambda_7777bce6b2f8c936911f934f8298dc43>@@AEAV<lambda_f03950bc5685219e0bcd2087efbe011e>@@$$QEAV<lambda_3883c3dff614d5e0c5f61bb1ac94921c>@@@Z@4HA 0000000180031fe0     libucrt:onexit.obj
 0002:00012fe0       $unwind$_fcloseall$fin$0   0000000180031fe0     libucrt:closeall.obj
 0002:00012fe0       $unwind$fclose$fin$0       0000000180031fe0     libucrt:fclose.obj
 0002:00012fe0       $unwind$?fin$0@?0???$?RV<lambda_842d9ff0dc9ef11c61343bbaebe7f885>@@AEAV<lambda_c5860995281e5c4ce005b3de8f5874ee>@@V<lambda_d90129c13df834fdcbf8d2b88dafcf2d>@@@?$__crt_seh_guarded_call@X@@QEAAX$$QEAV<lambda_842d9ff0dc9ef11c61343bbaebe7f885>@@AEAV<lambda_c5860995281e5c4ce005b3de8f5874ee>@@$$QEAV<lambda_d90129c13df834fdcbf8d2b88dafcf2d>@@@Z@4HA 0000000180031fe0     libucrt:fflush.obj
 0002:00012fe0       $unwind$?fin$0@?0???$?RV<lambda_886d6c58226a84441f68b9f2b8217b83>@@AEAV<lambda_ab61a845afdef5b7c387490eaf3616ee>@@V<lambda_f7f22ab5edc0698d5f6905b0d3f44752>@@@?$__crt_seh_guarded_call@X@@QEAAX$$QEAV<lambda_886d6c58226a84441f68b9f2b8217b83>@@AEAV<lambda_ab61a845afdef5b7c387490eaf3616ee>@@$$QEAV<lambda_f7f22ab5edc0698d5f6905b0d3f44752>@@@Z@4HA 0000000180031fe0     libucrt:fflush.obj
 0002:00012fe0       $unwind$_ctrlfp$filt$0     0000000180031fe0     libucrt:fpctrl.obj
 0002:00012fe0       $unwind$common_control87$filt$0 0000000180031fe0     libucrt:ieee.obj
 0002:00012fe0       $unwind$?fin$0@?0??dllmain_crt_process_attach@@YAHQEAUHINSTANCE__@@QEAX@Z@4HA 0000000180031fe0     LIBCMT:dll_dllmain.obj
 0002:00012fe0       $unwind$?fin$0@?0??dllmain_crt_process_detach@@YAH_N@Z@4HA 0000000180031fe0     LIBCMT:dll_dllmain.obj
 0002:00012fe0       $unwind$?fin$1@?0??dllmain_crt_process_detach@@YAH_N@Z@4HA 0000000180031fe0     LIBCMT:dll_dllmain.obj
 0002:00012fe0       $unwind$?fin$0@?0???_M@YAXPEAX_K1P6AX0@Z@Z@4HA 0000000180031fe0     LIBCMT:ehvecdtr.obj
 0002:00012fe0       $unwind$_IsNonwritableInCurrentImage$filt$0 0000000180031fe0     LIBCMT:pesect.obj
 0002:00012fe0       $unwind$?filt$0@?0??CxxCallCatchBlock@__FrameHandler4@@SAPEAXPEAU_EXCEPTION_RECORD@@@Z@4HA 0000000180031fe0     libvcruntime:frame.obj
 0002:00012fe8       $unwind$??0system_error@system@boost@@QEAA@AEBVerror_code@12@PEBD@Z 0000000180031fe8     privatematch_wrapper.obj
 0002:00012ffc       $cppxdata$??0system_error@system@boost@@QEAA@AEBVerror_code@12@PEBD@Z 0000000180031ffc     privatematch_wrapper.obj
 0002:00013005       $stateUnwindMap$??0system_error@system@boost@@QEAA@AEBVerror_code@12@PEBD@Z 0000000180032005     privatematch_wrapper.obj
 0002:00013016       $ip2state$??0system_error@system@boost@@QEAA@AEBVerror_code@12@PEBD@Z 0000000180032016     privatematch_wrapper.obj
 0002:00013020       $unwind$??1?$wrapexcept@Vsystem_error@system@boost@@@boost@@UEAA@XZ 0000000180032020     privatematch_wrapper.obj
 0002:00013030       $cppxdata$??1?$wrapexcept@Vsystem_error@system@boost@@@boost@@UEAA@XZ 0000000180032030     privatematch_wrapper.obj
 0002:00013039       $ip2state$??1?$wrapexcept@Vsystem_error@system@boost@@@boost@@UEAA@XZ 0000000180032039     privatematch_wrapper.obj
 0002:0001303c       $unwind$??_G?$wrapexcept@Vsystem_error@system@boost@@@boost@@UEAAPEAXI@Z 000000018003203c     privatematch_wrapper.obj
 0002:00013050       $cppxdata$??_G?$wrapexcept@Vsystem_error@system@boost@@@boost@@UEAAPEAXI@Z 0000000180032050     privatematch_wrapper.obj
 0002:00013059       $ip2state$??_G?$wrapexcept@Vsystem_error@system@boost@@@boost@@UEAAPEAXI@Z 0000000180032059     privatematch_wrapper.obj
 0002:00013059       $ip2state$??__Finit_atexit@@YAXXZ 0000000180032059     libcpmt:iosptrs.obj
 0002:0001305c       $unwind$?clone@?$wrapexcept@Vsystem_error@system@boost@@@boost@@UEBAPEBVclone_base@exception_detail@2@XZ 000000018003205c     privatematch_wrapper.obj
 0002:00013070       $cppxdata$?clone@?$wrapexcept@Vsystem_error@system@boost@@@boost@@UEBAPEBVclone_base@exception_detail@2@XZ 0000000180032070     privatematch_wrapper.obj
 0002:00013079       $stateUnwindMap$?clone@?$wrapexcept@Vsystem_error@system@boost@@@boost@@UEBAPEBVclone_base@exception_detail@2@XZ 0000000180032079     privatematch_wrapper.obj
 0002:00013085       $ip2state$?clone@?$wrapexcept@Vsystem_error@system@boost@@@boost@@UEBAPEBVclone_base@exception_detail@2@XZ 0000000180032085     privatematch_wrapper.obj
 0002:0001308c       $unwind$??$throw_exception@Vsystem_error@system@boost@@@boost@@YAXAEBVsystem_error@system@0@@Z 000000018003208c     privatematch_wrapper.obj
 0002:0001308c       $unwind$?rethrow@?$wrapexcept@Vsystem_error@system@boost@@@boost@@UEBAXXZ 000000018003208c     privatematch_wrapper.obj
 0002:00013094       $unwind$??0?$wrapexcept@Vsystem_error@system@boost@@@boost@@QEAA@AEBU01@@Z 0000000180032094     privatematch_wrapper.obj
 0002:000130a8       $cppxdata$??0?$wrapexcept@Vsystem_error@system@boost@@@boost@@QEAA@AEBU01@@Z 00000001800320a8     privatematch_wrapper.obj
 0002:000130b1       $stateUnwindMap$??0?$wrapexcept@Vsystem_error@system@boost@@@boost@@QEAA@AEBU01@@Z 00000001800320b1     privatematch_wrapper.obj
 0002:000130bd       $ip2state$??0?$wrapexcept@Vsystem_error@system@boost@@@boost@@QEAA@AEBU01@@Z 00000001800320bd     privatematch_wrapper.obj
 0002:000130c0       $unwind$?do_throw_error@detail@asio@boost@@YAXAEBVerror_code@system@3@PEBD@Z 00000001800320c0     privatematch_wrapper.obj
 0002:000130d4       $cppxdata$?do_throw_error@detail@asio@boost@@YAXAEBVerror_code@system@3@PEBD@Z 00000001800320d4     privatematch_wrapper.obj
 0002:000130dd       $stateUnwindMap$?do_throw_error@detail@asio@boost@@YAXAEBVerror_code@system@3@PEBD@Z 00000001800320dd     privatematch_wrapper.obj
 0002:000130e4       $ip2state$?do_throw_error@detail@asio@boost@@YAXAEBVerror_code@system@3@PEBD@Z 00000001800320e4     privatematch_wrapper.obj
 0002:000130ec       $unwind$?copy_boost_exception@exception_detail@boost@@YAXPEAVexception@2@PEBV32@@Z 00000001800320ec     privatematch_wrapper.obj
 0002:00013108       $cppxdata$?copy_boost_exception@exception_detail@boost@@YAXPEAVexception@2@PEBV32@@Z 0000000180032108     privatematch_wrapper.obj
 0002:00013111       $stateUnwindMap$?copy_boost_exception@exception_detail@boost@@YAXPEAVexception@2@PEBV32@@Z 0000000180032111     privatematch_wrapper.obj
 0002:00013128       $ip2state$?copy_boost_exception@exception_detail@boost@@YAXPEAVexception@2@PEBV32@@Z 0000000180032128     privatematch_wrapper.obj
 0002:00013138       $unwind$??1?$refcount_ptr@Uerror_info_container@exception_detail@boost@@@exception_detail@boost@@QEAA@XZ 0000000180032138     privatematch_wrapper.obj
 0002:00013148       $cppxdata$??1?$refcount_ptr@Uerror_info_container@exception_detail@boost@@@exception_detail@boost@@QEAA@XZ 0000000180032148     privatematch_wrapper.obj
 0002:0001314d       $ip2state$??1?$refcount_ptr@Uerror_info_container@exception_detail@boost@@@exception_detail@boost@@QEAA@XZ 000000018003214d     privatematch_wrapper.obj
 0002:00013150       $unwind$?win_tss_ptr_create@detail@asio@boost@@YAKXZ 0000000180032150     privatematch_wrapper.obj
 0002:00013164       $chain$0$?win_tss_ptr_create@detail@asio@boost@@YAKXZ 0000000180032164     privatematch_wrapper.obj
 0002:00013178       $chain$1$?win_tss_ptr_create@detail@asio@boost@@YAKXZ 0000000180032178     privatematch_wrapper.obj
 0002:00013188       $unwind$?equivalent@error_category@system@boost@@UEBA_NHAEBVerror_condition@23@@Z 0000000180032188     privatematch_wrapper.obj
 0002:00013188       $unwind$?message@system_error_category@detail@system@boost@@UEBA?AV?$basic_string@DU?$char_traits@D@std@@V?$allocator@D@2@@std@@H@Z 0000000180032188     privatematch_wrapper.obj
 0002:00013188       $unwind$?__mbrtowc_utf8@__crt_mbstring@@YA_KPEA_WPEBD_KPEAU_Mbstatet@@@Z 0000000180032188     libucrt:mbrtowc.obj
 0002:00013188       $unwind$?type_case_c_tchar@?$output_processor@DV?$string_output_adapter@D@__crt_stdio_output@@V?$standard_base@DV?$string_output_adapter@D@__crt_stdio_output@@@2@@__crt_stdio_output@@AEAA_ND@Z 0000000180032188     libucrt:output.obj
 0002:00013190       $unwind$?message@system_error_category@detail@system@boost@@UEBAPEBDHPEAD_K@Z 0000000180032190     privatematch_wrapper.obj
 0002:00013190       $unwind$capture_previous_context 0000000180032190     LIBCMT:gs_report.obj
 0002:0001319c       $chain$0$?assign@?$basic_string@DU?$char_traits@D@std@@V?$allocator@D@2@@std@@QEAAAEAV12@_KD@Z 000000018003219c     privatematch_wrapper.obj
 0002:000131b0       $chain$2$?assign@?$basic_string@DU?$char_traits@D@std@@V?$allocator@D@2@@std@@QEAAAEAV12@_KD@Z 00000001800321b0     privatematch_wrapper.obj
 0002:000131c4       $chain$3$?assign@?$basic_string@DU?$char_traits@D@std@@V?$allocator@D@2@@std@@QEAAAEAV12@_KD@Z 00000001800321c4     privatematch_wrapper.obj
 0002:000131d4       $unwind$?snprintf@detail@system@boost@@YAXPEAD_KPEBDZZ 00000001800321d4     privatematch_wrapper.obj
 0002:000131e4       $unwind$?unknown_message_win32@detail@system@boost@@YA?AV?$basic_string@DU?$char_traits@D@std@@V?$allocator@D@2@@std@@H@Z 00000001800321e4     privatematch_wrapper.obj
 0002:000131fc       $cppxdata$?unknown_message_win32@detail@system@boost@@YA?AV?$basic_string@DU?$char_traits@D@std@@V?$allocator@D@2@@std@@H@Z 00000001800321fc     privatematch_wrapper.obj
 0002:00013205       $ip2state$?unknown_message_win32@detail@system@boost@@YA?AV?$basic_string@DU?$char_traits@D@std@@V?$allocator@D@2@@std@@H@Z 0000000180032205     privatematch_wrapper.obj
 0002:00013208       $unwind$?system_category_message_win32@detail@system@boost@@YA?AV?$basic_string@DU?$char_traits@D@std@@V?$allocator@D@2@@std@@H@Z 0000000180032208     privatematch_wrapper.obj
 0002:00013228       $cppxdata$?system_category_message_win32@detail@system@boost@@YA?AV?$basic_string@DU?$char_traits@D@std@@V?$allocator@D@2@@std@@H@Z 0000000180032228     privatematch_wrapper.obj
 0002:00013231       $stateUnwindMap$?system_category_message_win32@detail@system@boost@@YA?AV?$basic_string@DU?$char_traits@D@std@@V?$allocator@D@2@@std@@H@Z 0000000180032231     privatematch_wrapper.obj
 0002:00013249       $ip2state$?system_category_message_win32@detail@system@boost@@YA?AV?$basic_string@DU?$char_traits@D@std@@V?$allocator@D@2@@std@@H@Z 0000000180032249     privatematch_wrapper.obj
 0002:00013258       $unwind$??__EMAP_CODENAMES@@YAXXZ 0000000180032258     server.obj
 0002:00013268       $cppxdata$??__EMAP_CODENAMES@@YAXXZ 0000000180032268     server.obj
 0002:00013271       $stateUnwindMap$??__EMAP_CODENAMES@@YAXXZ 0000000180032271     server.obj
 0002:000133cc       $unwind$??__EMAP_CODENAMES@@YAXXZ 00000001800323cc     settings.obj
 0002:000133dc       $cppxdata$??__EMAP_CODENAMES@@YAXXZ 00000001800323dc     settings.obj
 0002:000133e5       $stateUnwindMap$??__EMAP_CODENAMES@@YAXXZ 00000001800323e5     settings.obj
 0002:00013540       $unwind$??__EMAP_CODENAMES@@YAXXZ 0000000180032540     SixMansPlugin-Rework.obj
 0002:00013550       $cppxdata$??__EMAP_CODENAMES@@YAXXZ 0000000180032550     SixMansPlugin-Rework.obj
 0002:00013559       $stateUnwindMap$??__EMAP_CODENAMES@@YAXXZ 0000000180032559     SixMansPlugin-Rework.obj
 0002:000136b4       $chain$0$??__Fsingleton@@YAXXZ 00000001800326b4     SixMansPlugin-Rework.obj
 0002:000136c8       $chain$1$??__Fsingleton@@YAXXZ 00000001800326c8     SixMansPlugin-Rework.obj
 0002:000136d8       $chain$0$getPlugin         00000001800326d8     SixMansPlugin-Rework.obj
 0002:000136ec       $chain$1$getPlugin         00000001800326ec     SixMansPlugin-Rework.obj
 0002:00013700       $chain$2$getPlugin         0000000180032700     SixMansPlugin-Rework.obj
 0002:00013710       $chain$3$getPlugin         0000000180032710     SixMansPlugin-Rework.obj
 0002:00013720       $chain$0$deleteMe          0000000180032720     SixMansPlugin-Rework.obj
 0002:00013734       $chain$1$deleteMe          0000000180032734     SixMansPlugin-Rework.obj
 0002:00013748       $chain$2$deleteMe          0000000180032748     SixMansPlugin-Rework.obj
 0002:00013758       $chain$3$deleteMe          0000000180032758     SixMansPlugin-Rework.obj
 0002:00013768       $chain$0$??__F_globalCvarManager@@YAXXZ 0000000180032768     SixMansPlugin-Rework.obj
 0002:0001377c       $chain$1$??__F_globalCvarManager@@YAXXZ 000000018003277c     SixMansPlugin-Rework.obj
 0002:0001378c       $unwind$??4?$shared_ptr@VCVarManagerWrapper@@@std@@QEAAAEAV01@AEBV01@@Z 000000018003278c     SixMansPlugin-Rework.obj
 0002:0001378c       $unwind$?onLoad@SixMansPlugin@@EEAAXXZ 000000018003278c     SixMansPlugin-Rework.obj
 0002:0001378c       $unwind$??4BakkesModPlugin@Plugin@BakkesMod@@QEAAAEAV012@AEBV012@@Z 000000018003278c     pch.obj
 0002:00013798       $chain$0$?onLoad@SixMansPlugin@@EEAAXXZ 0000000180032798     SixMansPlugin-Rework.obj
 0002:000137ac       $chain$1$?onLoad@SixMansPlugin@@EEAAXXZ 00000001800327ac     SixMansPlugin-Rework.obj
 0002:000137bc       $chain$0$??4?$shared_ptr@VCVarManagerWrapper@@@std@@QEAAAEAV01@AEBV01@@Z 00000001800327bc     SixMansPlugin-Rework.obj
 0002:000137d0       $chain$1$??4?$shared_ptr@VCVarManagerWrapper@@@std@@QEAAAEAV01@AEBV01@@Z 00000001800327d0     SixMansPlugin-Rework.obj
 0002:000137e0       $unwind$??1BakkesModPlugin@Plugin@BakkesMod@@QEAA@XZ 00000001800327e0     SixMansPlugin-Rework.obj
 0002:000137e0       $unwind$memcpy_s           00000001800327e0     libucrt:cfout.obj
 0002:000137e0       $unwind$__acrt_getptd      00000001800327e0     libucrt:per_thread_data.obj
 0002:000137e0       $unwind$__acrt_getptd_noexit 00000001800327e0     libucrt:per_thread_data.obj
 0002:000137e0       $unwind$__acrt_execute_initializers 00000001800327e0     libucrt:shared_initialization.obj
 0002:000137e0       $unwind$__acrt_InitializeCriticalSectionEx 00000001800327e0     libucrt:winapi_thunks.obj
 0002:000137e0       $unwind$?free_crt_array_internal@@YAXQEAPEBX_K@Z 00000001800327e0     libucrt:inittime.obj
 0002:000137e0       $unwind$??$common_lseek_nolock@_J@@YA_JH_JH@Z 00000001800327e0     libucrt:lseek.obj
 0002:000137e0       $unwind$__acrt_stdio_flush_nolock 00000001800327e0     libucrt:fflush.obj
 0002:000137e0       $unwind$memcpy_s           00000001800327e0     libucrt:input.obj
 0002:000137e0       $unwind$??0_LocaleUpdate@@QEAA@QEAU__crt_locale_pointers@@@Z 00000001800327e0     libucrt:output.obj
 0002:000137e0       $unwind$_exception_enabled 00000001800327e0     libucrt:libm_error.obj
 0002:000137e0       $unwind$_DllMainCRTStartup 00000001800327e0     LIBCMT:dll_dllmain.obj
 0002:000137e0       $unwind$__vcrt_getptd_noexit 00000001800327e0     libvcruntime:per_thread_data.obj
 0002:000137e0       $unwind$__vcrt_InitializeCriticalSectionEx 00000001800327e0     libvcruntime:winapi_downlevel.obj
 0002:000137f0       $unwind$??__EMAP_CODENAMES@@YAXXZ 00000001800327f0     SixMansPlugin-ReworkGUI.obj
 0002:00013800       $cppxdata$??__EMAP_CODENAMES@@YAXXZ 0000000180032800     SixMansPlugin-ReworkGUI.obj
 0002:00013809       $stateUnwindMap$??__EMAP_CODENAMES@@YAXXZ 0000000180032809     SixMansPlugin-ReworkGUI.obj
 0002:00013964       $unwind$??__EMAP_CODENAMES@@YAXXZ 0000000180032964     timer.obj
 0002:00013974       $cppxdata$??__EMAP_CODENAMES@@YAXXZ 0000000180032974     timer.obj
 0002:0001397d       $stateUnwindMap$??__EMAP_CODENAMES@@YAXXZ 000000018003297d     timer.obj
 0002:00013ad8       $chain$0$??4BakkesModPlugin@Plugin@BakkesMod@@QEAAAEAV012@AEBV012@@Z 0000000180032ad8     pch.obj
 0002:00013aec       $chain$1$??4BakkesModPlugin@Plugin@BakkesMod@@QEAAAEAV012@AEBV012@@Z 0000000180032aec     pch.obj
 0002:00013afc       $unwind$??4BakkesModPlugin@Plugin@BakkesMod@@QEAAAEAV012@$$QEAV012@@Z 0000000180032afc     pch.obj
 0002:00013b14       $unwind$??__Ewinsock_init_instance@detail@asio@boost@@YAXXZ 0000000180032b14     pch.obj
 0002:00013b24       $unwind$??0bad_exception@std@@QEAA@XZ 0000000180032b24     libcpmt:excptptr.obj
 0002:00013b30       $cppxdata$??0bad_exception@std@@QEAA@XZ 0000000180032b30     libcpmt:excptptr.obj
 0002:00013b39       $stateUnwindMap$??0bad_exception@std@@QEAA@XZ 0000000180032b39     libcpmt:excptptr.obj
 0002:00013b40       $ip2state$??0bad_exception@std@@QEAA@XZ 0000000180032b40     libcpmt:excptptr.obj
 0002:00013b48       $unwind$??1bad_exception@std@@UEAA@XZ 0000000180032b48     libcpmt:excptptr.obj
 0002:00013b58       $cppxdata$??1bad_exception@std@@UEAA@XZ 0000000180032b58     libcpmt:excptptr.obj
 0002:00013b58       $cppxdata$??_Gbad_exception@std@@UEAAPEAXI@Z 0000000180032b58     libcpmt:excptptr.obj
 0002:00013b61       $stateUnwindMap$??0bad_exception@std@@QEAA@AEBV01@@Z 0000000180032b61     libcpmt:excptptr.obj
 0002:00013b61       $stateUnwindMap$??1bad_exception@std@@UEAA@XZ 0000000180032b61     libcpmt:excptptr.obj
 0002:00013b61       $stateUnwindMap$??_Gbad_exception@std@@UEAAPEAXI@Z 0000000180032b61     libcpmt:excptptr.obj
 0002:00013b68       $ip2state$??1bad_exception@std@@UEAA@XZ 0000000180032b68     libcpmt:excptptr.obj
 0002:00013b68       $ip2state$??_Gbad_exception@std@@UEAAPEAXI@Z 0000000180032b68     libcpmt:excptptr.obj
 0002:00013b6c       $unwind$??0bad_exception@std@@QEAA@AEBV01@@Z 0000000180032b6c     libcpmt:excptptr.obj
 0002:00013b7c       $cppxdata$??0bad_exception@std@@QEAA@AEBV01@@Z 0000000180032b7c     libcpmt:excptptr.obj
 0002:00013b85       $ip2state$??0bad_exception@std@@QEAA@AEBV01@@Z 0000000180032b85     libcpmt:excptptr.obj
 0002:00013b8c       $unwind$??_Gbad_exception@std@@UEAAPEAXI@Z 0000000180032b8c     libcpmt:excptptr.obj
 0002:00013ba0       $unwind$??__Finit_atexit@@YAXXZ 0000000180032ba0     libcpmt:iosptrs.obj
 0002:00013bb0       $cppxdata$??__Finit_atexit@@YAXXZ 0000000180032bb0     libcpmt:iosptrs.obj
 0002:00013bc0       $xdatasym                  0000000180032bc0     LIBCMT:amdsecgs.obj
 0002:00013bc4       $unwind$??_M@YAXPEAX_K1P6AX0@Z@Z 0000000180032bc4     LIBCMT:ehvecdtr.obj
 0002:00013bec       $unwind$?__ArrayUnwind@@YAXPEAX_K1P6AX0@Z@Z 0000000180032bec     LIBCMT:ehvecdtr.obj
 0002:00013c18       $unwind$?filt$0@?0??__ArrayUnwind@@YAXPEAX_K1P6AX0@Z@Z@4HA 0000000180032c18     LIBCMT:ehvecdtr.obj
 0002:00013c18       $unwind$__DestructExceptionObject$filt$0 0000000180032c18     libvcruntime:ehhelpers.obj
 0002:00013c18       $unwind$?fin$1@?0??CxxCallCatchBlock@__FrameHandler4@@SAPEAXPEAU_EXCEPTION_RECORD@@@Z@4HA 0000000180032c18     libvcruntime:frame.obj
 0002:00013c24       $unwind$__scrt_is_nonwritable_in_current_image 0000000180032c24     LIBCMT:utility.obj
 0002:00013c44       $unwind$__scrt_is_nonwritable_in_current_image$filt$0 0000000180032c44     LIBCMT:utility.obj
 0002:00013c4c       $unwind$_recalloc_base     0000000180032c4c     libucrt:recalloc.obj
 0002:00013c4c       $unwind$__acrt_free_locale 0000000180032c4c     libucrt:locale_refcounting.obj
 0002:00013c4c       $unwind$__acrt_lowio_create_handle_array 0000000180032c4c     libucrt:osfinfo.obj
 0002:00013c4c       $unwind$?setSBCS@@YAXPEAU__crt_multibyte_data@@@Z 0000000180032c4c     libucrt:mbctype.obj
 0002:00013c4c       $unwind$_seh_filter_exe    0000000180032c4c     libucrt:exception_filter.obj
 0002:00013c4c       $unwind$_initterm          0000000180032c4c     libucrt:initterm.obj
 0002:00013c4c       $unwind$_ischartype_l      0000000180032c4c     libucrt:input.obj
 0002:00013c4c       $unwind$??$ensure_buffer_is_big_enough@D@formatting_buffer@__crt_stdio_output@@QEAA_N_K@Z 0000000180032c4c     libucrt:output.obj
 0002:00013c4c       $unwind$__scrt_dllmain_exception_filter 0000000180032c4c     LIBCMT:utility.obj
 0002:00013c4c       $unwind$?Is_bad_exception_allowed@@YAEPEBU_s_ESTypeList@@@Z 0000000180032c4c     libvcruntime:frame.obj
 0002:00013c60       $unwind$__report_securityfailure 0000000180032c60     LIBCMT:gs_report.obj
 0002:00013c68       $unwind$__report_gsfailure 0000000180032c68     LIBCMT:gs_report.obj
 0002:00013c70       $unwind$capture_current_context 0000000180032c70     LIBCMT:gs_report.obj
 0002:00013c7c       $unwind$?dllmain_crt_process_attach@@YAHQEAUHINSTANCE__@@QEAX@Z 0000000180032c7c     LIBCMT:dll_dllmain.obj
 0002:00013cb8       $unwind$?dllmain_crt_process_detach@@YAH_N@Z 0000000180032cb8     LIBCMT:dll_dllmain.obj
 0002:00013d0c       $unwind$?dllmain_dispatch@@YAHQEAUHINSTANCE__@@KQEAX@Z 0000000180032d0c     LIBCMT:dll_dllmain.obj
 0002:00013d34       $unwind$?filt$0@?0??dllmain_dispatch@@YAHQEAUHINSTANCE__@@KQEAX@Z@4HA 0000000180032d34     LIBCMT:dll_dllmain.obj
 0002:00013d34       $unwind$?filt$0@?0??FrameUnwindToState@__FrameHandler4@@SAXPEA_KPEAU_xDISPATCHER_CONTEXT@@PEAUFuncInfo4@FH4@@H@Z@4HA 0000000180032d34     libvcruntime:frame.obj
 0002:00013d34       $unwind$?fin$1@?0??FrameUnwindToState@__FrameHandler4@@SAXPEA_KPEAU_xDISPATCHER_CONTEXT@@PEAUFuncInfo4@FH4@@H@Z@4HA 0000000180032d34     libvcruntime:frame.obj
 0002:00013d3c       $unwind$__GSHandlerCheckCommon 0000000180032d3c     LIBCMT:gshandler.obj
 0002:00013d44       $unwind$?initialize_stdio_handles_nolock@@YAXXZ 0000000180032d44     libucrt:ioinit.obj
 0002:00013d44       $unwind$__acrt_initialize_stdio 0000000180032d44     libucrt:_file.obj
 0002:00013d44       $unwind$?type_case_integer@?$output_processor@DV?$string_output_adapter@D@__crt_stdio_output@@V?$standard_base@DV?$string_output_adapter@D@__crt_stdio_output@@@2@@__crt_stdio_output@@AEAA_NI_N@Z 0000000180032d44     libucrt:output.obj
 0002:00013d44       $unwind$__GSHandlerCheck_EH4 0000000180032d44     LIBCMT:gshandlereh4.obj
 0002:00013d44       $unwind$__GSHandlerCheck_SEH 0000000180032d44     LIBCMT:gshandlerseh.obj
 0002:00013d44       $unwind$??$TypeMatchHelper@V__FrameHandler3@@@@YAHPEBU_s_HandlerType@@PEBU_s_CatchableType@@PEBU_s_ThrowInfo@@@Z 0000000180032d44     libvcruntime:frame.obj
 0002:00013d44       $unwind$??$TypeMatchHelper@V__FrameHandler4@@@@YAHPEAUHandlerType4@FH4@@PEBU_s_CatchableType@@PEBU_s_ThrowInfo@@@Z 0000000180032d44     libvcruntime:frame.obj
 0002:00013d60       $xdatasym                  0000000180032d60     LIBCMT:chkstk.obj
 0002:00013d68       $unwind$__scrt_fastfail    0000000180032d68     LIBCMT:utility_desktop.obj
 0002:00013d78       $unwind$__isa_available_init 0000000180032d78     LIBCMT:cpu_disp.obj
 0002:00013d88       $unwind$__security_init_cookie 0000000180032d88     LIBCMT:gs_support.obj
 0002:00013d98       $xdatasym                  0000000180032d98     LIBCMT:guard_dispatch.obj
 0002:00013da0       $xdatasym                  0000000180032da0     LIBCMT:guard_xfg_dispatch.obj
 0002:00013da4       $unwind$?StateFromIp@__FrameHandler4@@SAHPEAUFuncInfo4@FH4@@PEAU_xDISPATCHER_CONTEXT@@_K@Z 0000000180032da4     libvcruntime:ehstate.obj
 0002:00013da4       $unwind$?DecompFuncInfo@FH4@@YA_JPEAEAEAUFuncInfo4@1@_KH_N@Z 0000000180032da4     libvcruntime:risctrnsctrl.obj
 0002:00013dbc       $unwind$?UnwindNestedFrames@__FrameHandler4@@SAXPEA_KPEAUEHExceptionRecord@@PEAU_CONTEXT@@0PEAXPEAUFuncInfo4@FH4@@HHPEAUHandlerType4@5@PEAU_xDISPATCHER_CONTEXT@@E@Z 0000000180032dbc     libvcruntime:risctrnsctrl.obj
 0002:00013dd0       $unwind$?GetRangeOfTrysToCheck@__FrameHandler4@@SA?AU?$pair@Viterator@TryBlockMap4@FH4@@V123@@std@@AEAVTryBlockMap4@FH4@@HPEAU_xDISPATCHER_CONTEXT@@PEAUFuncInfo4@5@H@Z 0000000180032dd0     libvcruntime:risctrnsctrl.obj
 0002:00013dec       $unwind$__CxxFrameHandler4 0000000180032dec     libvcruntime:risctrnsctrl.obj
 0002:00013e00       $unwind$??$_CallSETranslator@V__FrameHandler4@@@@YAHPEAUEHExceptionRecord@@PEA_KPEAU_CONTEXT@@PEAU_xDISPATCHER_CONTEXT@@PEAUFuncInfo4@FH4@@K1H@Z 0000000180032e00     libvcruntime:risctrnsctrl.obj
 0002:00013e20       $unwind$?filt$0@?0???$_CallSETranslator@V__FrameHandler4@@@@YAHPEAUEHExceptionRecord@@PEA_KPEAU_CONTEXT@@PEAU_xDISPATCHER_CONTEXT@@PEAUFuncInfo4@FH4@@K1H@Z@4HA 0000000180032e20     libvcruntime:risctrnsctrl.obj
 0002:00013e2c       $unwind$__DestructExceptionObject 0000000180032e2c     libvcruntime:ehhelpers.obj
 0002:00013e4c       $unwind$_free_osfhnd       0000000180032e4c     libucrt:osfinfo.obj
 0002:00013e4c       $unwind$__std_exception_copy 0000000180032e4c     libvcruntime:std_exception.obj
 0002:00013e60       $unwind$__C_specific_handler 0000000180032e60     libvcruntime:riscchandler.obj
 0002:00013e7c       $unwind$_CxxThrowException 0000000180032e7c     libvcruntime:throw.obj
 0002:00013e90       $xdatasym                  0000000180032e90     libvcruntime:memcpy.obj
 0002:00013ea0       $xdatasym                  0000000180032ea0     libvcruntime:memset.obj
 0002:00013eb0       $xdatasym                  0000000180032eb0     libvcruntime:memcmp.obj
 0002:00013eb8       $xdatasym                  0000000180032eb8     libvcruntime:memchr.obj
 0002:00013ebc       $unwind$?getStartStop@UWMap4@FH4@@QEAAXHHAEAViterator@12@0@Z 0000000180032ebc     libvcruntime:frame.obj
 0002:00013ed4       $unwind$?getStateFromIterators@UWMap4@FH4@@SAHAEBViterator@12@H0H0@Z 0000000180032ed4     libvcruntime:frame.obj
 0002:00013ee4       $unwind$?FrameUnwindToState@__FrameHandler4@@SAXPEA_KPEAU_xDISPATCHER_CONTEXT@@PEAUFuncInfo4@FH4@@H@Z 0000000180032ee4     libvcruntime:frame.obj
 0002:00013f2c       $unwind$?CxxCallCatchBlock@__FrameHandler4@@SAPEAXPEAU_EXCEPTION_RECORD@@@Z 0000000180032f2c     libvcruntime:frame.obj
 0002:00013f88       $unwind$?IsInExceptionSpec@@YAEPEAUEHExceptionRecord@@PEBU_s_ESTypeList@@@Z 0000000180032f88     libvcruntime:frame.obj
 0002:00013fa4       $unwind$??$__InternalCxxFrameHandler@V__FrameHandler4@@@@YA?AW4_EXCEPTION_DISPOSITION@@PEAUEHExceptionRecord@@PEA_KPEAU_CONTEXT@@PEAU_xDISPATCHER_CONTEXT@@PEAUFuncInfo4@FH4@@H1E@Z 0000000180032fa4     libvcruntime:frame.obj
 0002:00013fbc       $unwind$??$BuildCatchObjectHelperInternal@V__FrameHandler4@@@@YAHPEAUEHExceptionRecord@@PEAXPEAUHandlerType4@FH4@@PEBU_s_CatchableType@@@Z 0000000180032fbc     libvcruntime:frame.obj
 0002:00013ffc       $unwind$??$BuildCatchObjectInternal@V__FrameHandler4@@@@YAXPEAUEHExceptionRecord@@PEAXPEAUHandlerType4@FH4@@PEBU_s_CatchableType@@@Z 0000000180032ffc     libvcruntime:frame.obj
 0002:00014028       $unwind$??$FindHandler@V__FrameHandler4@@@@YAXPEAUEHExceptionRecord@@PEA_KPEAU_CONTEXT@@PEAU_xDISPATCHER_CONTEXT@@PEAUFuncInfo4@FH4@@EH1@Z 0000000180033028     libvcruntime:frame.obj
 0002:00014048       $unwind$??$CatchIt@V__FrameHandler4@@@@YAXPEAUEHExceptionRecord@@PEA_KPEAU_CONTEXT@@PEAU_xDISPATCHER_CONTEXT@@PEAUFuncInfo4@FH4@@PEAUHandlerType4@4@PEBU_s_CatchableType@@PEAUTryBlockMapEntry4@4@H1EE@Z 0000000180033048     libvcruntime:frame.obj
 0002:00014060       $unwind$??$FindHandlerForForeignException@V__FrameHandler4@@@@YAXPEAUEHExceptionRecord@@PEA_KPEAU_CONTEXT@@PEAU_xDISPATCHER_CONTEXT@@PEAUFuncInfo4@FH4@@HH1@Z 0000000180033060     libvcruntime:frame.obj
 0002:00014080       $xdatasym                  0000000180033080     libvcruntime:notify.obj
 0002:0001408c       $unwind$?try_get_function@@YAPEAXW4function_id@?A0x391cf84c@@QEBDQEBW4module_id@2@2@Z 000000018003308c     libucrt:winapi_thunks.obj
 0002:0001408c       $unwind$?try_get_function@@YAPEAXW4function_id@?A0x5d44c8f9@@QEBDQEBW4module_id@2@2@Z 000000018003308c     libvcruntime:winapi_downlevel.obj
 0002:000140a8       $xdatasym                  00000001800330a8     libvcruntime:handlers.obj
 0002:000140c8       $unwind$??$common_vsprintf@Vstandard_base@__crt_stdio_output@@D@@YAH_KQEAD0QEBDQEAU__crt_locale_pointers@@1@Z 00000001800330c8     libucrt:output.obj
 0002:000140e8       $unwind$?write_string@?$string_output_adapter@D@__crt_stdio_output@@QEBAXQEBDHQEAHAEAV__crt_deferred_errno_cache@@@Z 00000001800330e8     libucrt:output.obj
 0002:00014100       $unwind$?process@?$output_processor@DV?$string_output_adapter@D@__crt_stdio_output@@V?$standard_base@DV?$string_output_adapter@D@__crt_stdio_output@@@2@@__crt_stdio_output@@QEAAHXZ 0000000180033100     libucrt:output.obj
 0002:00014110       $unwind$?parse_int_from_format_string@?$output_processor@DV?$string_output_adapter@D@__crt_stdio_output@@V?$standard_base@DV?$string_output_adapter@D@__crt_stdio_output@@@2@@__crt_stdio_output@@AEAA_NQEAH@Z 0000000180033110     libucrt:output.obj
 0002:00014124       $unwind$?state_case_type@?$output_processor@DV?$string_output_adapter@D@__crt_stdio_output@@V?$standard_base@DV?$string_output_adapter@D@__crt_stdio_output@@@2@@__crt_stdio_output@@AEAA_NXZ 0000000180033124     libucrt:output.obj
 0002:0001413c       $unwind$?type_case_a@?$output_processor@DV?$string_output_adapter@D@__crt_stdio_output@@V?$standard_base@DV?$string_output_adapter@D@__crt_stdio_output@@@2@@__crt_stdio_output@@AEAA_NXZ 000000018003313c     libucrt:output.obj
 0002:00014148       $unwind$?write_stored_string_tchar@?$output_processor@DV?$string_output_adapter@D@__crt_stdio_output@@V?$standard_base@DV?$string_output_adapter@D@__crt_stdio_output@@@2@@__crt_stdio_output@@AEAA_ND@Z 0000000180033148     libucrt:output.obj
 0002:00014160       $unwind$??$write_multiple_characters@V?$string_output_adapter@D@__crt_stdio_output@@D@__crt_stdio_output@@YAXAEBV?$string_output_adapter@D@0@DHQEAH@Z 0000000180033160     libucrt:output.obj
 0002:0001416c       $unwind$??$type_case_integer_parse_into_buffer@I@?$output_processor@DV?$string_output_adapter@D@__crt_stdio_output@@V?$standard_base@DV?$string_output_adapter@D@__crt_stdio_output@@@2@@__crt_stdio_output@@AEAAXII_N@Z 000000018003316c     libucrt:output.obj
 0002:0001416c       $unwind$??$type_case_integer_parse_into_buffer@_K@?$output_processor@DV?$string_output_adapter@D@__crt_stdio_output@@V?$standard_base@DV?$string_output_adapter@D@__crt_stdio_output@@@2@@__crt_stdio_output@@AEAAX_KI_N@Z 000000018003316c     libucrt:output.obj
 0002:0001416c       $unwind$strrchr            000000018003316c     libvcruntime:strrchr.obj
 0002:00014174       $unwind$terminate          0000000180033174     libucrt:terminate.obj
 0002:00014194       $unwind$strtol             0000000180033194     libucrt:strtox.obj
 0002:00014194       $unwind$_invalid_parameter_noinfo 0000000180033194     libucrt:invalid_parameter.obj
 0002:00014194       $unwind$_invalid_parameter_noinfo_noreturn 0000000180033194     libucrt:invalid_parameter.obj
 0002:00014194       $unwind$_log10_special     0000000180033194     libucrt:log_special.obj
 0002:0001419c       $unwind$__acrt_call_reportfault 000000018003319c     libucrt:invalid_parameter.obj
 0002:000141bc       $unwind$_invalid_parameter 00000001800331bc     libucrt:invalid_parameter.obj
 0002:000141d0       $unwind$__acrt_lowio_destroy_handle_array 00000001800331d0     libucrt:osfinfo.obj
 0002:000141e0       $unwind$__acrt_lowio_ensure_fh_exists 00000001800331e0     libucrt:osfinfo.obj
 0002:0001420c       $unwind$fclose             000000018003320c     libucrt:fclose.obj
 0002:00014230       $unwind$??$__acrt_mbs_to_wcs_cp@U__crt_win32_buffer_internal_dynamic_resizing@@@@YAHQEBDAEAV?$__crt_win32_buffer@_WU__crt_win32_buffer_internal_dynamic_resizing@@@@I@Z 0000000180033230     libucrt:open.obj
 0002:00014248       $unwind$_close             0000000180033248     libucrt:close.obj
 0002:00014248       $unwind$_commit            0000000180033248     libucrt:commit.obj
 0002:00014250       $unwind$??$?RV<lambda_751a882b2c74d4b022dec766aa51a29a>@@AEAV<lambda_628dfdc04ba53c8bfc02c9951375f3f5>@@V<lambda_f6c7be5f7998530c34de24c7437d6b54>@@@?$__crt_seh_guarded_call@H@@QEAAH$$QEAV<lambda_751a882b2c74d4b022dec766aa51a29a>@@AEAV<lambda_628dfdc04ba53c8bfc02c9951375f3f5>@@$$QEAV<lambda_f6c7be5f7998530c34de24c7437d6b54>@@@Z 0000000180033250     libucrt:close.obj
 0002:00014274       $unwind$_write             0000000180033274     libucrt:write.obj
 0002:000142a4       $unwind$_write_nolock      00000001800332a4     libucrt:write.obj
 0002:000142bc       $unwind$?write_double_translated_ansi_nolock@@YA?AUwrite_result@?A0x17268360@@HQEBDI@Z 00000001800332bc     libucrt:write.obj
 0002:000142e0       $unwind$?write_text_ansi_nolock@@YA?AUwrite_result@?A0x17268360@@HQEBDI@Z 00000001800332e0     libucrt:write.obj
 0002:000142e0       $unwind$?write_text_utf16le_nolock@@YA?AUwrite_result@?A0x17268360@@HQEBDI@Z 00000001800332e0     libucrt:write.obj
 0002:00014300       $unwind$?write_text_utf8_nolock@@YA?AUwrite_result@?A0x17268360@@HQEBDI@Z 0000000180033300     libucrt:write.obj
 0002:00014328       $xdatasym                  0000000180033328     libucrt:strncpy.obj
 0002:0001432c       $unwind$qsort              000000018003332c     libucrt:qsort.obj
 0002:00014344       $chain$4$qsort             0000000180033344     libucrt:qsort.obj
 0002:00014368       $chain$5$qsort             0000000180033368     libucrt:qsort.obj
 0002:00014378       $unwind$?common_flush_all@@YAH_N@Z 0000000180033378     libucrt:fflush.obj
 0002:00014380       $unwind$??$?RV<lambda_842d9ff0dc9ef11c61343bbaebe7f885>@@AEAV<lambda_c5860995281e5c4ce005b3de8f5874ee>@@V<lambda_d90129c13df834fdcbf8d2b88dafcf2d>@@@?$__crt_seh_guarded_call@X@@QEAAX$$QEAV<lambda_842d9ff0dc9ef11c61343bbaebe7f885>@@AEAV<lambda_c5860995281e5c4ce005b3de8f5874ee>@@$$QEAV<lambda_d90129c13df834fdcbf8d2b88dafcf2d>@@@Z 0000000180033380     libucrt:fflush.obj
 0002:000143a4       $unwind$??$?RV<lambda_886d6c58226a84441f68b9f2b8217b83>@@AEAV<lambda_ab61a845afdef5b7c387490eaf3616ee>@@V<lambda_f7f22ab5edc0698d5f6905b0d3f44752>@@@?$__crt_seh_guarded_call@X@@QEAAX$$QEAV<lambda_886d6c58226a84441f68b9f2b8217b83>@@AEAV<lambda_ab61a845afdef5b7c387490eaf3616ee>@@$$QEAV<lambda_f7f22ab5edc0698d5f6905b0d3f44752>@@@Z 00000001800333a4     libucrt:fflush.obj
 0002:000143cc       $unwind$?divide@__crt_strtox@@YA_KAEAUbig_integer@1@AEBU21@@Z 00000001800333cc     libucrt:input.obj
 0002:000143e4       $chain$0$?divide@__crt_strtox@@YA_KAEAUbig_integer@1@AEBU21@@Z 00000001800333e4     libucrt:input.obj
 0002:000143f8       $chain$1$?divide@__crt_strtox@@YA_KAEAUbig_integer@1@AEBU21@@Z 00000001800333f8     libucrt:input.obj
 0002:00014408       $xdatasym                  0000000180033408     libucrt:strncmp.obj
 0002:0001440c       $unwind$??$parse_integer@KV?$c_string_character_source@D@__crt_strtox@@@__crt_strtox@@YAKQEAU__crt_locale_pointers@@V?$c_string_character_source@D@0@H_N@Z 000000018003340c     libucrt:strtox.obj
 0002:00014428       $unwind$__acrt_uninitialize_locale 0000000180033428     libucrt:wsetlocale.obj
 0002:00014428       $unwind$__acrt_get_sigabrt_handler 0000000180033428     libucrt:signal.obj
 0002:00014430       $unwind$raise              0000000180033430     libucrt:signal.obj
 0002:0001446c       $unwind$??$?RV<lambda_450d765d439847d4c735a33c368b5fc0>@@AEAV<lambda_44731a7d0e6d81c3e6aa82d741081786>@@V<lambda_601a2a7da3b7a96e9554ac7215c4b07c>@@@?$__crt_seh_guarded_call@P6AXH@Z@@QEAAP6AXH@Z$$QEAV<lambda_450d765d439847d4c735a33c368b5fc0>@@AEAV<lambda_44731a7d0e6d81c3e6aa82d741081786>@@$$QEAV<lambda_601a2a7da3b7a96e9554ac7215c4b07c>@@@Z 000000018003346c     libucrt:signal.obj
 0002:00014490       $xdatasym                  0000000180033490     libucrt:pow.obj
 0002:000144a0       $xdatasym                  00000001800334a0     libucrt:powf.obj
 0002:000144b0       $unwind$__dcrt_write_console 00000001800334b0     libucrt:initcon.obj
 0002:000144b0       $unwind$??$__acrt_wcs_to_mbs_cp@U__crt_win32_buffer_no_resizing@@@@YAHQEB_WAEAV?$__crt_win32_buffer@DU__crt_win32_buffer_no_resizing@@@@I@Z 00000001800334b0     libucrt:strftime.obj
 0002:000144c4       $unwind$_query_new_handler 00000001800334c4     libucrt:new_handler.obj
 0002:000144e4       $unwind$?common_exit@@YAXHW4_crt_exit_cleanup_mode@@W4_crt_exit_return_mode@@@Z 00000001800334e4     libucrt:exit.obj
 0002:000144f0       $unwind$??R<lambda_6e4b09c48022b2350581041d5f6b0c4c>@@QEBA@XZ 00000001800334f0     libucrt:exit.obj
 0002:00014510       $unwind$??$?RV<lambda_d80eeec6fff315bfe5c115232f3240e3>@@AEAV<lambda_6e4b09c48022b2350581041d5f6b0c4c>@@V<lambda_2358e3775559c9db80273638284d5e45>@@@?$__crt_seh_guarded_call@X@@QEAAX$$QEAV<lambda_d80eeec6fff315bfe5c115232f3240e3>@@AEAV<lambda_6e4b09c48022b2350581041d5f6b0c4c>@@$$QEAV<lambda_2358e3775559c9db80273638284d5e45>@@@Z 0000000180033510     libucrt:exit.obj
 0002:00014534       $unwind$_configure_narrow_argv 0000000180033534     libucrt:argv_parsing.obj
 0002:00014548       $unwind$?should_round_up@@YA_NQEBN_KFW4__acrt_rounding_mode@@@Z 0000000180033548     libucrt:cvt.obj
 0002:00014548       $unwind$??$parse_command_line@D@@YAXPEADPEAPEAD0PEA_K2@Z 0000000180033548     libucrt:argv_parsing.obj
 0002:00014564       $unwind$??$free_environment@D@@YAXQEAPEAD@Z 0000000180033564     libucrt:environment_initialization.obj
 0002:00014564       $unwind$??$free_environment@_W@@YAXQEAPEA_W@Z 0000000180033564     libucrt:environment_initialization.obj
 0002:00014570       $unwind$??$create_environment@D@@YAQEAPEADQEAD@Z 0000000180033570     libucrt:environment_initialization.obj
 0002:00014588       $unwind$_register_onexit_function 0000000180033588     libucrt:onexit.obj
 0002:00014590       $unwind$_execute_onexit_table 0000000180033590     libucrt:onexit.obj
 0002:00014598       $unwind$??R<lambda_22ebabd17bc4fa466a2aca6d8deb888d>@@QEBAHXZ 0000000180033598     libucrt:onexit.obj
 0002:000145b0       $unwind$__acrt_fp_strflt_to_string 00000001800335b0     libucrt:_fptostr.obj
 0002:000145b0       $unwind$__acrt_DownlevelLocaleNameToLCID 00000001800335b0     libucrt:lcidtoname_downlevel.obj
 0002:000145b0       $unwind$??R<lambda_f03950bc5685219e0bcd2087efbe011e>@@QEBAHXZ 00000001800335b0     libucrt:onexit.obj
 0002:000145c8       $unwind$??$?RV<lambda_638799b9deba96c50f710eeac98168cd>@@AEAV<lambda_22ebabd17bc4fa466a2aca6d8deb888d>@@V<lambda_a6f7d7db0129f75315ebf26d50c089f1>@@@?$__crt_seh_guarded_call@H@@QEAAH$$QEAV<lambda_638799b9deba96c50f710eeac98168cd>@@AEAV<lambda_22ebabd17bc4fa466a2aca6d8deb888d>@@$$QEAV<lambda_a6f7d7db0129f75315ebf26d50c089f1>@@@Z 00000001800335c8     libucrt:onexit.obj
 0002:000145ec       $unwind$??$?RV<lambda_7777bce6b2f8c936911f934f8298dc43>@@AEAV<lambda_f03950bc5685219e0bcd2087efbe011e>@@V<lambda_3883c3dff614d5e0c5f61bb1ac94921c>@@@?$__crt_seh_guarded_call@H@@QEAAH$$QEAV<lambda_7777bce6b2f8c936911f934f8298dc43>@@AEAV<lambda_f03950bc5685219e0bcd2087efbe011e>@@$$QEAV<lambda_3883c3dff614d5e0c5f61bb1ac94921c>@@@Z 00000001800335ec     libucrt:onexit.obj
 0002:00014610       $unwind$_free_base         0000000180033610     libucrt:free_base.obj
 0002:00014610       $unwind$?destroy_fls@@YAXPEAX@Z 0000000180033610     libucrt:per_thread_data.obj
 0002:00014610       $unwind$__acrt_locale_free_numeric 0000000180033610     libucrt:initnum.obj
 0002:00014610       $unwind$__acrt_locale_free_lc_time_if_unreferenced 0000000180033610     libucrt:locale_refcounting.obj
 0002:00014618       $unwind$?fp_format_e@@YAHQEBNQEAD_K12H_NIQEAU__crt_locale_pointers@@W4__acrt_rounding_mode@@@Z 0000000180033618     libucrt:cvt.obj
 0002:00014618       $unwind$_mbtowc_l          0000000180033618     libucrt:mbtowc.obj
 0002:00014618       $unwind$__acrt_LCMapStringEx 0000000180033618     libucrt:winapi_thunks.obj
 0002:0001462c       $unwind$_wctomb_s_l        000000018003362c     libucrt:wctomb.obj
 0002:0001463c       $unwind$?construct_ptd_array@@YAXQEAU__acrt_ptd@@@Z 000000018003363c     libucrt:per_thread_data.obj
 0002:00014644       $unwind$?destroy_ptd_array@@YAXQEAU__acrt_ptd@@@Z 0000000180033644     libucrt:per_thread_data.obj
 0002:0001464c       $unwind$??$?RV<lambda_0ae27a3a962d80f24befdcbee591983d>@@AEAV<lambda_8d0ee55de4b1038c4002e0adecdf1839>@@V<lambda_dc504788e8f1664fe9b84e20bfb512f2>@@@?$__crt_seh_guarded_call@X@@QEAAX$$QEAV<lambda_0ae27a3a962d80f24befdcbee591983d>@@AEAV<lambda_8d0ee55de4b1038c4002e0adecdf1839>@@$$QEAV<lambda_dc504788e8f1664fe9b84e20bfb512f2>@@@Z 000000018003364c     libucrt:per_thread_data.obj
 0002:00014670       $unwind$??$?RV<lambda_aa87e3671a710a21b5dc78c0bdf72e11>@@AEAV<lambda_92619d2358a28f41a33ba319515a20b9>@@V<lambda_6992ecaafeb10aed2b74cb1fae11a551>@@@?$__crt_seh_guarded_call@X@@QEAAX$$QEAV<lambda_aa87e3671a710a21b5dc78c0bdf72e11>@@AEAV<lambda_92619d2358a28f41a33ba319515a20b9>@@$$QEAV<lambda_6992ecaafeb10aed2b74cb1fae11a551>@@@Z 0000000180033670     libucrt:per_thread_data.obj
 0002:00014694       $unwind$??$?RV<lambda_f2e299630e499de9f9a165e60fcd3db5>@@AEAV<lambda_2ae9d31cdba2644fcbeaf08da7c24588>@@V<lambda_40d01ff24d0e7b3814fdbdcee8eab3c7>@@@?$__crt_seh_guarded_call@X@@QEAAX$$QEAV<lambda_f2e299630e499de9f9a165e60fcd3db5>@@AEAV<lambda_2ae9d31cdba2644fcbeaf08da7c24588>@@$$QEAV<lambda_40d01ff24d0e7b3814fdbdcee8eab3c7>@@@Z 0000000180033694     libucrt:per_thread_data.obj
 0002:000146b8       $unwind$??$?RV<lambda_2d41944a1d46af3157314b8a01080d33>@@AEAV<lambda_8f455de75cd7d7f24b4096f044d8b9e6>@@V<lambda_aa500f224e6afead328df44964fe2772>@@@?$__crt_seh_guarded_call@X@@QEAAX$$QEAV<lambda_2d41944a1d46af3157314b8a01080d33>@@AEAV<lambda_8f455de75cd7d7f24b4096f044d8b9e6>@@$$QEAV<lambda_aa500f224e6afead328df44964fe2772>@@@Z 00000001800336b8     libucrt:per_thread_data.obj
 0002:000146dc       $unwind$__acrt_fp_format   00000001800336dc     libucrt:cvt.obj
 0002:000146f4       $unwind$?fp_format_e_internal@@YAHQEAD_KH_NIQEAU_strflt@@2QEAU__crt_locale_pointers@@@Z 00000001800336f4     libucrt:cvt.obj
 0002:0001470c       $unwind$?fp_format_a@@YAHQEBNPEAD_KQEAD2H_NIQEAU__crt_locale_pointers@@W4__acrt_rounding_mode@@@Z 000000018003370c     libucrt:cvt.obj
 0002:00014728       $unwind$__dcrt_get_narrow_environment_from_os 0000000180033728     libucrt:get_environment_from_os.obj
 0002:00014728       $unwind$?fp_format_f_internal@@YAHQEAD_KHQEAU_strflt@@_NQEAU__crt_locale_pointers@@@Z 0000000180033728     libucrt:cvt.obj
 0002:00014728       $unwind$??$__acrt_wcs_to_mbs_cp@U__crt_win32_buffer_internal_dynamic_resizing@@@@YAHQEB_WAEAV?$__crt_win32_buffer@DU__crt_win32_buffer_internal_dynamic_resizing@@@@I@Z 0000000180033728     libucrt:argv_wildcards.obj
 0002:00014740       $unwind$?fp_format_g@@YAHQEBNQEAD_K12H_NIW4__acrt_rounding_mode@@QEAU__crt_locale_pointers@@@Z 0000000180033740     libucrt:cvt.obj
 0002:00014754       $unwind$??$?RV<lambda_410d79af7f07d98d83a3f525b3859a53>@@AEAV<lambda_3e16ef9562a7dcce91392c22ab16ea36>@@V<lambda_38119f0e861e05405d8a144b9b982f0a>@@@?$__crt_seh_guarded_call@X@@QEAAX$$QEAV<lambda_410d79af7f07d98d83a3f525b3859a53>@@AEAV<lambda_3e16ef9562a7dcce91392c22ab16ea36>@@$$QEAV<lambda_38119f0e861e05405d8a144b9b982f0a>@@@Z 0000000180033754     libucrt:wsetlocale.obj
 0002:0001477c       $unwind$__acrt_initialize_lowio 000000018003377c     libucrt:ioinit.obj
 0002:0001479c       $unwind$?initialize_inherited_file_handles_nolock@@YAXXZ 000000018003379c     libucrt:ioinit.obj
 0002:000147b8       $unwind$__acrt_initialize_winapi_thunks 00000001800337b8     libucrt:winapi_thunks.obj
 0002:000147c0       $unwind$_fcloseall         00000001800337c0     libucrt:closeall.obj
 0002:000147e4       $unwind$__acrt_WideCharToMultiByte 00000001800337e4     libucrt:widechartomultibyte.obj
 0002:000147f0       $unwind$?__mbsrtowcs_utf8@__crt_mbstring@@YA_KPEA_WPEAPEBD_KPEAU_Mbstatet@@@Z 00000001800337f0     libucrt:mbrtowc.obj
 0002:00014808       $unwind$_putwch_nolock     0000000180033808     libucrt:putwch.obj
 0002:00014810       $unwind$__dcrt_lowio_ensure_console_output_initialized 0000000180033810     libucrt:initcon.obj
 0002:00014810       $unwind$_isleadbyte_l      0000000180033810     libucrt:_wctype.obj
 0002:00014810       $unwind$?getSystemCP@@YAHH@Z 0000000180033810     libucrt:mbctype.obj
 0002:00014818       $unwind$__acrt_LCMapStringA 0000000180033818     libucrt:lcmapstringa.obj
 0002:00014828       $unwind$?__acrt_LCMapStringA_stat@@YAHPEAU__crt_locale_pointers@@PEB_WKPEBDHPEADHHH@Z 0000000180033828     libucrt:lcmapstringa.obj
 0002:00014850       $unwind$??$?RV<lambda_a37b2b86f63e897a80ea819b0eb08c01>@@AEAV<lambda_38ce7e780aa69e748d6df282ebc68efe>@@V<lambda_99fb1378e971ab6e7edea83e3a7a83a2>@@@?$__crt_seh_guarded_call@H@@QEAAH$$QEAV<lambda_a37b2b86f63e897a80ea819b0eb08c01>@@AEAV<lambda_38ce7e780aa69e748d6df282ebc68efe>@@$$QEAV<lambda_99fb1378e971ab6e7edea83e3a7a83a2>@@@Z 0000000180033850     libucrt:commit.obj
 0002:00014874       $unwind$_isctype_l         0000000180033874     libucrt:isctype.obj
 0002:00014890       $unwind$_raise_exc_ex      0000000180033890     libucrt:fpexcept.obj
 0002:000148a4       $unwind$_ctrlfp            00000001800338a4     libucrt:fpctrl.obj
 0002:000148cc       $unwind$__acrt_GetStringTypeA 00000001800338cc     libucrt:getstringtypea.obj
 0002:000148f4       $unwind$__acrt_initialize_fma3 00000001800338f4     libucrt:fma3_available.obj
 0002:000148fc       $unwind$_powf_special      00000001800338fc     libucrt:pow_special.obj
 0002:0001490c       $unwind$_pow_special       000000018003390c     libucrt:pow_special.obj
 0002:00014918       $unwind$??$common_expand_argv_wildcards@D@@YAHQEAPEADQEAPEAPEAD@Z 0000000180033918     libucrt:argv_wildcards.obj
 0002:00014930       $unwind$??$copy_and_add_argument_to_buffer@D@@YAHQEBD0_KAEAV?$argument_list@D@?A0x5f5c8891@@@Z 0000000180033930     libucrt:argv_wildcards.obj
 0002:0001494c       $unwind$??$expand_argument_wildcards@D@@YAHQEAD0AEAV?$argument_list@D@?A0x5f5c8891@@@Z 000000018003394c     libucrt:argv_wildcards.obj
 0002:00014970       $unwind$__acrt_GetModuleFileNameA 0000000180033970     libucrt:getmodulefilenamea.obj
 0002:0001498c       $unwind$_setmbcp_nolock    000000018003398c     libucrt:mbctype.obj
 0002:000149ac       $unwind$?update_thread_multibyte_data_internal@@YAPEAU__crt_multibyte_data@@QEAU__acrt_ptd@@QEAPEAU1@@Z 00000001800339ac     libucrt:mbctype.obj
 0002:000149d4       $unwind$?setmbcp_internal@@YAHH_NQEAU__acrt_ptd@@QEAPEAU__crt_multibyte_data@@@Z 00000001800339d4     libucrt:mbctype.obj
 0002:000149e4       $unwind$?setSBUpLow@@YAXPEAU__crt_multibyte_data@@@Z 00000001800339e4     libucrt:mbctype.obj
 0002:00014a00       $unwind$??$?RV<lambda_efdfa57d1f175319df784efa44bb7b81>@@AEAV<lambda_5f0a4c1567f8adc6734073e5d1e1b35c>@@V<lambda_2e8a7d3640ea6ccb4c2413664c2db6fd>@@@?$__crt_seh_guarded_call@X@@QEAAX$$QEAV<lambda_efdfa57d1f175319df784efa44bb7b81>@@AEAV<lambda_5f0a4c1567f8adc6734073e5d1e1b35c>@@$$QEAV<lambda_2e8a7d3640ea6ccb4c2413664c2db6fd>@@@Z 0000000180033a00     libucrt:mbctype.obj
 0002:00014a24       $unwind$?x_ismbbtype_l@@YAHPEAU__crt_locale_pointers@@IHH@Z 0000000180033a24     libucrt:ismbbyte.obj
 0002:00014a34       $unwind$__acrt_update_thread_locale_data 0000000180033a34     libucrt:locale_refcounting.obj
 0002:00014a58       $unwind$__acrt_fltout      0000000180033a58     libucrt:cfout.obj
 0002:00014a78       $unwind$__acrt_locale_free_monetary 0000000180033a78     libucrt:initmon.obj
 0002:00014a80       $unwind$__acrt_locale_free_time 0000000180033a80     libucrt:inittime.obj
 0002:00014a90       $unwind$__acrt_fenv_set_control 0000000180033a90     libucrt:_fenvutils.obj
 0002:00014aa0       $unwind$?__mbrtoc32_utf8@__crt_mbstring@@YA_KPEA_UPEBD_KPEAU_Mbstatet@@@Z 0000000180033aa0     libucrt:mbrtoc32.obj
 0002:00014ac0       $xdatasym                  0000000180033ac0     libucrt:fpsr.obj
 0002:00014ac8       $unwind$_call_matherr      0000000180033ac8     libucrt:libm_error.obj
 0002:00014ad0       $unwind$_handle_error      0000000180033ad0     libucrt:libm_error.obj
 0002:00014ad0       $unwind$_handle_errorf     0000000180033ad0     libucrt:libm_error.obj
 0002:00014af0       $unwind$strpbrk            0000000180033af0     libucrt:strpbrk.obj
 0002:00014b00       $unwind$fallbackMethod     0000000180033b00     libucrt:strpbrk.obj
 0002:00014b10       $unwind$_mbsdec_l          0000000180033b10     libucrt:mbsdec.obj
 0002:00014b20       $xdatasym                  0000000180033b20     libucrt:log10.obj
 0002:00014b2c       $unwind$common_control87   0000000180033b2c     libucrt:ieee.obj
 0002:00014b58       $unwind$_log_special_common 0000000180033b58     libucrt:log_special.obj
 0002:00014b64       $unwind$_IsNonwritableInCurrentImage 0000000180033b64     LIBCMT:pesect.obj
 0002:00014b88       $xdatasym                  0000000180033b88     libucrt:sinf.obj
 0002:00014b90       $xdatasym                  0000000180033b90     libucrt:strcmp.obj
 0002:00014b98       $xdatasym                  0000000180033b98     libucrt:remainder_piby2f_forc.obj
 0002:00014ba8       $unwind$_sincosf_special   0000000180033ba8     libucrt:sincos_special.obj
 0002:00014ee0       .edata                     0000000180033ee0     SixMansPlugin-Rework.exp
 0002:00014f08       rgpv                       0000000180033f08     SixMansPlugin-Rework.exp
 0002:00014f3c       rgszName                   0000000180033f3c     SixMansPlugin-Rework.exp
 0002:00014f70       rgwOrd                     0000000180033f70     SixMansPlugin-Rework.exp
 0002:00014f8a       szName                     0000000180033f8a     SixMansPlugin-Rework.exp
 0002:00014fa3       $N00001                    0000000180033fa3     SixMansPlugin-Rework.exp
 0002:00014fda       $N00002                    0000000180033fda     SixMansPlugin-Rework.exp
 0002:0001500f       $N00003                    000000018003400f     SixMansPlugin-Rework.exp
 0002:0001503c       $N00004                    000000018003403c     SixMansPlugin-Rework.exp
 0002:00015069       $N00005                    0000000180034069     SixMansPlugin-Rework.exp
 0002:000150a7       $N00006                    00000001800340a7     SixMansPlugin-Rework.exp
 0002:000150e3       $N00007                    00000001800340e3     SixMansPlugin-Rework.exp
 0002:0001510d       $N00008                    000000018003410d     SixMansPlugin-Rework.exp
 0002:0001514b       $N00009                    000000018003414b     SixMansPlugin-Rework.exp
 0002:0001517d       $N00010                    000000018003417d     SixMansPlugin-Rework.exp
 0002:000151b1       $N00011                    00000001800341b1     SixMansPlugin-Rework.exp
 0002:000151ba       $N00012                    00000001800341ba     SixMansPlugin-Rework.exp
 0002:000151c2       $N00013                    00000001800341c2     SixMansPlugin-Rework.exp
 0002:00015614       .idata$6                   0000000180034614     kernel32:KERNEL32.dll
 0002:00015622       .idata$6                   0000000180034622     ws2_32:WS2_32.dll
 0003:00000000       ?init@std@@3JA             0000000180035000     libcpmt:xlock.obj
 0003:00000008       ?atcount_cdecl@@3_KA       0000000180035008     libcpmt:iosptrs.obj
 0003:00000050       ?__vcrt_flsindex@@3KA      0000000180035050     libvcruntime:per_thread_data.obj
 0003:00000168       ?errno_no_memory@@3HA      0000000180035168     libucrt:errno.obj
 0003:0000016c       ?doserrno_no_memory@@3KA   000000018003516c     libucrt:errno.obj
 0003:00000320       ?__acrt_flsindex@@3KA      0000000180035320     libucrt:per_thread_data.obj
 0003:0000049c       ?dazSupported@?1??_ctrlfp@@9@9 000000018003549c     libucrt:fpctrl.obj
 0003:000004b0       ?tzstd_program@@3PADA      00000001800354b0     libucrt:timeset.obj
 0003:000004f0       ?tzdst_program@@3PADA      00000001800354f0     libucrt:timeset.obj
 0003:00000530       ?w_tzstd_program@@3PA_WA   0000000180035530     libucrt:timeset.obj
 0003:000005b0       ?w_tzdst_program@@3PA_WA   00000001800355b0     libucrt:timeset.obj
 0003:00000630       ?tzname_states@@3PAY01PEADA 0000000180035630     libucrt:timeset.obj
 0003:00000640       ?w_tzname_states@@3PAY01PEA_WA 0000000180035640     libucrt:timeset.obj
 0003:00000880       _mbctypes                  0000000180035880     libucrt:mbctype.obj
 0003:00000990       _mbcasemaps                0000000180035990     libucrt:mbctype.obj
 0003:00000a90       ?__rgctypeflag@@3PADA      0000000180035a90     libucrt:mbctype.obj
 0003:00000aa0       ?__rgcode_page_info@@3PAUcode_page_info@@A 0000000180035aa0     libucrt:mbctype.obj
 0003:00000b90       ?__dcrt_lowio_console_output_handle@@3PEAXEA 0000000180035b90     libucrt:initcon.obj
 0003:00000ba0       ?dazSupported@?1??common_control87@@9@9 0000000180035ba0     libucrt:ieee.obj
 0003:00000d80       ?MAP_CODENAMES@@3QBV?$basic_string@DU?$char_traits@D@std@@V?$allocator@D@2@@std@@B 0000000180035d80     privatematch_wrapper.obj
 0003:000011e0       ?str_typename@@3V?$basic_string@DU?$char_traits@D@std@@V?$allocator@D@2@@std@@B 00000001800361e0     privatematch_wrapper.obj
 0003:00001200       ?MAP_CODENAMES@@3QBV?$basic_string@DU?$char_traits@D@std@@V?$allocator@D@2@@std@@B 0000000180036200     server.obj
 0003:00001660       ?str_typename@@3V?$basic_string@DU?$char_traits@D@std@@V?$allocator@D@2@@std@@B 0000000180036660     server.obj
 0003:00001680       ?MAP_CODENAMES@@3QBV?$basic_string@DU?$char_traits@D@std@@V?$allocator@D@2@@std@@B 0000000180036680     settings.obj
 0003:00001ae0       ?str_typename@@3V?$basic_string@DU?$char_traits@D@std@@V?$allocator@D@2@@std@@B 0000000180036ae0     settings.obj
 0003:00001b00       ?MAP_CODENAMES@@3QBV?$basic_string@DU?$char_traits@D@std@@V?$allocator@D@2@@std@@B 0000000180036b00     SixMansPlugin-Rework.obj
 0003:00001f60       ?str_typename@@3V?$basic_string@DU?$char_traits@D@std@@V?$allocator@D@2@@std@@B 0000000180036f60     SixMansPlugin-Rework.obj
 0003:00001f80       ?MAP_CODENAMES@@3QBV?$basic_string@DU?$char_traits@D@std@@V?$allocator@D@2@@std@@B 0000000180036f80     SixMansPlugin-ReworkGUI.obj
 0003:000023e0       ?str_typename@@3V?$basic_string@DU?$char_traits@D@std@@V?$allocator@D@2@@std@@B 00000001800373e0     SixMansPlugin-ReworkGUI.obj
 0003:00002400       ?MAP_CODENAMES@@3QBV?$basic_string@DU?$char_traits@D@std@@V?$allocator@D@2@@std@@B 0000000180037400     timer.obj
 0003:00002860       ?str_typename@@3V?$basic_string@DU?$char_traits@D@std@@V?$allocator@D@2@@std@@B 0000000180037860     timer.obj
 0003:00002c30       ?classic_locale@std@@3Vlocale@1@A 0000000180037c30     libcpmt:locale0.obj
 0003:00002c48       ?_Fac_head@std@@3PEAU_Fac_node@1@EA 0000000180037c48     libcpmt:locale0.obj
 0003:00002c50       ?_Fac_tidy_reg@std@@3U_Fac_tidy_reg_t@1@B 0000000180037c50     libcpmt:locale0.obj
 0003:00002c58       global_locale              0000000180037c58     libcpmt:locale0.obj
 0003:00002c60       ?initlocks@std@@3V_Init_locks@1@A 0000000180037c60     libcpmt:xlock.obj
 0003:00002c70       ?mtx@std@@3PAU_RTL_CRITICAL_SECTION@@A 0000000180037c70     libcpmt:xlock.obj
 0003:00002dc0       ?stdstr@std@@3PAPEAVios_base@1@A 0000000180037dc0     libcpmt:ios.obj
 0003:00002e10       ?stdopens@std@@3PADA       0000000180037e10     libcpmt:ios.obj
 0003:00002e20       ?_Thread_exit_data@?A0x07eafddf@@3U_At_thread_exit_block@1@A 0000000180037e20     libcpmt:xnotify.obj
 0003:000031a0       ?initlocks@std@@3V_Init_locks@1@A 00000001800381a0     libcpmt:iosptrs.obj
 0003:000031a1       ?init_atexit@@3U_Init_atexit@@A 00000001800381a1     libcpmt:iosptrs.obj
 0003:000031b0       ?atfuns_cdecl@@3PAP6AXXZA  00000001800381b0     libcpmt:iosptrs.obj
 0003:00003420       ?g_tss_cv@@3U_RTL_CONDITION_VARIABLE@@A 0000000180038420     LIBCMT:thread_safe_statics.obj
 0003:00003428       ?g_tss_event@@3PEAXEA      0000000180038428     LIBCMT:thread_safe_statics.obj
 0003:00003430       ?g_tss_mutex@@3U_RTL_CRITICAL_SECTION@@A 0000000180038430     LIBCMT:thread_safe_statics.obj
 0003:00003458       ?g_sleep_condition_variable_cs@@3P6AHPEAU_RTL_CONDITION_VARIABLE@@PEAU_RTL_CRITICAL_SECTION@@K@ZEA 0000000180038458     LIBCMT:thread_safe_statics.obj
 0003:00003460       ?g_wake_all_condition_variable@@3P6AXPEAU_RTL_CONDITION_VARIABLE@@@ZEA 0000000180038460     LIBCMT:thread_safe_statics.obj
 0003:00003478       ?is_initialized_as_dll@@3_NA 0000000180038478     LIBCMT:utility.obj
 0003:00003479       ?module_local_atexit_table_initialized@@3_NA 0000000180038479     LIBCMT:utility.obj
 0003:00003480       ?module_local_atexit_table@@3U_onexit_table_t@@A 0000000180038480     LIBCMT:utility.obj
 0003:00003498       ?module_local_at_quick_exit_table@@3U_onexit_table_t@@A 0000000180038498     LIBCMT:utility.obj
 0003:000034b0       GS_ExceptionRecord         00000001800384b0     LIBCMT:gs_report.obj
 0003:00003550       GS_ContextRecord           0000000180038550     LIBCMT:gs_report.obj
 0003:00003a20       ?__proc_attached@@3HA      0000000180038a20     LIBCMT:dll_dllmain.obj
 0003:00003a50       ?__vcrt_startup_thread_ptd@@3U__vcrt_ptd@@A 0000000180038a50     libvcruntime:per_thread_data.obj
 0003:00003b18       ?heap@@3V_HeapManager@@A   0000000180038b18     libvcruntime:undname.obj
 0003:00003b40       __vcrt_lock_table          0000000180038b40     libvcruntime:locks.obj
 0003:00003b68       __vcrt_locks_initialized   0000000180038b68     libvcruntime:locks.obj
 0003:00003b70       ?module_handles@@3PAPEAUHINSTANCE__@@A 0000000180038b70     libvcruntime:winapi_downlevel.obj
 0003:00003b88       ?function_pointers@@3PAPEAXA 0000000180038b88     libvcruntime:winapi_downlevel.obj
 0003:00003bc0       ?__acrt_invalid_parameter_handler@@3V?$dual_state_global@P6AXPEB_W00I_K@Z@__crt_state_management@@A 0000000180038bc0     libucrt:invalid_parameter.obj
 0003:00003bd0       ?source_frequency@@3_JA    0000000180038bd0     libucrt:clock.obj
 0003:00003bd8       ?start_count@@3_JA         0000000180038bd8     libucrt:clock.obj
 0003:00003be0       ?ctrlc_action@@3V?$dual_state_global@P6AXH@Z@__crt_state_management@@A 0000000180038be0     libucrt:signal.obj
 0003:00003be8       ?ctrlbreak_action@@3V?$dual_state_global@P6AXH@Z@__crt_state_management@@A 0000000180038be8     libucrt:signal.obj
 0003:00003bf0       ?abort_action@@3V?$dual_state_global@P6AXH@Z@__crt_state_management@@A 0000000180038bf0     libucrt:signal.obj
 0003:00003bf8       ?term_action@@3V?$dual_state_global@P6AXH@Z@__crt_state_management@@A 0000000180038bf8     libucrt:signal.obj
 0003:00003c00       ?__acrt_lock_table@@3PAU_RTL_CRITICAL_SECTION@@A 0000000180038c00     libucrt:locks.obj
 0003:00003e30       ?__acrt_locks_initialized@@3IA 0000000180038e30     libucrt:locks.obj
 0003:00003e38       ?__acrt_new_handler@@3V?$dual_state_global@P6AH_K@Z@__crt_state_management@@A 0000000180038e38     libucrt:new_handler.obj
 0003:00003e40       ?c_termination_complete@@3JA 0000000180038e40     libucrt:exit.obj
 0003:00003e48       ?thread_local_exit_callback_func@@3P6AXPEAXK0@ZEA 0000000180038e48     libucrt:exit.obj
 0003:00003e60       ?program_name@?1???$common_configure_argv@D@@YAHW4_crt_argv_mode@@@Z@4PADA 0000000180038e60     libucrt:argv_parsing.obj
 0003:00003fb8       ?internal_state@?1??_mbtowc_l@@9@4U_Mbstatet@@A 0000000180038fb8     libucrt:mbtowc.obj
 0003:00003fc0       ?enable_percent_n@@3_KA    0000000180038fc0     libucrt:printf_count_output.obj
 0003:00004400       ?module_handles@@3PAPEAUHINSTANCE__@@A 0000000180039400     libucrt:winapi_thunks.obj
 0003:000044a0       ?encoded_function_pointers@@3PAPEAXA 00000001800394a0     libucrt:winapi_thunks.obj
 0003:000045b0       ?__acrt_app_type@@3W4_crt_app_type@@A 00000001800395b0     libucrt:report_runtime_error.obj
 0003:000045d0       ?_tzname@@3V?$dual_state_global@PEAPEAD@__crt_state_management@@A 00000001800395d0     libucrt:timeset.obj
 0003:000045d8       ?w_tzname@@3V?$dual_state_global@PEAPEA_W@__crt_state_management@@A 00000001800395d8     libucrt:timeset.obj
 0003:000045e0       ?tz_api_used@@3HA          00000001800395e0     libucrt:tzset.obj
 0003:000045e4       ?tzset_init_state@@3V?$dual_state_global@J@__crt_state_management@@A 00000001800395e4     libucrt:tzset.obj
 0003:000045f0       ?tz_info@@3U_TIME_ZONE_INFORMATION@@A 00000001800395f0     libucrt:tzset.obj
 0003:000046b8       ?fSystemSet@@3HA           00000001800396b8     libucrt:mbctype.obj
 0003:000046bc       ?initialized@?1??__acrt_initialize_multibyte@@9@4_NA 00000001800396bc     libucrt:mbctype.obj
 0003:000046f8       ?user_matherr@@3V?$dual_state_global@P6AHPEAU_exception@@@Z@__crt_state_management@@A 00000001800396f8     libucrt:matherr.obj
 0003:00004700       ?__acrt_global_new_mode@@3V?$dual_state_global@J@__crt_state_management@@A 0000000180039700     libucrt:new_mode.obj
 0003:00004708       ?internal_pst@?1??__mbrtoc32_utf8@__crt_mbstring@@YA_KPEA_UPEBD_KPEAU_Mbstatet@@@Z@4U3@A 0000000180039708     libucrt:mbrtoc32.obj
 0003:00004728       ?GImAllocatorUserData@@3PEAXEA 0000000180039728     imgui.obj
 0003:00004758       ?g_pd3dDevice@@3PEAUID3D11Device@@EA 0000000180039758     imgui_impl_dx11.obj
 0003:00004760       ?g_hWnd@@3PEAUHWND__@@EA   0000000180039760     imgui_impl_win32.obj
 0003:000048b0       ?singleton@@3V?$shared_ptr@VSixMansPlugin@@@std@@A 00000001800398b0     SixMansPlugin-Rework.obj
 0005:00000000       MoveSmall                  000000018003c000     libvcruntime:memcpy.obj
 0005:00000040       MoveSmallYmm               000000018003c040     libvcruntime:memcpy.obj
 0005:00000064       MoveSmallYmmNT             000000018003c064     libvcruntime:memcpy.obj
 0005:00000088       MoveSmallXmm               000000018003c088     libvcruntime:memcpy.obj
 0005:000000b0       SetSmall                   000000018003c0b0     libvcruntime:memset.obj
 0005:000000f0       SetSmallYmm                000000018003c0f0     libvcruntime:memset.obj
 0005:00000114       SetSmallYmmNT              000000018003c114     libvcruntime:memset.obj
 0005:00000138       SetSmallXmm                000000018003c138     libvcruntime:memset.obj
 0006:000000a0       $R000000                   000000018003d0a0     SixMansPlugin-Rework.res
 0006:000003d8       $R000338                   000000018003d3d8     SixMansPlugin-Rework.res
