 SixMansPlugin-Rework

 Timestamp is 622d6160 (Sat Mar 12 22:13:36 2022)

 Preferred load address is 0000000180000000

 Start         Length     Name                   Class
 0001:00000000 00003920H .text$di                CODE
 0001:00003920 0008b110H .text$mn                CODE
 0001:0008ea30 00000040H .text$mn$00             CODE
 0001:0008ea70 00004f50H .text$x                 CODE
 0001:000939c0 00000920H .text$yd                CODE
 0002:00000000 00000508H .idata$5                DATA
 0002:00000508 00000038H .00cfg                  DATA
 0002:00000540 00000008H .CRT$XCA                DATA
 0002:00000548 00000018H .CRT$XCC                DATA
 0002:00000560 00000010H .CRT$XCL                DATA
 0002:00000570 00000130H .CRT$XCU                DATA
 0002:000006a0 00000008H .CRT$XCZ                DATA
 0002:000006a8 00000008H .CRT$XIA                DATA
 0002:000006b0 00000040H .CRT$XIC                DATA
 0002:000006f0 00000008H .CRT$XIZ                DATA
 0002:000006f8 00000008H .CRT$XLA                DATA
 0002:00000700 00000008H .CRT$XLZ                DATA
 0002:00000708 00000008H .CRT$XPA                DATA
 0002:00000710 00000010H .CRT$XPX                DATA
 0002:00000720 00000008H .CRT$XPXA               DATA
 0002:00000728 00000008H .CRT$XPZ                DATA
 0002:00000730 00000008H .CRT$XTA                DATA
 0002:00000738 00000008H .CRT$XTZ                DATA
 0002:00000740 00000000H .gehcont$y              DATA
 0002:00000740 00000000H .gfids$y                DATA
 0002:00000740 00018ec0H .rdata                  DATA
 0002:00019600 00000000H .rdata$CastGuardVftablesA DATA
 0002:00019600 00000000H .rdata$CastGuardVftablesC DATA
 0002:00019600 00000030H .rdata$T                DATA
 0002:00019630 0000558cH .rdata$r                DATA
 0002:0001ebbc 000001c0H .rdata$voltmd           DATA
 0002:0001ed7c 0000044cH .rdata$zzzdbg           DATA
 0002:0001f1c8 00000008H .rtc$IAA                DATA
 0002:0001f1d0 00000008H .rtc$IZZ                DATA
 0002:0001f1d8 00000008H .rtc$TAA                DATA
 0002:0001f1e0 00000008H .rtc$TZZ                DATA
 0002:0001f1e8 00000004H .tls                    DATA
 0002:0001f1ec 00000004H .tls$                   DATA
 0002:0001f1f0 00000008H .tls$ZZZ                DATA
 0002:0001f1f8 0000c3c0H .xdata                  DATA
 0002:0002b5b8 00000db8H .xdata$x                DATA
 0002:0002c370 000002ecH .edata                  DATA
 0002:0002c65c 00000050H .idata$2                DATA
 0002:0002c6ac 00000014H .idata$3                DATA
 0002:0002c6c0 00000508H .idata$4                DATA
 0002:0002cbc8 00000facH .idata$6                DATA
 0003:00000000 000032e0H .data                   DATA
 0003:000032e0 00001720H .data$r                 DATA
 0003:00004a00 000037f0H .data$rs                DATA
 0003:000081f0 00001eccH .bss                    DATA
 0004:00000000 000071f4H .pdata                  DATA
 0005:00000000 0000015cH _RDATA                  DATA
 0006:00000000 000000a0H .rsrc$01                DATA
 0006:000000a0 000004b8H .rsrc$02                DATA

  Address         Publics by Value              Rva+Base               Lib:Object

 0000:00000000       __guard_longjmp_table      0000000000000000     <absolute>
 0000:00000000       ___safe_se_handler_table   0000000000000000     <absolute>
 0000:00000000       __guard_fids_count         0000000000000000     <absolute>
 0000:00000000       __x64_code_ranges_to_entry_points_count 0000000000000000     <absolute>
 0000:00000000       __arm64x_extra_rfe_table   0000000000000000     <absolute>
 0000:00000000       __arm64x_redirection_metadata 0000000000000000     <absolute>
 0000:00000000       __hybrid_code_map          0000000000000000     <absolute>
 0000:00000000       __guard_iat_table          0000000000000000     <absolute>
 0000:00000000       __arm64x_extra_rfe_table_size 0000000000000000     <absolute>
 0000:00000000       ___safe_se_handler_count   0000000000000000     <absolute>
 0000:00000000       __x64_code_ranges_to_entry_points 0000000000000000     <absolute>
 0000:00000000       __guard_iat_count          0000000000000000     <absolute>
 0000:00000000       __guard_longjmp_count      0000000000000000     <absolute>
 0000:00000000       __dynamic_value_reloc_table 0000000000000000     <absolute>
 0000:00000000       __hybrid_auxiliary_iat     0000000000000000     <absolute>
 0000:00000000       __hybrid_auxiliary_iat_copy 0000000000000000     <absolute>
 0000:00000000       __guard_eh_cont_count      0000000000000000     <absolute>
 0000:00000000       __AbsoluteZero             0000000000000000     <absolute>
 0000:00000000       __guard_check_icall_a64n_fptr 0000000000000000     <absolute>
 0000:00000000       __guard_fids_table         0000000000000000     <absolute>
 0000:00000000       __arm64x_redirection_metadata_count 0000000000000000     <absolute>
 0000:00000000       __enclave_config           0000000000000000     <absolute>
 0000:00000000       __guard_eh_cont_table      0000000000000000     <absolute>
 0000:00000000       __arm64x_native_entrypoint 0000000000000000     <absolute>
 0000:00000000       __hybrid_code_map_count    0000000000000000     <absolute>
 0000:00000100       __guard_flags              0000000000000100     <absolute>
 0000:00000000       __ImageBase                0000000180000000     <linker-defined>
 0001:00003920       ??0Config@@QEAA@XZ         0000000180004920 f   config.obj
 0001:00003d60       ??_D?$basic_fstream@DU?$char_traits@D@std@@@std@@QEAAXXZ 0000000180004d60 f i config.obj
 0001:00003e60       ?InitCvars@Config@@QEAAXXZ 0000000180004e60 f   config.obj
 0001:000040e0       ??1?$binder0@V<lambda_1>@?BH@??start@?$ServerBase@V?$basic_stream_socket@Vtcp@ip@asio@boost@@Vany_io_executor@34@@asio@boost@@@SimpleWeb@@QEAAXAEBV?$function@$$A6AXG@Z@std@@@Z@@detail@asio@boost@@QEAA@XZ 00000001800050e0 f i server.obj
 0001:000040e0       ??1?$function@$$A6A_NHW4parse_event_t@detail@nlohmann@@AEAV?$basic_json@Vmap@std@@Vvector@2@V?$basic_string@DU?$char_traits@D@std@@V?$allocator@D@2@@2@_N_J_KNVallocator@2@Uadl_serializer@nlohmann@@V?$vector@EV?$allocator@E@std@@@2@@3@@Z@std@@QEAA@XZ 00000001800050e0 f i config.obj
 0001:000040e0       ??1?$_Func_class@_NHW4parse_event_t@detail@nlohmann@@AEAV?$basic_json@Vmap@std@@Vvector@2@V?$basic_string@DU?$char_traits@D@std@@V?$allocator@D@2@@2@_N_J_KNVallocator@2@Uadl_serializer@nlohmann@@V?$vector@EV?$allocator@E@std@@@2@@3@@std@@QEAA@XZ 00000001800050e0 f i config.obj
 0001:000040e0       ??1?$function@$$A6AXV?$vector@V?$basic_string@DU?$char_traits@D@std@@V?$allocator@D@2@@std@@V?$allocator@V?$basic_string@DU?$char_traits@D@std@@V?$allocator@D@2@@std@@@2@@std@@@Z@std@@QEAA@XZ 00000001800050e0 f i config.obj
 0001:000040e0       ??1<lambda_1>@?BH@??start@?$ServerBase@V?$basic_stream_socket@Vtcp@ip@asio@boost@@Vany_io_executor@34@@asio@boost@@@SimpleWeb@@QEAAXAEBV?$function@$$A6AXG@Z@std@@@Z@QEAA@XZ 00000001800050e0 f i server.obj
 0001:000040e0       ??1?$function@$$A6AXAEBVerror_code@system@boost@@@Z@std@@QEAA@XZ 00000001800050e0 f i server.obj
 0001:000040e0       ??1?$_Func_class@XAEBVerror_code@system@boost@@@std@@QEAA@XZ 00000001800050e0 f i server.obj
 0001:000040e0       ??1?$_Func_class@XG@std@@QEAA@XZ 00000001800050e0 f i server.obj
 0001:00004110       ?LoadAllFromConfig@Config@@QEAAXXZ 0000000180005110 f   config.obj
 0001:00004450       ?SaveAllToConfig@Config@@QEAAXXZ 0000000180005450 f   config.obj
 0001:00004770       ??1?$output_adapter@DV?$basic_string@DU?$char_traits@D@std@@V?$allocator@D@2@@std@@@detail@nlohmann@@QEAA@XZ 0000000180005770 f i config.obj
 0001:00004770       ??1<lambda_1>@?1??send_from_queue@Response@?$ServerBase@V?$basic_stream_socket@Vtcp@ip@asio@boost@@Vany_io_executor@34@@asio@boost@@@SimpleWeb@@AEAAXXZ@QEAA@XZ 0000000180005770 f i server.obj
 0001:00004770       ??1?$shared_ptr@VMatchmakingWrapper@@@std@@QEAA@XZ 0000000180005770 f i privatematch_wrapper.obj
 0001:00004770       ??1?$shared_ptr@VResponse@?$ServerBase@V?$basic_stream_socket@Vtcp@ip@asio@boost@@Vany_io_executor@34@@asio@boost@@@SimpleWeb@@@std@@QEAA@XZ 0000000180005770 f i server.obj
 0001:00004770       ??1<lambda_1>@?1???$create_connection@AEAVio_context@asio@boost@@@?$ServerBase@V?$basic_stream_socket@Vtcp@ip@asio@boost@@Vany_io_executor@34@@asio@boost@@@SimpleWeb@@IEAA?AV?$shared_ptr@VConnection@?$ServerBase@V?$basic_stream_socket@Vtcp@ip@asio@boost@@Vany_io_executor@34@@asio@boost@@@SimpleWeb@@@std@@AEAVio_context@asio@boost@@@Z@QEAA@XZ 0000000180005770 f i server.obj
 0001:00004770       ??1?$shared_ptr@V?$basic_streambuf@V?$allocator@D@std@@@asio@boost@@@std@@QEAA@XZ 0000000180005770 f i server.obj
 0001:00004770       ??1?$shared_ptr@UCustomMatchSettings@@@std@@QEAA@XZ 0000000180005770 f i privatematch_wrapper.obj
 0001:00004770       ??1?$shared_ptr@VConnection@?$ServerBase@V?$basic_stream_socket@Vtcp@ip@asio@boost@@Vany_io_executor@34@@asio@boost@@@SimpleWeb@@@std@@QEAA@XZ 0000000180005770 f i server.obj
 0001:00004770       ??1?$shared_ptr@UCustomMatchTeamSettings@@@std@@QEAA@XZ 0000000180005770 f i privatematch_wrapper.obj
 0001:00004770       ??1?$shared_ptr@VRequest@?$ServerBase@V?$basic_stream_socket@Vtcp@ip@asio@boost@@Vany_io_executor@34@@asio@boost@@@SimpleWeb@@@std@@QEAA@XZ 0000000180005770 f i server.obj
 0001:00004770       ??1?$shared_ptr@VSession@?$ServerBase@V?$basic_stream_socket@Vtcp@ip@asio@boost@@Vany_io_executor@34@@asio@boost@@@SimpleWeb@@@std@@QEAA@XZ 0000000180005770 f i server.obj
 0001:00004770       ??1?$shared_ptr@VConfig@@@std@@QEAA@XZ 0000000180005770 f i config.obj
 0001:00004770       ??1?$shared_ptr@U?$output_adapter_protocol@D@detail@nlohmann@@@std@@QEAA@XZ 0000000180005770 f i config.obj
 0001:000047c0       ?imbue@?$basic_filebuf@DU?$char_traits@D@std@@@std@@MEAAXAEBVlocale@2@@Z 00000001800057c0 f i config.obj
 0001:000047f0       ?sync@?$basic_filebuf@DU?$char_traits@D@std@@@std@@MEAAHXZ 00000001800057f0 f i config.obj
 0001:00004840       ?setbuf@?$basic_filebuf@DU?$char_traits@D@std@@@std@@MEAAPEAV?$basic_streambuf@DU?$char_traits@D@std@@@2@PEAD_J@Z 0000000180005840 f i config.obj
 0001:000048a0       ?seekpos@?$basic_filebuf@DU?$char_traits@D@std@@@std@@MEAA?AV?$fpos@U_Mbstatet@@@2@V32@H@Z 00000001800058a0 f i config.obj
 0001:00004980       ?seekoff@?$basic_filebuf@DU?$char_traits@D@std@@@std@@MEAA?AV?$fpos@U_Mbstatet@@@2@_JHH@Z 0000000180005980 f i config.obj
 0001:00004a90       ?xsputn@?$basic_filebuf@DU?$char_traits@D@std@@@std@@MEAA_JPEBD_J@Z 0000000180005a90 f i config.obj
 0001:00004bc0       ?xsgetn@?$basic_filebuf@DU?$char_traits@D@std@@@std@@MEAA_JPEAD_J@Z 0000000180005bc0 f i config.obj
 0001:00004d60       ?uflow@?$basic_filebuf@DU?$char_traits@D@std@@@std@@MEAAHXZ 0000000180005d60 f i config.obj
 0001:00005030       ?underflow@?$basic_filebuf@DU?$char_traits@D@std@@@std@@MEAAHXZ 0000000180006030 f i config.obj
 0001:000050a0       ?pbackfail@?$basic_filebuf@DU?$char_traits@D@std@@@std@@MEAAHH@Z 00000001800060a0 f i config.obj
 0001:00005180       ?overflow@?$basic_filebuf@DU?$char_traits@D@std@@@std@@MEAAHH@Z 0000000180006180 f i config.obj
 0001:00005320       ?_Unlock@?$basic_filebuf@DU?$char_traits@D@std@@@std@@UEAAXXZ 0000000180006320 f i config.obj
 0001:00005340       ?_Lock@?$basic_filebuf@DU?$char_traits@D@std@@@std@@UEAAXXZ 0000000180006340 f i config.obj
 0001:00005360       ??1?$basic_filebuf@DU?$char_traits@D@std@@@std@@UEAA@XZ 0000000180006360 f i config.obj
 0001:00005410       ??A?$basic_json@Vmap@std@@Vvector@2@V?$basic_string@DU?$char_traits@D@std@@V?$allocator@D@2@@2@_N_J_KNVallocator@2@Uadl_serializer@nlohmann@@V?$vector@EV?$allocator@E@std@@@2@@nlohmann@@QEAAAEAV01@AEBV?$basic_string@DU?$char_traits@D@std@@V?$allocator@D@2@@std@@@Z 0000000180006410 f i config.obj
 0001:00005530       ?dump@?$basic_json@Vmap@std@@Vvector@2@V?$basic_string@DU?$char_traits@D@std@@V?$allocator@D@2@@2@_N_J_KNVallocator@2@Uadl_serializer@nlohmann@@V?$vector@EV?$allocator@E@std@@@2@@nlohmann@@QEBA?AV?$basic_string@DU?$char_traits@D@std@@V?$allocator@D@2@@std@@HD_NW4error_handler_t@detail@2@@Z 0000000180006530 f i config.obj
 0001:000057f0       ??_E?$basic_filebuf@DU?$char_traits@D@std@@@std@@UEAAPEAXI@Z 00000001800067f0 f i * CIL library *:* CIL module *
 0001:000057f0       ??_G?$basic_filebuf@DU?$char_traits@D@std@@@std@@UEAAPEAXI@Z 00000001800067f0 f i config.obj
 0001:00005830       ??_E?$basic_fstream@DU?$char_traits@D@std@@@std@@UEAAPEAXI@Z 0000000180006830 f i * CIL library *:* CIL module *
 0001:00005830       ??_G?$basic_fstream@DU?$char_traits@D@std@@@std@@UEAAPEAXI@Z 0000000180006830 f i config.obj
 0001:00005870       ??1?$serializer@V?$basic_json@Vmap@std@@Vvector@2@V?$basic_string@DU?$char_traits@D@std@@V?$allocator@D@2@@2@_N_J_KNVallocator@2@Uadl_serializer@nlohmann@@V?$vector@EV?$allocator@E@std@@@2@@nlohmann@@@detail@nlohmann@@QEAA@XZ 0000000180006870 f i config.obj
 0001:00005920       ?dump@?$serializer@V?$basic_json@Vmap@std@@Vvector@2@V?$basic_string@DU?$char_traits@D@std@@V?$allocator@D@2@@2@_N_J_KNVallocator@2@Uadl_serializer@nlohmann@@V?$vector@EV?$allocator@E@std@@@2@@nlohmann@@@detail@nlohmann@@QEAAXAEBV?$basic_json@Vmap@std@@Vvector@2@V?$basic_string@DU?$char_traits@D@std@@V?$allocator@D@2@@2@_N_J_KNVallocator@2@Uadl_serializer@nlohmann@@V?$vector@EV?$allocator@E@std@@@2@@3@_N1II@Z 0000000180006920 f i config.obj
 0001:00006440       ?do_length@?$codecvt@DDU_Mbstatet@@@std@@MEBAHAEAU_Mbstatet@@PEBD1_K@Z 0000000180007440 f i config.obj
 0001:00006460       ?do_unshift@?$codecvt@DDU_Mbstatet@@@std@@MEBAHAEAU_Mbstatet@@PEAD1AEAPEAD@Z 0000000180007460 f i config.obj
 0001:00006470       ?do_out@?$codecvt@DDU_Mbstatet@@@std@@MEBAHAEAU_Mbstatet@@PEBD1AEAPEBDPEAD3AEAPEAD@Z 0000000180007470 f i config.obj
 0001:00006470       ?do_in@?$codecvt@DDU_Mbstatet@@@std@@MEBAHAEAU_Mbstatet@@PEBD1AEAPEBDPEAD3AEAPEAD@Z 0000000180007470 f i config.obj
 0001:00006490       ?do_always_noconv@?$codecvt@DDU_Mbstatet@@@std@@MEBA_NXZ 0000000180007490 f i config.obj
 0001:00006490       ?IsActiveOverlay@SixMansPlugin@@UEAA_NXZ 0000000180007490 f i SixMansPlugin-ReworkGUI.obj
 0001:00006490       __acrt_uninitialize_command_line 0000000180007490 f i libucrt:argv_data.obj
 0001:00006490       ?equal_void@any_executor_base@detail@execution@asio@boost@@KA_NAEBV12345@0@Z 0000000180007490 f i server.obj
 0001:000064a0       ?_Initcvt@?$basic_filebuf@DU?$char_traits@D@std@@@std@@IEAAXAEBV?$codecvt@DDU_Mbstatet@@@2@@Z 00000001800074a0 f i config.obj
 0001:00006520       ?_Endwrite@?$basic_filebuf@DU?$char_traits@D@std@@@std@@IEAA_NXZ 0000000180007520 f i config.obj
 0001:00006610       ?_Init@?$basic_filebuf@DU?$char_traits@D@std@@@std@@IEAAXPEAU_iobuf@@W4_Initfl@12@@Z 0000000180007610 f i config.obj
 0001:00006710       ?close@?$basic_filebuf@DU?$char_traits@D@std@@@std@@QEAAPEAV12@XZ 0000000180007710 f i config.obj
 0001:00006810       ??0?$basic_filebuf@DU?$char_traits@D@std@@@std@@QEAA@XZ 0000000180007810 f i config.obj
 0001:000068a0       ??0?$basic_iostream@DU?$char_traits@D@std@@@std@@QEAA@PEAV?$basic_streambuf@DU?$char_traits@D@std@@@1@@Z 00000001800078a0 f i config.obj
 0001:00006940       ??_G?$num_put@DV?$ostreambuf_iterator@DU?$char_traits@D@std@@@std@@@std@@MEAAPEAXI@Z 0000000180007940 f i config.obj
 0001:00006940       ??_G?$codecvt@DDU_Mbstatet@@@std@@MEAAPEAXI@Z 0000000180007940 f i config.obj
 0001:00006940       ??_E?$num_put@DV?$ostreambuf_iterator@DU?$char_traits@D@std@@@std@@@std@@MEAAPEAXI@Z 0000000180007940 f i * CIL library *:* CIL module *
 0001:00006940       ??_E?$codecvt@DDU_Mbstatet@@@std@@MEAAPEAXI@Z 0000000180007940 f i * CIL library *:* CIL module *
 0001:00006970       ?write_characters@?$output_string_adapter@DV?$basic_string@DU?$char_traits@D@std@@V?$allocator@D@2@@std@@@detail@nlohmann@@UEAAXPEBD_K@Z 0000000180007970 f i config.obj
 0001:00006980       ?write_character@?$output_string_adapter@DV?$basic_string@DU?$char_traits@D@std@@V?$allocator@D@2@@std@@@detail@nlohmann@@UEAAXD@Z 0000000180007980 f i config.obj
 0001:000069d0       ?dump_escaped@?$serializer@V?$basic_json@Vmap@std@@Vvector@2@V?$basic_string@DU?$char_traits@D@std@@V?$allocator@D@2@@2@_N_J_KNVallocator@2@Uadl_serializer@nlohmann@@V?$vector@EV?$allocator@E@std@@@2@@nlohmann@@@detail@nlohmann@@AEAAXAEBV?$basic_string@DU?$char_traits@D@std@@V?$allocator@D@2@@std@@_N@Z 00000001800079d0 f i config.obj
 0001:00006ef0       ?__autoclassinit2@?$basic_stringstream@DU?$char_traits@D@std@@V?$allocator@D@2@@std@@QEAAX_K@Z 0000000180007ef0 f i config.obj
 0001:00006f00       ?str@?$basic_stringstream@DU?$char_traits@D@std@@V?$allocator@D@2@@std@@QEGBA?AV?$basic_string@DU?$char_traits@D@std@@V?$allocator@D@2@@2@XZ 0000000180007f00 f i config.obj
 0001:00006fc0       ??0?$basic_stringstream@DU?$char_traits@D@std@@V?$allocator@D@2@@std@@QEAA@XZ 0000000180007fc0 f i config.obj
 0001:00007090       ??6?$basic_ostream@DU?$char_traits@D@std@@@std@@QEAAAEAV01@P6AAEAVios_base@1@AEAV21@@Z@Z 0000000180008090 f i config.obj
 0001:000070b0       ??$setfill@D@std@@YA?AU?$_Fillobj@D@0@D@Z 00000001800080b0 f i config.obj
 0001:000070c0       ??$?6DU?$char_traits@D@std@@D@std@@YAAEAV?$basic_ostream@DU?$char_traits@D@std@@@0@AEAV10@AEBU?$_Fillobj@D@0@@Z 00000001800080c0 f i config.obj
 0001:000070e0       ??$?6DU?$char_traits@D@std@@_J@std@@YAAEAV?$basic_ostream@DU?$char_traits@D@std@@@0@AEAV10@AEBU?$_Smanip@_J@0@@Z 00000001800080e0 f i config.obj
 0001:00007110       ??$parse@AEAV?$basic_string@DU?$char_traits@D@std@@V?$allocator@D@2@@std@@@?$basic_json@Vmap@std@@Vvector@2@V?$basic_string@DU?$char_traits@D@std@@V?$allocator@D@2@@2@_N_J_KNVallocator@2@Uadl_serializer@nlohmann@@V?$vector@EV?$allocator@E@std@@@2@@nlohmann@@SA?AV01@AEAV?$basic_string@DU?$char_traits@D@std@@V?$allocator@D@2@@std@@V?$function@$$A6A_NHW4parse_event_t@detail@nlohmann@@AEAV?$basic_json@Vmap@std@@Vvector@2@V?$basic_string@DU?$char_traits@D@std@@V?$allocator@D@2@@2@_N_J_KNVallocator@2@Uadl_serializer@nlohmann@@V?$vector@EV?$allocator@E@std@@@2@@3@@Z@3@_N2@Z 0000000180008110 f i config.obj
 0001:00007240       ??$use_facet@V?$codecvt@DDU_Mbstatet@@@std@@@std@@YAAEBV?$codecvt@DDU_Mbstatet@@@0@AEBVlocale@0@@Z 0000000180008240 f i config.obj
 0001:00007380       ??$dump_integer@E$0A@@?$serializer@V?$basic_json@Vmap@std@@Vvector@2@V?$basic_string@DU?$char_traits@D@std@@V?$allocator@D@2@@2@_N_J_KNVallocator@2@Uadl_serializer@nlohmann@@V?$vector@EV?$allocator@E@std@@@2@@nlohmann@@@detail@nlohmann@@AEAAXE@Z 0000000180008380 f i config.obj
 0001:000074b0       ??$dump_integer@_K$0A@@?$serializer@V?$basic_json@Vmap@std@@Vvector@2@V?$basic_string@DU?$char_traits@D@std@@V?$allocator@D@2@@2@_N_J_KNVallocator@2@Uadl_serializer@nlohmann@@V?$vector@EV?$allocator@E@std@@@2@@nlohmann@@@detail@nlohmann@@AEAAX_K@Z 00000001800084b0 f i config.obj
 0001:000075e0       ??$dump_integer@_J$0A@@?$serializer@V?$basic_json@Vmap@std@@Vvector@2@V?$basic_string@DU?$char_traits@D@std@@V?$allocator@D@2@@2@_N_J_KNVallocator@2@Uadl_serializer@nlohmann@@V?$vector@EV?$allocator@E@std@@@2@@nlohmann@@@detail@nlohmann@@AEAAX_J@Z 00000001800085e0 f i config.obj
 0001:00007790       ??1?$parser@V?$basic_json@Vmap@std@@Vvector@2@V?$basic_string@DU?$char_traits@D@std@@V?$allocator@D@2@@2@_N_J_KNVallocator@2@Uadl_serializer@nlohmann@@V?$vector@EV?$allocator@E@std@@@2@@nlohmann@@V?$iterator_input_adapter@V?$_String_const_iterator@V?$_String_val@U?$_Simple_types@D@std@@@std@@@std@@@detail@2@@detail@nlohmann@@QEAA@XZ 0000000180008790 f i config.obj
 0001:000077d0       ??1?$lexer@V?$basic_json@Vmap@std@@Vvector@2@V?$basic_string@DU?$char_traits@D@std@@V?$allocator@D@2@@2@_N_J_KNVallocator@2@Uadl_serializer@nlohmann@@V?$vector@EV?$allocator@E@std@@@2@@nlohmann@@V?$iterator_input_adapter@V?$_String_const_iterator@V?$_String_val@U?$_Simple_types@D@std@@@std@@@std@@@detail@2@@detail@nlohmann@@QEAA@XZ 00000001800087d0 f i config.obj
 0001:00007880       ?_Delete_this@?$_Ref_count_obj2@Vio_context@asio@boost@@@std@@EEAAXXZ 0000000180008880 f i server.obj
 0001:00007880       ?_Delete_this@?$_Ref_count_obj2@UCustomMatchTeamSettings@@@std@@EEAAXXZ 0000000180008880 f i privatematch_wrapper.obj
 0001:00007880       ?_Delete_this@?$_Ref_count_obj2@VSession@?$ServerBase@V?$basic_stream_socket@Vtcp@ip@asio@boost@@Vany_io_executor@34@@asio@boost@@@SimpleWeb@@@std@@EEAAXXZ 0000000180008880 f i server.obj
 0001:00007880       ?_Delete_this@?$_Ref_count@UConnections@?$ServerBase@V?$basic_stream_socket@Vtcp@ip@asio@boost@@Vany_io_executor@34@@asio@boost@@@SimpleWeb@@@std@@EEAAXXZ 0000000180008880 f i server.obj
 0001:00007880       ?_Delete_this@?$_Ref_count_obj2@V?$output_string_adapter@DV?$basic_string@DU?$char_traits@D@std@@V?$allocator@D@2@@std@@@detail@nlohmann@@@std@@EEAAXXZ 0000000180008880 f i config.obj
 0001:00007880       ?_Delete_this@?$_Ref_count_obj2@VPrivateMatch@@@std@@EEAAXXZ 0000000180008880 f i SixMansPlugin-Rework.obj
 0001:00007880       ?_Delete_this@?$_Ref_count_obj2@UCustomMatchSettings@@@std@@EEAAXXZ 0000000180008880 f i privatematch_wrapper.obj
 0001:00007880       ?_Delete_this@?$_Ref_count_resource@PEAXUnoop_deleter@socket_ops@detail@asio@boost@@@std@@EEAAXXZ 0000000180008880 f i server.obj
 0001:00007880       ?_Delete_this@?$_Ref_count_obj2@VSettingsTab@@@std@@EEAAXXZ 0000000180008880 f i SixMansPlugin-Rework.obj
 0001:00007880       ?_Delete_this@?$_Ref_count@VRequest@?$ServerBase@V?$basic_stream_socket@Vtcp@ip@asio@boost@@Vany_io_executor@34@@asio@boost@@@SimpleWeb@@@std@@EEAAXXZ 0000000180008880 f i server.obj
 0001:00007880       ?_Delete_this@?$_Ref_count_obj2@VListener@@@std@@EEAAXXZ 0000000180008880 f i SixMansPlugin-Rework.obj
 0001:00007880       ?_Delete_this@?$_Ref_count_resource@PEAVConnection@?$ServerBase@V?$basic_stream_socket@Vtcp@ip@asio@boost@@Vany_io_executor@34@@asio@boost@@@SimpleWeb@@V<lambda_1>@?1???$create_connection@AEAVio_context@asio@boost@@@23@IEAA?AV?$shared_ptr@VConnection@?$ServerBase@V?$basic_stream_socket@Vtcp@ip@asio@boost@@Vany_io_executor@34@@asio@boost@@@SimpleWeb@@@std@@AEAVio_context@asio@boost@@@Z@@std@@EEAAXXZ 0000000180008880 f i server.obj
 0001:00007880       ?_Delete_this@?$_Ref_count_resource@PEAV?$basic_streambuf@V?$allocator@D@std@@@asio@boost@@U?$default_delete@V?$basic_streambuf@V?$allocator@D@std@@@asio@boost@@@std@@@std@@EEAAXXZ 0000000180008880 f i server.obj
 0001:00007880       ?_Delete_this@?$_Ref_count_obj2@VMatchmakingWrapper@@@std@@EEAAXXZ 0000000180008880 f i privatematch_wrapper.obj
 0001:00007880       ?_Delete_this@?$_Ref_count_obj2@V?$basic_streambuf@V?$allocator@D@std@@@asio@boost@@@std@@EEAAXXZ 0000000180008880 f i server.obj
 0001:00007880       ?_Delete_this@?$_Ref_count@VScopeRunner@SimpleWeb@@@std@@EEAAXXZ 0000000180008880 f i server.obj
 0001:00007880       ?_Delete_this@?$_Ref_count_resource@PEAVResponse@?$ServerBase@V?$basic_stream_socket@Vtcp@ip@asio@boost@@Vany_io_executor@34@@asio@boost@@@SimpleWeb@@V<lambda_1>@?1??write@23@IEAAXAEBV?$shared_ptr@VSession@?$ServerBase@V?$basic_stream_socket@Vtcp@ip@asio@boost@@Vany_io_executor@34@@asio@boost@@@SimpleWeb@@@std@@AEAV?$function@$$A6AXV?$shared_ptr@VResponse@?$ServerBase@V?$basic_stream_socket@Vtcp@ip@asio@boost@@Vany_io_executor@34@@asio@boost@@@SimpleWeb@@@std@@V?$shared_ptr@VRequest@?$ServerBase@V?$basic_stream_socket@Vtcp@ip@asio@boost@@Vany_io_executor@34@@asio@boost@@@SimpleWeb@@@2@@Z@7@@Z@@std@@EEAAXXZ 0000000180008880 f i server.obj
 0001:00007880       ?_Delete_this@?$_Ref_count_obj2@VConfig@@@std@@EEAAXXZ 0000000180008880 f i im_settings.obj
 0001:00007880       ?_Delete_this@?$_Ref_count@VSixMansPlugin@@@std@@EEAAXXZ 0000000180008880 f i SixMansPlugin-Rework.obj
 0001:00007880       ?_Delete_this@?$_Ref_count@VResponse@?$ServerBase@V?$basic_stream_socket@Vtcp@ip@asio@boost@@Vany_io_executor@34@@asio@boost@@@SimpleWeb@@@std@@EEAAXXZ 0000000180008880 f i server.obj
 0001:000078a0       ?_Destroy@?$_Ref_count_obj2@V?$output_string_adapter@DV?$basic_string@DU?$char_traits@D@std@@V?$allocator@D@2@@std@@@detail@nlohmann@@@std@@EEAAXXZ 00000001800088a0 f i config.obj
 0001:000078b0       ?parse@?$parser@V?$basic_json@Vmap@std@@Vvector@2@V?$basic_string@DU?$char_traits@D@std@@V?$allocator@D@2@@2@_N_J_KNVallocator@2@Uadl_serializer@nlohmann@@V?$vector@EV?$allocator@E@std@@@2@@nlohmann@@V?$iterator_input_adapter@V?$_String_const_iterator@V?$_String_val@U?$_Simple_types@D@std@@@std@@@std@@@detail@2@@detail@nlohmann@@QEAAX_NAEAV?$basic_json@Vmap@std@@Vvector@2@V?$basic_string@DU?$char_traits@D@std@@V?$allocator@D@2@@2@_N_J_KNVallocator@2@Uadl_serializer@nlohmann@@V?$vector@EV?$allocator@E@std@@@2@@3@@Z 00000001800088b0 f i config.obj
 0001:00007ef0       ?_Getcat@?$codecvt@DDU_Mbstatet@@@std@@SA_KPEAPEBVfacet@locale@2@PEBV42@@Z 0000000180008ef0 f i config.obj
 0001:00008070       ??_G?$_Ref_count_obj2@V?$output_string_adapter@DV?$basic_string@DU?$char_traits@D@std@@V?$allocator@D@2@@std@@@detail@nlohmann@@@std@@UEAAPEAXI@Z 0000000180009070 f i config.obj
 0001:00008070       ??_E?$_Ref_count_obj2@V?$output_string_adapter@DV?$basic_string@DU?$char_traits@D@std@@V?$allocator@D@2@@std@@@detail@nlohmann@@@std@@UEAAPEAXI@Z 0000000180009070 f i * CIL library *:* CIL module *
 0001:000080a0       ?exception_message@?$parser@V?$basic_json@Vmap@std@@Vvector@2@V?$basic_string@DU?$char_traits@D@std@@V?$allocator@D@2@@2@_N_J_KNVallocator@2@Uadl_serializer@nlohmann@@V?$vector@EV?$allocator@E@std@@@2@@nlohmann@@V?$iterator_input_adapter@V?$_String_const_iterator@V?$_String_val@U?$_Simple_types@D@std@@@std@@@std@@@detail@2@@detail@nlohmann@@AEAA?AV?$basic_string@DU?$char_traits@D@std@@V?$allocator@D@2@@std@@W4token_type@?$lexer_base@V?$basic_json@Vmap@std@@Vvector@2@V?$basic_string@DU?$char_traits@D@std@@V?$allocator@D@2@@2@_N_J_KNVallocator@2@Uadl_serializer@nlohmann@@V?$vector@EV?$allocator@E@std@@@2@@nlohmann@@@23@AEBV45@@Z 00000001800090a0 f i config.obj
 0001:000089b0       ?get_token@?$parser@V?$basic_json@Vmap@std@@Vvector@2@V?$basic_string@DU?$char_traits@D@std@@V?$allocator@D@2@@2@_N_J_KNVallocator@2@Uadl_serializer@nlohmann@@V?$vector@EV?$allocator@E@std@@@2@@nlohmann@@V?$iterator_input_adapter@V?$_String_const_iterator@V?$_String_val@U?$_Simple_types@D@std@@@std@@@std@@@detail@2@@detail@nlohmann@@AEAA?AW4token_type@?$lexer_base@V?$basic_json@Vmap@std@@Vvector@2@V?$basic_string@DU?$char_traits@D@std@@V?$allocator@D@2@@2@_N_J_KNVallocator@2@Uadl_serializer@nlohmann@@V?$vector@EV?$allocator@E@std@@@2@@nlohmann@@@23@XZ 00000001800099b0 f i config.obj
 0001:00008bf0       ?get_token_string@?$lexer@V?$basic_json@Vmap@std@@Vvector@2@V?$basic_string@DU?$char_traits@D@std@@V?$allocator@D@2@@2@_N_J_KNVallocator@2@Uadl_serializer@nlohmann@@V?$vector@EV?$allocator@E@std@@@2@@nlohmann@@V?$iterator_input_adapter@V?$_String_const_iterator@V?$_String_val@U?$_Simple_types@D@std@@@std@@@std@@@detail@2@@detail@nlohmann@@QEBA?AV?$basic_string@DU?$char_traits@D@std@@V?$allocator@D@2@@std@@XZ 0000000180009bf0 f i config.obj
 0001:00008d10       ?open@?$basic_filebuf@DU?$char_traits@D@std@@@std@@QEAAPEAV12@PEB_WHH@Z 0000000180009d10 f i config.obj
 0001:00008db0       ?skip_whitespace@?$lexer@V?$basic_json@Vmap@std@@Vvector@2@V?$basic_string@DU?$char_traits@D@std@@V?$allocator@D@2@@2@_N_J_KNVallocator@2@Uadl_serializer@nlohmann@@V?$vector@EV?$allocator@E@std@@@2@@nlohmann@@V?$iterator_input_adapter@V?$_String_const_iterator@V?$_String_val@U?$_Simple_types@D@std@@@std@@@std@@@detail@2@@detail@nlohmann@@QEAAXXZ 0000000180009db0 f i config.obj
 0001:00008e60       ?skip_bom@?$lexer@V?$basic_json@Vmap@std@@Vvector@2@V?$basic_string@DU?$char_traits@D@std@@V?$allocator@D@2@@2@_N_J_KNVallocator@2@Uadl_serializer@nlohmann@@V?$vector@EV?$allocator@E@std@@@2@@nlohmann@@V?$iterator_input_adapter@V?$_String_const_iterator@V?$_String_val@U?$_Simple_types@D@std@@@std@@@std@@@detail@2@@detail@nlohmann@@QEAA_NXZ 0000000180009e60 f i config.obj
 0001:00009050       ?scan_literal@?$lexer@V?$basic_json@Vmap@std@@Vvector@2@V?$basic_string@DU?$char_traits@D@std@@V?$allocator@D@2@@2@_N_J_KNVallocator@2@Uadl_serializer@nlohmann@@V?$vector@EV?$allocator@E@std@@@2@@nlohmann@@V?$iterator_input_adapter@V?$_String_const_iterator@V?$_String_val@U?$_Simple_types@D@std@@@std@@@std@@@detail@2@@detail@nlohmann@@AEAA?AW4token_type@?$lexer_base@V?$basic_json@Vmap@std@@Vvector@2@V?$basic_string@DU?$char_traits@D@std@@V?$allocator@D@2@@2@_N_J_KNVallocator@2@Uadl_serializer@nlohmann@@V?$vector@EV?$allocator@E@std@@@2@@nlohmann@@@23@PEBD_KW44523@@Z 000000018000a050 f i config.obj
 0001:00009140       ?scan_number@?$lexer@V?$basic_json@Vmap@std@@Vvector@2@V?$basic_string@DU?$char_traits@D@std@@V?$allocator@D@2@@2@_N_J_KNVallocator@2@Uadl_serializer@nlohmann@@V?$vector@EV?$allocator@E@std@@@2@@nlohmann@@V?$iterator_input_adapter@V?$_String_const_iterator@V?$_String_val@U?$_Simple_types@D@std@@@std@@@std@@@detail@2@@detail@nlohmann@@AEAA?AW4token_type@?$lexer_base@V?$basic_json@Vmap@std@@Vvector@2@V?$basic_string@DU?$char_traits@D@std@@V?$allocator@D@2@@2@_N_J_KNVallocator@2@Uadl_serializer@nlohmann@@V?$vector@EV?$allocator@E@std@@@2@@nlohmann@@@23@XZ 000000018000a140 f i config.obj
 0001:00009ea0       ?scan_comment@?$lexer@V?$basic_json@Vmap@std@@Vvector@2@V?$basic_string@DU?$char_traits@D@std@@V?$allocator@D@2@@2@_N_J_KNVallocator@2@Uadl_serializer@nlohmann@@V?$vector@EV?$allocator@E@std@@@2@@nlohmann@@V?$iterator_input_adapter@V?$_String_const_iterator@V?$_String_val@U?$_Simple_types@D@std@@@std@@@std@@@detail@2@@detail@nlohmann@@AEAA_NXZ 000000018000aea0 f i config.obj
 0001:0000a160       ?scan_string@?$lexer@V?$basic_json@Vmap@std@@Vvector@2@V?$basic_string@DU?$char_traits@D@std@@V?$allocator@D@2@@2@_N_J_KNVallocator@2@Uadl_serializer@nlohmann@@V?$vector@EV?$allocator@E@std@@@2@@nlohmann@@V?$iterator_input_adapter@V?$_String_const_iterator@V?$_String_val@U?$_Simple_types@D@std@@@std@@@std@@@detail@2@@detail@nlohmann@@AEAA?AW4token_type@?$lexer_base@V?$basic_json@Vmap@std@@Vvector@2@V?$basic_string@DU?$char_traits@D@std@@V?$allocator@D@2@@2@_N_J_KNVallocator@2@Uadl_serializer@nlohmann@@V?$vector@EV?$allocator@E@std@@@2@@nlohmann@@@23@XZ 000000018000b160 f i config.obj
 0001:0000ace0       ?next_byte_in_range@?$lexer@V?$basic_json@Vmap@std@@Vvector@2@V?$basic_string@DU?$char_traits@D@std@@V?$allocator@D@2@@2@_N_J_KNVallocator@2@Uadl_serializer@nlohmann@@V?$vector@EV?$allocator@E@std@@@2@@nlohmann@@V?$iterator_input_adapter@V?$_String_const_iterator@V?$_String_val@U?$_Simple_types@D@std@@@std@@@std@@@detail@2@@detail@nlohmann@@AEAA_NV?$initializer_list@H@std@@@Z 000000018000bce0 f i config.obj
 0001:0000ae50       ?get_codepoint@?$lexer@V?$basic_json@Vmap@std@@Vvector@2@V?$basic_string@DU?$char_traits@D@std@@V?$allocator@D@2@@2@_N_J_KNVallocator@2@Uadl_serializer@nlohmann@@V?$vector@EV?$allocator@E@std@@@2@@nlohmann@@V?$iterator_input_adapter@V?$_String_const_iterator@V?$_String_val@U?$_Simple_types@D@std@@@std@@@std@@@detail@2@@detail@nlohmann@@AEAAHXZ 000000018000be50 f i config.obj
 0001:0000afa0       ??$parser@V?$iterator_input_adapter@V?$_String_const_iterator@V?$_String_val@U?$_Simple_types@D@std@@@std@@@std@@@detail@nlohmann@@@?$basic_json@Vmap@std@@Vvector@2@V?$basic_string@DU?$char_traits@D@std@@V?$allocator@D@2@@2@_N_J_KNVallocator@2@Uadl_serializer@nlohmann@@V?$vector@EV?$allocator@E@std@@@2@@nlohmann@@CA?AV?$parser@V?$basic_json@Vmap@std@@Vvector@2@V?$basic_string@DU?$char_traits@D@std@@V?$allocator@D@2@@2@_N_J_KNVallocator@2@Uadl_serializer@nlohmann@@V?$vector@EV?$allocator@E@std@@@2@@nlohmann@@V?$iterator_input_adapter@V?$_String_const_iterator@V?$_String_val@U?$_Simple_types@D@std@@@std@@@std@@@detail@2@@detail@1@V?$iterator_input_adapter@V?$_String_const_iterator@V?$_String_val@U?$_Simple_types@D@std@@@std@@@std@@@31@V?$function@$$A6A_NHW4parse_event_t@detail@nlohmann@@AEAV?$basic_json@Vmap@std@@Vvector@2@V?$basic_string@DU?$char_traits@D@std@@V?$allocator@D@2@@2@_N_J_KNVallocator@2@Uadl_serializer@nlohmann@@V?$vector@EV?$allocator@E@std@@@2@@3@@Z@std@@_N2@Z 000000018000bfa0 f i config.obj
 0001:0000b140       ??$grisu2@N@dtoa_impl@detail@nlohmann@@YAXPEADAEAH1N@Z 000000018000c140 f i config.obj
 0001:0000b2d0       ??$sax_parse_internal@V?$json_sax_dom_callback_parser@V?$basic_json@Vmap@std@@Vvector@2@V?$basic_string@DU?$char_traits@D@std@@V?$allocator@D@2@@2@_N_J_KNVallocator@2@Uadl_serializer@nlohmann@@V?$vector@EV?$allocator@E@std@@@2@@nlohmann@@@detail@nlohmann@@@?$parser@V?$basic_json@Vmap@std@@Vvector@2@V?$basic_string@DU?$char_traits@D@std@@V?$allocator@D@2@@2@_N_J_KNVallocator@2@Uadl_serializer@nlohmann@@V?$vector@EV?$allocator@E@std@@@2@@nlohmann@@V?$iterator_input_adapter@V?$_String_const_iterator@V?$_String_val@U?$_Simple_types@D@std@@@std@@@std@@@detail@2@@detail@nlohmann@@AEAA_NPEAV?$json_sax_dom_callback_parser@V?$basic_json@Vmap@std@@Vvector@2@V?$basic_string@DU?$char_traits@D@std@@V?$allocator@D@2@@2@_N_J_KNVallocator@2@Uadl_serializer@nlohmann@@V?$vector@EV?$allocator@E@std@@@2@@nlohmann@@@12@@Z 000000018000c2d0 f i config.obj
 0001:0000c860       ??$sax_parse_internal@V?$json_sax_dom_parser@V?$basic_json@Vmap@std@@Vvector@2@V?$basic_string@DU?$char_traits@D@std@@V?$allocator@D@2@@2@_N_J_KNVallocator@2@Uadl_serializer@nlohmann@@V?$vector@EV?$allocator@E@std@@@2@@nlohmann@@@detail@nlohmann@@@?$parser@V?$basic_json@Vmap@std@@Vvector@2@V?$basic_string@DU?$char_traits@D@std@@V?$allocator@D@2@@2@_N_J_KNVallocator@2@Uadl_serializer@nlohmann@@V?$vector@EV?$allocator@E@std@@@2@@nlohmann@@V?$iterator_input_adapter@V?$_String_const_iterator@V?$_String_val@U?$_Simple_types@D@std@@@std@@@std@@@detail@2@@detail@nlohmann@@AEAA_NPEAV?$json_sax_dom_parser@V?$basic_json@Vmap@std@@Vvector@2@V?$basic_string@DU?$char_traits@D@std@@V?$allocator@D@2@@2@_N_J_KNVallocator@2@Uadl_serializer@nlohmann@@V?$vector@EV?$allocator@E@std@@@2@@nlohmann@@@12@@Z 000000018000d860 f i config.obj
 0001:0000ddb0       ?_Get@?$_Func_impl_no_alloc@V<lambda_1>@?1???R1?1??write@?$ServerBase@V?$basic_stream_socket@Vtcp@ip@asio@boost@@Vany_io_executor@34@@asio@boost@@@SimpleWeb@@IEAAXAEBV?$shared_ptr@VSession@?$ServerBase@V?$basic_stream_socket@Vtcp@ip@asio@boost@@Vany_io_executor@34@@asio@boost@@@SimpleWeb@@@std@@AEAV?$function@$$A6AXV?$shared_ptr@VResponse@?$ServerBase@V?$basic_stream_socket@Vtcp@ip@asio@boost@@Vany_io_executor@34@@asio@boost@@@SimpleWeb@@@std@@V?$shared_ptr@VRequest@?$ServerBase@V?$basic_stream_socket@Vtcp@ip@asio@boost@@Vany_io_executor@34@@asio@boost@@@SimpleWeb@@@2@@Z@6@@Z@QEBA@PEAVResponse@34@@Z@XAEBVerror_code@system@boost@@@std@@EEBAPEBXXZ 000000018000edb0 f   server.obj
 0001:0000dec0       ??_E_Iostream_error_category2@std@@UEAAPEAXI@Z 000000018000eec0 f i * CIL library *:* CIL module *
 0001:0000dec0       ??_G_Generic_error_category@std@@UEAAPEAXI@Z 000000018000eec0 f i config.obj
 0001:0000dec0       ??_E?$output_string_adapter@DV?$basic_string@DU?$char_traits@D@std@@V?$allocator@D@2@@std@@@detail@nlohmann@@UEAAPEAXI@Z 000000018000eec0 f i * CIL library *:* CIL module *
 0001:0000dec0       ??_G?$output_string_adapter@DV?$basic_string@DU?$char_traits@D@std@@V?$allocator@D@2@@std@@@detail@nlohmann@@UEAAPEAXI@Z 000000018000eec0 f i config.obj
 0001:0000dec0       ??_G_Iostream_error_category2@std@@UEAAPEAXI@Z 000000018000eec0 f i config.obj
 0001:0000dec0       ??_E_Generic_error_category@std@@UEAAPEAXI@Z 000000018000eec0 f i * CIL library *:* CIL module *
 0001:0000dec0       ??_G_System_error_category@std@@UEAAPEAXI@Z 000000018000eec0 f i config.obj
 0001:0000dec0       ??_E_System_error_category@std@@UEAAPEAXI@Z 000000018000eec0 f i * CIL library *:* CIL module *
 0001:0000dee4       ??_E?$basic_fstream@DU?$char_traits@D@std@@@std@@$4PPPPPPPM@A@EAAPEAXI@Z 000000018000eee4 f i config.obj
 0001:0000def0       ??$_Reallocate_grow_by@V<lambda_1>@?1??append@?$basic_string@_WU?$char_traits@_W@std@@V?$allocator@_W@2@@std@@QEAAAEAV34@_K_W@Z@_K_W@?$basic_string@_WU?$char_traits@_W@std@@V?$allocator@_W@2@@std@@AEAAAEAV01@_KV<lambda_1>@?1??append@01@QEAAAEAV01@0_W@Z@_K_W@Z 000000018000eef0 f i config.obj
 0001:0000e0b0       ?_Convert_narrow_to_wide@filesystem@std@@YA?AV?$basic_string@_WU?$char_traits@_W@std@@V?$allocator@_W@2@@2@W4__std_code_page@@V?$basic_string_view@DU?$char_traits@D@std@@@2@@Z 000000018000f0b0 f i config.obj
 0001:0000e200       ??$_Emplace_reallocate@AEA_K@?$vector@V?$basic_json@Vmap@std@@Vvector@2@V?$basic_string@DU?$char_traits@D@std@@V?$allocator@D@2@@2@_N_J_KNVallocator@2@Uadl_serializer@nlohmann@@V?$vector@EV?$allocator@E@std@@@2@@nlohmann@@V?$allocator@V?$basic_json@Vmap@std@@Vvector@2@V?$basic_string@DU?$char_traits@D@std@@V?$allocator@D@2@@2@_N_J_KNVallocator@2@Uadl_serializer@nlohmann@@V?$vector@EV?$allocator@E@std@@@2@@nlohmann@@@std@@@std@@QEAAPEAV?$basic_json@Vmap@std@@Vvector@2@V?$basic_string@DU?$char_traits@D@std@@V?$allocator@D@2@@2@_N_J_KNVallocator@2@Uadl_serializer@nlohmann@@V?$vector@EV?$allocator@E@std@@@2@@nlohmann@@QEAV23@AEA_K@Z 000000018000f200 f i config.obj
 0001:0000e3f0       ??$handle_value@AEA_K@?$json_sax_dom_parser@V?$basic_json@Vmap@std@@Vvector@2@V?$basic_string@DU?$char_traits@D@std@@V?$allocator@D@2@@2@_N_J_KNVallocator@2@Uadl_serializer@nlohmann@@V?$vector@EV?$allocator@E@std@@@2@@nlohmann@@@detail@nlohmann@@AEAAPEAV?$basic_json@Vmap@std@@Vvector@2@V?$basic_string@DU?$char_traits@D@std@@V?$allocator@D@2@@2@_N_J_KNVallocator@2@Uadl_serializer@nlohmann@@V?$vector@EV?$allocator@E@std@@@2@@2@AEA_K@Z 000000018000f3f0 f i config.obj
 0001:0000e520       ??$_Emplace_reallocate@AEAV?$basic_string@DU?$char_traits@D@std@@V?$allocator@D@2@@std@@@?$vector@V?$basic_json@Vmap@std@@Vvector@2@V?$basic_string@DU?$char_traits@D@std@@V?$allocator@D@2@@2@_N_J_KNVallocator@2@Uadl_serializer@nlohmann@@V?$vector@EV?$allocator@E@std@@@2@@nlohmann@@V?$allocator@V?$basic_json@Vmap@std@@Vvector@2@V?$basic_string@DU?$char_traits@D@std@@V?$allocator@D@2@@2@_N_J_KNVallocator@2@Uadl_serializer@nlohmann@@V?$vector@EV?$allocator@E@std@@@2@@nlohmann@@@std@@@std@@QEAAPEAV?$basic_json@Vmap@std@@Vvector@2@V?$basic_string@DU?$char_traits@D@std@@V?$allocator@D@2@@2@_N_J_KNVallocator@2@Uadl_serializer@nlohmann@@V?$vector@EV?$allocator@E@std@@@2@@nlohmann@@QEAV23@AEAV?$basic_string@DU?$char_traits@D@std@@V?$allocator@D@2@@1@@Z 000000018000f520 f i config.obj
 0001:0000e7b0       ??$handle_value@AEAV?$basic_string@DU?$char_traits@D@std@@V?$allocator@D@2@@std@@@?$json_sax_dom_parser@V?$basic_json@Vmap@std@@Vvector@2@V?$basic_string@DU?$char_traits@D@std@@V?$allocator@D@2@@2@_N_J_KNVallocator@2@Uadl_serializer@nlohmann@@V?$vector@EV?$allocator@E@std@@@2@@nlohmann@@@detail@nlohmann@@AEAAPEAV?$basic_json@Vmap@std@@Vvector@2@V?$basic_string@DU?$char_traits@D@std@@V?$allocator@D@2@@2@_N_J_KNVallocator@2@Uadl_serializer@nlohmann@@V?$vector@EV?$allocator@E@std@@@2@@2@AEAV?$basic_string@DU?$char_traits@D@std@@V?$allocator@D@2@@std@@@Z 000000018000f7b0 f i config.obj
 0001:0000e970       ??$_Emplace_reallocate@AEA_J@?$vector@V?$basic_json@Vmap@std@@Vvector@2@V?$basic_string@DU?$char_traits@D@std@@V?$allocator@D@2@@2@_N_J_KNVallocator@2@Uadl_serializer@nlohmann@@V?$vector@EV?$allocator@E@std@@@2@@nlohmann@@V?$allocator@V?$basic_json@Vmap@std@@Vvector@2@V?$basic_string@DU?$char_traits@D@std@@V?$allocator@D@2@@2@_N_J_KNVallocator@2@Uadl_serializer@nlohmann@@V?$vector@EV?$allocator@E@std@@@2@@nlohmann@@@std@@@std@@QEAAPEAV?$basic_json@Vmap@std@@Vvector@2@V?$basic_string@DU?$char_traits@D@std@@V?$allocator@D@2@@2@_N_J_KNVallocator@2@Uadl_serializer@nlohmann@@V?$vector@EV?$allocator@E@std@@@2@@nlohmann@@QEAV23@AEA_J@Z 000000018000f970 f i config.obj
 0001:0000eb60       ??$handle_value@AEA_J@?$json_sax_dom_parser@V?$basic_json@Vmap@std@@Vvector@2@V?$basic_string@DU?$char_traits@D@std@@V?$allocator@D@2@@2@_N_J_KNVallocator@2@Uadl_serializer@nlohmann@@V?$vector@EV?$allocator@E@std@@@2@@nlohmann@@@detail@nlohmann@@AEAAPEAV?$basic_json@Vmap@std@@Vvector@2@V?$basic_string@DU?$char_traits@D@std@@V?$allocator@D@2@@2@_N_J_KNVallocator@2@Uadl_serializer@nlohmann@@V?$vector@EV?$allocator@E@std@@@2@@2@AEA_J@Z 000000018000fb60 f i config.obj
 0001:0000ec90       ??$_Emplace_reallocate@$$T@?$vector@V?$basic_json@Vmap@std@@Vvector@2@V?$basic_string@DU?$char_traits@D@std@@V?$allocator@D@2@@2@_N_J_KNVallocator@2@Uadl_serializer@nlohmann@@V?$vector@EV?$allocator@E@std@@@2@@nlohmann@@V?$allocator@V?$basic_json@Vmap@std@@Vvector@2@V?$basic_string@DU?$char_traits@D@std@@V?$allocator@D@2@@2@_N_J_KNVallocator@2@Uadl_serializer@nlohmann@@V?$vector@EV?$allocator@E@std@@@2@@nlohmann@@@std@@@std@@QEAAPEAV?$basic_json@Vmap@std@@Vvector@2@V?$basic_string@DU?$char_traits@D@std@@V?$allocator@D@2@@2@_N_J_KNVallocator@2@Uadl_serializer@nlohmann@@V?$vector@EV?$allocator@E@std@@@2@@nlohmann@@QEAV23@$$QEA$$T@Z 000000018000fc90 f i config.obj
 0001:0000ee50       ??$_Emplace_reallocate@AEA_N@?$vector@V?$basic_json@Vmap@std@@Vvector@2@V?$basic_string@DU?$char_traits@D@std@@V?$allocator@D@2@@2@_N_J_KNVallocator@2@Uadl_serializer@nlohmann@@V?$vector@EV?$allocator@E@std@@@2@@nlohmann@@V?$allocator@V?$basic_json@Vmap@std@@Vvector@2@V?$basic_string@DU?$char_traits@D@std@@V?$allocator@D@2@@2@_N_J_KNVallocator@2@Uadl_serializer@nlohmann@@V?$vector@EV?$allocator@E@std@@@2@@nlohmann@@@std@@@std@@QEAAPEAV?$basic_json@Vmap@std@@Vvector@2@V?$basic_string@DU?$char_traits@D@std@@V?$allocator@D@2@@2@_N_J_KNVallocator@2@Uadl_serializer@nlohmann@@V?$vector@EV?$allocator@E@std@@@2@@nlohmann@@QEAV23@AEA_N@Z 000000018000fe50 f i config.obj
 0001:0000f050       ??$handle_value@AEA_N@?$json_sax_dom_parser@V?$basic_json@Vmap@std@@Vvector@2@V?$basic_string@DU?$char_traits@D@std@@V?$allocator@D@2@@2@_N_J_KNVallocator@2@Uadl_serializer@nlohmann@@V?$vector@EV?$allocator@E@std@@@2@@nlohmann@@@detail@nlohmann@@AEAAPEAV?$basic_json@Vmap@std@@Vvector@2@V?$basic_string@DU?$char_traits@D@std@@V?$allocator@D@2@@2@_N_J_KNVallocator@2@Uadl_serializer@nlohmann@@V?$vector@EV?$allocator@E@std@@@2@@2@AEA_N@Z 0000000180010050 f i config.obj
 0001:0000f1a0       ??$_Emplace_reallocate@AEAN@?$vector@V?$basic_json@Vmap@std@@Vvector@2@V?$basic_string@DU?$char_traits@D@std@@V?$allocator@D@2@@2@_N_J_KNVallocator@2@Uadl_serializer@nlohmann@@V?$vector@EV?$allocator@E@std@@@2@@nlohmann@@V?$allocator@V?$basic_json@Vmap@std@@Vvector@2@V?$basic_string@DU?$char_traits@D@std@@V?$allocator@D@2@@2@_N_J_KNVallocator@2@Uadl_serializer@nlohmann@@V?$vector@EV?$allocator@E@std@@@2@@nlohmann@@@std@@@std@@QEAAPEAV?$basic_json@Vmap@std@@Vvector@2@V?$basic_string@DU?$char_traits@D@std@@V?$allocator@D@2@@2@_N_J_KNVallocator@2@Uadl_serializer@nlohmann@@V?$vector@EV?$allocator@E@std@@@2@@nlohmann@@QEAV23@AEAN@Z 00000001800101a0 f i config.obj
 0001:0000f3a0       ??$handle_value@AEAN@?$json_sax_dom_parser@V?$basic_json@Vmap@std@@Vvector@2@V?$basic_string@DU?$char_traits@D@std@@V?$allocator@D@2@@2@_N_J_KNVallocator@2@Uadl_serializer@nlohmann@@V?$vector@EV?$allocator@E@std@@@2@@nlohmann@@@detail@nlohmann@@AEAAPEAV?$basic_json@Vmap@std@@Vvector@2@V?$basic_string@DU?$char_traits@D@std@@V?$allocator@D@2@@2@_N_J_KNVallocator@2@Uadl_serializer@nlohmann@@V?$vector@EV?$allocator@E@std@@@2@@2@AEAN@Z 00000001800103a0 f i config.obj
 0001:0000f500       ?key@?$json_sax_dom_parser@V?$basic_json@Vmap@std@@Vvector@2@V?$basic_string@DU?$char_traits@D@std@@V?$allocator@D@2@@2@_N_J_KNVallocator@2@Uadl_serializer@nlohmann@@V?$vector@EV?$allocator@E@std@@@2@@nlohmann@@@detail@nlohmann@@QEAA_NAEAV?$basic_string@DU?$char_traits@D@std@@V?$allocator@D@2@@std@@@Z 0000000180010500 f i config.obj
 0001:0000f540       ??$_Emplace_reallocate@PEAV?$basic_json@Vmap@std@@Vvector@2@V?$basic_string@DU?$char_traits@D@std@@V?$allocator@D@2@@2@_N_J_KNVallocator@2@Uadl_serializer@nlohmann@@V?$vector@EV?$allocator@E@std@@@2@@nlohmann@@@?$vector@PEAV?$basic_json@Vmap@std@@Vvector@2@V?$basic_string@DU?$char_traits@D@std@@V?$allocator@D@2@@2@_N_J_KNVallocator@2@Uadl_serializer@nlohmann@@V?$vector@EV?$allocator@E@std@@@2@@nlohmann@@V?$allocator@PEAV?$basic_json@Vmap@std@@Vvector@2@V?$basic_string@DU?$char_traits@D@std@@V?$allocator@D@2@@2@_N_J_KNVallocator@2@Uadl_serializer@nlohmann@@V?$vector@EV?$allocator@E@std@@@2@@nlohmann@@@std@@@std@@QEAAPEAPEAV?$basic_json@Vmap@std@@Vvector@2@V?$basic_string@DU?$char_traits@D@std@@V?$allocator@D@2@@2@_N_J_KNVallocator@2@Uadl_serializer@nlohmann@@V?$vector@EV?$allocator@E@std@@@2@@nlohmann@@QEAPEAV23@$$QEAPEAV23@@Z 0000000180010540 f i config.obj
 0001:0000f540       ??$_Emplace_reallocate@AEBQEAV?$basic_json@Vmap@std@@Vvector@2@V?$basic_string@DU?$char_traits@D@std@@V?$allocator@D@2@@2@_N_J_KNVallocator@2@Uadl_serializer@nlohmann@@V?$vector@EV?$allocator@E@std@@@2@@nlohmann@@@?$vector@PEAV?$basic_json@Vmap@std@@Vvector@2@V?$basic_string@DU?$char_traits@D@std@@V?$allocator@D@2@@2@_N_J_KNVallocator@2@Uadl_serializer@nlohmann@@V?$vector@EV?$allocator@E@std@@@2@@nlohmann@@V?$allocator@PEAV?$basic_json@Vmap@std@@Vvector@2@V?$basic_string@DU?$char_traits@D@std@@V?$allocator@D@2@@2@_N_J_KNVallocator@2@Uadl_serializer@nlohmann@@V?$vector@EV?$allocator@E@std@@@2@@nlohmann@@@std@@@std@@QEAAPEAPEAV?$basic_json@Vmap@std@@Vvector@2@V?$basic_string@DU?$char_traits@D@std@@V?$allocator@D@2@@2@_N_J_KNVallocator@2@Uadl_serializer@nlohmann@@V?$vector@EV?$allocator@E@std@@@2@@nlohmann@@QEAPEAV23@AEBQEAV23@@Z 0000000180010540 f i config.obj
 0001:0000f6e0       ??$_Emplace_reallocate@W4value_t@detail@nlohmann@@@?$vector@V?$basic_json@Vmap@std@@Vvector@2@V?$basic_string@DU?$char_traits@D@std@@V?$allocator@D@2@@2@_N_J_KNVallocator@2@Uadl_serializer@nlohmann@@V?$vector@EV?$allocator@E@std@@@2@@nlohmann@@V?$allocator@V?$basic_json@Vmap@std@@Vvector@2@V?$basic_string@DU?$char_traits@D@std@@V?$allocator@D@2@@2@_N_J_KNVallocator@2@Uadl_serializer@nlohmann@@V?$vector@EV?$allocator@E@std@@@2@@nlohmann@@@std@@@std@@QEAAPEAV?$basic_json@Vmap@std@@Vvector@2@V?$basic_string@DU?$char_traits@D@std@@V?$allocator@D@2@@2@_N_J_KNVallocator@2@Uadl_serializer@nlohmann@@V?$vector@EV?$allocator@E@std@@@2@@nlohmann@@QEAV23@$$QEAW4value_t@detail@3@@Z 00000001800106e0 f i config.obj
 0001:0000f920       ??$handle_value@W4value_t@detail@nlohmann@@@?$json_sax_dom_parser@V?$basic_json@Vmap@std@@Vvector@2@V?$basic_string@DU?$char_traits@D@std@@V?$allocator@D@2@@2@_N_J_KNVallocator@2@Uadl_serializer@nlohmann@@V?$vector@EV?$allocator@E@std@@@2@@nlohmann@@@detail@nlohmann@@AEAAPEAV?$basic_json@Vmap@std@@Vvector@2@V?$basic_string@DU?$char_traits@D@std@@V?$allocator@D@2@@2@_N_J_KNVallocator@2@Uadl_serializer@nlohmann@@V?$vector@EV?$allocator@E@std@@@2@@2@$$QEAW4value_t@12@@Z 0000000180010920 f i config.obj
 0001:0000fa40       ??$handle_value@AEA_K@?$json_sax_dom_callback_parser@V?$basic_json@Vmap@std@@Vvector@2@V?$basic_string@DU?$char_traits@D@std@@V?$allocator@D@2@@2@_N_J_KNVallocator@2@Uadl_serializer@nlohmann@@V?$vector@EV?$allocator@E@std@@@2@@nlohmann@@@detail@nlohmann@@AEAA?AU?$pair@_NPEAV?$basic_json@Vmap@std@@Vvector@2@V?$basic_string@DU?$char_traits@D@std@@V?$allocator@D@2@@2@_N_J_KNVallocator@2@Uadl_serializer@nlohmann@@V?$vector@EV?$allocator@E@std@@@2@@nlohmann@@@std@@AEA_K_N@Z 0000000180010a40 f i config.obj
 0001:0000fd70       ??$handle_value@AEAV?$basic_string@DU?$char_traits@D@std@@V?$allocator@D@2@@std@@@?$json_sax_dom_callback_parser@V?$basic_json@Vmap@std@@Vvector@2@V?$basic_string@DU?$char_traits@D@std@@V?$allocator@D@2@@2@_N_J_KNVallocator@2@Uadl_serializer@nlohmann@@V?$vector@EV?$allocator@E@std@@@2@@nlohmann@@@detail@nlohmann@@AEAA?AU?$pair@_NPEAV?$basic_json@Vmap@std@@Vvector@2@V?$basic_string@DU?$char_traits@D@std@@V?$allocator@D@2@@2@_N_J_KNVallocator@2@Uadl_serializer@nlohmann@@V?$vector@EV?$allocator@E@std@@@2@@nlohmann@@@std@@AEAV?$basic_string@DU?$char_traits@D@std@@V?$allocator@D@2@@4@_N@Z 0000000180010d70 f i config.obj
 0001:000100b0       ??$handle_value@AEA_J@?$json_sax_dom_callback_parser@V?$basic_json@Vmap@std@@Vvector@2@V?$basic_string@DU?$char_traits@D@std@@V?$allocator@D@2@@2@_N_J_KNVallocator@2@Uadl_serializer@nlohmann@@V?$vector@EV?$allocator@E@std@@@2@@nlohmann@@@detail@nlohmann@@AEAA?AU?$pair@_NPEAV?$basic_json@Vmap@std@@Vvector@2@V?$basic_string@DU?$char_traits@D@std@@V?$allocator@D@2@@2@_N_J_KNVallocator@2@Uadl_serializer@nlohmann@@V?$vector@EV?$allocator@E@std@@@2@@nlohmann@@@std@@AEA_J_N@Z 00000001800110b0 f i config.obj
 0001:000103e0       ??$handle_value@$$T@?$json_sax_dom_callback_parser@V?$basic_json@Vmap@std@@Vvector@2@V?$basic_string@DU?$char_traits@D@std@@V?$allocator@D@2@@2@_N_J_KNVallocator@2@Uadl_serializer@nlohmann@@V?$vector@EV?$allocator@E@std@@@2@@nlohmann@@@detail@nlohmann@@AEAA?AU?$pair@_NPEAV?$basic_json@Vmap@std@@Vvector@2@V?$basic_string@DU?$char_traits@D@std@@V?$allocator@D@2@@2@_N_J_KNVallocator@2@Uadl_serializer@nlohmann@@V?$vector@EV?$allocator@E@std@@@2@@nlohmann@@@std@@$$QEA$$T_N@Z 00000001800113e0 f i config.obj
 0001:000106f0       ??$handle_value@AEA_N@?$json_sax_dom_callback_parser@V?$basic_json@Vmap@std@@Vvector@2@V?$basic_string@DU?$char_traits@D@std@@V?$allocator@D@2@@2@_N_J_KNVallocator@2@Uadl_serializer@nlohmann@@V?$vector@EV?$allocator@E@std@@@2@@nlohmann@@@detail@nlohmann@@AEAA?AU?$pair@_NPEAV?$basic_json@Vmap@std@@Vvector@2@V?$basic_string@DU?$char_traits@D@std@@V?$allocator@D@2@@2@_N_J_KNVallocator@2@Uadl_serializer@nlohmann@@V?$vector@EV?$allocator@E@std@@@2@@nlohmann@@@std@@AEA_N_N@Z 00000001800116f0 f i config.obj
 0001:00010a20       ??$handle_value@AEAN@?$json_sax_dom_callback_parser@V?$basic_json@Vmap@std@@Vvector@2@V?$basic_string@DU?$char_traits@D@std@@V?$allocator@D@2@@2@_N_J_KNVallocator@2@Uadl_serializer@nlohmann@@V?$vector@EV?$allocator@E@std@@@2@@nlohmann@@@detail@nlohmann@@AEAA?AU?$pair@_NPEAV?$basic_json@Vmap@std@@Vvector@2@V?$basic_string@DU?$char_traits@D@std@@V?$allocator@D@2@@2@_N_J_KNVallocator@2@Uadl_serializer@nlohmann@@V?$vector@EV?$allocator@E@std@@@2@@nlohmann@@@std@@AEAN_N@Z 0000000180011a20 f i config.obj
 0001:00010d50       ?end_array@?$json_sax_dom_callback_parser@V?$basic_json@Vmap@std@@Vvector@2@V?$basic_string@DU?$char_traits@D@std@@V?$allocator@D@2@@2@_N_J_KNVallocator@2@Uadl_serializer@nlohmann@@V?$vector@EV?$allocator@E@std@@@2@@nlohmann@@@detail@nlohmann@@QEAA_NXZ 0000000180011d50 f i config.obj
 0001:00010e60       ?key@?$json_sax_dom_callback_parser@V?$basic_json@Vmap@std@@Vvector@2@V?$basic_string@DU?$char_traits@D@std@@V?$allocator@D@2@@2@_N_J_KNVallocator@2@Uadl_serializer@nlohmann@@V?$vector@EV?$allocator@E@std@@@2@@nlohmann@@@detail@nlohmann@@QEAA_NAEAV?$basic_string@DU?$char_traits@D@std@@V?$allocator@D@2@@std@@@Z 0000000180011e60 f i config.obj
 0001:00011030       ??1?$unique_ptr@V?$map@V?$basic_string@DU?$char_traits@D@std@@V?$allocator@D@2@@std@@V?$basic_json@Vmap@std@@Vvector@2@V?$basic_string@DU?$char_traits@D@std@@V?$allocator@D@2@@2@_N_J_KNVallocator@2@Uadl_serializer@nlohmann@@V?$vector@EV?$allocator@E@std@@@2@@nlohmann@@U?$less@X@2@V?$allocator@U?$pair@$$CBV?$basic_string@DU?$char_traits@D@std@@V?$allocator@D@2@@std@@V?$basic_json@Vmap@std@@Vvector@2@V?$basic_string@DU?$char_traits@D@std@@V?$allocator@D@2@@2@_N_J_KNVallocator@2@Uadl_serializer@nlohmann@@V?$vector@EV?$allocator@E@std@@@2@@nlohmann@@@std@@@2@@std@@V<lambda_1>@?1???$create@V?$map@V?$basic_string@DU?$char_traits@D@std@@V?$allocator@D@2@@std@@V?$basic_json@Vmap@std@@Vvector@2@V?$basic_string@DU?$char_traits@D@std@@V?$allocator@D@2@@2@_N_J_KNVallocator@2@Uadl_serializer@nlohmann@@V?$vector@EV?$allocator@E@std@@@2@@nlohmann@@U?$less@X@2@V?$allocator@U?$pair@$$CBV?$basic_string@DU?$char_traits@D@std@@V?$allocator@D@2@@std@@V?$basic_json@Vmap@std@@Vvector@2@V?$basic_string@DU?$char_traits@D@std@@V?$allocator@D@2@@2@_N_J_KNVallocator@2@Uadl_serializer@nlohmann@@V?$vector@EV?$allocator@E@std@@@2@@nlohmann@@@std@@@2@@std@@AEBV12@@?$basic_json@Vmap@std@@Vvector@2@V?$basic_string@DU?$char_traits@D@std@@V?$allocator@D@2@@2@_N_J_KNVallocator@2@Uadl_serializer@nlohmann@@V?$vector@EV?$allocator@E@std@@@2@@nlohmann@@CAPEAV12@AEBV12@@Z@@std@@QEAA@XZ 0000000180012030 f i config.obj
 0001:00011030       ??1?$unique_ptr@V?$map@V?$basic_string@DU?$char_traits@D@std@@V?$allocator@D@2@@std@@V?$basic_json@Vmap@std@@Vvector@2@V?$basic_string@DU?$char_traits@D@std@@V?$allocator@D@2@@2@_N_J_KNVallocator@2@Uadl_serializer@nlohmann@@V?$vector@EV?$allocator@E@std@@@2@@nlohmann@@U?$less@X@2@V?$allocator@U?$pair@$$CBV?$basic_string@DU?$char_traits@D@std@@V?$allocator@D@2@@std@@V?$basic_json@Vmap@std@@Vvector@2@V?$basic_string@DU?$char_traits@D@std@@V?$allocator@D@2@@2@_N_J_KNVallocator@2@Uadl_serializer@nlohmann@@V?$vector@EV?$allocator@E@std@@@2@@nlohmann@@@std@@@2@@std@@V<lambda_1>@?1???$create@V?$map@V?$basic_string@DU?$char_traits@D@std@@V?$allocator@D@2@@std@@V?$basic_json@Vmap@std@@Vvector@2@V?$basic_string@DU?$char_traits@D@std@@V?$allocator@D@2@@2@_N_J_KNVallocator@2@Uadl_serializer@nlohmann@@V?$vector@EV?$allocator@E@std@@@2@@nlohmann@@U?$less@X@2@V?$allocator@U?$pair@$$CBV?$basic_string@DU?$char_traits@D@std@@V?$allocator@D@2@@std@@V?$basic_json@Vmap@std@@Vvector@2@V?$basic_string@DU?$char_traits@D@std@@V?$allocator@D@2@@2@_N_J_KNVallocator@2@Uadl_serializer@nlohmann@@V?$vector@EV?$allocator@E@std@@@2@@nlohmann@@@std@@@2@@std@@$$V@?$basic_json@Vmap@std@@Vvector@2@V?$basic_string@DU?$char_traits@D@std@@V?$allocator@D@2@@2@_N_J_KNVallocator@2@Uadl_serializer@nlohmann@@V?$vector@EV?$allocator@E@std@@@2@@nlohmann@@CAPEAV12@XZ@@std@@QEAA@XZ 0000000180012030 f i config.obj
 0001:00011050       ??1?$_Tree_head_scoped_ptr@V?$allocator@U?$_Tree_node@U?$pair@$$CBV?$basic_string@DU?$char_traits@D@std@@V?$allocator@D@2@@std@@V?$basic_json@Vmap@std@@Vvector@2@V?$basic_string@DU?$char_traits@D@std@@V?$allocator@D@2@@2@_N_J_KNVallocator@2@Uadl_serializer@nlohmann@@V?$vector@EV?$allocator@E@std@@@2@@nlohmann@@@std@@PEAX@std@@@std@@V?$_Tree_val@U?$_Tree_simple_types@U?$pair@$$CBV?$basic_string@DU?$char_traits@D@std@@V?$allocator@D@2@@std@@V?$basic_json@Vmap@std@@Vvector@2@V?$basic_string@DU?$char_traits@D@std@@V?$allocator@D@2@@2@_N_J_KNVallocator@2@Uadl_serializer@nlohmann@@V?$vector@EV?$allocator@E@std@@@2@@nlohmann@@@std@@@std@@@2@@std@@QEAA@XZ 0000000180012050 f i config.obj
 0001:00011070       ??$_Erase_tree_and_orphan@V?$allocator@U?$_Tree_node@U?$pair@$$CBV?$basic_string@DU?$char_traits@D@std@@V?$allocator@D@2@@std@@V?$basic_json@Vmap@std@@Vvector@2@V?$basic_string@DU?$char_traits@D@std@@V?$allocator@D@2@@2@_N_J_KNVallocator@2@Uadl_serializer@nlohmann@@V?$vector@EV?$allocator@E@std@@@2@@nlohmann@@@std@@PEAX@std@@@std@@@?$_Tree_val@U?$_Tree_simple_types@U?$pair@$$CBV?$basic_string@DU?$char_traits@D@std@@V?$allocator@D@2@@std@@V?$basic_json@Vmap@std@@Vvector@2@V?$basic_string@DU?$char_traits@D@std@@V?$allocator@D@2@@2@_N_J_KNVallocator@2@Uadl_serializer@nlohmann@@V?$vector@EV?$allocator@E@std@@@2@@nlohmann@@@std@@@std@@@std@@QEAAXAEAV?$allocator@U?$_Tree_node@U?$pair@$$CBV?$basic_string@DU?$char_traits@D@std@@V?$allocator@D@2@@std@@V?$basic_json@Vmap@std@@Vvector@2@V?$basic_string@DU?$char_traits@D@std@@V?$allocator@D@2@@2@_N_J_KNVallocator@2@Uadl_serializer@nlohmann@@V?$vector@EV?$allocator@E@std@@@2@@nlohmann@@@std@@PEAX@std@@@1@PEAU?$_Tree_node@U?$pair@$$CBV?$basic_string@DU?$char_traits@D@std@@V?$allocator@D@2@@std@@V?$basic_json@Vmap@std@@Vvector@2@V?$basic_string@DU?$char_traits@D@std@@V?$allocator@D@2@@2@_N_J_KNVallocator@2@Uadl_serializer@nlohmann@@V?$vector@EV?$allocator@E@std@@@2@@nlohmann@@@std@@PEAX@1@@Z 0000000180012070 f i config.obj
 0001:00011070       ??$_Erase_tree@V?$allocator@U?$_Tree_node@U?$pair@$$CBV?$basic_string@DU?$char_traits@D@std@@V?$allocator@D@2@@std@@V?$basic_json@Vmap@std@@Vvector@2@V?$basic_string@DU?$char_traits@D@std@@V?$allocator@D@2@@2@_N_J_KNVallocator@2@Uadl_serializer@nlohmann@@V?$vector@EV?$allocator@E@std@@@2@@nlohmann@@@std@@PEAX@std@@@std@@@?$_Tree_val@U?$_Tree_simple_types@U?$pair@$$CBV?$basic_string@DU?$char_traits@D@std@@V?$allocator@D@2@@std@@V?$basic_json@Vmap@std@@Vvector@2@V?$basic_string@DU?$char_traits@D@std@@V?$allocator@D@2@@2@_N_J_KNVallocator@2@Uadl_serializer@nlohmann@@V?$vector@EV?$allocator@E@std@@@2@@nlohmann@@@std@@@std@@@std@@QEAAXAEAV?$allocator@U?$_Tree_node@U?$pair@$$CBV?$basic_string@DU?$char_traits@D@std@@V?$allocator@D@2@@std@@V?$basic_json@Vmap@std@@Vvector@2@V?$basic_string@DU?$char_traits@D@std@@V?$allocator@D@2@@2@_N_J_KNVallocator@2@Uadl_serializer@nlohmann@@V?$vector@EV?$allocator@E@std@@@2@@nlohmann@@@std@@PEAX@std@@@1@PEAU?$_Tree_node@U?$pair@$$CBV?$basic_string@DU?$char_traits@D@std@@V?$allocator@D@2@@std@@V?$basic_json@Vmap@std@@Vvector@2@V?$basic_string@DU?$char_traits@D@std@@V?$allocator@D@2@@2@_N_J_KNVallocator@2@Uadl_serializer@nlohmann@@V?$vector@EV?$allocator@E@std@@@2@@nlohmann@@@std@@PEAX@1@@Z 0000000180012070 f i config.obj
 0001:000110d0       ??$_Copy_nodes@U_Copy_tag@?$_Tree@V?$_Tmap_traits@V?$basic_string@DU?$char_traits@D@std@@V?$allocator@D@2@@std@@V?$basic_json@Vmap@std@@Vvector@2@V?$basic_string@DU?$char_traits@D@std@@V?$allocator@D@2@@2@_N_J_KNVallocator@2@Uadl_serializer@nlohmann@@V?$vector@EV?$allocator@E@std@@@2@@nlohmann@@U?$less@X@2@V?$allocator@U?$pair@$$CBV?$basic_string@DU?$char_traits@D@std@@V?$allocator@D@2@@std@@V?$basic_json@Vmap@std@@Vvector@2@V?$basic_string@DU?$char_traits@D@std@@V?$allocator@D@2@@2@_N_J_KNVallocator@2@Uadl_serializer@nlohmann@@V?$vector@EV?$allocator@E@std@@@2@@nlohmann@@@std@@@2@$0A@@std@@@std@@@?$_Tree@V?$_Tmap_traits@V?$basic_string@DU?$char_traits@D@std@@V?$allocator@D@2@@std@@V?$basic_json@Vmap@std@@Vvector@2@V?$basic_string@DU?$char_traits@D@std@@V?$allocator@D@2@@2@_N_J_KNVallocator@2@Uadl_serializer@nlohmann@@V?$vector@EV?$allocator@E@std@@@2@@nlohmann@@U?$less@X@2@V?$allocator@U?$pair@$$CBV?$basic_string@DU?$char_traits@D@std@@V?$allocator@D@2@@std@@V?$basic_json@Vmap@std@@Vvector@2@V?$basic_string@DU?$char_traits@D@std@@V?$allocator@D@2@@2@_N_J_KNVallocator@2@Uadl_serializer@nlohmann@@V?$vector@EV?$allocator@E@std@@@2@@nlohmann@@@std@@@2@$0A@@std@@@std@@IEAAPEAU?$_Tree_node@U?$pair@$$CBV?$basic_string@DU?$char_traits@D@std@@V?$allocator@D@2@@std@@V?$basic_json@Vmap@std@@Vvector@2@V?$basic_string@DU?$char_traits@D@std@@V?$allocator@D@2@@2@_N_J_KNVallocator@2@Uadl_serializer@nlohmann@@V?$vector@EV?$allocator@E@std@@@2@@nlohmann@@@std@@PEAX@1@PEAU21@0U_Copy_tag@01@@Z 00000001800120d0 f i config.obj
 0001:000111d0       ??0?$map@V?$basic_string@DU?$char_traits@D@std@@V?$allocator@D@2@@std@@V?$basic_json@Vmap@std@@Vvector@2@V?$basic_string@DU?$char_traits@D@std@@V?$allocator@D@2@@2@_N_J_KNVallocator@2@Uadl_serializer@nlohmann@@V?$vector@EV?$allocator@E@std@@@2@@nlohmann@@U?$less@X@2@V?$allocator@U?$pair@$$CBV?$basic_string@DU?$char_traits@D@std@@V?$allocator@D@2@@std@@V?$basic_json@Vmap@std@@Vvector@2@V?$basic_string@DU?$char_traits@D@std@@V?$allocator@D@2@@2@_N_J_KNVallocator@2@Uadl_serializer@nlohmann@@V?$vector@EV?$allocator@E@std@@@2@@nlohmann@@@std@@@2@@std@@QEAA@AEBV01@@Z 00000001800121d0 f i config.obj
 0001:000112b0       ??1?$unique_ptr@V?$vector@V?$basic_json@Vmap@std@@Vvector@2@V?$basic_string@DU?$char_traits@D@std@@V?$allocator@D@2@@2@_N_J_KNVallocator@2@Uadl_serializer@nlohmann@@V?$vector@EV?$allocator@E@std@@@2@@nlohmann@@V?$allocator@V?$basic_json@Vmap@std@@Vvector@2@V?$basic_string@DU?$char_traits@D@std@@V?$allocator@D@2@@2@_N_J_KNVallocator@2@Uadl_serializer@nlohmann@@V?$vector@EV?$allocator@E@std@@@2@@nlohmann@@@std@@@std@@V<lambda_1>@?1???$create@V?$vector@V?$basic_json@Vmap@std@@Vvector@2@V?$basic_string@DU?$char_traits@D@std@@V?$allocator@D@2@@2@_N_J_KNVallocator@2@Uadl_serializer@nlohmann@@V?$vector@EV?$allocator@E@std@@@2@@nlohmann@@V?$allocator@V?$basic_json@Vmap@std@@Vvector@2@V?$basic_string@DU?$char_traits@D@std@@V?$allocator@D@2@@2@_N_J_KNVallocator@2@Uadl_serializer@nlohmann@@V?$vector@EV?$allocator@E@std@@@2@@nlohmann@@@std@@@std@@AEBV12@@?$basic_json@Vmap@std@@Vvector@2@V?$basic_string@DU?$char_traits@D@std@@V?$allocator@D@2@@2@_N_J_KNVallocator@2@Uadl_serializer@nlohmann@@V?$vector@EV?$allocator@E@std@@@2@@nlohmann@@CAPEAV12@AEBV12@@Z@@std@@QEAA@XZ 00000001800122b0 f i config.obj
 0001:000112b0       ??1?$_Alloc_construct_ptr@V?$allocator@U?$_List_node@PEAVConnection@?$ServerBase@V?$basic_stream_socket@Vtcp@ip@asio@boost@@Vany_io_executor@34@@asio@boost@@@SimpleWeb@@PEAX@std@@@std@@@std@@QEAA@XZ 00000001800122b0 f i server.obj
 0001:000112b0       ??1?$_List_node_emplace_op2@V?$allocator@U?$_List_node@PEAVConnection@?$ServerBase@V?$basic_stream_socket@Vtcp@ip@asio@boost@@Vany_io_executor@34@@asio@boost@@@SimpleWeb@@PEAX@std@@@std@@@std@@QEAA@XZ 00000001800122b0 f i server.obj
 0001:000112d0       ??1?$_Tidy_guard@V?$vector@V?$basic_json@Vmap@std@@Vvector@2@V?$basic_string@DU?$char_traits@D@std@@V?$allocator@D@2@@2@_N_J_KNVallocator@2@Uadl_serializer@nlohmann@@V?$vector@EV?$allocator@E@std@@@2@@nlohmann@@V?$allocator@V?$basic_json@Vmap@std@@Vvector@2@V?$basic_string@DU?$char_traits@D@std@@V?$allocator@D@2@@2@_N_J_KNVallocator@2@Uadl_serializer@nlohmann@@V?$vector@EV?$allocator@E@std@@@2@@nlohmann@@@std@@@std@@@std@@QEAA@XZ 00000001800122d0 f i config.obj
 0001:000112e0       ??0?$vector@V?$basic_json@Vmap@std@@Vvector@2@V?$basic_string@DU?$char_traits@D@std@@V?$allocator@D@2@@2@_N_J_KNVallocator@2@Uadl_serializer@nlohmann@@V?$vector@EV?$allocator@E@std@@@2@@nlohmann@@V?$allocator@V?$basic_json@Vmap@std@@Vvector@2@V?$basic_string@DU?$char_traits@D@std@@V?$allocator@D@2@@2@_N_J_KNVallocator@2@Uadl_serializer@nlohmann@@V?$vector@EV?$allocator@E@std@@@2@@nlohmann@@@std@@@std@@QEAA@AEBV01@@Z 00000001800122e0 f i config.obj
 0001:00011420       ??1?$unique_ptr@V?$basic_string@DU?$char_traits@D@std@@V?$allocator@D@2@@std@@V<lambda_1>@?1???$create@V?$basic_string@DU?$char_traits@D@std@@V?$allocator@D@2@@std@@AEBV12@@?$basic_json@Vmap@std@@Vvector@2@V?$basic_string@DU?$char_traits@D@std@@V?$allocator@D@2@@2@_N_J_KNVallocator@2@Uadl_serializer@nlohmann@@V?$vector@EV?$allocator@E@std@@@2@@nlohmann@@CAPEAV12@AEBV12@@Z@@std@@QEAA@XZ 0000000180012420 f i config.obj
 0001:00011420       ??1?$unique_ptr@V?$basic_string@DU?$char_traits@D@std@@V?$allocator@D@2@@std@@V<lambda_1>@?1???$create@V?$basic_string@DU?$char_traits@D@std@@V?$allocator@D@2@@std@@AEAY00$$CBD@?$basic_json@Vmap@std@@Vvector@2@V?$basic_string@DU?$char_traits@D@std@@V?$allocator@D@2@@2@_N_J_KNVallocator@2@Uadl_serializer@nlohmann@@V?$vector@EV?$allocator@E@std@@@2@@nlohmann@@CAPEAV12@AEAY00$$CBD@Z@@std@@QEAA@XZ 0000000180012420 f i config.obj
 0001:00011440       ??1?$unique_ptr@V?$byte_container_with_subtype@V?$vector@EV?$allocator@E@std@@@std@@@nlohmann@@V<lambda_1>@?1???$create@V?$byte_container_with_subtype@V?$vector@EV?$allocator@E@std@@@std@@@nlohmann@@AEBV12@@?$basic_json@Vmap@std@@Vvector@2@V?$basic_string@DU?$char_traits@D@std@@V?$allocator@D@2@@2@_N_J_KNVallocator@2@Uadl_serializer@nlohmann@@V?$vector@EV?$allocator@E@std@@@2@@2@CAPEAV12@AEBV12@@Z@@std@@QEAA@XZ 0000000180012440 f i config.obj
 0001:00011460       ?_Xlength@?$vector@EV?$allocator@E@std@@@std@@CAXXZ 0000000180012460 f i config.obj
 0001:00011460       ?_Xlength@?$vector@DV?$allocator@D@std@@@std@@CAXXZ 0000000180012460 f i config.obj
 0001:00011460       ?_Xlength@?$vector@V?$function@$$A6AXAEBVerror_code@system@boost@@@Z@std@@V?$allocator@V?$function@$$A6AXAEBVerror_code@system@boost@@@Z@std@@@2@@std@@CAXXZ 0000000180012460 f i server.obj
 0001:00011460       ?_Xlength@?$vector@IV?$allocator@I@std@@@std@@CAXXZ 0000000180012460 f i config.obj
 0001:00011460       ?_Xlength@?$vector@PEAV?$basic_json@Vmap@std@@Vvector@2@V?$basic_string@DU?$char_traits@D@std@@V?$allocator@D@2@@2@_N_J_KNVallocator@2@Uadl_serializer@nlohmann@@V?$vector@EV?$allocator@E@std@@@2@@nlohmann@@V?$allocator@PEAV?$basic_json@Vmap@std@@Vvector@2@V?$basic_string@DU?$char_traits@D@std@@V?$allocator@D@2@@2@_N_J_KNVallocator@2@Uadl_serializer@nlohmann@@V?$vector@EV?$allocator@E@std@@@2@@nlohmann@@@std@@@std@@CAXXZ 0000000180012460 f i config.obj
 0001:00011460       ?_Xlength@?$vector@V?$basic_json@Vmap@std@@Vvector@2@V?$basic_string@DU?$char_traits@D@std@@V?$allocator@D@2@@2@_N_J_KNVallocator@2@Uadl_serializer@nlohmann@@V?$vector@EV?$allocator@E@std@@@2@@nlohmann@@V?$allocator@V?$basic_json@Vmap@std@@Vvector@2@V?$basic_string@DU?$char_traits@D@std@@V?$allocator@D@2@@2@_N_J_KNVallocator@2@Uadl_serializer@nlohmann@@V?$vector@EV?$allocator@E@std@@@2@@nlohmann@@@std@@@std@@CAXXZ 0000000180012460 f i config.obj
 0001:00011460       ?_Xlength@?$vector@U_Loop_vals_t@std@@V?$allocator@U_Loop_vals_t@std@@@2@@std@@CAXXZ 0000000180012460 f i server.obj
 0001:00011460       ?_Xlength@?$vector@V?$sub_match@V?$_String_const_iterator@V?$_String_val@U?$_Simple_types@D@std@@@std@@@std@@@std@@V?$allocator@V?$sub_match@V?$_String_const_iterator@V?$_String_val@U?$_Simple_types@D@std@@@std@@@std@@@std@@@2@@std@@CAXXZ 0000000180012460 f i server.obj
 0001:00011460       ?_Xlength@?$vector@U_Grp_t@?$_Tgt_state_t@V?$_String_const_iterator@V?$_String_val@U?$_Simple_types@D@std@@@std@@@std@@@std@@V?$allocator@U_Grp_t@?$_Tgt_state_t@V?$_String_const_iterator@V?$_String_val@U?$_Simple_types@D@std@@@std@@@std@@@std@@@3@@std@@CAXXZ 0000000180012460 f i server.obj
 0001:00011460       ?_Xlength@?$vector@Uheap_entry@?$timer_queue@U?$chrono_time_traits@Usteady_clock@chrono@std@@U?$wait_traits@Usteady_clock@chrono@std@@@asio@boost@@@detail@asio@boost@@@detail@asio@boost@@V?$allocator@Uheap_entry@?$timer_queue@U?$chrono_time_traits@Usteady_clock@chrono@std@@U?$wait_traits@Usteady_clock@chrono@std@@@asio@boost@@@detail@asio@boost@@@detail@asio@boost@@@std@@@std@@CAXXZ 0000000180012460 f i server.obj
 0001:00011460       ?_Xlength@?$vector@Vthread@std@@V?$allocator@Vthread@std@@@2@@std@@CAXXZ 0000000180012460 f i server.obj
 0001:00011480       ??0?$byte_container_with_subtype@V?$vector@EV?$allocator@E@std@@@std@@@nlohmann@@QEAA@AEBV01@@Z 0000000180012480 f i config.obj
 0001:00011560       ??0?$basic_json@Vmap@std@@Vvector@2@V?$basic_string@DU?$char_traits@D@std@@V?$allocator@D@2@@2@_N_J_KNVallocator@2@Uadl_serializer@nlohmann@@V?$vector@EV?$allocator@E@std@@@2@@nlohmann@@QEAA@AEBV01@@Z 0000000180012560 f i config.obj
 0001:00011710       ??$create@V?$basic_json@Vmap@std@@Vvector@2@V?$basic_string@DU?$char_traits@D@std@@V?$allocator@D@2@@2@_N_J_KNVallocator@2@Uadl_serializer@nlohmann@@V?$vector@EV?$allocator@E@std@@@2@@nlohmann@@@invalid_iterator@detail@nlohmann@@SA?AV012@HAEBV?$basic_string@DU?$char_traits@D@std@@V?$allocator@D@2@@std@@AEBV?$basic_json@Vmap@std@@Vvector@2@V?$basic_string@DU?$char_traits@D@std@@V?$allocator@D@2@@2@_N_J_KNVallocator@2@Uadl_serializer@nlohmann@@V?$vector@EV?$allocator@E@std@@@2@@2@@Z 0000000180012710 f i config.obj
 0001:000119d0       ??1out_of_range@detail@nlohmann@@UEAA@XZ 00000001800129d0 f i config.obj
 0001:000119d0       ??1invalid_iterator@detail@nlohmann@@UEAA@XZ 00000001800129d0 f i config.obj
 0001:000119d0       ??1type_error@detail@nlohmann@@UEAA@XZ 00000001800129d0 f i config.obj
 0001:000119d0       ??1parse_error@detail@nlohmann@@UEAA@XZ 00000001800129d0 f i config.obj
 0001:000119d0       ??1other_error@detail@nlohmann@@UEAA@XZ 00000001800129d0 f i config.obj
 0001:00011a10       ??_Gtype_error@detail@nlohmann@@UEAAPEAXI@Z 0000000180012a10 f i config.obj
 0001:00011a10       ??_Gother_error@detail@nlohmann@@UEAAPEAXI@Z 0000000180012a10 f i config.obj
 0001:00011a10       ??_Etype_error@detail@nlohmann@@UEAAPEAXI@Z 0000000180012a10 f i * CIL library *:* CIL module *
 0001:00011a10       ??_Eother_error@detail@nlohmann@@UEAAPEAXI@Z 0000000180012a10 f i * CIL library *:* CIL module *
 0001:00011a10       ??_Gexception@detail@nlohmann@@UEAAPEAXI@Z 0000000180012a10 f i config.obj
 0001:00011a10       ??_Eout_of_range@detail@nlohmann@@UEAAPEAXI@Z 0000000180012a10 f i * CIL library *:* CIL module *
 0001:00011a10       ??_Einvalid_iterator@detail@nlohmann@@UEAAPEAXI@Z 0000000180012a10 f i * CIL library *:* CIL module *
 0001:00011a10       ??_Gout_of_range@detail@nlohmann@@UEAAPEAXI@Z 0000000180012a10 f i config.obj
 0001:00011a10       ??_Eexception@detail@nlohmann@@UEAAPEAXI@Z 0000000180012a10 f i * CIL library *:* CIL module *
 0001:00011a10       ??_Ginvalid_iterator@detail@nlohmann@@UEAAPEAXI@Z 0000000180012a10 f i config.obj
 0001:00011a70       ??0invalid_iterator@detail@nlohmann@@QEAA@AEBV012@@Z 0000000180012a70 f i config.obj
 0001:00011aa0       ?_Extract@?$_Tree_val@U?$_Tree_simple_types@U?$pair@$$CBV?$basic_string@DU?$char_traits@D@std@@V?$allocator@D@2@@std@@V?$basic_json@Vmap@std@@Vvector@2@V?$basic_string@DU?$char_traits@D@std@@V?$allocator@D@2@@2@_N_J_KNVallocator@2@Uadl_serializer@nlohmann@@V?$vector@EV?$allocator@E@std@@@2@@nlohmann@@@std@@@std@@@std@@QEAAPEAU?$_Tree_node@U?$pair@$$CBV?$basic_string@DU?$char_traits@D@std@@V?$allocator@D@2@@std@@V?$basic_json@Vmap@std@@Vvector@2@V?$basic_string@DU?$char_traits@D@std@@V?$allocator@D@2@@2@_N_J_KNVallocator@2@Uadl_serializer@nlohmann@@V?$vector@EV?$allocator@E@std@@@2@@nlohmann@@@std@@PEAX@2@V?$_Tree_unchecked_const_iterator@V?$_Tree_val@U?$_Tree_simple_types@U?$pair@$$CBV?$basic_string@DU?$char_traits@D@std@@V?$allocator@D@2@@std@@V?$basic_json@Vmap@std@@Vvector@2@V?$basic_string@DU?$char_traits@D@std@@V?$allocator@D@2@@2@_N_J_KNVallocator@2@Uadl_serializer@nlohmann@@V?$vector@EV?$allocator@E@std@@@2@@nlohmann@@@std@@@std@@@std@@U_Iterator_base0@2@@2@@Z 0000000180012aa0 f i config.obj
 0001:00011f80       ??$erase@V?$iter_impl@V?$basic_json@Vmap@std@@Vvector@2@V?$basic_string@DU?$char_traits@D@std@@V?$allocator@D@2@@2@_N_J_KNVallocator@2@Uadl_serializer@nlohmann@@V?$vector@EV?$allocator@E@std@@@2@@nlohmann@@@detail@nlohmann@@$0A@@?$basic_json@Vmap@std@@Vvector@2@V?$basic_string@DU?$char_traits@D@std@@V?$allocator@D@2@@2@_N_J_KNVallocator@2@Uadl_serializer@nlohmann@@V?$vector@EV?$allocator@E@std@@@2@@nlohmann@@QEAA?AV?$iter_impl@V?$basic_json@Vmap@std@@Vvector@2@V?$basic_string@DU?$char_traits@D@std@@V?$allocator@D@2@@2@_N_J_KNVallocator@2@Uadl_serializer@nlohmann@@V?$vector@EV?$allocator@E@std@@@2@@nlohmann@@@detail@1@V231@@Z 0000000180012f80 f i config.obj
 0001:00012300       ?end_object@?$json_sax_dom_callback_parser@V?$basic_json@Vmap@std@@Vvector@2@V?$basic_string@DU?$char_traits@D@std@@V?$allocator@D@2@@2@_N_J_KNVallocator@2@Uadl_serializer@nlohmann@@V?$vector@EV?$allocator@E@std@@@2@@nlohmann@@@detail@nlohmann@@QEAA_NXZ 0000000180013300 f i config.obj
 0001:00012780       ?erase@?$vector@_NV?$allocator@_N@std@@@std@@QEAA?AV?$_Vb_iterator@U?$_Wrap_alloc@V?$allocator@I@std@@@std@@@2@V?$_Vb_const_iterator@U?$_Wrap_alloc@V?$allocator@I@std@@@std@@@2@@Z 0000000180013780 f i config.obj
 0001:000129e0       ?pop_back@?$vector@_NV?$allocator@_N@std@@@std@@QEAAXXZ 00000001800139e0 f i config.obj
 0001:00012a80       ??$handle_value@W4value_t@detail@nlohmann@@@?$json_sax_dom_callback_parser@V?$basic_json@Vmap@std@@Vvector@2@V?$basic_string@DU?$char_traits@D@std@@V?$allocator@D@2@@2@_N_J_KNVallocator@2@Uadl_serializer@nlohmann@@V?$vector@EV?$allocator@E@std@@@2@@nlohmann@@@detail@nlohmann@@AEAA?AU?$pair@_NPEAV?$basic_json@Vmap@std@@Vvector@2@V?$basic_string@DU?$char_traits@D@std@@V?$allocator@D@2@@2@_N_J_KNVallocator@2@Uadl_serializer@nlohmann@@V?$vector@EV?$allocator@E@std@@@2@@nlohmann@@@std@@$$QEAW4value_t@12@_N@Z 0000000180013a80 f i config.obj
 0001:00012d40       ??$create@V?$basic_json@Vmap@std@@Vvector@2@V?$basic_string@DU?$char_traits@D@std@@V?$allocator@D@2@@2@_N_J_KNVallocator@2@Uadl_serializer@nlohmann@@V?$vector@EV?$allocator@E@std@@@2@@nlohmann@@@out_of_range@detail@nlohmann@@SA?AV012@HAEBV?$basic_string@DU?$char_traits@D@std@@V?$allocator@D@2@@std@@AEBV?$basic_json@Vmap@std@@Vvector@2@V?$basic_string@DU?$char_traits@D@std@@V?$allocator@D@2@@2@_N_J_KNVallocator@2@Uadl_serializer@nlohmann@@V?$vector@EV?$allocator@E@std@@@2@@2@@Z 0000000180013d40 f i config.obj
 0001:00013000       ??0out_of_range@detail@nlohmann@@QEAA@AEBV012@@Z 0000000180014000 f i config.obj
 0001:00013030       ?grisu2_digit_gen@dtoa_impl@detail@nlohmann@@YAXPEADAEAH1Udiyfp@123@22@Z 0000000180014030 f i config.obj
 0001:00013280       ?grisu2@dtoa_impl@detail@nlohmann@@YAXPEADAEAH1Udiyfp@123@22@Z 0000000180014280 f i config.obj
 0001:000134d0       ??$_Emplace_reallocate@D@?$vector@DV?$allocator@D@std@@@std@@QEAAPEADQEAD$$QEAD@Z 00000001800144d0 f i config.obj
 0001:00013610       ?token_type_name@?$lexer_base@V?$basic_json@Vmap@std@@Vvector@2@V?$basic_string@DU?$char_traits@D@std@@V?$allocator@D@2@@2@_N_J_KNVallocator@2@Uadl_serializer@nlohmann@@V?$vector@EV?$allocator@E@std@@@2@@nlohmann@@@detail@nlohmann@@SAPEBDW4token_type@123@@Z 0000000180014610 f i config.obj
 0001:00013700       ??$parse_error@V0detail@nlohmann@@@?$json_sax_dom_parser@V?$basic_json@Vmap@std@@Vvector@2@V?$basic_string@DU?$char_traits@D@std@@V?$allocator@D@2@@2@_N_J_KNVallocator@2@Uadl_serializer@nlohmann@@V?$vector@EV?$allocator@E@std@@@2@@nlohmann@@@detail@nlohmann@@QEAA_N_KAEBV?$basic_string@DU?$char_traits@D@std@@V?$allocator@D@2@@std@@AEBVparse_error@12@@Z 0000000180014700 f i config.obj
 0001:00013740       ??1?$json_sax_dom_parser@V?$basic_json@Vmap@std@@Vvector@2@V?$basic_string@DU?$char_traits@D@std@@V?$allocator@D@2@@2@_N_J_KNVallocator@2@Uadl_serializer@nlohmann@@V?$vector@EV?$allocator@E@std@@@2@@nlohmann@@@detail@nlohmann@@QEAA@XZ 0000000180014740 f i config.obj
 0001:000137a0       ?position_string@parse_error@detail@nlohmann@@CA?AV?$basic_string@DU?$char_traits@D@std@@V?$allocator@D@2@@std@@AEBUposition_t@23@@Z 00000001800147a0 f i config.obj
 0001:00013b30       ??$create@V?$basic_json@Vmap@std@@Vvector@2@V?$basic_string@DU?$char_traits@D@std@@V?$allocator@D@2@@2@_N_J_KNVallocator@2@Uadl_serializer@nlohmann@@V?$vector@EV?$allocator@E@std@@@2@@nlohmann@@@parse_error@detail@nlohmann@@SA?AV012@HAEBUposition_t@12@AEBV?$basic_string@DU?$char_traits@D@std@@V?$allocator@D@2@@std@@AEBV?$basic_json@Vmap@std@@Vvector@2@V?$basic_string@DU?$char_traits@D@std@@V?$allocator@D@2@@2@_N_J_KNVallocator@2@Uadl_serializer@nlohmann@@V?$vector@EV?$allocator@E@std@@@2@@2@@Z 0000000180014b30 f i config.obj
 0001:00013fd0       ??_Eparse_error@detail@nlohmann@@UEAAPEAXI@Z 0000000180014fd0 f i * CIL library *:* CIL module *
 0001:00013fd0       ??_Gparse_error@detail@nlohmann@@UEAAPEAXI@Z 0000000180014fd0 f i config.obj
 0001:00014030       ??0parse_error@detail@nlohmann@@QEAA@AEBV012@@Z 0000000180015030 f i config.obj
 0001:00014070       ??$parse_error@V0detail@nlohmann@@@?$json_sax_dom_callback_parser@V?$basic_json@Vmap@std@@Vvector@2@V?$basic_string@DU?$char_traits@D@std@@V?$allocator@D@2@@2@_N_J_KNVallocator@2@Uadl_serializer@nlohmann@@V?$vector@EV?$allocator@E@std@@@2@@nlohmann@@@detail@nlohmann@@QEAA_N_KAEBV?$basic_string@DU?$char_traits@D@std@@V?$allocator@D@2@@std@@AEBVparse_error@12@@Z 0000000180015070 f i config.obj
 0001:000140b0       ??1?$json_sax_dom_callback_parser@V?$basic_json@Vmap@std@@Vvector@2@V?$basic_string@DU?$char_traits@D@std@@V?$allocator@D@2@@2@_N_J_KNVallocator@2@Uadl_serializer@nlohmann@@V?$vector@EV?$allocator@E@std@@@2@@nlohmann@@@detail@nlohmann@@QEAA@XZ 00000001800150b0 f i config.obj
 0001:000141f0       ??1?$vector@PEAV?$basic_json@Vmap@std@@Vvector@2@V?$basic_string@DU?$char_traits@D@std@@V?$allocator@D@2@@2@_N_J_KNVallocator@2@Uadl_serializer@nlohmann@@V?$vector@EV?$allocator@E@std@@@2@@nlohmann@@V?$allocator@PEAV?$basic_json@Vmap@std@@Vvector@2@V?$basic_string@DU?$char_traits@D@std@@V?$allocator@D@2@@2@_N_J_KNVallocator@2@Uadl_serializer@nlohmann@@V?$vector@EV?$allocator@E@std@@@2@@nlohmann@@@std@@@std@@QEAA@XZ 00000001800151f0 f i config.obj
 0001:00014250       ??0?$json_sax_dom_callback_parser@V?$basic_json@Vmap@std@@Vvector@2@V?$basic_string@DU?$char_traits@D@std@@V?$allocator@D@2@@2@_N_J_KNVallocator@2@Uadl_serializer@nlohmann@@V?$vector@EV?$allocator@E@std@@@2@@nlohmann@@@detail@nlohmann@@QEAA@AEAV?$basic_json@Vmap@std@@Vvector@2@V?$basic_string@DU?$char_traits@D@std@@V?$allocator@D@2@@2@_N_J_KNVallocator@2@Uadl_serializer@nlohmann@@V?$vector@EV?$allocator@E@std@@@2@@2@V?$function@$$A6A_NHW4parse_event_t@detail@nlohmann@@AEAV?$basic_json@Vmap@std@@Vvector@2@V?$basic_string@DU?$char_traits@D@std@@V?$allocator@D@2@@2@_N_J_KNVallocator@2@Uadl_serializer@nlohmann@@V?$vector@EV?$allocator@E@std@@@2@@3@@Z@std@@_N@Z 0000000180015250 f i config.obj
 0001:000143b0       ?format_buffer@dtoa_impl@detail@nlohmann@@YAPEADPEADHHHH@Z 00000001800153b0 f i config.obj
 0001:00014570       ?back@?$basic_string@DU?$char_traits@D@std@@V?$allocator@D@2@@std@@QEBAAEBDXZ 0000000180015570 f i config.obj
 0001:00014590       ?to_string@std@@YA?AV?$basic_string@DU?$char_traits@D@std@@V?$allocator@D@2@@1@_K@Z 0000000180015590 f i config.obj
 0001:00014640       ?hex@std@@YAAEAVios_base@1@AEAV21@@Z 0000000180015640 f i config.obj
 0001:00014660       ?uppercase@std@@YAAEAVios_base@1@AEAV21@@Z 0000000180015660 f i config.obj
 0001:00014670       ??_E?$basic_stringstream@DU?$char_traits@D@std@@V?$allocator@D@2@@std@@UEAAPEAXI@Z 0000000180015670 f i * CIL library *:* CIL module *
 0001:00014670       ??_G?$basic_stringstream@DU?$char_traits@D@std@@V?$allocator@D@2@@std@@UEAAPEAXI@Z 0000000180015670 f i config.obj
 0001:000146ac       ??_E?$basic_stringstream@DU?$char_traits@D@std@@V?$allocator@D@2@@std@@$4PPPPPPPM@A@EAAPEAXI@Z 00000001800156ac f i config.obj
 0001:000146c0       ??_E?$basic_stringbuf@DU?$char_traits@D@std@@V?$allocator@D@2@@std@@UEAAPEAXI@Z 00000001800156c0 f i * CIL library *:* CIL module *
 0001:000146c0       ??_G?$basic_stringbuf@DU?$char_traits@D@std@@V?$allocator@D@2@@std@@UEAAPEAXI@Z 00000001800156c0 f i config.obj
 0001:00014700       ?overflow@?$basic_stringbuf@DU?$char_traits@D@std@@V?$allocator@D@2@@std@@MEAAHH@Z 0000000180015700 f i config.obj
 0001:00014900       ?pbackfail@?$basic_stringbuf@DU?$char_traits@D@std@@V?$allocator@D@2@@std@@MEAAHH@Z 0000000180015900 f i config.obj
 0001:00014960       ?underflow@?$basic_stringbuf@DU?$char_traits@D@std@@V?$allocator@D@2@@std@@MEAAHXZ 0000000180015960 f i config.obj
 0001:000149e0       ?seekoff@?$basic_stringbuf@DU?$char_traits@D@std@@V?$allocator@D@2@@std@@MEAA?AV?$fpos@U_Mbstatet@@@2@_JHH@Z 00000001800159e0 f i config.obj
 0001:00014b50       ?seekpos@?$basic_stringbuf@DU?$char_traits@D@std@@V?$allocator@D@2@@std@@MEAA?AV?$fpos@U_Mbstatet@@@2@V32@H@Z 0000000180015b50 f i config.obj
 0001:00014c50       ??1?$basic_stringbuf@DU?$char_traits@D@std@@V?$allocator@D@2@@std@@UEAA@XZ 0000000180015c50 f i config.obj
 0001:00014d50       ??_D?$basic_stringstream@DU?$char_traits@D@std@@V?$allocator@D@2@@std@@QEAAXXZ 0000000180015d50 f i config.obj
 0001:00014e40       snprintf                   0000000180015e40 f i config.obj
 0001:00014ea0       ?do_encoding@codecvt_base@std@@MEBAHXZ 0000000180015ea0 f i config.obj
 0001:00014ea0       _get_startup_argv_mode     0000000180015ea0 f i LIBCMT:argv_mode.obj
 0001:00014ea0       DllMain                    0000000180015ea0 f i LIBCMT:dll_dllmain_stub.obj
 0001:00014ea0       ?do_max_length@codecvt_base@std@@MEBAHXZ 0000000180015ea0 f i config.obj
 0001:00014eb0       ??0type_error@detail@nlohmann@@QEAA@AEBV012@@Z 0000000180015eb0 f i config.obj
 0001:00014ee0       ?type_name@?$basic_json@Vmap@std@@Vvector@2@V?$basic_string@DU?$char_traits@D@std@@V?$allocator@D@2@@2@_N_J_KNVallocator@2@Uadl_serializer@nlohmann@@V?$vector@EV?$allocator@E@std@@@2@@nlohmann@@QEBAPEBDXZ 0000000180015ee0 f i config.obj
 0001:00014f70       ??$_Reallocate_grow_by@V<lambda_1>@?1??insert@?$basic_string@DU?$char_traits@D@std@@V?$allocator@D@2@@std@@QEAAAEAV34@_KQEBD0@Z@_KPEBD_K@?$basic_string@DU?$char_traits@D@std@@V?$allocator@D@2@@std@@AEAAAEAV01@_KV<lambda_1>@?1??insert@01@QEAAAEAV01@0QEBD0@Z@_KPEBD3@Z 0000000180015f70 f i config.obj
 0001:000150f0       ??$?HDU?$char_traits@D@std@@V?$allocator@D@1@@std@@YA?AV?$basic_string@DU?$char_traits@D@std@@V?$allocator@D@2@@0@QEBD$$QEAV10@@Z 00000001800160f0 f i config.obj
 0001:00015200       ??$create@V?$basic_json@Vmap@std@@Vvector@2@V?$basic_string@DU?$char_traits@D@std@@V?$allocator@D@2@@2@_N_J_KNVallocator@2@Uadl_serializer@nlohmann@@V?$vector@EV?$allocator@E@std@@@2@@nlohmann@@@type_error@detail@nlohmann@@SA?AV012@HAEBV?$basic_string@DU?$char_traits@D@std@@V?$allocator@D@2@@std@@AEBV?$basic_json@Vmap@std@@Vvector@2@V?$basic_string@DU?$char_traits@D@std@@V?$allocator@D@2@@2@_N_J_KNVallocator@2@Uadl_serializer@nlohmann@@V?$vector@EV?$allocator@E@std@@@2@@2@@Z 0000000180016200 f i config.obj
 0001:000154c0       ??1?$_Tree_temp_node_alloc@V?$allocator@U?$_Tree_node@U?$pair@$$CBV?$basic_string@DU?$char_traits@D@std@@V?$allocator@D@2@@std@@V?$basic_json@Vmap@std@@Vvector@2@V?$basic_string@DU?$char_traits@D@std@@V?$allocator@D@2@@2@_N_J_KNVallocator@2@Uadl_serializer@nlohmann@@V?$vector@EV?$allocator@E@std@@@2@@nlohmann@@@std@@PEAX@std@@@std@@@std@@QEAA@XZ 00000001800164c0 f i config.obj
 0001:000154c0       ??1?$_Alloc_construct_ptr@V?$allocator@U?$_Tree_node@U?$pair@$$CBV?$basic_string@DU?$char_traits@D@std@@V?$allocator@D@2@@std@@V?$basic_json@Vmap@std@@Vvector@2@V?$basic_string@DU?$char_traits@D@std@@V?$allocator@D@2@@2@_N_J_KNVallocator@2@Uadl_serializer@nlohmann@@V?$vector@EV?$allocator@E@std@@@2@@nlohmann@@@std@@PEAX@std@@@std@@@std@@QEAA@XZ 00000001800164c0 f i config.obj
 0001:000154c0       ??1?$_Alloc_construct_ptr@V?$allocator@U?$_List_node@U?$pair@$$CBV?$basic_string@DU?$char_traits@D@std@@V?$allocator@D@2@@std@@V12@@std@@PEAX@std@@@std@@@std@@QEAA@XZ 00000001800164c0 f i server.obj
 0001:000154e0       ?_Insert_node@?$_Tree_val@U?$_Tree_simple_types@U?$pair@$$CBW4StatusCode@SimpleWeb@@V?$basic_string@DU?$char_traits@D@std@@V?$allocator@D@2@@std@@@std@@@std@@@std@@QEAAPEAU?$_Tree_node@U?$pair@$$CBW4StatusCode@SimpleWeb@@V?$basic_string@DU?$char_traits@D@std@@V?$allocator@D@2@@std@@@std@@PEAX@2@U?$_Tree_id@PEAU?$_Tree_node@U?$pair@$$CBW4StatusCode@SimpleWeb@@V?$basic_string@DU?$char_traits@D@std@@V?$allocator@D@2@@std@@@std@@PEAX@std@@@2@QEAU32@@Z 00000001800164e0 f i server.obj
 0001:000154e0       ?_Insert_node@?$_Tree_val@U?$_Tree_simple_types@U?$pair@$$CBV?$basic_string@DU?$char_traits@D@std@@V?$allocator@D@2@@std@@V?$basic_json@Vmap@std@@Vvector@2@V?$basic_string@DU?$char_traits@D@std@@V?$allocator@D@2@@2@_N_J_KNVallocator@2@Uadl_serializer@nlohmann@@V?$vector@EV?$allocator@E@std@@@2@@nlohmann@@@std@@@std@@@std@@QEAAPEAU?$_Tree_node@U?$pair@$$CBV?$basic_string@DU?$char_traits@D@std@@V?$allocator@D@2@@std@@V?$basic_json@Vmap@std@@Vvector@2@V?$basic_string@DU?$char_traits@D@std@@V?$allocator@D@2@@2@_N_J_KNVallocator@2@Uadl_serializer@nlohmann@@V?$vector@EV?$allocator@E@std@@@2@@nlohmann@@@std@@PEAX@2@U?$_Tree_id@PEAU?$_Tree_node@U?$pair@$$CBV?$basic_string@DU?$char_traits@D@std@@V?$allocator@D@2@@std@@V?$basic_json@Vmap@std@@Vvector@2@V?$basic_string@DU?$char_traits@D@std@@V?$allocator@D@2@@2@_N_J_KNVallocator@2@Uadl_serializer@nlohmann@@V?$vector@EV?$allocator@E@std@@@2@@nlohmann@@@std@@PEAX@std@@@2@QEAU32@@Z 00000001800164e0 f i config.obj
 0001:000154e0       ?_Insert_node@?$_Tree_val@U?$_Tree_simple_types@U?$pair@$$CBV?$basic_string@DU?$char_traits@D@std@@V?$allocator@D@2@@std@@V?$function@$$A6AXV?$shared_ptr@VResponse@?$ServerBase@V?$basic_stream_socket@Vtcp@ip@asio@boost@@Vany_io_executor@34@@asio@boost@@@SimpleWeb@@@std@@V?$shared_ptr@VRequest@?$ServerBase@V?$basic_stream_socket@Vtcp@ip@asio@boost@@Vany_io_executor@34@@asio@boost@@@SimpleWeb@@@2@@Z@2@@std@@@std@@@std@@QEAAPEAU?$_Tree_node@U?$pair@$$CBV?$basic_string@DU?$char_traits@D@std@@V?$allocator@D@2@@std@@V?$function@$$A6AXV?$shared_ptr@VResponse@?$ServerBase@V?$basic_stream_socket@Vtcp@ip@asio@boost@@Vany_io_executor@34@@asio@boost@@@SimpleWeb@@@std@@V?$shared_ptr@VRequest@?$ServerBase@V?$basic_stream_socket@Vtcp@ip@asio@boost@@Vany_io_executor@34@@asio@boost@@@SimpleWeb@@@2@@Z@2@@std@@PEAX@2@U?$_Tree_id@PEAU?$_Tree_node@U?$pair@$$CBV?$basic_string@DU?$char_traits@D@std@@V?$allocator@D@2@@std@@V?$function@$$A6AXV?$shared_ptr@VResponse@?$ServerBase@V?$basic_stream_socket@Vtcp@ip@asio@boost@@Vany_io_executor@34@@asio@boost@@@SimpleWeb@@@std@@V?$shared_ptr@VRequest@?$ServerBase@V?$basic_stream_socket@Vtcp@ip@asio@boost@@Vany_io_executor@34@@asio@boost@@@SimpleWeb@@@2@@Z@2@@std@@PEAX@std@@@2@QEAU32@@Z 00000001800164e0 f i server.obj
 0001:000154e0       ?_Insert_node@?$_Tree_val@U?$_Tree_simple_types@U?$pair@$$CBVregex_orderable@?$ServerBase@V?$basic_stream_socket@Vtcp@ip@asio@boost@@Vany_io_executor@34@@asio@boost@@@SimpleWeb@@V?$map@V?$basic_string@DU?$char_traits@D@std@@V?$allocator@D@2@@std@@V?$function@$$A6AXV?$shared_ptr@VResponse@?$ServerBase@V?$basic_stream_socket@Vtcp@ip@asio@boost@@Vany_io_executor@34@@asio@boost@@@SimpleWeb@@@std@@V?$shared_ptr@VRequest@?$ServerBase@V?$basic_stream_socket@Vtcp@ip@asio@boost@@Vany_io_executor@34@@asio@boost@@@SimpleWeb@@@2@@Z@2@U?$less@V?$basic_string@DU?$char_traits@D@std@@V?$allocator@D@2@@std@@@2@V?$allocator@U?$pair@$$CBV?$basic_string@DU?$char_traits@D@std@@V?$allocator@D@2@@std@@V?$function@$$A6AXV?$shared_ptr@VResponse@?$ServerBase@V?$basic_stream_socket@Vtcp@ip@asio@boost@@Vany_io_executor@34@@asio@boost@@@SimpleWeb@@@std@@V?$shared_ptr@VRequest@?$ServerBase@V?$basic_stream_socket@Vtcp@ip@asio@boost@@Vany_io_executor@34@@asio@boost@@@SimpleWeb@@@2@@Z@2@@std@@@2@@std@@@std@@@std@@@std@@QEAAPEAU?$_Tree_node@U?$pair@$$CBVregex_orderable@?$ServerBase@V?$basic_stream_socket@Vtcp@ip@asio@boost@@Vany_io_executor@34@@asio@boost@@@SimpleWeb@@V?$map@V?$basic_string@DU?$char_traits@D@std@@V?$allocator@D@2@@std@@V?$function@$$A6AXV?$shared_ptr@VResponse@?$ServerBase@V?$basic_stream_socket@Vtcp@ip@asio@boost@@Vany_io_executor@34@@asio@boost@@@SimpleWeb@@@std@@V?$shared_ptr@VRequest@?$ServerBase@V?$basic_stream_socket@Vtcp@ip@asio@boost@@Vany_io_executor@34@@asio@boost@@@SimpleWeb@@@2@@Z@2@U?$less@V?$basic_string@DU?$char_traits@D@std@@V?$allocator@D@2@@std@@@2@V?$allocator@U?$pair@$$CBV?$basic_string@DU?$char_traits@D@std@@V?$allocator@D@2@@std@@V?$function@$$A6AXV?$shared_ptr@VResponse@?$ServerBase@V?$basic_stream_socket@Vtcp@ip@asio@boost@@Vany_io_executor@34@@asio@boost@@@SimpleWeb@@@std@@V?$shared_ptr@VRequest@?$ServerBase@V?$basic_stream_socket@Vtcp@ip@asio@boost@@Vany_io_executor@34@@asio@boost@@@SimpleWeb@@@2@@Z@2@@std@@@2@@std@@@std@@PEAX@2@U?$_Tree_id@PEAU?$_Tree_node@U?$pair@$$CBVregex_orderable@?$ServerBase@V?$basic_stream_socket@Vtcp@ip@asio@boost@@Vany_io_executor@34@@asio@boost@@@SimpleWeb@@V?$map@V?$basic_string@DU?$char_traits@D@std@@V?$allocator@D@2@@std@@V?$function@$$A6AXV?$shared_ptr@VResponse@?$ServerBase@V?$basic_stream_socket@Vtcp@ip@asio@boost@@Vany_io_executor@34@@asio@boost@@@SimpleWeb@@@std@@V?$shared_ptr@VRequest@?$ServerBase@V?$basic_stream_socket@Vtcp@ip@asio@boost@@Vany_io_executor@34@@asio@boost@@@SimpleWeb@@@2@@Z@2@U?$less@V?$basic_string@DU?$char_traits@D@std@@V?$allocator@D@2@@std@@@2@V?$allocator@U?$pair@$$CBV?$basic_string@DU?$char_traits@D@std@@V?$allocator@D@2@@std@@V?$function@$$A6AXV?$shared_ptr@VResponse@?$ServerBase@V?$basic_stream_socket@Vtcp@ip@asio@boost@@Vany_io_executor@34@@asio@boost@@@SimpleWeb@@@std@@V?$shared_ptr@VRequest@?$ServerBase@V?$basic_stream_socket@Vtcp@ip@asio@boost@@Vany_io_executor@34@@asio@boost@@@SimpleWeb@@@2@@Z@2@@std@@@2@@std@@@std@@PEAX@std@@@2@QEAU32@@Z 00000001800164e0 f i server.obj
 0001:00015740       ??$_Try_emplace@AEBV?$basic_string@DU?$char_traits@D@std@@V?$allocator@D@2@@std@@$$V@?$map@V?$basic_string@DU?$char_traits@D@std@@V?$allocator@D@2@@std@@V?$basic_json@Vmap@std@@Vvector@2@V?$basic_string@DU?$char_traits@D@std@@V?$allocator@D@2@@2@_N_J_KNVallocator@2@Uadl_serializer@nlohmann@@V?$vector@EV?$allocator@E@std@@@2@@nlohmann@@U?$less@X@2@V?$allocator@U?$pair@$$CBV?$basic_string@DU?$char_traits@D@std@@V?$allocator@D@2@@std@@V?$basic_json@Vmap@std@@Vvector@2@V?$basic_string@DU?$char_traits@D@std@@V?$allocator@D@2@@2@_N_J_KNVallocator@2@Uadl_serializer@nlohmann@@V?$vector@EV?$allocator@E@std@@@2@@nlohmann@@@std@@@2@@std@@AEAA?AU?$pair@PEAU?$_Tree_node@U?$pair@$$CBV?$basic_string@DU?$char_traits@D@std@@V?$allocator@D@2@@std@@V?$basic_json@Vmap@std@@Vvector@2@V?$basic_string@DU?$char_traits@D@std@@V?$allocator@D@2@@2@_N_J_KNVallocator@2@Uadl_serializer@nlohmann@@V?$vector@EV?$allocator@E@std@@@2@@nlohmann@@@std@@PEAX@std@@_N@1@AEBV?$basic_string@DU?$char_traits@D@std@@V?$allocator@D@2@@1@@Z 0000000180016740 f i config.obj
 0001:00015930       ??_E?$basic_iostream@DU?$char_traits@D@std@@@std@@UEAAPEAXI@Z 0000000180016930 f i * CIL library *:* CIL module *
 0001:00015930       ??_G?$basic_iostream@DU?$char_traits@D@std@@@std@@UEAAPEAXI@Z 0000000180016930 f i config.obj
 0001:000159e0       ??_E?$basic_iostream@DU?$char_traits@D@std@@@std@@$4PPPPPPPM@A@EAAPEAXI@Z 00000001800169e0 f i config.obj
 0001:000159f0       ??1?$basic_iostream@DU?$char_traits@D@std@@@std@@UEAA@XZ 00000001800169f0 f i config.obj
 0001:00015a70       ?make_error_code@std@@YA?AVerror_code@1@W4errc@1@@Z 0000000180016a70 f i config.obj
 0001:00015a90       ?_Throw_system_error@std@@YAXW4errc@1@@Z 0000000180016a90 f i config.obj
 0001:00015ad0       ??0system_error@std@@QEAA@Verror_code@1@@Z 0000000180016ad0 f i config.obj
 0001:00015b90       ?name@_System_error_category@std@@UEBAPEBDXZ 0000000180016b90 f i config.obj
 0001:00015b90       ?name@system_error_category@detail@system@boost@@UEBAPEBDXZ 0000000180016b90 f i config.obj
 0001:00015ba0       ??1_System_error_message@std@@QEAA@XZ 0000000180016ba0 f i config.obj
 0001:00015bb0       ?message@_System_error_category@std@@UEBA?AV?$basic_string@DU?$char_traits@D@std@@V?$allocator@D@2@@2@H@Z 0000000180016bb0 f i config.obj
 0001:00015c60       ?name@generic_error_category@detail@system@boost@@UEBAPEBDXZ 0000000180016c60 f i server.obj
 0001:00015c60       ?name@_Generic_error_category@std@@UEBAPEBDXZ 0000000180016c60 f i config.obj
 0001:00015c70       ?message@_Generic_error_category@std@@UEBA?AV?$basic_string@DU?$char_traits@D@std@@V?$allocator@D@2@@2@H@Z 0000000180016c70 f i config.obj
 0001:00015cd0       ?generic_category@std@@YAAEBVerror_category@1@XZ 0000000180016cd0 f i config.obj
 0001:00015ce0       ?default_error_condition@_System_error_category@std@@UEBA?AVerror_condition@2@H@Z 0000000180016ce0 f i config.obj
 0001:00015d40       ?_Make_ec@filesystem@std@@YA?AVerror_code@2@W4__std_win_error@@@Z 0000000180016d40 f i config.obj
 0001:00015d60       ?_Throw_system_error_from_std_win_error@filesystem@std@@YAXW4__std_win_error@@@Z 0000000180016d60 f i config.obj
 0001:00015da0       ??$_Convert_wide_to_narrow_replace_chars@U?$char_traits@D@std@@V?$allocator@D@2@@filesystem@std@@YA?AV?$basic_string@DU?$char_traits@D@std@@V?$allocator@D@2@@1@W4__std_code_page@@V?$basic_string_view@_WU?$char_traits@_W@std@@@1@AEBV?$allocator@D@1@@Z 0000000180016da0 f i config.obj
 0001:00015ef0       ??$_Reallocate_grow_by@V<lambda_1>@?1??reserve@?$basic_string@DU?$char_traits@D@std@@V?$allocator@D@2@@std@@QEAAX_K@Z@$$V@?$basic_string@DU?$char_traits@D@std@@V?$allocator@D@2@@std@@AEAAAEAV01@_KV<lambda_1>@?1??reserve@01@QEAAX0@Z@@Z 0000000180016ef0 f i config.obj
 0001:00016040       ?_Pretty_message@filesystem_error@filesystem@std@@CA?AV?$basic_string@DU?$char_traits@D@std@@V?$allocator@D@2@@3@V?$basic_string_view@DU?$char_traits@D@std@@@3@AEBVpath@23@1@Z 0000000180017040 f i config.obj
 0001:000162c0       ??0filesystem_error@filesystem@std@@QEAA@AEBV?$basic_string@DU?$char_traits@D@std@@V?$allocator@D@2@@2@AEBVpath@12@Verror_code@2@@Z 00000001800172c0 f i config.obj
 0001:000163e0       ??1filesystem_error@filesystem@std@@UEAA@XZ 00000001800173e0 f i config.obj
 0001:00016500       ??_Gfilesystem_error@filesystem@std@@UEAAPEAXI@Z 0000000180017500 f i config.obj
 0001:00016500       ??_Efilesystem_error@filesystem@std@@UEAAPEAXI@Z 0000000180017500 f i * CIL library *:* CIL module *
 0001:00016650       ?what@filesystem_error@filesystem@std@@UEBAPEBDXZ 0000000180017650 f i config.obj
 0001:00016660       ??0filesystem_error@filesystem@std@@QEAA@AEBV012@@Z 0000000180017660 f i config.obj
 0001:000166f0       ?_Throw_fs_error@filesystem@std@@YAXPEBDAEBVerror_code@2@AEBVpath@12@@Z 00000001800176f0 f i config.obj
 0001:00016750       ?exists@filesystem@std@@YA_NAEBVpath@12@@Z 0000000180017750 f i config.obj
 0001:00016860       ??1?$vector@V?$basic_string@DU?$char_traits@D@std@@V?$allocator@D@2@@std@@V?$allocator@V?$basic_string@DU?$char_traits@D@std@@V?$allocator@D@2@@std@@@2@@std@@QEAA@XZ 0000000180017860 f i config.obj
 0001:00016940       ??0path@filesystem@std@@QEAA@AEBV012@@Z 0000000180017940 f i config.obj
 0001:00016a30       ?_Find_root_name_end@filesystem@std@@YAPEB_WQEB_W0@Z 0000000180017a30 f i config.obj
 0001:00016b20       ??$_Reallocate_for@V<lambda_1>@?1??assign@?$basic_string@_WU?$char_traits@_W@std@@V?$allocator@_W@2@@std@@QEAAAEAV34@QEB_W_K@Z@PEB_W@?$basic_string@_WU?$char_traits@_W@std@@V?$allocator@_W@2@@std@@AEAAAEAV01@_KV<lambda_1>@?1??assign@01@QEAAAEAV01@QEB_W0@Z@PEB_W@Z 0000000180017b20 f i config.obj
 0001:00016c80       ?assign@?$basic_string@_WU?$char_traits@_W@std@@V?$allocator@_W@2@@std@@QEAAAEAV12@QEB_W_K@Z 0000000180017c80 f i config.obj
 0001:00016cf0       ?_Xran@?$_String_val@U?$_Simple_types@_W@std@@@std@@SAXXZ 0000000180017cf0 f i config.obj
 0001:00016cf0       ?_Xran@?$_String_val@U?$_Simple_types@D@std@@@std@@SAXXZ 0000000180017cf0 f i config.obj
 0001:00016d10       ??$_Reallocate_grow_by@V<lambda_1>@?1??push_back@?$basic_string@_WU?$char_traits@_W@std@@V?$allocator@_W@2@@std@@QEAAX_W@Z@_W@?$basic_string@_WU?$char_traits@_W@std@@V?$allocator@_W@2@@std@@AEAAAEAV01@_KV<lambda_1>@?1??push_back@01@QEAAX_W@Z@_W@Z 0000000180017d10 f i config.obj
 0001:00016eb0       ??$_Reallocate_grow_by@V<lambda_1>@?1??append@?$basic_string@_WU?$char_traits@_W@std@@V?$allocator@_W@2@@std@@QEAAAEAV34@QEB_W_K@Z@PEB_W_K@?$basic_string@_WU?$char_traits@_W@std@@V?$allocator@_W@2@@std@@AEAAAEAV01@_KV<lambda_1>@?1??append@01@QEAAAEAV01@QEB_W0@Z@PEB_W_K@Z 0000000180017eb0 f i config.obj
 0001:00017080       ??_0path@filesystem@std@@QEAAAEAV012@AEBV012@@Z 0000000180018080 f i config.obj
 0001:00017360       ??0?$basic_string@DU?$char_traits@D@std@@V?$allocator@D@2@@std@@QEAA@U_String_constructor_concat_tag@1@AEAV01@1@Z 0000000180018360 f i config.obj
 0001:00017550       ??$?HDU?$char_traits@D@std@@V?$allocator@D@1@@std@@YA?AV?$basic_string@DU?$char_traits@D@std@@V?$allocator@D@2@@0@$$QEAV10@0@Z 0000000180018550 f i config.obj
 0001:00017570       ??$?HDU?$char_traits@D@std@@V?$allocator@D@1@@std@@YA?AV?$basic_string@DU?$char_traits@D@std@@V?$allocator@D@2@@0@$$QEAV10@QEBD@Z 0000000180018570 f i config.obj
 0001:000175e0       ?name@exception@detail@nlohmann@@KA?AV?$basic_string@DU?$char_traits@D@std@@V?$allocator@D@2@@std@@AEBV45@H@Z 00000001800185e0 f i config.obj
 0001:000178d0       ??0runtime_error@std@@QEAA@PEBD@Z 00000001800188d0 f i config.obj
 0001:00017940       ??$create@V?$basic_json@Vmap@std@@Vvector@2@V?$basic_string@DU?$char_traits@D@std@@V?$allocator@D@2@@2@_N_J_KNVallocator@2@Uadl_serializer@nlohmann@@V?$vector@EV?$allocator@E@std@@@2@@nlohmann@@@other_error@detail@nlohmann@@SA?AV012@HAEBV?$basic_string@DU?$char_traits@D@std@@V?$allocator@D@2@@std@@AEBV?$basic_json@Vmap@std@@Vvector@2@V?$basic_string@DU?$char_traits@D@std@@V?$allocator@D@2@@2@_N_J_KNVallocator@2@Uadl_serializer@nlohmann@@V?$vector@EV?$allocator@E@std@@@2@@2@@Z 0000000180018940 f i config.obj
 0001:00017c10       ??0other_error@detail@nlohmann@@QEAA@AEBV012@@Z 0000000180018c10 f i config.obj
 0001:00017c40       ?what@exception@detail@nlohmann@@UEBAPEBDXZ 0000000180018c40 f i config.obj
 0001:00017c60       ??0exception@detail@nlohmann@@QEAA@AEBV012@@Z 0000000180018c60 f i config.obj
 0001:00017ce0       ??0json_value@?$basic_json@Vmap@std@@Vvector@2@V?$basic_string@DU?$char_traits@D@std@@V?$allocator@D@2@@2@_N_J_KNVallocator@2@Uadl_serializer@nlohmann@@V?$vector@EV?$allocator@E@std@@@2@@nlohmann@@QEAA@W4value_t@detail@2@@Z 0000000180018ce0 f i config.obj
 0001:00017ec0       ?_Reallocate_exactly@?$vector@V?$basic_json@Vmap@std@@Vvector@2@V?$basic_string@DU?$char_traits@D@std@@V?$allocator@D@2@@2@_N_J_KNVallocator@2@Uadl_serializer@nlohmann@@V?$vector@EV?$allocator@E@std@@@2@@nlohmann@@V?$allocator@V?$basic_json@Vmap@std@@Vvector@2@V?$basic_string@DU?$char_traits@D@std@@V?$allocator@D@2@@2@_N_J_KNVallocator@2@Uadl_serializer@nlohmann@@V?$vector@EV?$allocator@E@std@@@2@@nlohmann@@@std@@@std@@AEAAX_K@Z 0000000180018ec0 f i config.obj
 0001:00017fa0       ??1?$_Uninitialized_backout_al@V?$allocator@V?$basic_json@Vmap@std@@Vvector@2@V?$basic_string@DU?$char_traits@D@std@@V?$allocator@D@2@@2@_N_J_KNVallocator@2@Uadl_serializer@nlohmann@@V?$vector@EV?$allocator@E@std@@@2@@nlohmann@@@std@@@std@@QEAA@XZ 0000000180018fa0 f i config.obj
 0001:00017fe0       ?_Change_array@?$vector@V?$basic_json@Vmap@std@@Vvector@2@V?$basic_string@DU?$char_traits@D@std@@V?$allocator@D@2@@2@_N_J_KNVallocator@2@Uadl_serializer@nlohmann@@V?$vector@EV?$allocator@E@std@@@2@@nlohmann@@V?$allocator@V?$basic_json@Vmap@std@@Vvector@2@V?$basic_string@DU?$char_traits@D@std@@V?$allocator@D@2@@2@_N_J_KNVallocator@2@Uadl_serializer@nlohmann@@V?$vector@EV?$allocator@E@std@@@2@@nlohmann@@@std@@@std@@AEAAXQEAV?$basic_json@Vmap@std@@Vvector@2@V?$basic_string@DU?$char_traits@D@std@@V?$allocator@D@2@@2@_N_J_KNVallocator@2@Uadl_serializer@nlohmann@@V?$vector@EV?$allocator@E@std@@@2@@nlohmann@@_K1@Z 0000000180018fe0 f i config.obj
 0001:000180a0       ??$_Emplace_reallocate@V?$basic_json@Vmap@std@@Vvector@2@V?$basic_string@DU?$char_traits@D@std@@V?$allocator@D@2@@2@_N_J_KNVallocator@2@Uadl_serializer@nlohmann@@V?$vector@EV?$allocator@E@std@@@2@@nlohmann@@@?$vector@V?$basic_json@Vmap@std@@Vvector@2@V?$basic_string@DU?$char_traits@D@std@@V?$allocator@D@2@@2@_N_J_KNVallocator@2@Uadl_serializer@nlohmann@@V?$vector@EV?$allocator@E@std@@@2@@nlohmann@@V?$allocator@V?$basic_json@Vmap@std@@Vvector@2@V?$basic_string@DU?$char_traits@D@std@@V?$allocator@D@2@@2@_N_J_KNVallocator@2@Uadl_serializer@nlohmann@@V?$vector@EV?$allocator@E@std@@@2@@nlohmann@@@std@@@std@@QEAAPEAV?$basic_json@Vmap@std@@Vvector@2@V?$basic_string@DU?$char_traits@D@std@@V?$allocator@D@2@@2@_N_J_KNVallocator@2@Uadl_serializer@nlohmann@@V?$vector@EV?$allocator@E@std@@@2@@nlohmann@@QEAV23@$$QEAV23@@Z 00000001800190a0 f i config.obj
 0001:00018270       ??1?$pair@$$CBV?$basic_string@DU?$char_traits@D@std@@V?$allocator@D@2@@std@@V?$basic_json@Vmap@std@@Vvector@2@V?$basic_string@DU?$char_traits@D@std@@V?$allocator@D@2@@2@_N_J_KNVallocator@2@Uadl_serializer@nlohmann@@V?$vector@EV?$allocator@E@std@@@2@@nlohmann@@@std@@QEAA@XZ 0000000180019270 f i config.obj
 0001:000182e0       ??$_Erase_head@V?$allocator@U?$_Tree_node@U?$pair@$$CBV?$basic_string@DU?$char_traits@D@std@@V?$allocator@D@2@@std@@V?$basic_json@Vmap@std@@Vvector@2@V?$basic_string@DU?$char_traits@D@std@@V?$allocator@D@2@@2@_N_J_KNVallocator@2@Uadl_serializer@nlohmann@@V?$vector@EV?$allocator@E@std@@@2@@nlohmann@@@std@@PEAX@std@@@std@@@?$_Tree_val@U?$_Tree_simple_types@U?$pair@$$CBV?$basic_string@DU?$char_traits@D@std@@V?$allocator@D@2@@std@@V?$basic_json@Vmap@std@@Vvector@2@V?$basic_string@DU?$char_traits@D@std@@V?$allocator@D@2@@2@_N_J_KNVallocator@2@Uadl_serializer@nlohmann@@V?$vector@EV?$allocator@E@std@@@2@@nlohmann@@@std@@@std@@@std@@QEAAXAEAV?$allocator@U?$_Tree_node@U?$pair@$$CBV?$basic_string@DU?$char_traits@D@std@@V?$allocator@D@2@@std@@V?$basic_json@Vmap@std@@Vvector@2@V?$basic_string@DU?$char_traits@D@std@@V?$allocator@D@2@@2@_N_J_KNVallocator@2@Uadl_serializer@nlohmann@@V?$vector@EV?$allocator@E@std@@@2@@nlohmann@@@std@@PEAX@std@@@1@@Z 00000001800192e0 f i config.obj
 0001:00018350       ??$target_object@V?$basic_executor_type@V?$allocator@X@std@@$03@io_context@asio@boost@@@any_executor_base@detail@execution@asio@boost@@KAPEBXAEBV01234@@Z 0000000180019350 f i server.obj
 0001:00018350       ?_Getal@?$_Tree@V?$_Tmap_traits@V?$basic_string@DU?$char_traits@D@std@@V?$allocator@D@2@@std@@V?$basic_json@Vmap@std@@Vvector@2@V?$basic_string@DU?$char_traits@D@std@@V?$allocator@D@2@@2@_N_J_KNVallocator@2@Uadl_serializer@nlohmann@@V?$vector@EV?$allocator@E@std@@@2@@nlohmann@@U?$less@X@2@V?$allocator@U?$pair@$$CBV?$basic_string@DU?$char_traits@D@std@@V?$allocator@D@2@@std@@V?$basic_json@Vmap@std@@Vvector@2@V?$basic_string@DU?$char_traits@D@std@@V?$allocator@D@2@@2@_N_J_KNVallocator@2@Uadl_serializer@nlohmann@@V?$vector@EV?$allocator@E@std@@@2@@nlohmann@@@std@@@2@$0A@@std@@@std@@IEAAAEAV?$allocator@U?$_Tree_node@U?$pair@$$CBV?$basic_string@DU?$char_traits@D@std@@V?$allocator@D@2@@std@@V?$basic_json@Vmap@std@@Vvector@2@V?$basic_string@DU?$char_traits@D@std@@V?$allocator@D@2@@2@_N_J_KNVallocator@2@Uadl_serializer@nlohmann@@V?$vector@EV?$allocator@E@std@@@2@@nlohmann@@@std@@PEAX@std@@@2@XZ 0000000180019350 f i config.obj
 0001:00018350       ??$target_object@V?$basic_executor_type@V?$allocator@X@std@@$0A@@io_context@asio@boost@@@any_executor_base@detail@execution@asio@boost@@KAPEBXAEBV01234@@Z 0000000180019350 f i server.obj
 0001:00018350       ?setbuf@?$basic_streambuf@DU?$char_traits@D@std@@@std@@MEAAPEAV12@PEAD_J@Z 0000000180019350 f i config.obj
 0001:00018360       ??$_Destroy_range@V?$allocator@V?$basic_json@Vmap@std@@Vvector@2@V?$basic_string@DU?$char_traits@D@std@@V?$allocator@D@2@@2@_N_J_KNVallocator@2@Uadl_serializer@nlohmann@@V?$vector@EV?$allocator@E@std@@@2@@nlohmann@@@std@@@std@@YAXPEAV?$basic_json@Vmap@std@@Vvector@2@V?$basic_string@DU?$char_traits@D@std@@V?$allocator@D@2@@2@_N_J_KNVallocator@2@Uadl_serializer@nlohmann@@V?$vector@EV?$allocator@E@std@@@2@@nlohmann@@QEAV12@AEAV?$allocator@V?$basic_json@Vmap@std@@Vvector@2@V?$basic_string@DU?$char_traits@D@std@@V?$allocator@D@2@@2@_N_J_KNVallocator@2@Uadl_serializer@nlohmann@@V?$vector@EV?$allocator@E@std@@@2@@nlohmann@@@0@@Z 0000000180019360 f i config.obj
 0001:000183a0       ?deallocate@?$allocator@V?$basic_json@Vmap@std@@Vvector@2@V?$basic_string@DU?$char_traits@D@std@@V?$allocator@D@2@@2@_N_J_KNVallocator@2@Uadl_serializer@nlohmann@@V?$vector@EV?$allocator@E@std@@@2@@nlohmann@@@std@@QEAAXQEAV?$basic_json@Vmap@std@@Vvector@2@V?$basic_string@DU?$char_traits@D@std@@V?$allocator@D@2@@2@_N_J_KNVallocator@2@Uadl_serializer@nlohmann@@V?$vector@EV?$allocator@E@std@@@2@@nlohmann@@_K@Z 00000001800193a0 f i config.obj
 0001:000183a0       ?deallocate@?$allocator@Vthread@std@@@std@@QEAAXQEAVthread@2@_K@Z 00000001800193a0 f i server.obj
 0001:000183f0       ?_Tidy@?$vector@V?$basic_json@Vmap@std@@Vvector@2@V?$basic_string@DU?$char_traits@D@std@@V?$allocator@D@2@@2@_N_J_KNVallocator@2@Uadl_serializer@nlohmann@@V?$vector@EV?$allocator@E@std@@@2@@nlohmann@@V?$allocator@V?$basic_json@Vmap@std@@Vvector@2@V?$basic_string@DU?$char_traits@D@std@@V?$allocator@D@2@@2@_N_J_KNVallocator@2@Uadl_serializer@nlohmann@@V?$vector@EV?$allocator@E@std@@@2@@nlohmann@@@std@@@std@@AEAAXXZ 00000001800193f0 f i config.obj
 0001:00018480       ??1?$vector@V?$basic_json@Vmap@std@@Vvector@2@V?$basic_string@DU?$char_traits@D@std@@V?$allocator@D@2@@2@_N_J_KNVallocator@2@Uadl_serializer@nlohmann@@V?$vector@EV?$allocator@E@std@@@2@@nlohmann@@V?$allocator@V?$basic_json@Vmap@std@@Vvector@2@V?$basic_string@DU?$char_traits@D@std@@V?$allocator@D@2@@2@_N_J_KNVallocator@2@Uadl_serializer@nlohmann@@V?$vector@EV?$allocator@E@std@@@2@@nlohmann@@@std@@@std@@QEAA@XZ 0000000180019480 f i config.obj
 0001:00018490       ?destroy@json_value@?$basic_json@Vmap@std@@Vvector@2@V?$basic_string@DU?$char_traits@D@std@@V?$allocator@D@2@@2@_N_J_KNVallocator@2@Uadl_serializer@nlohmann@@V?$vector@EV?$allocator@E@std@@@2@@nlohmann@@QEAAXW4value_t@detail@3@@Z 0000000180019490 f i config.obj
 0001:00018980       ??1?$basic_json@Vmap@std@@Vvector@2@V?$basic_string@DU?$char_traits@D@std@@V?$allocator@D@2@@2@_N_J_KNVallocator@2@Uadl_serializer@nlohmann@@V?$vector@EV?$allocator@E@std@@@2@@nlohmann@@QEAA@XZ 0000000180019980 f i config.obj
 0001:000189a0       ??0?$basic_json@Vmap@std@@Vvector@2@V?$basic_string@DU?$char_traits@D@std@@V?$allocator@D@2@@2@_N_J_KNVallocator@2@Uadl_serializer@nlohmann@@V?$vector@EV?$allocator@E@std@@@2@@nlohmann@@QEAA@$$T@Z 00000001800199a0 f i config.obj
 0001:000189c0       ??_D?$basic_istream@DU?$char_traits@D@std@@@std@@QEAAXXZ 00000001800199c0 f i config.obj
 0001:00018a00       ??$getline@DU?$char_traits@D@std@@V?$allocator@D@2@@std@@YAAEAV?$basic_istream@DU?$char_traits@D@std@@@0@$$QEAV10@AEAV?$basic_string@DU?$char_traits@D@std@@V?$allocator@D@2@@0@D@Z 0000000180019a00 f i config.obj
 0001:00018ca0       ?_Throw_tree_length_error@std@@YAXXZ 0000000180019ca0 f i config.obj
 0001:00018cc0       ??$_Insert_string@DU?$char_traits@D@std@@_K@std@@YAAEAV?$basic_ostream@DU?$char_traits@D@std@@@0@AEAV10@QEBD_K@Z 0000000180019cc0 f i config.obj
 0001:00018f00       ?do_put@?$num_put@DV?$ostreambuf_iterator@DU?$char_traits@D@std@@@std@@@std@@MEBA?AV?$ostreambuf_iterator@DU?$char_traits@D@std@@@2@V32@AEAVios_base@2@DPEBX@Z 0000000180019f00 f i config.obj
 0001:00018fb0       ?do_put@?$num_put@DV?$ostreambuf_iterator@DU?$char_traits@D@std@@@std@@@std@@MEBA?AV?$ostreambuf_iterator@DU?$char_traits@D@std@@@2@V32@AEAVios_base@2@DO@Z 0000000180019fb0 f i config.obj
 0001:00019290       ?_Fput@?$num_put@DV?$ostreambuf_iterator@DU?$char_traits@D@std@@@std@@@std@@AEBA?AV?$ostreambuf_iterator@DU?$char_traits@D@std@@@2@V32@AEAVios_base@2@DPEBD_K@Z 000000018001a290 f i config.obj
 0001:00019990       ?do_put@?$num_put@DV?$ostreambuf_iterator@DU?$char_traits@D@std@@@std@@@std@@MEBA?AV?$ostreambuf_iterator@DU?$char_traits@D@std@@@2@V32@AEAVios_base@2@DN@Z 000000018001a990 f i config.obj
 0001:00019c70       ?do_put@?$num_put@DV?$ostreambuf_iterator@DU?$char_traits@D@std@@@std@@@std@@MEBA?AV?$ostreambuf_iterator@DU?$char_traits@D@std@@@2@V32@AEAVios_base@2@D_K@Z 000000018001ac70 f i config.obj
 0001:00019da0       ?do_put@?$num_put@DV?$ostreambuf_iterator@DU?$char_traits@D@std@@@std@@@std@@MEBA?AV?$ostreambuf_iterator@DU?$char_traits@D@std@@@2@V32@AEAVios_base@2@D_J@Z 000000018001ada0 f i config.obj
 0001:00019ed0       ?do_put@?$num_put@DV?$ostreambuf_iterator@DU?$char_traits@D@std@@@std@@@std@@MEBA?AV?$ostreambuf_iterator@DU?$char_traits@D@std@@@2@V32@AEAVios_base@2@DK@Z 000000018001aed0 f i config.obj
 0001:00019ff0       ?do_put@?$num_put@DV?$ostreambuf_iterator@DU?$char_traits@D@std@@@std@@@std@@MEBA?AV?$ostreambuf_iterator@DU?$char_traits@D@std@@@2@V32@AEAVios_base@2@D_N@Z 000000018001aff0 f i config.obj
 0001:0001a360       ?_Getcat@?$num_put@DV?$ostreambuf_iterator@DU?$char_traits@D@std@@@std@@@std@@SA_KPEAPEBVfacet@locale@2@PEBV42@@Z 000000018001b360 f i config.obj
 0001:0001a4e0       ??$use_facet@V?$num_put@DV?$ostreambuf_iterator@DU?$char_traits@D@std@@@std@@@std@@@std@@YAAEBV?$num_put@DV?$ostreambuf_iterator@DU?$char_traits@D@std@@@std@@@0@AEBVlocale@0@@Z 000000018001b4e0 f i config.obj
 0001:0001a620       ??_E?$numpunct@D@std@@MEAAPEAXI@Z 000000018001b620 f i * CIL library *:* CIL module *
 0001:0001a620       ??_G?$numpunct@D@std@@MEAAPEAXI@Z 000000018001b620 f i config.obj
 0001:0001a680       ?do_decimal_point@?$numpunct@D@std@@MEBADXZ 000000018001b680 f i config.obj
 0001:0001a690       ?do_falsename@?$numpunct@D@std@@MEBA?AV?$basic_string@DU?$char_traits@D@std@@V?$allocator@D@2@@2@XZ 000000018001b690 f i config.obj
 0001:0001a6e0       ?do_truename@?$numpunct@D@std@@MEBA?AV?$basic_string@DU?$char_traits@D@std@@V?$allocator@D@2@@2@XZ 000000018001b6e0 f i config.obj
 0001:0001a730       ??1?$_Tidy_guard@V?$numpunct@D@std@@@std@@QEAA@XZ 000000018001b730 f i config.obj
 0001:0001a770       ?_Getcat@?$numpunct@D@std@@SA_KPEAPEBVfacet@locale@2@PEBV42@@Z 000000018001b770 f i config.obj
 0001:0001a9b0       ??$use_facet@V?$numpunct@D@std@@@std@@YAAEBV?$numpunct@D@0@AEBVlocale@0@@Z 000000018001b9b0 f i config.obj
 0001:0001aaf0       ?do_grouping@?$numpunct@D@std@@MEBA?AV?$basic_string@DU?$char_traits@D@std@@V?$allocator@D@2@@2@XZ 000000018001baf0 f i config.obj
 0001:0001ab40       ?do_thousands_sep@?$numpunct@D@std@@MEBADXZ 000000018001bb40 f i config.obj
 0001:0001ab50       ??$_Reallocate_grow_by@V<lambda_1>@?1??insert@?$basic_string@DU?$char_traits@D@std@@V?$allocator@D@2@@std@@QEAAAEAV34@_K0D@Z@_K_KD@?$basic_string@DU?$char_traits@D@std@@V?$allocator@D@2@@std@@AEAAAEAV01@_KV<lambda_1>@?1??insert@01@QEAAAEAV01@00D@Z@_K2D@Z 000000018001bb50 f i config.obj
 0001:0001ad20       ?_Iput@?$num_put@DV?$ostreambuf_iterator@DU?$char_traits@D@std@@@std@@@std@@AEBA?AV?$ostreambuf_iterator@DU?$char_traits@D@std@@@2@V32@AEAVios_base@2@DPEAD_K@Z 000000018001bd20 f i config.obj
 0001:0001b3a0       sprintf_s                  000000018001c3a0 f i config.obj
 0001:0001b400       ?do_put@?$num_put@DV?$ostreambuf_iterator@DU?$char_traits@D@std@@@std@@@std@@MEBA?AV?$ostreambuf_iterator@DU?$char_traits@D@std@@@2@V32@AEAVios_base@2@DJ@Z 000000018001c400 f i config.obj
 0001:0001b520       ??6?$basic_ostream@DU?$char_traits@D@std@@@std@@QEAAAEAV01@H@Z 000000018001c520 f i config.obj
 0001:0001b6d0       ?name@misc_category@detail@error@asio@boost@@UEBAPEBDXZ 000000018001c6d0 f i config.obj
 0001:0001b6e0       ?message@error_category@system@boost@@UEBAPEBDHPEAD_K@Z 000000018001c6e0 f i config.obj
 0001:0001b7b0       ?message@misc_category@detail@error@asio@boost@@UEBA?AV?$basic_string@DU?$char_traits@D@std@@V?$allocator@D@2@@std@@H@Z 000000018001c7b0 f i config.obj
 0001:0001b8c0       ??0sentry@?$basic_ostream@DU?$char_traits@D@std@@@std@@QEAA@AEAV12@@Z 000000018001c8c0 f i config.obj
 0001:0001b940       ??1_Sentry_base@?$basic_ostream@DU?$char_traits@D@std@@@std@@QEAA@XZ 000000018001c940 f i config.obj
 0001:0001b940       ??1_Sentry_base@?$basic_istream@DU?$char_traits@D@std@@@std@@QEAA@XZ 000000018001c940 f i config.obj
 0001:0001b970       ?_Osfx@?$basic_ostream@DU?$char_traits@D@std@@@std@@QEAAXXZ 000000018001c970 f i config.obj
 0001:0001b9c0       ??1sentry@?$basic_ostream@DU?$char_traits@D@std@@@std@@QEAA@XZ 000000018001c9c0 f i config.obj
 0001:0001ba00       ?flush@?$basic_ostream@DU?$char_traits@D@std@@@std@@QEAAAEAV12@XZ 000000018001ca00 f i config.obj
 0001:0001bb00       ?_Ipfx@?$basic_istream@DU?$char_traits@D@std@@@std@@QEAA_N_N@Z 000000018001cb00 f i config.obj
 0001:0001bb70       ??1sentry@?$basic_istream@DU?$char_traits@D@std@@@std@@QEAA@XZ 000000018001cb70 f i config.obj
 0001:0001bba0       ??$_Resize_reallocate@I@?$vector@IV?$allocator@I@std@@@std@@AEAAX_KAEBI@Z 000000018001cba0 f i config.obj
 0001:0001bcd0       ?_Insert_x@?$vector@_NV?$allocator@_N@std@@@std@@QEAA_KV?$_Vb_const_iterator@U?$_Wrap_alloc@V?$allocator@I@std@@@std@@@2@_K@Z 000000018001ccd0 f i config.obj
 0001:0001bf00       ?_Insert_n@?$vector@_NV?$allocator@_N@std@@@std@@QEAA?AV?$_Vb_iterator@U?$_Wrap_alloc@V?$allocator@I@std@@@std@@@2@V?$_Vb_const_iterator@U?$_Wrap_alloc@V?$allocator@I@std@@@std@@@2@_KAEB_N@Z 000000018001cf00 f i config.obj
 0001:0001c0c0       ?_Xlen@?$vector@_NV?$allocator@_N@std@@@std@@QEBAXXZ 000000018001d0c0 f i config.obj
 0001:0001c0e0       ??4?$basic_string@DU?$char_traits@D@std@@V?$allocator@D@2@@std@@QEAAAEAV01@$$QEAV01@@Z 000000018001d0e0 f i config.obj
 0001:0001c170       ??1?$_Vb_val@V?$allocator@_N@std@@@std@@QEAA@XZ 000000018001d170 f i config.obj
 0001:0001c170       ??1?$vector@_NV?$allocator@_N@std@@@std@@QEAA@XZ 000000018001d170 f i config.obj
 0001:0001c1d0       ?allocate@?$allocator@I@std@@QEAAPEAI_K@Z 000000018001d1d0 f i config.obj
 0001:0001c240       ?to_string@error_code@system@boost@@QEBA?AV?$basic_string@DU?$char_traits@D@std@@V?$allocator@D@2@@std@@XZ 000000018001d240 f i config.obj
 0001:0001c430       sprintf                    000000018001d430 f i config.obj
 0001:0001c490       ??$_Reallocate_grow_by@V<lambda_1>@?1??push_back@?$basic_string@DU?$char_traits@D@std@@V?$allocator@D@2@@std@@QEAAXD@Z@D@?$basic_string@DU?$char_traits@D@std@@V?$allocator@D@2@@std@@AEAAAEAV01@_KV<lambda_1>@?1??push_back@01@QEAAXD@Z@D@Z 000000018001d490 f i config.obj
 0001:0001c600       ?to_string@source_location@boost@@QEBA?AV?$basic_string@DU?$char_traits@D@std@@V?$allocator@D@2@@std@@XZ 000000018001d600 f i config.obj
 0001:0001c7b0       ?what@error_code@system@boost@@QEBA?AV?$basic_string@DU?$char_traits@D@std@@V?$allocator@D@2@@std@@XZ 000000018001d7b0 f i config.obj
 0001:0001c960       ??0system_error@system@boost@@QEAA@AEBVerror_code@12@PEBD@Z 000000018001d960 f i config.obj
 0001:0001cac0       ??0?$wrapexcept@Vsystem_error@system@boost@@@boost@@QEAA@AEBVsystem_error@system@1@@Z 000000018001dac0 f i config.obj
 0001:0001cb60       ??1out_of_range@std@@UEAA@XZ 000000018001db60 f i libcpmt:xthrow.obj
 0001:0001cb60       ??1regex_error@std@@UEAA@XZ 000000018001db60 f i libcpmt:xthrow.obj
 0001:0001cb60       ??1system_error@system@boost@@UEAA@XZ 000000018001db60 f i config.obj
 0001:0001cb60       ??1system_error@std@@UEAA@XZ 000000018001db60 f i config.obj
 0001:0001cb60       ??1bad_array_new_length@std@@UEAA@XZ 000000018001db60 f i config.obj
 0001:0001cb60       ??1service_already_exists@asio@boost@@UEAA@XZ 000000018001db60 f i server.obj
 0001:0001cb60       ??1runtime_error@std@@UEAA@XZ 000000018001db60 f i config.obj
 0001:0001cb60       ??1exception@std@@UEAA@XZ  000000018001db60 f i config.obj
 0001:0001cb60       ??1failure@ios_base@std@@UEAA@XZ 000000018001db60 f i config.obj
 0001:0001cb60       ??1invalid_service_owner@asio@boost@@UEAA@XZ 000000018001db60 f i server.obj
 0001:0001cb60       ??1bad_address_cast@ip@asio@boost@@UEAA@XZ 000000018001db60 f i server.obj
 0001:0001cb60       ??1bad_weak_ptr@std@@UEAA@XZ 000000018001db60 f i server.obj
 0001:0001cb60       ??1bad_cast@std@@UEAA@XZ   000000018001db60 f i config.obj
 0001:0001cb60       ??1bad_function_call@std@@UEAA@XZ 000000018001db60 f i libcpmt:xthrow.obj
 0001:0001cb60       ??1invalid_argument@std@@UEAA@XZ 000000018001db60 f i libcpmt:xthrow.obj
 0001:0001cb60       ??1bad_executor@execution@asio@boost@@UEAA@XZ 000000018001db60 f i server.obj
 0001:0001cb60       ??1bad_alloc@std@@UEAA@XZ  000000018001db60 f i config.obj
 0001:0001cb60       ??1length_error@std@@UEAA@XZ 000000018001db60 f i server.obj
 0001:0001cb80       ??1?$wrapexcept@Vsystem_error@system@boost@@@boost@@UEAA@XZ 000000018001db80 f i config.obj
 0001:0001cbe0       ??_E?$wrapexcept@Vsystem_error@system@boost@@@boost@@UEAAPEAXI@Z 000000018001dbe0 f i * CIL library *:* CIL module *
 0001:0001cbe0       ??_G?$wrapexcept@Vsystem_error@system@boost@@@boost@@UEAAPEAXI@Z 000000018001dbe0 f i config.obj
 0001:0001cc60       ??1deleter@?$wrapexcept@Vservice_already_exists@asio@boost@@@boost@@QEAA@XZ 000000018001dc60 f i server.obj
 0001:0001cc60       ??1deleter@?$wrapexcept@Vbad_address_cast@ip@asio@boost@@@boost@@QEAA@XZ 000000018001dc60 f i server.obj
 0001:0001cc60       ??1deleter@?$wrapexcept@Vsystem_error@system@boost@@@boost@@QEAA@XZ 000000018001dc60 f i config.obj
 0001:0001cc60       ??1deleter@?$wrapexcept@Vbad_executor@execution@asio@boost@@@boost@@QEAA@XZ 000000018001dc60 f i server.obj
 0001:0001cc60       ??1deleter@?$wrapexcept@Vlength_error@std@@@boost@@QEAA@XZ 000000018001dc60 f i server.obj
 0001:0001cc60       ??1deleter@?$wrapexcept@Vinvalid_service_owner@asio@boost@@@boost@@QEAA@XZ 000000018001dc60 f i server.obj
 0001:0001cc80       ?clone@?$wrapexcept@Vsystem_error@system@boost@@@boost@@UEBAPEBVclone_base@exception_detail@2@XZ 000000018001dc80 f i config.obj
 0001:0001cce0       ?rethrow@?$wrapexcept@Vsystem_error@system@boost@@@boost@@UEBAXXZ 000000018001dce0 f i config.obj
 0001:0001cd08       ??_E?$wrapexcept@Vsystem_error@system@boost@@@boost@@W7EAAPEAXI@Z 000000018001dd08 f i config.obj
 0001:0001cd14       ??_E?$wrapexcept@Vsystem_error@system@boost@@@boost@@WDI@EAAPEAXI@Z 000000018001dd14 f i config.obj
 0001:0001cd20       ??0?$wrapexcept@Vsystem_error@system@boost@@@boost@@QEAA@AEBU01@@Z 000000018001dd20 f i config.obj
 0001:0001cde0       ??_Esystem_error@system@boost@@UEAAPEAXI@Z 000000018001dde0 f i * CIL library *:* CIL module *
 0001:0001cde0       ??_Gsystem_error@system@boost@@UEAAPEAXI@Z 000000018001dde0 f i config.obj
 0001:0001ce30       ??0system_error@system@boost@@QEAA@AEBV012@@Z 000000018001de30 f i config.obj
 0001:0001ce90       ??$throw_exception@Vsystem_error@system@boost@@@boost@@YAXAEBVsystem_error@system@0@@Z 000000018001de90 f i config.obj
 0001:0001cec0       ?do_throw_error@detail@asio@boost@@YAXAEBVerror_code@system@3@PEBD@Z 000000018001dec0 f i config.obj
 0001:0001cef0       ?sync@?$basic_streambuf@DU?$char_traits@D@std@@@std@@MEAAHXZ 000000018001def0 f i config.obj
 0001:0001cef0       ?target_void@any_executor_base@detail@execution@asio@boost@@KAPEBXAEBV12345@@Z 000000018001def0 f i server.obj
 0001:0001cef0       ?_Get_deleter@_Ref_count_base@std@@UEBAPEAXAEBVtype_info@@@Z 000000018001def0 f i config.obj
 0001:0001cef0       ?showmanyc@?$basic_streambuf@DU?$char_traits@D@std@@@std@@MEAA_JXZ 000000018001def0 f i config.obj
 0001:0001cf00       ?to_string@std@@YA?AV?$basic_string@DU?$char_traits@D@std@@V?$allocator@D@2@@1@H@Z 000000018001df00 f i config.obj
 0001:0001cfe0       ??_E?$basic_istream@DU?$char_traits@D@std@@@std@@UEAAPEAXI@Z 000000018001dfe0 f i * CIL library *:* CIL module *
 0001:0001cfe0       ??_G?$basic_istream@DU?$char_traits@D@std@@@std@@UEAAPEAXI@Z 000000018001dfe0 f i config.obj
 0001:0001d044       ??_E?$basic_istream@DU?$char_traits@D@std@@@std@@$4PPPPPPPM@A@EAAPEAXI@Z 000000018001e044 f i config.obj
 0001:0001d050       ??1?$basic_istream@DU?$char_traits@D@std@@@std@@UEAA@XZ 000000018001e050 f i config.obj
 0001:0001d080       ??1facet@locale@std@@MEAA@XZ 000000018001e080 f i config.obj
 0001:0001d090       ??_E?$ctype@D@std@@MEAAPEAXI@Z 000000018001e090 f i * CIL library *:* CIL module *
 0001:0001d090       ??_G?$ctype@D@std@@MEAAPEAXI@Z 000000018001e090 f i config.obj
 0001:0001d100       ?do_tolower@?$ctype@D@std@@MEBAPEBDPEADPEBD@Z 000000018001e100 f i config.obj
 0001:0001d150       ?do_tolower@?$ctype@D@std@@MEBADD@Z 000000018001e150 f i config.obj
 0001:0001d160       ?do_toupper@?$ctype@D@std@@MEBAPEBDPEADPEBD@Z 000000018001e160 f i config.obj
 0001:0001d1b0       ?do_toupper@?$ctype@D@std@@MEBADD@Z 000000018001e1b0 f i config.obj
 0001:0001d1c0       ?do_widen@?$ctype@D@std@@MEBAPEBDPEBD0PEAD@Z 000000018001e1c0 f i config.obj
 0001:0001d1e0       ?do_widen@?$ctype@D@std@@MEBADD@Z 000000018001e1e0 f i config.obj
 0001:0001d1e0       ?do_narrow@?$ctype@D@std@@MEBADDD@Z 000000018001e1e0 f i config.obj
 0001:0001d1f0       ?do_narrow@?$ctype@D@std@@MEBAPEBDPEBD0DPEAD@Z 000000018001e1f0 f i config.obj
 0001:0001d210       ??1?$_Yarn@D@std@@QEAA@XZ  000000018001e210 f i config.obj
 0001:0001d210       ??1?$_Yarn@_W@std@@QEAA@XZ 000000018001e210 f i config.obj
 0001:0001d240       ??1_Locinfo@std@@QEAA@XZ   000000018001e240 f i config.obj
 0001:0001d2e0       ?_Getcat@?$ctype@D@std@@SA_KPEAPEBVfacet@locale@2@PEBV42@@Z 000000018001e2e0 f i config.obj
 0001:0001d470       ??0bad_cast@std@@QEAA@XZ   000000018001e470 f i config.obj
 0001:0001d4a0       ??_Gbad_weak_ptr@std@@UEAAPEAXI@Z 000000018001e4a0 f i server.obj
 0001:0001d4a0       ??_Gbad_array_new_length@std@@UEAAPEAXI@Z 000000018001e4a0 f i config.obj
 0001:0001d4a0       ??_Ebad_weak_ptr@std@@UEAAPEAXI@Z 000000018001e4a0 f i * CIL library *:* CIL module *
 0001:0001d4a0       ??_Glogic_error@std@@UEAAPEAXI@Z 000000018001e4a0 f i server.obj
 0001:0001d4a0       ??_Gbad_alloc@std@@UEAAPEAXI@Z 000000018001e4a0 f i config.obj
 0001:0001d4a0       ??_Ebad_array_new_length@std@@UEAAPEAXI@Z 000000018001e4a0 f i * CIL library *:* CIL module *
 0001:0001d4a0       ??_Gbad_executor@execution@asio@boost@@UEAAPEAXI@Z 000000018001e4a0 f i server.obj
 0001:0001d4a0       ??_Eout_of_range@std@@UEAAPEAXI@Z 000000018001e4a0 f i libcpmt:xthrow.obj
 0001:0001d4a0       ??_Einvalid_service_owner@asio@boost@@UEAAPEAXI@Z 000000018001e4a0 f i * CIL library *:* CIL module *
 0001:0001d4a0       ??_Eexception@std@@UEAAPEAXI@Z 000000018001e4a0 f i * CIL library *:* CIL module *
 0001:0001d4a0       ??_Gexception@std@@UEAAPEAXI@Z 000000018001e4a0 f i config.obj
 0001:0001d4a0       ??_Einvalid_argument@std@@UEAAPEAXI@Z 000000018001e4a0 f i libcpmt:xthrow.obj
 0001:0001d4a0       ??_Ebad_alloc@std@@UEAAPEAXI@Z 000000018001e4a0 f i * CIL library *:* CIL module *
 0001:0001d4a0       ??_Gbad_cast@std@@UEAAPEAXI@Z 000000018001e4a0 f i config.obj
 0001:0001d4a0       ??_Gservice_already_exists@asio@boost@@UEAAPEAXI@Z 000000018001e4a0 f i server.obj
 0001:0001d4a0       ??_Elogic_error@std@@UEAAPEAXI@Z 000000018001e4a0 f i * CIL library *:* CIL module *
 0001:0001d4a0       ??_Gruntime_error@std@@UEAAPEAXI@Z 000000018001e4a0 f i config.obj
 0001:0001d4a0       ??_Ebad_executor@execution@asio@boost@@UEAAPEAXI@Z 000000018001e4a0 f i * CIL library *:* CIL module *
 0001:0001d4a0       ??_Gbad_function_call@std@@UEAAPEAXI@Z 000000018001e4a0 f i libcpmt:xthrow.obj
 0001:0001d4a0       ??_Ginvalid_argument@std@@UEAAPEAXI@Z 000000018001e4a0 f i libcpmt:xthrow.obj
 0001:0001d4a0       ??_Gbad_address_cast@ip@asio@boost@@UEAAPEAXI@Z 000000018001e4a0 f i server.obj
 0001:0001d4a0       ??_Ebad_function_call@std@@UEAAPEAXI@Z 000000018001e4a0 f i libcpmt:xthrow.obj
 0001:0001d4a0       ??_Ginvalid_service_owner@asio@boost@@UEAAPEAXI@Z 000000018001e4a0 f i server.obj
 0001:0001d4a0       ??_Eservice_already_exists@asio@boost@@UEAAPEAXI@Z 000000018001e4a0 f i * CIL library *:* CIL module *
 0001:0001d4a0       ??_Elength_error@std@@UEAAPEAXI@Z 000000018001e4a0 f i * CIL library *:* CIL module *
 0001:0001d4a0       ??_Ebad_address_cast@ip@asio@boost@@UEAAPEAXI@Z 000000018001e4a0 f i * CIL library *:* CIL module *
 0001:0001d4a0       ??_Eruntime_error@std@@UEAAPEAXI@Z 000000018001e4a0 f i * CIL library *:* CIL module *
 0001:0001d4a0       ??_Glength_error@std@@UEAAPEAXI@Z 000000018001e4a0 f i server.obj
 0001:0001d4a0       ??_Ebad_cast@std@@UEAAPEAXI@Z 000000018001e4a0 f i * CIL library *:* CIL module *
 0001:0001d4a0       ??_Gout_of_range@std@@UEAAPEAXI@Z 000000018001e4a0 f i libcpmt:xthrow.obj
 0001:0001d4f0       ??0bad_cast@std@@QEAA@AEBV01@@Z 000000018001e4f0 f i config.obj
 0001:0001d530       ?_Throw_bad_cast@std@@YAXXZ 000000018001e530 f i config.obj
 0001:0001d550       ??1?$unique_ptr@V_Node_assert@std@@U?$default_delete@V_Node_assert@std@@@2@@std@@QEAA@XZ 000000018001e550 f i server.obj
 0001:0001d550       ??1auto_func_base_ptr@win_thread@detail@asio@boost@@QEAA@XZ 000000018001e550 f i server.obj
 0001:0001d550       ??1?$scoped_ptr@Vwin_iocp_io_context@detail@asio@boost@@@detail@asio@boost@@QEAA@XZ 000000018001e550 f i server.obj
 0001:0001d550       ??1?$unique_ptr@V_Facet_base@std@@U?$default_delete@V_Facet_base@std@@@2@@std@@QEAA@XZ 000000018001e550 f i config.obj
 0001:0001d570       ??$use_facet@V?$ctype@D@std@@@std@@YAAEBV?$ctype@D@0@AEBVlocale@0@@Z 000000018001e570 f i config.obj
 0001:0001d6b0       ?_Incref@facet@locale@std@@UEAAXXZ 000000018001e6b0 f i config.obj
 0001:0001d6c0       ?init@?$basic_ios@DU?$char_traits@D@std@@@std@@IEAAXPEAV?$basic_streambuf@DU?$char_traits@D@std@@@2@_N@Z 000000018001e6c0 f i config.obj
 0001:0001d7b0       ??_E?$basic_ostream@DU?$char_traits@D@std@@@std@@UEAAPEAXI@Z 000000018001e7b0 f i * CIL library *:* CIL module *
 0001:0001d7b0       ??_G?$basic_ostream@DU?$char_traits@D@std@@@std@@UEAAPEAXI@Z 000000018001e7b0 f i config.obj
 0001:0001d814       ??_E?$basic_ostream@DU?$char_traits@D@std@@@std@@$4PPPPPPPM@A@EAAPEAXI@Z 000000018001e814 f i config.obj
 0001:0001d820       ??0?$basic_streambuf@DU?$char_traits@D@std@@@std@@IEAA@XZ 000000018001e820 f i config.obj
 0001:0001d8b0       ?_Change_array@?$vector@DV?$allocator@D@std@@@std@@AEAAXQEAD_K1@Z 000000018001e8b0 f i config.obj
 0001:0001d940       ??_E?$basic_streambuf@DU?$char_traits@D@std@@@std@@UEAAPEAXI@Z 000000018001e940 f i * CIL library *:* CIL module *
 0001:0001d940       ??_G?$basic_streambuf@DU?$char_traits@D@std@@@std@@UEAAPEAXI@Z 000000018001e940 f i config.obj
 0001:0001d9c0       ?_Lock@?$basic_streambuf@DU?$char_traits@D@std@@@std@@UEAAXXZ 000000018001e9c0 f i config.obj
 0001:0001d9c0       ?shutdown@?$deadline_timer_service@U?$chrono_time_traits@Usteady_clock@chrono@std@@U?$wait_traits@Usteady_clock@chrono@std@@@asio@boost@@@detail@asio@boost@@@detail@asio@boost@@UEAAXXZ 000000018001e9c0 f i server.obj
 0001:0001d9c0       ?notify_fork@service@execution_context@asio@boost@@EEAAXW4fork_event@234@@Z 000000018001e9c0 f i server.obj
 0001:0001d9c0       ?_Destroy@?$_Ref_count_resource@PEAXUnoop_deleter@socket_ops@detail@asio@boost@@@std@@EEAAXXZ 000000018001e9c0 f i server.obj
 0001:0001d9c0       ?onUnload@BakkesModPlugin@Plugin@BakkesMod@@UEAAXXZ 000000018001e9c0 f i SixMansPlugin-Rework.obj
 0001:0001d9c0       ?onLoad@BakkesModPlugin@Plugin@BakkesMod@@UEAAXXZ 000000018001e9c0 f i SixMansPlugin-Rework.obj
 0001:0001d9c0       ?apc_function@detail@asio@boost@@YAX_K@Z 000000018001e9c0 f i server.obj
 0001:0001d9c0       ??1std_fenced_block@detail@asio@boost@@QEAA@XZ 000000018001e9c0 f i server.obj
 0001:0001d9c0       ?destroy_void@any_executor_base@detail@execution@asio@boost@@KAXAEAV12345@@Z 000000018001e9c0 f i server.obj
 0001:0001d9c0       ?destroy@stl_critical_section_win7@details@Concurrency@@UEAAXXZ 000000018001e9c0 f i libcpmt:mutex.obj
 0001:0001d9c0       ?imbue@?$basic_streambuf@DU?$char_traits@D@std@@@std@@MEAAXAEBVlocale@2@@Z 000000018001e9c0 f i config.obj
 0001:0001d9c0       ?after_bind@?$ServerBase@V?$basic_stream_socket@Vtcp@ip@asio@boost@@Vany_io_executor@34@@asio@boost@@@SimpleWeb@@MEAAXXZ 000000018001e9c0 f i server.obj
 0001:0001d9c0       ?_Unlock@?$basic_streambuf@DU?$char_traits@D@std@@@std@@UEAAXXZ 000000018001e9c0 f i config.obj
 0001:0001d9c0       ??$destroy_object@V?$basic_executor_type@V?$allocator@X@std@@$0A@@io_context@asio@boost@@@any_executor_base@detail@execution@asio@boost@@KAXAEAV01234@@Z 000000018001e9c0 f i server.obj
 0001:0001d9c0       _guard_check_icall_nop     000000018001e9c0 f i LIBCMT:guard_support.obj
 0001:0001d9c0       ??3@YAXPEAXUImNewDummy@@0@Z 000000018001e9c0 f i imgui.obj
 0001:0001d9d0       ?underflow@?$basic_streambuf@DU?$char_traits@D@std@@@std@@MEAAHXZ 000000018001e9d0 f i config.obj
 0001:0001d9d0       ?pbackfail@?$basic_streambuf@DU?$char_traits@D@std@@@std@@MEAAHH@Z 000000018001e9d0 f i config.obj
 0001:0001d9d0       ?overflow@?$basic_streambuf@DU?$char_traits@D@std@@@std@@MEAAHH@Z 000000018001e9d0 f i config.obj
 0001:0001d9e0       ?_Gnavail@?$basic_streambuf@DU?$char_traits@D@std@@@std@@IEBA_JXZ 000000018001e9e0 f i config.obj
 0001:0001da00       ?uflow@?$basic_streambuf@DU?$char_traits@D@std@@@std@@MEAAHXZ 000000018001ea00 f i config.obj
 0001:0001da40       ?xsgetn@?$basic_streambuf@DU?$char_traits@D@std@@@std@@MEAA_JPEAD_J@Z 000000018001ea40 f i config.obj
 0001:0001daf0       ?_Pnavail@?$basic_streambuf@DU?$char_traits@D@std@@@std@@IEBA_JXZ 000000018001eaf0 f i config.obj
 0001:0001db10       ?xsputn@?$basic_streambuf@DU?$char_traits@D@std@@@std@@MEAA_JPEBD_J@Z 000000018001eb10 f i config.obj
 0001:0001dbc0       ?seekoff@?$basic_streambuf@DU?$char_traits@D@std@@@std@@MEAA?AV?$fpos@U_Mbstatet@@@2@_JHH@Z 000000018001ebc0 f i config.obj
 0001:0001dbc0       ?seekpos@?$basic_streambuf@DU?$char_traits@D@std@@@std@@MEAA?AV?$fpos@U_Mbstatet@@@2@V32@H@Z 000000018001ebc0 f i config.obj
 0001:0001dbe0       ?_Decref@facet@locale@std@@UEAAPEAV_Facet_base@3@XZ 000000018001ebe0 f i config.obj
 0001:0001dbf0       ??_E_Facet_base@std@@UEAAPEAXI@Z 000000018001ebf0 f i * CIL library *:* CIL module *
 0001:0001dbf0       ??_G_Facet_base@std@@UEAAPEAXI@Z 000000018001ebf0 f i config.obj
 0001:0001dc20       ??1locale@std@@QEAA@XZ     000000018001ec20 f i config.obj
 0001:0001dc50       ??1?$basic_streambuf@DU?$char_traits@D@std@@@std@@UEAA@XZ 000000018001ec50 f i config.obj
 0001:0001dcb0       ??1?$vector@DV?$allocator@D@std@@@std@@QEAA@XZ 000000018001ecb0 f i config.obj
 0001:0001dd10       ??0runtime_error@std@@QEAA@AEBV?$basic_string@DU?$char_traits@D@std@@V?$allocator@D@2@@1@@Z 000000018001ed10 f i config.obj
 0001:0001dd80       ??$_Reallocate_grow_by@V<lambda_1>@?1??append@?$basic_string@DU?$char_traits@D@std@@V?$allocator@D@2@@std@@QEAAAEAV34@QEBD_K@Z@PEBD_K@?$basic_string@DU?$char_traits@D@std@@V?$allocator@D@2@@std@@AEAAAEAV01@_KV<lambda_1>@?1??append@01@QEAAAEAV01@QEBD0@Z@PEBD_K@Z 000000018001ed80 f i config.obj
 0001:0001df10       ?append@?$basic_string@DU?$char_traits@D@std@@V?$allocator@D@2@@std@@QEAAAEAV12@QEBD_K@Z 000000018001ef10 f i config.obj
 0001:0001dfa0       ??0_System_error@std@@IEAA@Verror_code@1@AEBV?$basic_string@DU?$char_traits@D@std@@V?$allocator@D@2@@1@@Z 000000018001efa0 f i config.obj
 0001:0001e110       ??0failure@ios_base@std@@QEAA@PEBDAEBVerror_code@2@@Z 000000018001f110 f i config.obj
 0001:0001e1e0       ?name@_Iostream_error_category2@std@@UEBAPEBDXZ 000000018001f1e0 f i config.obj
 0001:0001e1f0       ?message@_Iostream_error_category2@std@@UEBA?AV?$basic_string@DU?$char_traits@D@std@@V?$allocator@D@2@@2@H@Z 000000018001f1f0 f i config.obj
 0001:0001e280       ?equivalent@error_category@std@@UEBA_NAEBVerror_code@2@H@Z 000000018001f280 f i config.obj
 0001:0001e2a0       ?default_error_condition@error_category@system@boost@@UEBA?AVerror_condition@23@H@Z 000000018001f2a0 f i config.obj
 0001:0001e2a0       ?default_error_condition@error_category@std@@UEBA?AVerror_condition@2@H@Z 000000018001f2a0 f i config.obj
 0001:0001e2b0       ?equivalent@error_category@std@@UEBA_NHAEBVerror_condition@2@@Z 000000018001f2b0 f i config.obj
 0001:0001e2f0       ?make_error_code@std@@YA?AVerror_code@1@W4io_errc@1@@Z 000000018001f2f0 f i config.obj
 0001:0001e310       ??_E_System_error@std@@UEAAPEAXI@Z 000000018001f310 f i * CIL library *:* CIL module *
 0001:0001e310       ??_Efailure@ios_base@std@@UEAAPEAXI@Z 000000018001f310 f i * CIL library *:* CIL module *
 0001:0001e310       ??_Gfailure@ios_base@std@@UEAAPEAXI@Z 000000018001f310 f i config.obj
 0001:0001e310       ??_Gsystem_error@std@@UEAAPEAXI@Z 000000018001f310 f i config.obj
 0001:0001e310       ??_Esystem_error@std@@UEAAPEAXI@Z 000000018001f310 f i * CIL library *:* CIL module *
 0001:0001e310       ??_G_System_error@std@@UEAAPEAXI@Z 000000018001f310 f i config.obj
 0001:0001e360       ??0failure@ios_base@std@@QEAA@AEBV012@@Z 000000018001f360 f i config.obj
 0001:0001e3c0       ??0system_error@std@@QEAA@AEBV01@@Z 000000018001f3c0 f i config.obj
 0001:0001e420       ??0_System_error@std@@QEAA@AEBV01@@Z 000000018001f420 f i config.obj
 0001:0001e470       ??0runtime_error@std@@QEAA@AEBV01@@Z 000000018001f470 f i config.obj
 0001:0001e4b0       ?clear@ios_base@std@@QEAAXH_N@Z 000000018001f4b0 f i config.obj
 0001:0001e540       ??0?$basic_string@DU?$char_traits@D@std@@V?$allocator@D@2@@std@@QEAA@AEBV01@@Z 000000018001f540 f i config.obj
 0001:0001e620       ??1clone_base@exception_detail@boost@@UEAA@XZ 000000018001f620 f i config.obj
 0001:0001e630       ?copy_boost_exception@exception_detail@boost@@YAXPEAVexception@2@PEBV32@@Z 000000018001f630 f i config.obj
 0001:0001e700       ??_Gclone_base@exception_detail@boost@@UEAAPEAXI@Z 000000018001f700 f i config.obj
 0001:0001e700       ??_Eclone_base@exception_detail@boost@@UEAAPEAXI@Z 000000018001f700 f i * CIL library *:* CIL module *
 0001:0001e730       ??0clone_base@exception_detail@boost@@QEAA@AEBV012@@Z 000000018001f730 f i config.obj
 0001:0001e740       ??1?$refcount_ptr@Uerror_info_container@exception_detail@boost@@@exception_detail@boost@@QEAA@XZ 000000018001f740 f i config.obj
 0001:0001e770       ??0exception@boost@@QEAA@AEBV01@@Z 000000018001f770 f i config.obj
 0001:0001e7d0       ?win_tss_ptr_create@detail@asio@boost@@YAKXZ 000000018001f7d0 f i config.obj
 0001:0001e8a0       ?name@interop_error_category@detail@system@boost@@UEBAPEBDXZ 000000018001f8a0 f i config.obj
 0001:0001e8b0       ?message@interop_error_category@detail@system@boost@@UEBAPEBDHPEAD_K@Z 000000018001f8b0 f i config.obj
 0001:0001e8e0       ?message@interop_error_category@detail@system@boost@@UEBA?AV?$basic_string@DU?$char_traits@D@std@@V?$allocator@D@2@@std@@H@Z 000000018001f8e0 f i config.obj
 0001:0001e970       ?system_category_condition_win32@detail@system@boost@@YAHH@Z 000000018001f970 f i config.obj
 0001:0001ed40       ?default_error_condition@system_error_category@detail@system@boost@@UEBA?AVerror_condition@34@H@Z 000000018001fd40 f i config.obj
 0001:0001ed80       ?equivalent@error_category@system@boost@@UEBA_NAEBVerror_code@23@H@Z 000000018001fd80 f i config.obj
 0001:0001ee20       ?equivalent@error_category@system@boost@@UEBA_NHAEBVerror_condition@23@@Z 000000018001fe20 f i config.obj
 0001:0001eec0       ?message@system_error_category@detail@system@boost@@UEBAPEBDHPEAD_K@Z 000000018001fec0 f i config.obj
 0001:0001ef80       ??1local_free@detail@system@boost@@QEAA@XZ 000000018001ff80 f i config.obj
 0001:0001ef90       ?assign@?$basic_string@DU?$char_traits@D@std@@V?$allocator@D@2@@std@@QEAAAEAV12@_KD@Z 000000018001ff90 f i config.obj
 0001:0001f100       __local_stdio_printf_options 0000000180020100 f i config.obj
 0001:0001f110       ?snprintf@detail@system@boost@@YAXPEAD_KPEBDZZ 0000000180020110 f i config.obj
 0001:0001f170       ?unknown_message_win32@detail@system@boost@@YA?AV?$basic_string@DU?$char_traits@D@std@@V?$allocator@D@2@@std@@H@Z 0000000180020170 f i config.obj
 0001:0001f210       ??A?$basic_string@DU?$char_traits@D@std@@V?$allocator@D@2@@std@@QEAAAEAD_K@Z 0000000180020210 f i config.obj
 0001:0001f230       ??$_Reallocate_grow_by@V<lambda_1>@?1??append@?$basic_string@DU?$char_traits@D@std@@V?$allocator@D@2@@std@@QEAAAEAV34@_KD@Z@_KD@?$basic_string@DU?$char_traits@D@std@@V?$allocator@D@2@@std@@AEAAAEAV01@_KV<lambda_1>@?1??append@01@QEAAAEAV01@0D@Z@_KD@Z 0000000180020230 f i config.obj
 0001:0001f3d0       ?system_category_message_win32@detail@system@boost@@YA?AV?$basic_string@DU?$char_traits@D@std@@V?$allocator@D@2@@std@@H@Z 00000001800203d0 f i config.obj
 0001:0001f670       ?message@system_error_category@detail@system@boost@@UEBA?AV?$basic_string@DU?$char_traits@D@std@@V?$allocator@D@2@@std@@H@Z 0000000180020670 f i config.obj
 0001:0001f690       ?failed@error_category@system@boost@@UEBA_NH@Z 0000000180020690 f i config.obj
 0001:0001f6a0       ??_E?$basic_ios@DU?$char_traits@D@std@@@std@@UEAAPEAXI@Z 00000001800206a0 f i * CIL library *:* CIL module *
 0001:0001f6a0       ??_G?$basic_ios@DU?$char_traits@D@std@@@std@@UEAAPEAXI@Z 00000001800206a0 f i config.obj
 0001:0001f6e0       ??_Eios_base@std@@UEAAPEAXI@Z 00000001800206e0 f i * CIL library *:* CIL module *
 0001:0001f6e0       ??_Gios_base@std@@UEAAPEAXI@Z 00000001800206e0 f i config.obj
 0001:0001f720       ??1?$basic_ios@DU?$char_traits@D@std@@@std@@UEAA@XZ 0000000180020720 f i config.obj
 0001:0001f740       ??1?$basic_string@_WU?$char_traits@_W@std@@V?$allocator@_W@2@@std@@QEAA@XZ 0000000180020740 f i config.obj
 0001:0001f740       ??1path@filesystem@std@@QEAA@XZ 0000000180020740 f i config.obj
 0001:0001f7b0       ?_Xlen_string@std@@YAXXZ   00000001800207b0 f i config.obj
 0001:0001f7d0       ??0bad_array_new_length@std@@QEAA@XZ 00000001800207d0 f i config.obj
 0001:0001f800       ??0bad_array_new_length@std@@QEAA@AEBV01@@Z 0000000180020800 f i config.obj
 0001:0001f840       ??0bad_alloc@std@@QEAA@AEBV01@@Z 0000000180020840 f i config.obj
 0001:0001f880       ?what@exception@std@@UEBAPEBDXZ 0000000180020880 f i config.obj
 0001:0001f8a0       ??0exception@std@@QEAA@AEBV01@@Z 00000001800208a0 f i config.obj
 0001:0001f8e0       ?_Throw_bad_array_new_length@std@@YAXXZ 00000001800208e0 f i config.obj
 0001:0001f8e0       ?__scrt_throw_std_bad_array_new_length@@YAXXZ 00000001800208e0 f i LIBCMT:throw_bad_alloc.obj
 0001:0001f900       ?assign@?$basic_string@DU?$char_traits@D@std@@V?$allocator@D@2@@std@@QEAAAEAV12@QEBD_K@Z 0000000180020900 f i config.obj
 0001:0001fa60       ?assign@?$basic_string@DU?$char_traits@D@std@@V?$allocator@D@2@@std@@QEAAAEAV12@QEBD@Z 0000000180020a60 f i config.obj
 0001:0001fa80       ??0?$basic_string@DU?$char_traits@D@std@@V?$allocator@D@2@@std@@QEAA@QEBD@Z 0000000180020a80 f i config.obj
 0001:0001fac0       ?deallocate@?$allocator@D@std@@QEAAXQEAD_K@Z 0000000180020ac0 f i config.obj
 0001:0001fb00       ??1?$basic_string@DU?$char_traits@D@std@@V?$allocator@D@2@@std@@QEAA@XZ 0000000180020b00 f i config.obj
 0001:0001fb60       ??0ImRect@@QEAA@XZ         0000000180020b60 f i imgui.obj
 0001:0001fb70       ??1ImGuiStorage@@QEAA@XZ   0000000180020b70 f i imgui.obj
 0001:0001fbb0       ??0ImGuiWindowTempData@@QEAA@XZ 0000000180020bb0 f i imgui.obj
 0001:0001fce0       ?MenuBarRect@ImGuiWindow@@QEBA?AUImRect@@XZ 0000000180020ce0 f i imgui.obj
 0001:0001fdc0       ??3@YAXPEAX@Z              0000000180020dc0 f   LIBCMT:delete_scalar.obj
 0001:0001fdd0       ?ImFormatString@@YAHPEAD_KPEBDZZ 0000000180020dd0 f   imgui.obj
 0001:0001fe50       ?ImFormatStringV@@YAHPEAD_KPEBD0@Z 0000000180020e50 f   imgui.obj
 0001:0001fee0       ?ImHashStr@@YAIPEBD_KI@Z   0000000180020ee0 f   imgui.obj
 0001:0001ff90       ?ImTextCharFromUtf8@@YAHPEAIPEBD1@Z 0000000180020f90 f   imgui.obj
 0001:00020130       ?ImTextStrToUtf8@@YAHPEADHPEBG1@Z 0000000180021130 f   imgui.obj
 0001:00020270       ?ImTextCountUtf8BytesFromStr@@YAHPEBG0@Z 0000000180021270 f   imgui.obj
 0001:00020310       ?appendfv@ImGuiTextBuffer@@QEAAXPEBDPEAD@Z 0000000180021310 f   imgui.obj
 0001:00020400       ?GetColorU32@ImGui@@YAIHM@Z 0000000180021400 f   imgui.obj
 0001:000204e0       ?RenderText@ImGui@@YAXUImVec2@@PEBD1_N@Z 00000001800214e0 f   imgui.obj
 0001:00020660       ?RenderTextClippedEx@ImGui@@YAXPEAUImDrawList@@AEBUImVec2@@1PEBD2PEBU3@1PEBUImRect@@@Z 0000000180021660 f   imgui.obj
 0001:00020a40       ?RenderTextClipped@ImGui@@YAXAEBUImVec2@@0PEBD1PEBU2@0PEBUImRect@@@Z 0000000180021a40 f   imgui.obj
 0001:00020b00       ?RenderFrame@ImGui@@YAXUImVec2@@0I_NM@Z 0000000180021b00 f   imgui.obj
 0001:00020c80       ?RenderFrameBorder@ImGui@@YAXUImVec2@@0M@Z 0000000180021c80 f   imgui.obj
 0001:00020db0       ?RenderArrow@ImGui@@YAXPEAUImDrawList@@UImVec2@@IHM@Z 0000000180021db0 f   imgui.obj
 0001:00020f60       ?RenderCheckMark@ImGui@@YAXUImVec2@@IM@Z 0000000180021f60 f   imgui.obj
 0001:00021190       ?RenderNavHighlight@ImGui@@YAXAEBUImRect@@IH@Z 0000000180022190 f   imgui.obj
 0001:00021520       ??0ImGuiWindow@@QEAA@PEAUImGuiContext@@PEBD@Z 0000000180022520 f   imgui.obj
 0001:00021900       ??1ImGuiWindowTempData@@QEAA@XZ 0000000180022900 f i imgui.obj
 0001:000219f0       ?GetID@ImGuiWindow@@QEAAIH@Z 00000001800229f0 f   imgui.obj
 0001:00021a90       ?SetActiveID@ImGui@@YAXIPEAUImGuiWindow@@@Z 0000000180022a90 f   imgui.obj
 0001:00021b60       ?ItemSize@ImGui@@YAXAEBUImVec2@@M@Z 0000000180022b60 f   imgui.obj
 0001:00021cb0       ?ItemAdd@ImGui@@YA_NAEBUImRect@@IPEBU2@@Z 0000000180022cb0 f   imgui.obj
 0001:00021df0       ?IsItemHovered@ImGui@@YA_NH@Z 0000000180022df0 f   imgui.obj
 0001:00021ea0       ?ItemHoverable@ImGui@@YA_NAEBUImRect@@I@Z 0000000180022ea0 f   imgui.obj
 0001:00022000       ?FocusableItemRegister@ImGui@@YA_NPEAUImGuiWindow@@I@Z 0000000180023000 f   imgui.obj
 0001:00022120       ?StartMouseMovingWindow@ImGui@@YAXPEAUImGuiWindow@@@Z 0000000180023120 f   imgui.obj
 0001:000221b0       ?IsMouseHoveringRect@ImGui@@YA_NAEBUImVec2@@0_N@Z 00000001800231b0 f   imgui.obj
 0001:00022280       ?IsKeyPressed@ImGui@@YA_NH_N@Z 0000000180023280 f   imgui.obj
 0001:00022340       ?BeginChildEx@ImGui@@YA_NPEBDIAEBUImVec2@@_NH@Z 0000000180023340 f   imgui.obj
 0001:00022540       ?EndChild@ImGui@@YAXXZ     0000000180023540 f   imgui.obj
 0001:000227d0       ?FindWindowByName@ImGui@@YAPEAUImGuiWindow@@PEBD@Z 00000001800237d0 f   imgui.obj
 0001:00024e10       ?Begin@ImGui@@YA_NPEBDPEA_NH@Z 0000000180025e10 f   imgui.obj
 0001:000270a0       ?End@ImGui@@YAXXZ          00000001800280a0 f   imgui.obj
 0001:00027210       ?FocusWindow@ImGui@@YAXPEAUImGuiWindow@@@Z 0000000180028210 f   imgui.obj
 0001:00027450       ?FocusTopMostWindowUnderOne@ImGui@@YAXPEAUImGuiWindow@@0@Z 0000000180028450 f   imgui.obj
 0001:00027510       ?CalcItemWidth@ImGui@@YAMXZ 0000000180028510 f   imgui.obj
 0001:00027580       ?CalcItemSize@ImGui@@YA?AUImVec2@@U2@MM@Z 0000000180028580 f   imgui.obj
 0001:00027670       ?SetCurrentFont@ImGui@@YAXPEAUImFont@@@Z 0000000180028670 f   imgui.obj
 0001:00027700       ?PushFont@ImGui@@YAXPEAUImFont@@@Z 0000000180028700 f   imgui.obj
 0001:000277a0       ?PopFont@ImGui@@YAXXZ      00000001800287a0 f   imgui.obj
 0001:00027820       ?PushStyleVar@ImGui@@YAXHM@Z 0000000180028820 f   imgui.obj
 0001:000278a0       ?SetWindowPos@ImGui@@YAXPEAUImGuiWindow@@AEBUImVec2@@H@Z 00000001800288a0 f   imgui.obj
 0001:00027970       ?SetWindowSize@ImGui@@YAXPEAUImGuiWindow@@AEBUImVec2@@H@Z 0000000180028970 f   imgui.obj
 0001:000279f0       ?SetItemDefaultFocus@ImGui@@YAXXZ 00000001800289f0 f   imgui.obj
 0001:00027b60       ?PushID@ImGui@@YAXPEBD@Z   0000000180028b60 f   imgui.obj
 0001:00027bf0       ?PushID@ImGui@@YAXPEBX@Z   0000000180028bf0 f   imgui.obj
 0001:00027d20       ?BeginGroup@ImGui@@YAXXZ   0000000180028d20 f   imgui.obj
 0001:00027e40       ?EndGroup@ImGui@@YAXXZ     0000000180028e40 f   imgui.obj
 0001:00028180       ?SameLine@ImGui@@YAXMM@Z   0000000180029180 f   imgui.obj
 0001:00028420       ?SetScrollFromPosY@ImGui@@YAXPEAUImGuiWindow@@MM@Z 0000000180029420 f   imgui.obj
 0001:000284e0       ?OpenPopupEx@ImGui@@YAXI@Z 00000001800294e0 f   imgui.obj
 0001:000286d0       ?ClosePopupsOverWindow@ImGui@@YAXPEAUImGuiWindow@@_N@Z 00000001800296d0 f   imgui.obj
 0001:000287b0       ?ClosePopupToLevel@ImGui@@YAXH_N@Z 00000001800297b0 f   imgui.obj
 0001:00028890       ?CloseCurrentPopup@ImGui@@YAXXZ 0000000180029890 f   imgui.obj
 0001:000289f0       ?EndPopup@ImGui@@YAXXZ     00000001800299f0 f   imgui.obj
 0001:00028ba0       ?FindBestWindowPosForPopupEx@ImGui@@YA?AUImVec2@@AEBU2@0PEAHAEBUImRect@@2W4ImGuiPopupPositionPolicy@@@Z 0000000180029ba0 f   imgui.obj
 0001:00028f00       ?FindBestWindowPosForPopup@ImGui@@YA?AUImVec2@@PEAUImGuiWindow@@@Z 0000000180029f00 f   imgui.obj
 0001:00029340       ?SetFocusID@ImGui@@YAXIPEAUImGuiWindow@@@Z 000000018002a340 f   imgui.obj
 0001:00029b90       ?NavInitWindow@ImGui@@YAXPEAUImGuiWindow@@_N@Z 000000018002ab90 f   imgui.obj
 0001:00029d30       ?GetNavInputAmount@ImGui@@YAMHW4ImGuiInputReadMode@@@Z 000000018002ad30 f   imgui.obj
 0001:00029eb0       ?GetNavInputAmount2d@ImGui@@YA?AUImVec2@@HW4ImGuiInputReadMode@@MM@Z 000000018002aeb0 f   imgui.obj
 0001:0002a0a0       ?LogText@ImGui@@YAXPEBDZZ  000000018002b0a0 f   imgui.obj
 0001:0002a1a0       ?LogRenderedText@ImGui@@YAXPEBUImVec2@@PEBD1@Z 000000018002b1a0 f   imgui.obj
 0001:0002a320       ?LogFinish@ImGui@@YAXXZ    000000018002b320 f   imgui.obj
 0001:0002a410       ??1?$ImVector@UImDrawVert@@@@QEAA@XZ 000000018002b410 f i imgui.obj
 0001:0002a410       ??1?$ImVector@PEAX@@QEAA@XZ 000000018002b410 f i imgui.obj
 0001:0002a410       ??1?$ImVector@G@@QEAA@XZ   000000018002b410 f i imgui.obj
 0001:0002a410       ??1?$ImVector@UImGuiColumns@@@@QEAA@XZ 000000018002b410 f i imgui.obj
 0001:0002a410       ??1?$ImVector@UImVec2@@@@QEAA@XZ 000000018002b410 f i imgui.obj
 0001:0002a410       ??1?$ImVector@UImDrawCmd@@@@QEAA@XZ 000000018002b410 f i imgui.obj
 0001:0002a410       ??1?$ImVector@I@@QEAA@XZ   000000018002b410 f i imgui.obj
 0001:0002a410       ??1?$ImVector@UImVec4@@@@QEAA@XZ 000000018002b410 f i imgui.obj
 0001:0002a450       ?resize@?$ImVector@UImGuiGroupData@@@@QEAAXH@Z 000000018002b450 f i imgui.obj
 0001:0002a540       ?push_back@?$ImVector@UImGuiPopupData@@@@QEAAXAEBUImGuiPopupData@@@Z 000000018002b540 f i imgui.obj
 0001:0002a5c0       ?push_back@?$ImVector@UImGuiStyleMod@@@@QEAAXAEBUImGuiStyleMod@@@Z 000000018002b5c0 f i imgui.obj
 0001:0002a6c0       ?push_back@?$ImVector@UImGuiColorMod@@@@QEAAXAEBUImGuiColorMod@@@Z 000000018002b6c0 f i imgui.obj
 0001:0002a7c0       ?reserve@?$ImVector@PEAX@@QEAAXH@Z 000000018002b7c0 f i imgui_draw.obj
 0001:0002a7c0       ?reserve@?$ImVector@UImVec2@@@@QEAAXH@Z 000000018002b7c0 f i imgui.obj
 0001:0002a7c0       ?reserve@?$ImVector@PEAUImGuiWindow@@@@QEAAXH@Z 000000018002b7c0 f i imgui.obj
 0001:0002a860       ?push_back@?$ImVector@PEAUImFont@@@@QEAAXAEBQEAUImFont@@@Z 000000018002b860 f i imgui.obj
 0001:0002a940       ?reserve@?$ImVector@UImDrawVert@@@@QEAAXH@Z 000000018002b940 f i imgui.obj
 0001:0002a9e0       ?insert@?$ImVector@UImGuiStoragePair@ImGuiStorage@@@@QEAAPEAUImGuiStoragePair@ImGuiStorage@@PEBU23@AEBU23@@Z 000000018002b9e0 f i imgui.obj
 0001:0002ab00       ?reserve@?$ImVector@G@@QEAAXH@Z 000000018002bb00 f i imgui.obj
 0001:0002aba0       ?reserve@?$ImVector@UImGuiPopupData@@@@QEAAXH@Z 000000018002bba0 f i imgui.obj
 0001:0002ac40       ?reserve@?$ImVector@I@@QEAAXH@Z 000000018002bc40 f i imgui.obj
 0001:0002ac40       ?reserve@?$ImVector@H@@QEAAXH@Z 000000018002bc40 f i imgui.obj
 0001:0002ac40       ?reserve@?$ImVector@M@@QEAAXH@Z 000000018002bc40 f i imgui.obj
 0001:0002ace0       __local_stdio_scanf_options 000000018002bce0 f i imgui.obj
 0001:0002acf0       sscanf                     000000018002bcf0 f i imgui.obj
 0001:0002ad50       ?reserve@?$ImVector@D@@QEAAXH@Z 000000018002bd50 f i imgui.obj
 0001:0002ade0       ??1ImDrawList@@QEAA@XZ     000000018002bde0 f i imgui.obj
 0001:0002af30       ??0ImDrawList@@QEAA@PEBUImDrawListSharedData@@@Z 000000018002bf30 f i imgui.obj
 0001:0002afb0       ??1ImDrawListSplitter@@QEAA@XZ 000000018002bfb0 f i imgui.obj
 0001:0002aff0       ?Clear@ImDrawList@@QEAAXXZ 000000018002bff0 f   imgui_draw.obj
 0001:0002b120       ?ClearFreeMemory@ImDrawList@@QEAAXXZ 000000018002c120 f   imgui_draw.obj
 0001:0002b280       ?AddDrawCmd@ImDrawList@@QEAAXXZ 000000018002c280 f   imgui_draw.obj
 0001:0002b360       ?UpdateClipRect@ImDrawList@@QEAAXXZ 000000018002c360 f   imgui_draw.obj
 0001:0002b460       ?UpdateTextureID@ImDrawList@@QEAAXXZ 000000018002c460 f   imgui_draw.obj
 0001:0002b520       ?PushClipRect@ImDrawList@@QEAAXUImVec2@@0_N@Z 000000018002c520 f   imgui_draw.obj
 0001:0002b650       ?PushTextureID@ImDrawList@@QEAAXPEAX@Z 000000018002c650 f   imgui_draw.obj
 0001:0002b6d0       ?PrimReserve@ImDrawList@@QEAAXHH@Z 000000018002c6d0 f   imgui_draw.obj
 0001:0002b7d0       ?AddPolyline@ImDrawList@@QEAAXPEBUImVec2@@HI_NM@Z 000000018002c7d0 f   imgui_draw.obj
 0001:0002c6d0       ?AddConvexPolyFilled@ImDrawList@@QEAAXPEBUImVec2@@HI@Z 000000018002d6d0 f   imgui_draw.obj
 0001:0002cd30       ?PathArcToFast@ImDrawList@@QEAAXAEBUImVec2@@MHH@Z 000000018002dd30 f   imgui_draw.obj
 0001:0002ceb0       ?PathArcTo@ImDrawList@@QEAAXAEBUImVec2@@MMMH@Z 000000018002deb0 f   imgui_draw.obj
 0001:0002d070       ?PathRect@ImDrawList@@QEAAXAEBUImVec2@@0MH@Z 000000018002e070 f   imgui_draw.obj
 0001:0002d3e0       ?AddLine@ImDrawList@@QEAAXAEBUImVec2@@0IM@Z 000000018002e3e0 f   imgui_draw.obj
 0001:0002d540       ?AddRect@ImDrawList@@QEAAXAEBUImVec2@@0IMHM@Z 000000018002e540 f   imgui_draw.obj
 0001:0002d650       ?AddRectFilled@ImDrawList@@QEAAXAEBUImVec2@@0IMH@Z 000000018002e650 f   imgui_draw.obj
 0001:0002d7f0       ?AddTriangleFilled@ImDrawList@@QEAAXAEBUImVec2@@00I@Z 000000018002e7f0 f   imgui_draw.obj
 0001:0002d930       ?AddText@ImDrawList@@QEAAXPEBUImFont@@MAEBUImVec2@@IPEBD2MPEBUImVec4@@@Z 000000018002e930 f   imgui_draw.obj
 0001:0002da60       ?ClearFreeMemory@ImDrawListSplitter@@QEAAXXZ 000000018002ea60 f   imgui_draw.obj
 0001:0002db80       ?Merge@ImDrawListSplitter@@QEAAXPEAUImDrawList@@@Z 000000018002eb80 f   imgui_draw.obj
 0001:0002def0       ?CalcWordWrapPositionA@ImFont@@QEBAPEBDMPEBD0M@Z 000000018002eef0 f   imgui_draw.obj
 0001:0002e080       ?CalcTextSizeA@ImFont@@QEBA?AUImVec2@@MMMPEBD0PEAPEBD@Z 000000018002f080 f   imgui_draw.obj
 0001:0002e2a0       ?RenderText@ImFont@@QEBAXPEAUImDrawList@@MUImVec2@@IAEBUImVec4@@PEBD3M_N@Z 000000018002f2a0 f   imgui_draw.obj
 0001:0002e940       ?reserve@?$ImVector@UImVec4@@@@QEAAXH@Z 000000018002f940 f i imgui_draw.obj
 0001:0002e9e0       ?reserve@?$ImVector@UImDrawCmd@@@@QEAAXH@Z 000000018002f9e0 f i imgui_draw.obj
 0001:0002ea80       ?TextEx@ImGui@@YAXPEBD0H@Z 000000018002fa80 f   imgui_widgets.obj
 0001:0002f2e0       ?ButtonBehavior@ImGui@@YA_NAEBUImRect@@IPEA_N1H@Z 00000001800302e0 f   imgui_widgets.obj
 0001:0002fa80       ?ButtonEx@ImGui@@YA_NPEBDAEBUImVec2@@H@Z 0000000180030a80 f   imgui_widgets.obj
 0001:0002fe10       ?CloseButton@ImGui@@YA_NIAEBUImVec2@@@Z 0000000180030e10 f   imgui_widgets.obj
 0001:000300f0       ?CollapseButton@ImGui@@YA_NIAEBUImVec2@@@Z 00000001800310f0 f   imgui_widgets.obj
 0001:00030390       ?ScrollbarEx@ImGui@@YA_NAEBUImRect@@IW4ImGuiAxis@@PEAMMMH@Z 0000000180031390 f   imgui_widgets.obj
 0001:00030920       ?Scrollbar@ImGui@@YAXW4ImGuiAxis@@@Z 0000000180031920 f   imgui_widgets.obj
 0001:00030af0       ?Checkbox@ImGui@@YA_NPEBDPEA_N@Z 0000000180031af0 f   imgui_widgets.obj
 0001:00030fb0       ?Dummy@ImGui@@YAXAEBUImVec2@@@Z 0000000180031fb0 f   imgui_widgets.obj
 0001:00031110       ?BeginCombo@ImGui@@YA_NPEBD0H@Z 0000000180032110 f   imgui_widgets.obj
 0001:00031b30       ?Combo@ImGui@@YA_NPEBDPEAHP6A_NPEAXHPEAPEBD@Z2HH@Z 0000000180032b30 f   imgui_widgets.obj
 0001:00031c70       ?DataTypeApplyOpFromText@ImGui@@YA_NPEBD0HPEAX0@Z 0000000180032c70 f   imgui_widgets.obj
 0001:000320b0       ?InputScalar@ImGui@@YA_NPEBDHPEAXPEBX20H@Z 00000001800330b0 f   imgui_widgets.obj
 0001:00034580       ?InputTextEx@ImGui@@YA_NPEBD0PEADHAEBUImVec2@@HP6AHPEAUImGuiInputTextCallbackData@@@ZPEAX@Z 0000000180035580 f   imgui_widgets.obj
 0001:000374e0       ?Selectable@ImGui@@YA_NPEBD_NHAEBUImVec2@@@Z 00000001800384e0 f   imgui_widgets.obj
 0001:00037a20       ?SetColumnOffset@ImGui@@YAXHM@Z 0000000180038a20 f   imgui_widgets.obj
 0001:00037b50       ?EndColumns@ImGui@@YAXXZ   0000000180038b50 f   imgui_widgets.obj
 0001:000380c0       ?GetInstance@Config@@SA?AV?$shared_ptr@VConfig@@@std@@XZ 00000001800390c0 f i im_settings.obj
 0001:00038200       ?InitCvars@SettingsTab@@QEAAXXZ 0000000180039200 f   im_settings.obj
 0001:00038c50       ?Render@SettingsTab@@QEAAXXZ 0000000180039c50 f   im_settings.obj
 0001:00039620       ?DPDWNMap@SettingsTab@@AEAAXXZ 000000018003a620 f   im_settings.obj
 0001:00039820       ?DPDWNRegion@SettingsTab@@AEAAXXZ 000000018003a820 f   im_settings.obj
 0001:000399f0       ??4?$shared_ptr@VListener@@@std@@QEAAAEAV01@$$QEAV01@@Z 000000018003a9f0 f i SixMansPlugin-Rework.obj
 0001:000399f0       ??4?$shared_ptr@VConfig@@@std@@QEAAAEAV01@$$QEAV01@@Z 000000018003a9f0 f i im_settings.obj
 0001:000399f0       ??4?$shared_ptr@VPrivateMatch@@@std@@QEAAAEAV01@$$QEAV01@@Z 000000018003a9f0 f i SixMansPlugin-Rework.obj
 0001:000399f0       ??4?$shared_ptr@VMatchmakingWrapper@@@std@@QEAAAEAV01@$$QEAV01@@Z 000000018003a9f0 f i privatematch_wrapper.obj
 0001:000399f0       ??4?$shared_ptr@VSettingsTab@@@std@@QEAAAEAV01@$$QEAV01@@Z 000000018003a9f0 f i SixMansPlugin-Rework.obj
 0001:000399f0       ??4?$shared_ptr@UCustomMatchSettings@@@std@@QEAAAEAV01@$$QEAV01@@Z 000000018003a9f0 f i privatematch_wrapper.obj
 0001:000399f0       ??4?$shared_ptr@UCustomMatchTeamSettings@@@std@@QEAAAEAV01@$$QEAV01@@Z 000000018003a9f0 f i privatematch_wrapper.obj
 0001:00039a70       ?_Destroy@?$_Ref_count_obj2@VConfig@@@std@@EEAAXXZ 000000018003aa70 f i im_settings.obj
 0001:00039b00       ??_G?$_Ref_count_obj2@VConfig@@@std@@UEAAPEAXI@Z 000000018003ab00 f i im_settings.obj
 0001:00039b00       ??_E?$_Ref_count_obj2@VConfig@@@std@@UEAAPEAXI@Z 000000018003ab00 f i * CIL library *:* CIL module *
 0001:0003a230       ??$?6U?$char_traits@D@std@@@std@@YAAEAV?$basic_ostream@DU?$char_traits@D@std@@@0@AEAV10@PEBD@Z 000000018003b230 f i logsys.obj
 0001:0003a490       ??0PrivateMatch@@QEAA@XZ   000000018003b490 f   privatematch_wrapper.obj
 0001:0003a830       ?InitCvars@PrivateMatch@@QEAAXXZ 000000018003b830 f   privatematch_wrapper.obj
 0001:0003b230       ?_Destroy@?$_Ref_count_obj2@VMatchmakingWrapper@@@std@@EEAAXXZ 000000018003c230 f i privatematch_wrapper.obj
 0001:0003b240       ?_Destroy@?$_Ref_count_obj2@UCustomMatchTeamSettings@@@std@@EEAAXXZ 000000018003c240 f i privatematch_wrapper.obj
 0001:0003b2a0       ?_Destroy@?$_Ref_count_obj2@UCustomMatchSettings@@@std@@EEAAXXZ 000000018003c2a0 f i privatematch_wrapper.obj
 0001:0003b2b0       ??_E?$_Ref_count_obj2@VMatchmakingWrapper@@@std@@UEAAPEAXI@Z 000000018003c2b0 f i * CIL library *:* CIL module *
 0001:0003b2b0       ??_G?$_Ref_count_obj2@VMatchmakingWrapper@@@std@@UEAAPEAXI@Z 000000018003c2b0 f i privatematch_wrapper.obj
 0001:0003b2e0       ??_E?$_Ref_count_obj2@UCustomMatchTeamSettings@@@std@@UEAAPEAXI@Z 000000018003c2e0 f i * CIL library *:* CIL module *
 0001:0003b2e0       ??_G?$_Ref_count_obj2@UCustomMatchTeamSettings@@@std@@UEAAPEAXI@Z 000000018003c2e0 f i privatematch_wrapper.obj
 0001:0003b310       ??_G?$_Ref_count_obj2@UCustomMatchSettings@@@std@@UEAAPEAXI@Z 000000018003c310 f i privatematch_wrapper.obj
 0001:0003b310       ??_E?$_Ref_count_obj2@UCustomMatchSettings@@@std@@UEAAPEAXI@Z 000000018003c310 f i * CIL library *:* CIL module *
 0001:0003b340       ??$?0$$V@?$_Ref_count_obj2@UCustomMatchSettings@@@std@@QEAA@XZ 000000018003c340 f i privatematch_wrapper.obj
 0001:0003b420       ??1CustomMatchSettings@@QEAA@XZ 000000018003c420 f i privatematch_wrapper.obj
 0001:0003bd10       _scprintf                  000000018003cd10 f i privatematch_wrapper.obj
 0001:0003bd70       ?AddResources@Listener@@QEAAXXZ 000000018003cd70 f   server.obj
 0001:0003c920       ?InitCvars@Listener@@QEAAXXZ 000000018003d920 f   server.obj
 0001:0003cb80       ?write@Response@?$ServerBase@V?$basic_stream_socket@Vtcp@ip@asio@boost@@Vany_io_executor@34@@asio@boost@@@SimpleWeb@@QEAAXW4StatusCode@3@V?$basic_string_view@DU?$char_traits@D@std@@@std@@AEBV?$unordered_multimap@V?$basic_string@DU?$char_traits@D@std@@V?$allocator@D@2@@std@@V12@VCaseInsensitiveHash@SimpleWeb@@VCaseInsensitiveEqual@4@V?$allocator@U?$pair@$$CBV?$basic_string@DU?$char_traits@D@std@@V?$allocator@D@2@@std@@V12@@std@@@2@@6@@Z 000000018003db80 f i server.obj
 0001:0003cc40       ?send@Response@?$ServerBase@V?$basic_stream_socket@Vtcp@ip@asio@boost@@Vany_io_executor@34@@asio@boost@@@SimpleWeb@@QEAAXV?$function@$$A6AXAEBVerror_code@system@boost@@@Z@std@@@Z 000000018003dc40 f i server.obj
 0001:0003ce40       ?start@?$ServerBase@V?$basic_stream_socket@Vtcp@ip@asio@boost@@Vany_io_executor@34@@asio@boost@@@SimpleWeb@@QEAAXAEBV?$function@$$A6AXG@Z@std@@@Z 000000018003de40 f i server.obj
 0001:0003d850       ?send_from_queue@Response@?$ServerBase@V?$basic_stream_socket@Vtcp@ip@asio@boost@@Vany_io_executor@34@@asio@boost@@@SimpleWeb@@AEAAXXZ 000000018003e850 f i server.obj
 0001:0003d9e0       ??R<lambda_1>@?1??send_from_queue@Response@?$ServerBase@V?$basic_stream_socket@Vtcp@ip@asio@boost@@Vany_io_executor@34@@asio@boost@@@SimpleWeb@@AEAAXXZ@QEBA@AEBVerror_code@system@boost@@_K@Z 000000018003e9e0 f i server.obj
 0001:0003de00       ?local_endpoint@?$basic_socket_acceptor@Vtcp@ip@asio@boost@@Vany_io_executor@34@@asio@boost@@QEBA?AV?$basic_endpoint@Vtcp@ip@asio@boost@@@ip@23@XZ 000000018003ee00 f i server.obj
 0001:0003dfe0       ?open@?$basic_socket_acceptor@Vtcp@ip@asio@boost@@Vany_io_executor@34@@asio@boost@@QEAAXAEBVtcp@ip@23@@Z 000000018003efe0 f i server.obj
 0001:0003e0e0       ??0?$regex_traits@D@std@@QEAA@XZ 000000018003f0e0 f i server.obj
 0001:0003e250       ??1?$vector@V?$function@$$A6AXAEBVerror_code@system@boost@@@Z@std@@V?$allocator@V?$function@$$A6AXAEBVerror_code@system@boost@@@Z@std@@@2@@std@@QEAA@XZ 000000018003f250 f i server.obj
 0001:0003e300       ??$write_header@_K@Response@?$ServerBase@V?$basic_stream_socket@Vtcp@ip@asio@boost@@Vany_io_executor@34@@asio@boost@@@SimpleWeb@@AEAAXAEBV?$unordered_multimap@V?$basic_string@DU?$char_traits@D@std@@V?$allocator@D@2@@std@@V12@VCaseInsensitiveHash@SimpleWeb@@VCaseInsensitiveEqual@4@V?$allocator@U?$pair@$$CBV?$basic_string@DU?$char_traits@D@std@@V?$allocator@D@2@@std@@V12@@std@@@2@@std@@_K@Z 000000018003f300 f i server.obj
 0001:0003e7a0       ??$_Emplace_reallocate@V<lambda_2>@?BM@??start@?$ServerBase@V?$basic_stream_socket@Vtcp@ip@asio@boost@@Vany_io_executor@34@@asio@boost@@@SimpleWeb@@QEAAXAEBV?$function@$$A6AXG@Z@std@@@Z@@?$vector@Vthread@std@@V?$allocator@Vthread@std@@@2@@std@@QEAAPEAVthread@1@QEAV21@$$QEAV<lambda_2>@?BM@??start@?$ServerBase@V?$basic_stream_socket@Vtcp@ip@asio@boost@@Vany_io_executor@34@@asio@boost@@@SimpleWeb@@QEAAXAEBV?$function@$$A6AXG@Z@1@@Z@@Z 000000018003f7a0 f i server.obj
 0001:0003ea60       ??$_Try_emplace@V?$basic_string@DU?$char_traits@D@std@@V?$allocator@D@2@@std@@$$V@?$map@V?$basic_string@DU?$char_traits@D@std@@V?$allocator@D@2@@std@@V?$function@$$A6AXV?$shared_ptr@VResponse@?$ServerBase@V?$basic_stream_socket@Vtcp@ip@asio@boost@@Vany_io_executor@34@@asio@boost@@@SimpleWeb@@@std@@V?$shared_ptr@VRequest@?$ServerBase@V?$basic_stream_socket@Vtcp@ip@asio@boost@@Vany_io_executor@34@@asio@boost@@@SimpleWeb@@@2@@Z@2@U?$less@V?$basic_string@DU?$char_traits@D@std@@V?$allocator@D@2@@std@@@2@V?$allocator@U?$pair@$$CBV?$basic_string@DU?$char_traits@D@std@@V?$allocator@D@2@@std@@V?$function@$$A6AXV?$shared_ptr@VResponse@?$ServerBase@V?$basic_stream_socket@Vtcp@ip@asio@boost@@Vany_io_executor@34@@asio@boost@@@SimpleWeb@@@std@@V?$shared_ptr@VRequest@?$ServerBase@V?$basic_stream_socket@Vtcp@ip@asio@boost@@Vany_io_executor@34@@asio@boost@@@SimpleWeb@@@2@@Z@2@@std@@@2@@std@@AEAA?AU?$pair@PEAU?$_Tree_node@U?$pair@$$CBV?$basic_string@DU?$char_traits@D@std@@V?$allocator@D@2@@std@@V?$function@$$A6AXV?$shared_ptr@VResponse@?$ServerBase@V?$basic_stream_socket@Vtcp@ip@asio@boost@@Vany_io_executor@34@@asio@boost@@@SimpleWeb@@@std@@V?$shared_ptr@VRequest@?$ServerBase@V?$basic_stream_socket@Vtcp@ip@asio@boost@@Vany_io_executor@34@@asio@boost@@@SimpleWeb@@@2@@Z@2@@std@@PEAX@std@@_N@1@$$QEAV?$basic_string@DU?$char_traits@D@std@@V?$allocator@D@2@@1@@Z 000000018003fa60 f i server.obj
 0001:0003ec50       ??$_Try_emplace@Vregex_orderable@?$ServerBase@V?$basic_stream_socket@Vtcp@ip@asio@boost@@Vany_io_executor@34@@asio@boost@@@SimpleWeb@@$$V@?$map@Vregex_orderable@?$ServerBase@V?$basic_stream_socket@Vtcp@ip@asio@boost@@Vany_io_executor@34@@asio@boost@@@SimpleWeb@@V?$map@V?$basic_string@DU?$char_traits@D@std@@V?$allocator@D@2@@std@@V?$function@$$A6AXV?$shared_ptr@VResponse@?$ServerBase@V?$basic_stream_socket@Vtcp@ip@asio@boost@@Vany_io_executor@34@@asio@boost@@@SimpleWeb@@@std@@V?$shared_ptr@VRequest@?$ServerBase@V?$basic_stream_socket@Vtcp@ip@asio@boost@@Vany_io_executor@34@@asio@boost@@@SimpleWeb@@@2@@Z@2@U?$less@V?$basic_string@DU?$char_traits@D@std@@V?$allocator@D@2@@std@@@2@V?$allocator@U?$pair@$$CBV?$basic_string@DU?$char_traits@D@std@@V?$allocator@D@2@@std@@V?$function@$$A6AXV?$shared_ptr@VResponse@?$ServerBase@V?$basic_stream_socket@Vtcp@ip@asio@boost@@Vany_io_executor@34@@asio@boost@@@SimpleWeb@@@std@@V?$shared_ptr@VRequest@?$ServerBase@V?$basic_stream_socket@Vtcp@ip@asio@boost@@Vany_io_executor@34@@asio@boost@@@SimpleWeb@@@2@@Z@2@@std@@@2@@std@@U?$less@Vregex_orderable@?$ServerBase@V?$basic_stream_socket@Vtcp@ip@asio@boost@@Vany_io_executor@34@@asio@boost@@@SimpleWeb@@@5@V?$allocator@U?$pair@$$CBVregex_orderable@?$ServerBase@V?$basic_stream_socket@Vtcp@ip@asio@boost@@Vany_io_executor@34@@asio@boost@@@SimpleWeb@@V?$map@V?$basic_string@DU?$char_traits@D@std@@V?$allocator@D@2@@std@@V?$function@$$A6AXV?$shared_ptr@VResponse@?$ServerBase@V?$basic_stream_socket@Vtcp@ip@asio@boost@@Vany_io_executor@34@@asio@boost@@@SimpleWeb@@@std@@V?$shared_ptr@VRequest@?$ServerBase@V?$basic_stream_socket@Vtcp@ip@asio@boost@@Vany_io_executor@34@@asio@boost@@@SimpleWeb@@@2@@Z@2@U?$less@V?$basic_string@DU?$char_traits@D@std@@V?$allocator@D@2@@std@@@2@V?$allocator@U?$pair@$$CBV?$basic_string@DU?$char_traits@D@std@@V?$allocator@D@2@@std@@V?$function@$$A6AXV?$shared_ptr@VResponse@?$ServerBase@V?$basic_stream_socket@Vtcp@ip@asio@boost@@Vany_io_executor@34@@asio@boost@@@SimpleWeb@@@std@@V?$shared_ptr@VRequest@?$ServerBase@V?$basic_stream_socket@Vtcp@ip@asio@boost@@Vany_io_executor@34@@asio@boost@@@SimpleWeb@@@2@@Z@2@@std@@@2@@std@@@std@@@5@@std@@AEAA?AU?$pair@PEAU?$_Tree_node@U?$pair@$$CBVregex_orderable@?$ServerBase@V?$basic_stream_socket@Vtcp@ip@asio@boost@@Vany_io_executor@34@@asio@boost@@@SimpleWeb@@V?$map@V?$basic_string@DU?$char_traits@D@std@@V?$allocator@D@2@@std@@V?$function@$$A6AXV?$shared_ptr@VResponse@?$ServerBase@V?$basic_stream_socket@Vtcp@ip@asio@boost@@Vany_io_executor@34@@asio@boost@@@SimpleWeb@@@std@@V?$shared_ptr@VRequest@?$ServerBase@V?$basic_stream_socket@Vtcp@ip@asio@boost@@Vany_io_executor@34@@asio@boost@@@SimpleWeb@@@2@@Z@2@U?$less@V?$basic_string@DU?$char_traits@D@std@@V?$allocator@D@2@@std@@@2@V?$allocator@U?$pair@$$CBV?$basic_string@DU?$char_traits@D@std@@V?$allocator@D@2@@std@@V?$function@$$A6AXV?$shared_ptr@VResponse@?$ServerBase@V?$basic_stream_socket@Vtcp@ip@asio@boost@@Vany_io_executor@34@@asio@boost@@@SimpleWeb@@@std@@V?$shared_ptr@VRequest@?$ServerBase@V?$basic_stream_socket@Vtcp@ip@asio@boost@@Vany_io_executor@34@@asio@boost@@@SimpleWeb@@@2@@Z@2@@std@@@2@@std@@@std@@PEAX@std@@_N@1@$$QEAVregex_orderable@?$ServerBase@V?$basic_stream_socket@Vtcp@ip@asio@boost@@Vany_io_executor@34@@asio@boost@@@SimpleWeb@@@Z 000000018003fc50 f i server.obj
 0001:0003ee30       ??$_Emplace_reallocate@V?$function@$$A6AXAEBVerror_code@system@boost@@@Z@std@@@?$vector@V?$function@$$A6AXAEBVerror_code@system@boost@@@Z@std@@V?$allocator@V?$function@$$A6AXAEBVerror_code@system@boost@@@Z@std@@@2@@std@@QEAAPEAV?$function@$$A6AXAEBVerror_code@system@boost@@@Z@1@QEAV21@$$QEAV21@@Z 000000018003fe30 f i server.obj
 0001:0003f030       ??$_Reset@PEBD@?$basic_regex@DV?$regex_traits@D@std@@@std@@AEAAXPEBD0W4syntax_option_type@regex_constants@1@Uforward_iterator_tag@1@@Z 0000000180040030 f i server.obj
 0001:0003f260       ??1?$_Parser@PEBDDV?$regex_traits@D@std@@@std@@QEAA@XZ 0000000180040260 f i server.obj
 0001:0003f2c0       ?_Destroy@?$_Ref_count_obj2@Vio_context@asio@boost@@@std@@EEAAXXZ 00000001800402c0 f i server.obj
 0001:0003f2f0       ?_Destroy@?$_Ref_count_resource@PEAV?$basic_streambuf@V?$allocator@D@std@@@asio@boost@@U?$default_delete@V?$basic_streambuf@V?$allocator@D@std@@@asio@boost@@@std@@@std@@EEAAXXZ 00000001800402f0 f i server.obj
 0001:0003f310       ?_Get_deleter@?$_Ref_count_resource@PEAV?$basic_streambuf@V?$allocator@D@std@@@asio@boost@@U?$default_delete@V?$basic_streambuf@V?$allocator@D@std@@@asio@boost@@@std@@@std@@UEBAPEAXAEBVtype_info@@@Z 0000000180040310 f i server.obj
 0001:0003f340       ?_Getcat@?$collate@D@std@@SA_KPEAPEBVfacet@locale@2@PEBV42@@Z 0000000180040340 f i server.obj
 0001:0003f510       ?swap@?$function@$$A6AXV?$shared_ptr@VResponse@?$ServerBase@V?$basic_stream_socket@Vtcp@ip@asio@boost@@Vany_io_executor@34@@asio@boost@@@SimpleWeb@@@std@@V?$shared_ptr@VRequest@?$ServerBase@V?$basic_stream_socket@Vtcp@ip@asio@boost@@Vany_io_executor@34@@asio@boost@@@SimpleWeb@@@2@@Z@std@@QEAAXAEAV12@@Z 0000000180040510 f i server.obj
 0001:0003f650       ??6?$basic_ostream@DU?$char_traits@D@std@@@std@@QEAAAEAV01@_K@Z 0000000180040650 f i server.obj
 0001:0003f800       ??1?$_Alloc_construct_ptr@V?$allocator@U?$_Tree_node@U?$pair@$$CBVregex_orderable@?$ServerBase@V?$basic_stream_socket@Vtcp@ip@asio@boost@@Vany_io_executor@34@@asio@boost@@@SimpleWeb@@V?$map@V?$basic_string@DU?$char_traits@D@std@@V?$allocator@D@2@@std@@V?$function@$$A6AXV?$shared_ptr@VResponse@?$ServerBase@V?$basic_stream_socket@Vtcp@ip@asio@boost@@Vany_io_executor@34@@asio@boost@@@SimpleWeb@@@std@@V?$shared_ptr@VRequest@?$ServerBase@V?$basic_stream_socket@Vtcp@ip@asio@boost@@Vany_io_executor@34@@asio@boost@@@SimpleWeb@@@2@@Z@2@U?$less@V?$basic_string@DU?$char_traits@D@std@@V?$allocator@D@2@@std@@@2@V?$allocator@U?$pair@$$CBV?$basic_string@DU?$char_traits@D@std@@V?$allocator@D@2@@std@@V?$function@$$A6AXV?$shared_ptr@VResponse@?$ServerBase@V?$basic_stream_socket@Vtcp@ip@asio@boost@@Vany_io_executor@34@@asio@boost@@@SimpleWeb@@@std@@V?$shared_ptr@VRequest@?$ServerBase@V?$basic_stream_socket@Vtcp@ip@asio@boost@@Vany_io_executor@34@@asio@boost@@@SimpleWeb@@@2@@Z@2@@std@@@2@@std@@@std@@PEAX@std@@@std@@@std@@QEAA@XZ 0000000180040800 f i server.obj
 0001:0003f800       ??1?$_Tree_temp_node_alloc@V?$allocator@U?$_Tree_node@U?$pair@$$CBVregex_orderable@?$ServerBase@V?$basic_stream_socket@Vtcp@ip@asio@boost@@Vany_io_executor@34@@asio@boost@@@SimpleWeb@@V?$map@V?$basic_string@DU?$char_traits@D@std@@V?$allocator@D@2@@std@@V?$function@$$A6AXV?$shared_ptr@VResponse@?$ServerBase@V?$basic_stream_socket@Vtcp@ip@asio@boost@@Vany_io_executor@34@@asio@boost@@@SimpleWeb@@@std@@V?$shared_ptr@VRequest@?$ServerBase@V?$basic_stream_socket@Vtcp@ip@asio@boost@@Vany_io_executor@34@@asio@boost@@@SimpleWeb@@@2@@Z@2@U?$less@V?$basic_string@DU?$char_traits@D@std@@V?$allocator@D@2@@std@@@2@V?$allocator@U?$pair@$$CBV?$basic_string@DU?$char_traits@D@std@@V?$allocator@D@2@@std@@V?$function@$$A6AXV?$shared_ptr@VResponse@?$ServerBase@V?$basic_stream_socket@Vtcp@ip@asio@boost@@Vany_io_executor@34@@asio@boost@@@SimpleWeb@@@std@@V?$shared_ptr@VRequest@?$ServerBase@V?$basic_stream_socket@Vtcp@ip@asio@boost@@Vany_io_executor@34@@asio@boost@@@SimpleWeb@@@2@@Z@2@@std@@@2@@std@@@std@@PEAX@std@@@std@@@std@@QEAA@XZ 0000000180040800 f i server.obj
 0001:0003f820       ??_E?$_Ref_count_obj2@Vio_context@asio@boost@@@std@@UEAAPEAXI@Z 0000000180040820 f i * CIL library *:* CIL module *
 0001:0003f820       ??_G?$_Ref_count_obj2@Vio_context@asio@boost@@@std@@UEAAPEAXI@Z 0000000180040820 f i server.obj
 0001:0003f850       ??_G?$_Ref_count@VSixMansPlugin@@@std@@UEAAPEAXI@Z 0000000180040850 f i SixMansPlugin-Rework.obj
 0001:0003f850       ??_E?$_Ref_count_resource@PEAXUnoop_deleter@socket_ops@detail@asio@boost@@@std@@UEAAPEAXI@Z 0000000180040850 f i * CIL library *:* CIL module *
 0001:0003f850       ??_E?$_Ref_count_resource@PEAV?$basic_streambuf@V?$allocator@D@std@@@asio@boost@@U?$default_delete@V?$basic_streambuf@V?$allocator@D@std@@@asio@boost@@@std@@@std@@UEAAPEAXI@Z 0000000180040850 f i * CIL library *:* CIL module *
 0001:0003f850       ??_G?$_Ref_count_resource@PEAXUnoop_deleter@socket_ops@detail@asio@boost@@@std@@UEAAPEAXI@Z 0000000180040850 f i server.obj
 0001:0003f850       ??_G?$_Ref_count@VScopeRunner@SimpleWeb@@@std@@UEAAPEAXI@Z 0000000180040850 f i server.obj
 0001:0003f850       ??_G?$_Ref_count@VResponse@?$ServerBase@V?$basic_stream_socket@Vtcp@ip@asio@boost@@Vany_io_executor@34@@asio@boost@@@SimpleWeb@@@std@@UEAAPEAXI@Z 0000000180040850 f i server.obj
 0001:0003f850       ??_E?$_Ref_count@VSixMansPlugin@@@std@@UEAAPEAXI@Z 0000000180040850 f i * CIL library *:* CIL module *
 0001:0003f850       ??_E?$_Ref_count@VScopeRunner@SimpleWeb@@@std@@UEAAPEAXI@Z 0000000180040850 f i * CIL library *:* CIL module *
 0001:0003f850       ??_E?$_Ref_count@VRequest@?$ServerBase@V?$basic_stream_socket@Vtcp@ip@asio@boost@@Vany_io_executor@34@@asio@boost@@@SimpleWeb@@@std@@UEAAPEAXI@Z 0000000180040850 f i * CIL library *:* CIL module *
 0001:0003f850       ??_E?$_Ref_count@VResponse@?$ServerBase@V?$basic_stream_socket@Vtcp@ip@asio@boost@@Vany_io_executor@34@@asio@boost@@@SimpleWeb@@@std@@UEAAPEAXI@Z 0000000180040850 f i * CIL library *:* CIL module *
 0001:0003f850       ??_G?$_Ref_count@UConnections@?$ServerBase@V?$basic_stream_socket@Vtcp@ip@asio@boost@@Vany_io_executor@34@@asio@boost@@@SimpleWeb@@@std@@UEAAPEAXI@Z 0000000180040850 f i server.obj
 0001:0003f850       ??_G?$_Ref_count@VRequest@?$ServerBase@V?$basic_stream_socket@Vtcp@ip@asio@boost@@Vany_io_executor@34@@asio@boost@@@SimpleWeb@@@std@@UEAAPEAXI@Z 0000000180040850 f i server.obj
 0001:0003f850       ??_G?$_Ref_count_resource@PEAV?$basic_streambuf@V?$allocator@D@std@@@asio@boost@@U?$default_delete@V?$basic_streambuf@V?$allocator@D@std@@@asio@boost@@@std@@@std@@UEAAPEAXI@Z 0000000180040850 f i server.obj
 0001:0003f850       ??_E?$_Ref_count@UConnections@?$ServerBase@V?$basic_stream_socket@Vtcp@ip@asio@boost@@Vany_io_executor@34@@asio@boost@@@SimpleWeb@@@std@@UEAAPEAXI@Z 0000000180040850 f i * CIL library *:* CIL module *
 0001:0003f880       ??1?$_Alloc_construct_ptr@V?$allocator@U?$_Tree_node@U?$pair@$$CBV?$basic_string@DU?$char_traits@D@std@@V?$allocator@D@2@@std@@V?$function@$$A6AXV?$shared_ptr@VResponse@?$ServerBase@V?$basic_stream_socket@Vtcp@ip@asio@boost@@Vany_io_executor@34@@asio@boost@@@SimpleWeb@@@std@@V?$shared_ptr@VRequest@?$ServerBase@V?$basic_stream_socket@Vtcp@ip@asio@boost@@Vany_io_executor@34@@asio@boost@@@SimpleWeb@@@2@@Z@2@@std@@PEAX@std@@@std@@@std@@QEAA@XZ 0000000180040880 f i server.obj
 0001:0003f8a0       ??$_Uninitialized_move@PEAV?$function@$$A6AXAEBVerror_code@system@boost@@@Z@std@@V?$allocator@V?$function@$$A6AXAEBVerror_code@system@boost@@@Z@std@@@2@@std@@YAPEAV?$function@$$A6AXAEBVerror_code@system@boost@@@Z@0@QEAV10@0PEAV10@AEAV?$allocator@V?$function@$$A6AXAEBVerror_code@system@boost@@@Z@std@@@0@@Z 00000001800408a0 f i server.obj
 0001:0003f950       ??1?$_Tidy_guard@V?$_Builder@PEBDDV?$regex_traits@D@std@@@std@@@std@@QEAA@XZ 0000000180040950 f i server.obj
 0001:0003fab0       ??1?$unique_ptr@V?$tuple@V<lambda_2>@?BM@??start@?$ServerBase@V?$basic_stream_socket@Vtcp@ip@asio@boost@@Vany_io_executor@34@@asio@boost@@@SimpleWeb@@QEAAXAEBV?$function@$$A6AXG@Z@std@@@Z@@std@@U?$default_delete@V?$tuple@V<lambda_2>@?BM@??start@?$ServerBase@V?$basic_stream_socket@Vtcp@ip@asio@boost@@Vany_io_executor@34@@asio@boost@@@SimpleWeb@@QEAAXAEBV?$function@$$A6AXG@Z@std@@@Z@@std@@@2@@std@@QEAA@XZ 0000000180040ab0 f   server.obj
 0001:0003fad0       ?_Error@?$_Parser@PEBDDV?$regex_traits@D@std@@@std@@AEAAXW4error_type@regex_constants@2@@Z 0000000180040ad0 f i server.obj
 0001:0003fae0       ?_Trans@?$_Parser@PEBDDV?$regex_traits@D@std@@@std@@AEAAXXZ 0000000180040ae0 f i server.obj
 0001:0003fda0       ?_Disjunction@?$_Parser@PEBDDV?$regex_traits@D@std@@@std@@AEAAXXZ 0000000180040da0 f i server.obj
 0001:000400a0       ?_End_group@?$_Builder@PEBDDV?$regex_traits@D@std@@@std@@QEAAXPEAV_Node_base@2@@Z 00000001800410a0 f i server.obj
 0001:00040150       ?_Begin_capture_group@?$_Builder@PEBDDV?$regex_traits@D@std@@@std@@QEAAPEAV_Node_base@2@I@Z 0000000180041150 f i server.obj
 0001:00040250       ??1?$write_dynbuf_v1_op@V?$basic_stream_socket@Vtcp@ip@asio@boost@@Vany_io_executor@34@@asio@boost@@V?$basic_streambuf_ref@V?$allocator@D@std@@@23@Vtransfer_all_t@detail@23@V<lambda_1>@?1??send_from_queue@Response@?$ServerBase@V?$basic_stream_socket@Vtcp@ip@asio@boost@@Vany_io_executor@34@@asio@boost@@@SimpleWeb@@AEAAXXZ@@detail@asio@boost@@QEAA@XZ 0000000180041250 f i server.obj
 0001:000402a0       ??R?$write_dynbuf_v1_op@V?$basic_stream_socket@Vtcp@ip@asio@boost@@Vany_io_executor@34@@asio@boost@@V?$basic_streambuf_ref@V?$allocator@D@std@@@23@Vtransfer_all_t@detail@23@V<lambda_1>@?1??send_from_queue@Response@?$ServerBase@V?$basic_stream_socket@Vtcp@ip@asio@boost@@Vany_io_executor@34@@asio@boost@@@SimpleWeb@@AEAAXXZ@@detail@asio@boost@@QEAAXAEBVerror_code@system@3@_KH@Z 00000001800412a0 f i server.obj
 0001:000405e0       ?_Alternative@?$_Parser@PEBDDV?$regex_traits@D@std@@@std@@AEAA_NXZ 00000001800415e0 f i server.obj
 0001:00040bd0       ??$_Invoke@V?$tuple@V<lambda_2>@?BM@??start@?$ServerBase@V?$basic_stream_socket@Vtcp@ip@asio@boost@@Vany_io_executor@34@@asio@boost@@@SimpleWeb@@QEAAXAEBV?$function@$$A6AXG@Z@std@@@Z@@std@@$0A@@thread@std@@CAIPEAX@Z 0000000180041bd0 f i server.obj
 0001:00040c10       ??$?0$$QEAVregex_orderable@?$ServerBase@V?$basic_stream_socket@Vtcp@ip@asio@boost@@Vany_io_executor@34@@asio@boost@@@SimpleWeb@@$$Z$$V@?$pair@$$CBVregex_orderable@?$ServerBase@V?$basic_stream_socket@Vtcp@ip@asio@boost@@Vany_io_executor@34@@asio@boost@@@SimpleWeb@@V?$map@V?$basic_string@DU?$char_traits@D@std@@V?$allocator@D@2@@std@@V?$function@$$A6AXV?$shared_ptr@VResponse@?$ServerBase@V?$basic_stream_socket@Vtcp@ip@asio@boost@@Vany_io_executor@34@@asio@boost@@@SimpleWeb@@@std@@V?$shared_ptr@VRequest@?$ServerBase@V?$basic_stream_socket@Vtcp@ip@asio@boost@@Vany_io_executor@34@@asio@boost@@@SimpleWeb@@@2@@Z@2@U?$less@V?$basic_string@DU?$char_traits@D@std@@V?$allocator@D@2@@std@@@2@V?$allocator@U?$pair@$$CBV?$basic_string@DU?$char_traits@D@std@@V?$allocator@D@2@@std@@V?$function@$$A6AXV?$shared_ptr@VResponse@?$ServerBase@V?$basic_stream_socket@Vtcp@ip@asio@boost@@Vany_io_executor@34@@asio@boost@@@SimpleWeb@@@std@@V?$shared_ptr@VRequest@?$ServerBase@V?$basic_stream_socket@Vtcp@ip@asio@boost@@Vany_io_executor@34@@asio@boost@@@SimpleWeb@@@2@@Z@2@@std@@@2@@std@@@std@@QEAA@Upiecewise_construct_t@1@V?$tuple@$$QEAVregex_orderable@?$ServerBase@V?$basic_stream_socket@Vtcp@ip@asio@boost@@Vany_io_executor@34@@asio@boost@@@SimpleWeb@@@1@V?$tuple@$$V@1@@Z 0000000180041c10 f i server.obj
 0001:00040cc0       ?_CharacterClass@?$_Parser@PEBDDV?$regex_traits@D@std@@@std@@AEAAXXZ 0000000180041cc0 f i server.obj
 0001:00040e40       ?_AtomEscape@?$_Parser@PEBDDV?$regex_traits@D@std@@@std@@AEAAXXZ 0000000180041e40 f i server.obj
 0001:00040fc0       ?_Wrapped_disjunction@?$_Parser@PEBDDV?$regex_traits@D@std@@@std@@AEAA_NXZ 0000000180041fc0 f i server.obj
 0001:000411a0       ?_Quantifier@?$_Parser@PEBDDV?$regex_traits@D@std@@@std@@AEAAXXZ 00000001800421a0 f i server.obj
 0001:000413f0       ?_Add_char@?$_Builder@PEBDDV?$regex_traits@D@std@@@std@@QEAAXD@Z 00000001800423f0 f i server.obj
 0001:00041520       ?_DecimalDigits@?$_Parser@PEBDDV?$regex_traits@D@std@@@std@@AEAA_NXZ 0000000180042520 f i server.obj
 0001:000415d0       ?_CharacterClassEscape@?$_Parser@PEBDDV?$regex_traits@D@std@@@std@@AEAA_N_N@Z 00000001800425d0 f i server.obj
 0001:000416d0       ?_ClassRanges@?$_Parser@PEBDDV?$regex_traits@D@std@@@std@@AEAAXXZ 00000001800426d0 f i server.obj
 0001:00041960       ?_CharacterEscape@?$_Parser@PEBDDV?$regex_traits@D@std@@@std@@AEAA_NXZ 0000000180042960 f i server.obj
 0001:00041e70       ?_Do_noncapture_group@?$_Parser@PEBDDV?$regex_traits@D@std@@@std@@AEAAXXZ 0000000180042e70 f i server.obj
 0001:00041f10       ?_Do_assert_group@?$_Parser@PEBDDV?$regex_traits@D@std@@@std@@AEAAX_N@Z 0000000180042f10 f i server.obj
 0001:00042020       ?_Add_class@?$_Builder@PEBDDV?$regex_traits@D@std@@@std@@QEAAXXZ 0000000180043020 f i server.obj
 0001:000420c0       ?_Add_rep@?$_Builder@PEBDDV?$regex_traits@D@std@@@std@@QEAAXHH_N@Z 00000001800430c0 f i server.obj
 0001:000423f0       ??$execute@V?$binder0@V<lambda_1>@?BH@??start@?$ServerBase@V?$basic_stream_socket@Vtcp@ip@asio@boost@@Vany_io_executor@34@@asio@boost@@@SimpleWeb@@QEAAXAEBV?$function@$$A6AXG@Z@std@@@Z@@detail@asio@boost@@@?$basic_executor_type@V?$allocator@X@std@@$0A@@io_context@asio@boost@@AEBAX$$QEAV?$binder0@V<lambda_1>@?BH@??start@?$ServerBase@V?$basic_stream_socket@Vtcp@ip@asio@boost@@Vany_io_executor@34@@asio@boost@@@SimpleWeb@@QEAAXAEBV?$function@$$A6AXG@Z@std@@@Z@@detail@23@@Z 00000001800433f0 f i server.obj
 0001:000425f0       ??1ptr@?$executor_op@V?$binder0@V<lambda_1>@?BH@??start@?$ServerBase@V?$basic_stream_socket@Vtcp@ip@asio@boost@@Vany_io_executor@34@@asio@boost@@@SimpleWeb@@QEAAXAEBV?$function@$$A6AXG@Z@std@@@Z@@detail@asio@boost@@V?$allocator@X@std@@Vwin_iocp_operation@234@@detail@asio@boost@@QEAA@XZ 00000001800435f0 f i server.obj
 0001:00042600       ??_E?$_Node_str@D@std@@UEAAPEAXI@Z 0000000180043600 f i * CIL library *:* CIL module *
 0001:00042600       ??_G?$_Node_str@D@std@@UEAAPEAXI@Z 0000000180043600 f i server.obj
 0001:00042650       ?reset@ptr@?$executor_op@V?$binder0@V<lambda_1>@?BH@??start@?$ServerBase@V?$basic_stream_socket@Vtcp@ip@asio@boost@@Vany_io_executor@34@@asio@boost@@@SimpleWeb@@QEAAXAEBV?$function@$$A6AXG@Z@std@@@Z@@detail@asio@boost@@V?$allocator@X@std@@Vwin_iocp_operation@234@@detail@asio@boost@@QEAAXXZ 0000000180043650 f i server.obj
 0001:00042710       ?_HexDigits@?$_Parser@PEBDDV?$regex_traits@D@std@@@std@@AEAAXH@Z 0000000180043710 f i server.obj
 0001:000427f0       ?_ClassAtom@?$_Parser@PEBDDV?$regex_traits@D@std@@@std@@AEAA?AW4_Prs_ret@2@XZ 00000001800437f0 f i server.obj
 0001:00042b60       ?_Add_range@?$_Builder@PEBDDV?$regex_traits@D@std@@@std@@QEAAXDD@Z 0000000180043b60 f i server.obj
 0001:00042cf0       ?_Add_named_class@?$_Builder@PEBDDV?$regex_traits@D@std@@@std@@QEAAXF_N@Z 0000000180043cf0 f i server.obj
 0001:00042dd0       ?_Add_char_to_array@?$_Builder@PEBDDV?$regex_traits@D@std@@@std@@AEAAXD@Z 0000000180043dd0 f i server.obj
 0001:00042e80       ??$lookup_classname@PEBD@?$_Regex_traits@D@std@@QEBAFPEBD0_N@Z 0000000180043e80 f i server.obj
 0001:00042fd0       ??1?$binder2@V?$write_op@V?$basic_stream_socket@Vtcp@ip@asio@boost@@Vany_io_executor@34@@asio@boost@@Vconst_buffers_1@23@PEBVconst_buffer@23@Vtransfer_all_t@detail@23@V?$write_dynbuf_v1_op@V?$basic_stream_socket@Vtcp@ip@asio@boost@@Vany_io_executor@34@@asio@boost@@V?$basic_streambuf_ref@V?$allocator@D@std@@@23@Vtransfer_all_t@detail@23@V<lambda_1>@?1??send_from_queue@Response@?$ServerBase@V?$basic_stream_socket@Vtcp@ip@asio@boost@@Vany_io_executor@34@@asio@boost@@@SimpleWeb@@AEAAXXZ@@723@@detail@asio@boost@@Verror_code@system@4@_K@detail@asio@boost@@QEAA@XZ 0000000180043fd0 f i server.obj
 0001:00042fd0       ??1?$write_op@V?$basic_stream_socket@Vtcp@ip@asio@boost@@Vany_io_executor@34@@asio@boost@@Vconst_buffers_1@23@PEBVconst_buffer@23@Vtransfer_all_t@detail@23@V?$write_dynbuf_v1_op@V?$basic_stream_socket@Vtcp@ip@asio@boost@@Vany_io_executor@34@@asio@boost@@V?$basic_streambuf_ref@V?$allocator@D@std@@@23@Vtransfer_all_t@detail@23@V<lambda_1>@?1??send_from_queue@Response@?$ServerBase@V?$basic_stream_socket@Vtcp@ip@asio@boost@@Vany_io_executor@34@@asio@boost@@@SimpleWeb@@AEAAXXZ@@723@@detail@asio@boost@@QEAA@XZ 0000000180043fd0 f i server.obj
 0001:00043020       ??R?$write_op@V?$basic_stream_socket@Vtcp@ip@asio@boost@@Vany_io_executor@34@@asio@boost@@Vconst_buffers_1@23@PEBVconst_buffer@23@Vtransfer_all_t@detail@23@V?$write_dynbuf_v1_op@V?$basic_stream_socket@Vtcp@ip@asio@boost@@Vany_io_executor@34@@asio@boost@@V?$basic_streambuf_ref@V?$allocator@D@std@@@23@Vtransfer_all_t@detail@23@V<lambda_1>@?1??send_from_queue@Response@?$ServerBase@V?$basic_stream_socket@Vtcp@ip@asio@boost@@Vany_io_executor@34@@asio@boost@@@SimpleWeb@@AEAAXXZ@@723@@detail@asio@boost@@QEAAXVerror_code@system@3@_KH@Z 0000000180044020 f i server.obj
 0001:00043110       ?do_complete@?$executor_op@V?$binder0@V<lambda_1>@?BH@??start@?$ServerBase@V?$basic_stream_socket@Vtcp@ip@asio@boost@@Vany_io_executor@34@@asio@boost@@@SimpleWeb@@QEAAXAEBV?$function@$$A6AXG@Z@std@@@Z@@detail@asio@boost@@V?$allocator@X@std@@Vwin_iocp_operation@234@@detail@asio@boost@@SAXPEAXPEAVwin_iocp_operation@234@AEBVerror_code@system@4@_K@Z 0000000180044110 f i server.obj
 0001:00043200       ?_Do_ex_class@?$_Parser@PEBDDV?$regex_traits@D@std@@@std@@AEAAXW4_Meta_type@2@@Z 0000000180044200 f i server.obj
 0001:00043440       ?_Add_equiv@?$_Builder@PEBDDV?$regex_traits@D@std@@@std@@QEAAXPEBD0_J@Z 0000000180044440 f i server.obj
 0001:000435d0       ?_Char_to_elts@?$_Builder@PEBDDV?$regex_traits@D@std@@@std@@AEAAXPEBD0_JPEAPEAU?$_Sequence@D@2@@Z 00000001800445d0 f i server.obj
 0001:000436b0       ??$asio_handler_invoke@V?$binder0@V<lambda_1>@?BH@??start@?$ServerBase@V?$basic_stream_socket@Vtcp@ip@asio@boost@@Vany_io_executor@34@@asio@boost@@@SimpleWeb@@QEAAXAEBV?$function@$$A6AXG@Z@std@@@Z@@detail@asio@boost@@@asio@boost@@YAXAEAV?$binder0@V<lambda_1>@?BH@??start@?$ServerBase@V?$basic_stream_socket@Vtcp@ip@asio@boost@@Vany_io_executor@34@@asio@boost@@@SimpleWeb@@QEAAXAEBV?$function@$$A6AXG@Z@std@@@Z@@detail@01@ZZ 00000001800446b0 f i server.obj
 0001:00043710       ??$transform_primary@PEAD@?$_Regex_traits@D@std@@QEBA?AV?$basic_string@DU?$char_traits@D@std@@V?$allocator@D@2@@1@PEAD0@Z 0000000180044710 f i server.obj
 0001:00043710       ??$transform_primary@PEBD@?$_Regex_traits@D@std@@QEBA?AV?$basic_string@DU?$char_traits@D@std@@V?$allocator@D@2@@1@PEBD0@Z 0000000180044710 f i server.obj
 0001:000438e0       ??$async_send@Vconst_buffers_1@asio@boost@@V?$write_op@V?$basic_stream_socket@Vtcp@ip@asio@boost@@Vany_io_executor@34@@asio@boost@@Vconst_buffers_1@23@PEBVconst_buffer@23@Vtransfer_all_t@detail@23@V?$write_dynbuf_v1_op@V?$basic_stream_socket@Vtcp@ip@asio@boost@@Vany_io_executor@34@@asio@boost@@V?$basic_streambuf_ref@V?$allocator@D@std@@@23@Vtransfer_all_t@detail@23@V<lambda_1>@?1??send_from_queue@Response@?$ServerBase@V?$basic_stream_socket@Vtcp@ip@asio@boost@@Vany_io_executor@34@@asio@boost@@@SimpleWeb@@AEAAXXZ@@723@@detail@23@Vany_io_executor@23@@win_iocp_socket_service_base@detail@asio@boost@@QEAAXAEAUbase_implementation_type@0123@AEBVconst_buffers_1@23@HAEAV?$write_op@V?$basic_stream_socket@Vtcp@ip@asio@boost@@Vany_io_executor@34@@asio@boost@@Vconst_buffers_1@23@PEBVconst_buffer@23@Vtransfer_all_t@detail@23@V?$write_dynbuf_v1_op@V?$basic_stream_socket@Vtcp@ip@asio@boost@@Vany_io_executor@34@@asio@boost@@V?$basic_streambuf_ref@V?$allocator@D@std@@@23@Vtransfer_all_t@detail@23@V<lambda_1>@?1??send_from_queue@Response@?$ServerBase@V?$basic_stream_socket@Vtcp@ip@asio@boost@@Vany_io_executor@34@@asio@boost@@@SimpleWeb@@AEAAXXZ@@723@@123@AEBVany_io_executor@23@@Z 00000001800448e0 f i server.obj
 0001:00043ae0       ??1ptr@?$win_iocp_socket_send_op@Vconst_buffers_1@asio@boost@@V?$write_op@V?$basic_stream_socket@Vtcp@ip@asio@boost@@Vany_io_executor@34@@asio@boost@@Vconst_buffers_1@23@PEBVconst_buffer@23@Vtransfer_all_t@detail@23@V?$write_dynbuf_v1_op@V?$basic_stream_socket@Vtcp@ip@asio@boost@@Vany_io_executor@34@@asio@boost@@V?$basic_streambuf_ref@V?$allocator@D@std@@@23@Vtransfer_all_t@detail@23@V<lambda_1>@?1??send_from_queue@Response@?$ServerBase@V?$basic_stream_socket@Vtcp@ip@asio@boost@@Vany_io_executor@34@@asio@boost@@@SimpleWeb@@AEAAXXZ@@723@@detail@23@Vany_io_executor@23@@detail@asio@boost@@QEAA@XZ 0000000180044ae0 f i server.obj
 0001:00043af0       ??1?$handler_work@V?$read_until_delim_string_op_v1@V?$basic_stream_socket@Vtcp@ip@asio@boost@@Vany_io_executor@34@@asio@boost@@V?$basic_streambuf_ref@V?$allocator@D@std@@@23@V<lambda_1>@?1??read_chunked_transfer_encoded@?$ServerBase@V?$basic_stream_socket@Vtcp@ip@asio@boost@@Vany_io_executor@34@@asio@boost@@@SimpleWeb@@IEAAXAEBV?$shared_ptr@VSession@?$ServerBase@V?$basic_stream_socket@Vtcp@ip@asio@boost@@Vany_io_executor@34@@asio@boost@@@SimpleWeb@@@std@@AEBV?$shared_ptr@V?$basic_streambuf@V?$allocator@D@std@@@asio@boost@@@std@@@Z@@detail@asio@boost@@Vany_io_executor@34@X@detail@asio@boost@@QEAA@XZ 0000000180044af0 f i server.obj
 0001:00043af0       ??1?$handler_work@V<lambda_1>@?1??set_timeout@Connection@?$ServerBase@V?$basic_stream_socket@Vtcp@ip@asio@boost@@Vany_io_executor@34@@asio@boost@@@SimpleWeb@@QEAAXJ@Z@Vany_io_executor@asio@boost@@X@detail@asio@boost@@QEAA@XZ 0000000180044af0 f i server.obj
 0001:00043af0       ??1?$handler_work@V?$write_op@V?$basic_stream_socket@Vtcp@ip@asio@boost@@Vany_io_executor@34@@asio@boost@@Vconst_buffers_1@23@PEBVconst_buffer@23@Vtransfer_all_t@detail@23@V?$write_dynbuf_v1_op@V?$basic_stream_socket@Vtcp@ip@asio@boost@@Vany_io_executor@34@@asio@boost@@V?$basic_streambuf_ref@V?$allocator@D@std@@@23@Vtransfer_all_t@detail@23@V<lambda_1>@?1??send_on_delete@Response@?$ServerBase@V?$basic_stream_socket@Vtcp@ip@asio@boost@@Vany_io_executor@34@@asio@boost@@@SimpleWeb@@AEAAXAEBV?$function@$$A6AXAEBVerror_code@system@boost@@@Z@std@@@Z@@723@@detail@asio@boost@@Vany_io_executor@34@X@detail@asio@boost@@QEAA@XZ 0000000180044af0 f i server.obj
 0001:00043af0       ??1?$handler_work@V?$read_dynbuf_v1_op@V?$basic_stream_socket@Vtcp@ip@asio@boost@@Vany_io_executor@34@@asio@boost@@V?$basic_streambuf_ref@V?$allocator@D@std@@@23@Vtransfer_exactly_t@detail@23@V<lambda_1>@?BJ@???R7?1??read_chunked_transfer_encoded@?$ServerBase@V?$basic_stream_socket@Vtcp@ip@asio@boost@@Vany_io_executor@34@@asio@boost@@@SimpleWeb@@IEAAXAEBV?$shared_ptr@VSession@?$ServerBase@V?$basic_stream_socket@Vtcp@ip@asio@boost@@Vany_io_executor@34@@asio@boost@@@SimpleWeb@@@std@@AEBV?$shared_ptr@V?$basic_streambuf@V?$allocator@D@std@@@asio@boost@@@std@@@Z@QEBA@AEBVerror_code@system@3@_K@Z@@detail@asio@boost@@Vany_io_executor@34@X@detail@asio@boost@@QEAA@XZ 0000000180044af0 f i server.obj
 0001:00043af0       ??1?$handler_work@V?$write_op@V?$basic_stream_socket@Vtcp@ip@asio@boost@@Vany_io_executor@34@@asio@boost@@Vconst_buffers_1@23@PEBVconst_buffer@23@Vtransfer_all_t@detail@23@V?$write_dynbuf_v1_op@V?$basic_stream_socket@Vtcp@ip@asio@boost@@Vany_io_executor@34@@asio@boost@@V?$basic_streambuf_ref@V?$allocator@D@std@@@23@Vtransfer_all_t@detail@23@V<lambda_1>@?1??send_from_queue@Response@?$ServerBase@V?$basic_stream_socket@Vtcp@ip@asio@boost@@Vany_io_executor@34@@asio@boost@@@SimpleWeb@@AEAAXXZ@@723@@detail@asio@boost@@Vany_io_executor@34@X@detail@asio@boost@@QEAA@XZ 0000000180044af0 f i server.obj
 0001:00043af0       ??1?$handler_work@V?$read_dynbuf_v1_op@V?$basic_stream_socket@Vtcp@ip@asio@boost@@Vany_io_executor@34@@asio@boost@@V?$basic_streambuf_ref@V?$allocator@D@std@@@23@Vtransfer_exactly_t@detail@23@V<lambda_2>@?BN@???R<lambda_1>@?1??read_chunked_transfer_encoded@?$ServerBase@V?$basic_stream_socket@Vtcp@ip@asio@boost@@Vany_io_executor@34@@asio@boost@@@SimpleWeb@@IEAAXAEBV?$shared_ptr@VSession@?$ServerBase@V?$basic_stream_socket@Vtcp@ip@asio@boost@@Vany_io_executor@34@@asio@boost@@@SimpleWeb@@@std@@AEBV?$shared_ptr@V?$basic_streambuf@V?$allocator@D@std@@@asio@boost@@@std@@@Z@QEBA@AEBVerror_code@system@3@_K@Z@@detail@asio@boost@@Vany_io_executor@34@X@detail@asio@boost@@QEAA@XZ 0000000180044af0 f i server.obj
 0001:00043af0       ??1?$handler_work@V<lambda_1>@?1??accept@?$Server@V?$basic_stream_socket@Vtcp@ip@asio@boost@@Vany_io_executor@34@@asio@boost@@@SimpleWeb@@MEAAXXZ@Vany_io_executor@asio@boost@@X@detail@asio@boost@@QEAA@XZ 0000000180044af0 f i server.obj
 0001:00043af0       ??1?$handler_work@V?$read_dynbuf_v1_op@V?$basic_stream_socket@Vtcp@ip@asio@boost@@Vany_io_executor@34@@asio@boost@@V?$basic_streambuf_ref@V?$allocator@D@std@@@23@Vtransfer_exactly_t@detail@23@V<lambda_1>@?6???R7?BJ@???R7?1??read_chunked_transfer_encoded@?$ServerBase@V?$basic_stream_socket@Vtcp@ip@asio@boost@@Vany_io_executor@34@@asio@boost@@@SimpleWeb@@IEAAXAEBV?$shared_ptr@VSession@?$ServerBase@V?$basic_stream_socket@Vtcp@ip@asio@boost@@Vany_io_executor@34@@asio@boost@@@SimpleWeb@@@std@@AEBV?$shared_ptr@V?$basic_streambuf@V?$allocator@D@std@@@asio@boost@@@std@@@Z@QEBA@AEBVerror_code@system@3@_K@Z@QEBA@23@Z@@detail@asio@boost@@Vany_io_executor@34@X@detail@asio@boost@@QEAA@XZ 0000000180044af0 f i server.obj
 0001:00043af0       ??1any_io_executor@asio@boost@@QEAA@XZ 0000000180044af0 f i server.obj
 0001:00043af0       ??1?$handler_work@V?$read_dynbuf_v1_op@V?$basic_stream_socket@Vtcp@ip@asio@boost@@Vany_io_executor@34@@asio@boost@@V?$basic_streambuf_ref@V?$allocator@D@std@@@23@Vtransfer_exactly_t@detail@23@V<lambda_1>@?BL@???R7?1??read@?$ServerBase@V?$basic_stream_socket@Vtcp@ip@asio@boost@@Vany_io_executor@34@@asio@boost@@@SimpleWeb@@IEAAXAEBV?$shared_ptr@VSession@?$ServerBase@V?$basic_stream_socket@Vtcp@ip@asio@boost@@Vany_io_executor@34@@asio@boost@@@SimpleWeb@@@std@@@Z@QEBA@AEBVerror_code@system@3@_K@Z@@detail@asio@boost@@Vany_io_executor@34@X@detail@asio@boost@@QEAA@XZ 0000000180044af0 f i server.obj
 0001:00043af0       ??1?$handler_work@V?$read_until_delim_string_op_v1@V?$basic_stream_socket@Vtcp@ip@asio@boost@@Vany_io_executor@34@@asio@boost@@V?$basic_streambuf_ref@V?$allocator@D@std@@@23@V<lambda_1>@?1??read@?$ServerBase@V?$basic_stream_socket@Vtcp@ip@asio@boost@@Vany_io_executor@34@@asio@boost@@@SimpleWeb@@IEAAXAEBV?$shared_ptr@VSession@?$ServerBase@V?$basic_stream_socket@Vtcp@ip@asio@boost@@Vany_io_executor@34@@asio@boost@@@SimpleWeb@@@std@@@Z@@detail@asio@boost@@Vany_io_executor@34@X@detail@asio@boost@@QEAA@XZ 0000000180044af0 f i server.obj
 0001:00043b10       ?reset@ptr@?$win_iocp_socket_send_op@Vconst_buffers_1@asio@boost@@V?$write_op@V?$basic_stream_socket@Vtcp@ip@asio@boost@@Vany_io_executor@34@@asio@boost@@Vconst_buffers_1@23@PEBVconst_buffer@23@Vtransfer_all_t@detail@23@V?$write_dynbuf_v1_op@V?$basic_stream_socket@Vtcp@ip@asio@boost@@Vany_io_executor@34@@asio@boost@@V?$basic_streambuf_ref@V?$allocator@D@std@@@23@Vtransfer_all_t@detail@23@V<lambda_1>@?1??send_from_queue@Response@?$ServerBase@V?$basic_stream_socket@Vtcp@ip@asio@boost@@Vany_io_executor@34@@asio@boost@@@SimpleWeb@@AEAAXXZ@@723@@detail@23@Vany_io_executor@23@@detail@asio@boost@@QEAAXXZ 0000000180044b10 f i server.obj
 0001:00043be0       ?do_complete@?$win_iocp_socket_send_op@Vconst_buffers_1@asio@boost@@V?$write_op@V?$basic_stream_socket@Vtcp@ip@asio@boost@@Vany_io_executor@34@@asio@boost@@Vconst_buffers_1@23@PEBVconst_buffer@23@Vtransfer_all_t@detail@23@V?$write_dynbuf_v1_op@V?$basic_stream_socket@Vtcp@ip@asio@boost@@Vany_io_executor@34@@asio@boost@@V?$basic_streambuf_ref@V?$allocator@D@std@@@23@Vtransfer_all_t@detail@23@V<lambda_1>@?1??send_from_queue@Response@?$ServerBase@V?$basic_stream_socket@Vtcp@ip@asio@boost@@Vany_io_executor@34@@asio@boost@@@SimpleWeb@@AEAAXXZ@@723@@detail@23@Vany_io_executor@23@@detail@asio@boost@@SAXPEAXPEAVwin_iocp_operation@234@AEBVerror_code@system@4@_K@Z 0000000180044be0 f i server.obj
 0001:00043e20       ??$execute@V?$binder2@V?$write_op@V?$basic_stream_socket@Vtcp@ip@asio@boost@@Vany_io_executor@34@@asio@boost@@Vconst_buffers_1@23@PEBVconst_buffer@23@Vtransfer_all_t@detail@23@V?$write_dynbuf_v1_op@V?$basic_stream_socket@Vtcp@ip@asio@boost@@Vany_io_executor@34@@asio@boost@@V?$basic_streambuf_ref@V?$allocator@D@std@@@23@Vtransfer_all_t@detail@23@V<lambda_1>@?1??send_from_queue@Response@?$ServerBase@V?$basic_stream_socket@Vtcp@ip@asio@boost@@Vany_io_executor@34@@asio@boost@@@SimpleWeb@@AEAAXXZ@@723@@detail@asio@boost@@Verror_code@system@4@_K@detail@asio@boost@@@any_executor_base@detail@execution@asio@boost@@QEBAX$$QEAV?$binder2@V?$write_op@V?$basic_stream_socket@Vtcp@ip@asio@boost@@Vany_io_executor@34@@asio@boost@@Vconst_buffers_1@23@PEBVconst_buffer@23@Vtransfer_all_t@detail@23@V?$write_dynbuf_v1_op@V?$basic_stream_socket@Vtcp@ip@asio@boost@@Vany_io_executor@34@@asio@boost@@V?$basic_streambuf_ref@V?$allocator@D@std@@@23@Vtransfer_all_t@detail@23@V<lambda_1>@?1??send_from_queue@Response@?$ServerBase@V?$basic_stream_socket@Vtcp@ip@asio@boost@@Vany_io_executor@34@@asio@boost@@@SimpleWeb@@AEAAXXZ@@723@@detail@asio@boost@@Verror_code@system@4@_K@134@@Z 0000000180044e20 f i server.obj
 0001:00044000       ??1ptr@?$impl@V?$binder2@V?$write_op@V?$basic_stream_socket@Vtcp@ip@asio@boost@@Vany_io_executor@34@@asio@boost@@Vconst_buffers_1@23@PEBVconst_buffer@23@Vtransfer_all_t@detail@23@V?$write_dynbuf_v1_op@V?$basic_stream_socket@Vtcp@ip@asio@boost@@Vany_io_executor@34@@asio@boost@@V?$basic_streambuf_ref@V?$allocator@D@std@@@23@Vtransfer_all_t@detail@23@V<lambda_1>@?1??send_from_queue@Response@?$ServerBase@V?$basic_stream_socket@Vtcp@ip@asio@boost@@Vany_io_executor@34@@asio@boost@@@SimpleWeb@@AEAAXXZ@@723@@detail@asio@boost@@Verror_code@system@4@_K@detail@asio@boost@@V?$allocator@X@std@@@executor_function@detail@asio@boost@@QEAA@XZ 0000000180045000 f i server.obj
 0001:00044010       ?reset@ptr@?$impl@V?$binder2@V?$write_op@V?$basic_stream_socket@Vtcp@ip@asio@boost@@Vany_io_executor@34@@asio@boost@@Vconst_buffers_1@23@PEBVconst_buffer@23@Vtransfer_all_t@detail@23@V?$write_dynbuf_v1_op@V?$basic_stream_socket@Vtcp@ip@asio@boost@@Vany_io_executor@34@@asio@boost@@V?$basic_streambuf_ref@V?$allocator@D@std@@@23@Vtransfer_all_t@detail@23@V<lambda_1>@?1??send_from_queue@Response@?$ServerBase@V?$basic_stream_socket@Vtcp@ip@asio@boost@@Vany_io_executor@34@@asio@boost@@@SimpleWeb@@AEAAXXZ@@723@@detail@asio@boost@@Verror_code@system@4@_K@detail@asio@boost@@V?$allocator@X@std@@@executor_function@detail@asio@boost@@QEAAXXZ 0000000180045010 f i server.obj
 0001:000440f0       ??$complete@V?$binder2@V?$write_op@V?$basic_stream_socket@Vtcp@ip@asio@boost@@Vany_io_executor@34@@asio@boost@@Vconst_buffers_1@23@PEBVconst_buffer@23@Vtransfer_all_t@detail@23@V?$write_dynbuf_v1_op@V?$basic_stream_socket@Vtcp@ip@asio@boost@@Vany_io_executor@34@@asio@boost@@V?$basic_streambuf_ref@V?$allocator@D@std@@@23@Vtransfer_all_t@detail@23@V<lambda_1>@?1??send_from_queue@Response@?$ServerBase@V?$basic_stream_socket@Vtcp@ip@asio@boost@@Vany_io_executor@34@@asio@boost@@@SimpleWeb@@AEAAXXZ@@723@@detail@asio@boost@@Verror_code@system@4@_K@detail@asio@boost@@@executor_function_view@detail@asio@boost@@CAXPEAX@Z 00000001800450f0 f i server.obj
 0001:00044120       ??$asio_handler_invoke@V?$binder2@V?$write_op@V?$basic_stream_socket@Vtcp@ip@asio@boost@@Vany_io_executor@34@@asio@boost@@Vconst_buffers_1@23@PEBVconst_buffer@23@Vtransfer_all_t@detail@23@V?$write_dynbuf_v1_op@V?$basic_stream_socket@Vtcp@ip@asio@boost@@Vany_io_executor@34@@asio@boost@@V?$basic_streambuf_ref@V?$allocator@D@std@@@23@Vtransfer_all_t@detail@23@V<lambda_1>@?1??send_from_queue@Response@?$ServerBase@V?$basic_stream_socket@Vtcp@ip@asio@boost@@Vany_io_executor@34@@asio@boost@@@SimpleWeb@@AEAAXXZ@@723@@detail@asio@boost@@Verror_code@system@4@_K@detail@asio@boost@@@asio@boost@@YAXAEAV?$binder2@V?$write_op@V?$basic_stream_socket@Vtcp@ip@asio@boost@@Vany_io_executor@34@@asio@boost@@Vconst_buffers_1@23@PEBVconst_buffer@23@Vtransfer_all_t@detail@23@V?$write_dynbuf_v1_op@V?$basic_stream_socket@Vtcp@ip@asio@boost@@Vany_io_executor@34@@asio@boost@@V?$basic_streambuf_ref@V?$allocator@D@std@@@23@Vtransfer_all_t@detail@23@V<lambda_1>@?1??send_from_queue@Response@?$ServerBase@V?$basic_stream_socket@Vtcp@ip@asio@boost@@Vany_io_executor@34@@asio@boost@@@SimpleWeb@@AEAAXXZ@@723@@detail@asio@boost@@Verror_code@system@4@_K@detail@01@ZZ 0000000180045120 f i server.obj
 0001:00044160       ??$complete@V?$binder2@V?$write_op@V?$basic_stream_socket@Vtcp@ip@asio@boost@@Vany_io_executor@34@@asio@boost@@Vconst_buffers_1@23@PEBVconst_buffer@23@Vtransfer_all_t@detail@23@V?$write_dynbuf_v1_op@V?$basic_stream_socket@Vtcp@ip@asio@boost@@Vany_io_executor@34@@asio@boost@@V?$basic_streambuf_ref@V?$allocator@D@std@@@23@Vtransfer_all_t@detail@23@V<lambda_1>@?1??send_from_queue@Response@?$ServerBase@V?$basic_stream_socket@Vtcp@ip@asio@boost@@Vany_io_executor@34@@asio@boost@@@SimpleWeb@@AEAAXXZ@@723@@detail@asio@boost@@Verror_code@system@4@_K@detail@asio@boost@@V?$allocator@X@std@@@executor_function@detail@asio@boost@@CAXPEAUimpl_base@0123@_N@Z 0000000180045160 f i server.obj
 0001:000442a0       ??_G_Node_assert@std@@UEAAPEAXI@Z 00000001800452a0 f i server.obj
 0001:000442a0       ??_E_Node_assert@std@@UEAAPEAXI@Z 00000001800452a0 f i * CIL library *:* CIL module *
 0001:00044330       ??_E?$_Node_class@DV?$regex_traits@D@std@@@std@@UEAAPEAXI@Z 0000000180045330 f i * CIL library *:* CIL module *
 0001:00044330       ??_G?$_Node_class@DV?$regex_traits@D@std@@@std@@UEAAPEAXI@Z 0000000180045330 f i server.obj
 0001:00044440       ??_E_Node_rep@std@@UEAAPEAXI@Z 0000000180045440 f i * CIL library *:* CIL module *
 0001:00044440       ??_G_Node_rep@std@@UEAAPEAXI@Z 0000000180045440 f i server.obj
 0001:00044470       ??_G_Node_end_rep@std@@UEAAPEAXI@Z 0000000180045470 f i server.obj
 0001:00044470       ??_G_Node_capture@std@@UEAAPEAXI@Z 0000000180045470 f i server.obj
 0001:00044470       ??_G_Node_end_group@std@@UEAAPEAXI@Z 0000000180045470 f i server.obj
 0001:00044470       ??_E_Node_capture@std@@UEAAPEAXI@Z 0000000180045470 f i * CIL library *:* CIL module *
 0001:00044470       ??_E_Node_end_group@std@@UEAAPEAXI@Z 0000000180045470 f i * CIL library *:* CIL module *
 0001:00044470       ??_G_Node_back@std@@UEAAPEAXI@Z 0000000180045470 f i server.obj
 0001:00044470       ??_E_Node_end_rep@std@@UEAAPEAXI@Z 0000000180045470 f i * CIL library *:* CIL module *
 0001:00044470       ??_E_Node_back@std@@UEAAPEAXI@Z 0000000180045470 f i * CIL library *:* CIL module *
 0001:000444a0       ??_G_Node_if@std@@UEAAPEAXI@Z 00000001800454a0 f i server.obj
 0001:000444a0       ??_E_Node_if@std@@UEAAPEAXI@Z 00000001800454a0 f i * CIL library *:* CIL module *
 0001:00044560       ??_E_Node_endif@std@@UEAAPEAXI@Z 0000000180045560 f i * CIL library *:* CIL module *
 0001:00044560       ??_E_Node_base@std@@UEAAPEAXI@Z 0000000180045560 f i * CIL library *:* CIL module *
 0001:00044560       ??_G_Node_base@std@@UEAAPEAXI@Z 0000000180045560 f i server.obj
 0001:00044560       ??_G_Node_endif@std@@UEAAPEAXI@Z 0000000180045560 f i server.obj
 0001:00044590       ??0?$winsock_init@$01$0A@@detail@asio@boost@@QEAA@_N@Z 0000000180045590 f i server.obj
 0001:00044690       ??_Ewin_iocp_io_context@detail@asio@boost@@UEAAPEAXI@Z 0000000180045690 f i * CIL library *:* CIL module *
 0001:00044690       ??_Gwin_iocp_io_context@detail@asio@boost@@UEAAPEAXI@Z 0000000180045690 f i server.obj
 0001:000447e0       ??0?$wrapexcept@Vinvalid_service_owner@asio@boost@@@boost@@QEAA@AEBVinvalid_service_owner@asio@1@@Z 00000001800457e0 f i server.obj
 0001:00044860       ??1?$wrapexcept@Vinvalid_service_owner@asio@boost@@@boost@@UEAA@XZ 0000000180045860 f i server.obj
 0001:00044860       ??1?$wrapexcept@Vservice_already_exists@asio@boost@@@boost@@UEAA@XZ 0000000180045860 f i server.obj
 0001:00044860       ??1?$wrapexcept@Vbad_address_cast@ip@asio@boost@@@boost@@UEAA@XZ 0000000180045860 f i server.obj
 0001:00044860       ??1?$wrapexcept@Vlength_error@std@@@boost@@UEAA@XZ 0000000180045860 f i server.obj
 0001:00044860       ??1?$wrapexcept@Vbad_executor@execution@asio@boost@@@boost@@UEAA@XZ 0000000180045860 f i server.obj
 0001:000448c0       ??_G?$wrapexcept@Vlength_error@std@@@boost@@UEAAPEAXI@Z 00000001800458c0 f i server.obj
 0001:000448c0       ??_G?$wrapexcept@Vservice_already_exists@asio@boost@@@boost@@UEAAPEAXI@Z 00000001800458c0 f i server.obj
 0001:000448c0       ??_E?$wrapexcept@Vlength_error@std@@@boost@@UEAAPEAXI@Z 00000001800458c0 f i * CIL library *:* CIL module *
 0001:000448c0       ??_G?$wrapexcept@Vinvalid_service_owner@asio@boost@@@boost@@UEAAPEAXI@Z 00000001800458c0 f i server.obj
 0001:000448c0       ??_E?$wrapexcept@Vbad_executor@execution@asio@boost@@@boost@@UEAAPEAXI@Z 00000001800458c0 f i * CIL library *:* CIL module *
 0001:000448c0       ??_E?$wrapexcept@Vbad_address_cast@ip@asio@boost@@@boost@@UEAAPEAXI@Z 00000001800458c0 f i * CIL library *:* CIL module *
 0001:000448c0       ??_E?$wrapexcept@Vinvalid_service_owner@asio@boost@@@boost@@UEAAPEAXI@Z 00000001800458c0 f i * CIL library *:* CIL module *
 0001:000448c0       ??_E?$wrapexcept@Vservice_already_exists@asio@boost@@@boost@@UEAAPEAXI@Z 00000001800458c0 f i * CIL library *:* CIL module *
 0001:000448c0       ??_G?$wrapexcept@Vbad_address_cast@ip@asio@boost@@@boost@@UEAAPEAXI@Z 00000001800458c0 f i server.obj
 0001:000448c0       ??_G?$wrapexcept@Vbad_executor@execution@asio@boost@@@boost@@UEAAPEAXI@Z 00000001800458c0 f i server.obj
 0001:00044940       ?clone@?$wrapexcept@Vinvalid_service_owner@asio@boost@@@boost@@UEBAPEBVclone_base@exception_detail@2@XZ 0000000180045940 f i server.obj
 0001:000449a0       ?rethrow@?$wrapexcept@Vinvalid_service_owner@asio@boost@@@boost@@UEBAXXZ 00000001800459a0 f i server.obj
 0001:000449c4       ??_E?$wrapexcept@Vinvalid_service_owner@asio@boost@@@boost@@W7EAAPEAXI@Z 00000001800459c4 f i server.obj
 0001:000449c4       ??_E?$wrapexcept@Vbad_address_cast@ip@asio@boost@@@boost@@W7EAAPEAXI@Z 00000001800459c4 f i server.obj
 0001:000449c4       ??_E?$wrapexcept@Vbad_executor@execution@asio@boost@@@boost@@W7EAAPEAXI@Z 00000001800459c4 f i server.obj
 0001:000449c4       ??_E?$wrapexcept@Vlength_error@std@@@boost@@W7EAAPEAXI@Z 00000001800459c4 f i server.obj
 0001:000449c4       ??_E?$wrapexcept@Vservice_already_exists@asio@boost@@@boost@@W7EAAPEAXI@Z 00000001800459c4 f i server.obj
 0001:000449d0       ??_E?$wrapexcept@Vlength_error@std@@@boost@@WCA@EAAPEAXI@Z 00000001800459d0 f i server.obj
 0001:000449d0       ??_E?$wrapexcept@Vinvalid_service_owner@asio@boost@@@boost@@WCA@EAAPEAXI@Z 00000001800459d0 f i server.obj
 0001:000449d0       ??_E?$wrapexcept@Vbad_executor@execution@asio@boost@@@boost@@WCA@EAAPEAXI@Z 00000001800459d0 f i server.obj
 0001:000449d0       ??_E?$wrapexcept@Vbad_address_cast@ip@asio@boost@@@boost@@WCA@EAAPEAXI@Z 00000001800459d0 f i server.obj
 0001:000449d0       ??_E?$wrapexcept@Vservice_already_exists@asio@boost@@@boost@@WCA@EAAPEAXI@Z 00000001800459d0 f i server.obj
 0001:000449e0       ??0?$wrapexcept@Vinvalid_service_owner@asio@boost@@@boost@@QEAA@AEBU01@@Z 00000001800459e0 f i server.obj
 0001:00044a90       ??0invalid_service_owner@asio@boost@@QEAA@AEBV012@@Z 0000000180045a90 f i server.obj
 0001:00044ad0       ??$throw_exception@Vinvalid_service_owner@asio@boost@@@boost@@YAXAEBVinvalid_service_owner@asio@0@@Z 0000000180045ad0 f i server.obj
 0001:00044b00       ??0invalid_service_owner@asio@boost@@QEAA@XZ 0000000180045b00 f i server.obj
 0001:00044b70       ??0?$wrapexcept@Vservice_already_exists@asio@boost@@@boost@@QEAA@AEBVservice_already_exists@asio@1@@Z 0000000180045b70 f i server.obj
 0001:00044bf0       ?clone@?$wrapexcept@Vservice_already_exists@asio@boost@@@boost@@UEBAPEBVclone_base@exception_detail@2@XZ 0000000180045bf0 f i server.obj
 0001:00044c50       ?rethrow@?$wrapexcept@Vservice_already_exists@asio@boost@@@boost@@UEBAXXZ 0000000180045c50 f i server.obj
 0001:00044c80       ??0?$wrapexcept@Vservice_already_exists@asio@boost@@@boost@@QEAA@AEBU01@@Z 0000000180045c80 f i server.obj
 0001:00044d30       ??0service_already_exists@asio@boost@@QEAA@AEBV012@@Z 0000000180045d30 f i server.obj
 0001:00044d70       ??$throw_exception@Vservice_already_exists@asio@boost@@@boost@@YAXAEBVservice_already_exists@asio@0@@Z 0000000180045d70 f i server.obj
 0001:00044da0       ??0service_already_exists@asio@boost@@QEAA@XZ 0000000180045da0 f i server.obj
 0001:00044e10       ??0io_context@asio@boost@@QEAA@XZ 0000000180045e10 f i server.obj
 0001:00044fe0       ??_E_Root_node@std@@UEAAPEAXI@Z 0000000180045fe0 f i * CIL library *:* CIL module *
 0001:00044fe0       ??_G_Root_node@std@@UEAAPEAXI@Z 0000000180045fe0 f i server.obj
 0001:00045010       ??1execution_context@asio@boost@@QEAA@XZ 0000000180046010 f i server.obj
 0001:000450a0       ??1?$winsock_init@$01$0A@@detail@asio@boost@@QEAA@XZ 00000001800460a0 f i server.obj
 0001:000450c0       ?_Calculate_loop_simplicity@std@@YAXPEAV_Node_base@1@0PEAV_Node_rep@1@@Z 00000001800460c0 f i server.obj
 0001:000451a0       ??_E?$collate@D@std@@MEAAPEAXI@Z 00000001800461a0 f i * CIL library *:* CIL module *
 0001:000451a0       ??_G?$collate@D@std@@MEAAPEAXI@Z 00000001800461a0 f i server.obj
 0001:000451f0       ?do_compare@?$collate@D@std@@MEBAHPEBD000@Z 00000001800461f0 f i server.obj
 0001:00045240       ?do_hash@?$collate@D@std@@MEBAJPEBD0@Z 0000000180046240 f i server.obj
 0001:00045280       ?name@locale@std@@QEBA?AV?$basic_string@DU?$char_traits@D@std@@V?$allocator@D@2@@2@XZ 0000000180046280 f i server.obj
 0001:000453d0       ?do_open@win_iocp_socket_service_base@detail@asio@boost@@IEAA?AVerror_code@system@4@AEAUbase_implementation_type@1234@HHHAEAV564@@Z 00000001800463d0 f i server.obj
 0001:00045670       ??0bad_address_cast@ip@asio@boost@@QEAA@XZ 0000000180046670 f i server.obj
 0001:000456a0       ??0?$wrapexcept@Vbad_address_cast@ip@asio@boost@@@boost@@QEAA@AEBVbad_address_cast@ip@asio@1@@Z 00000001800466a0 f i server.obj
 0001:00045720       ?clone@?$wrapexcept@Vbad_address_cast@ip@asio@boost@@@boost@@UEBAPEBVclone_base@exception_detail@2@XZ 0000000180046720 f i server.obj
 0001:00045780       ?rethrow@?$wrapexcept@Vbad_address_cast@ip@asio@boost@@@boost@@UEBAXXZ 0000000180046780 f i server.obj
 0001:000457b0       ??0?$wrapexcept@Vbad_address_cast@ip@asio@boost@@@boost@@QEAA@AEBU01@@Z 00000001800467b0 f i server.obj
 0001:00045860       ?what@bad_address_cast@ip@asio@boost@@UEBAPEBDXZ 0000000180046860 f i server.obj
 0001:00045870       ??0bad_address_cast@ip@asio@boost@@QEAA@AEBV0123@@Z 0000000180046870 f i server.obj
 0001:000458b0       ??$throw_exception@Vbad_address_cast@ip@asio@boost@@@boost@@YAXAEBVbad_address_cast@ip@asio@0@@Z 00000001800468b0 f i server.obj
 0001:000458e0       ?inet_pton@socket_ops@detail@asio@boost@@YAHHPEBDPEAXPEAKAEAVerror_code@system@4@@Z 00000001800468e0 f i server.obj
 0001:00045cd0       ?make_address@ip@asio@boost@@YA?AVaddress@123@PEBD@Z 0000000180046cd0 f i server.obj
 0001:00045e10       ??1LockGuard@SimpleWeb@@QEAA@XZ 0000000180046e10 f i server.obj
 0001:00045e10       ??1?$unique_lock@Vmutex@std@@@std@@QEAA@XZ 0000000180046e10 f i server.obj
 0001:00045e20       ??0system_error@system@boost@@QEAA@AEBVerror_code@12@@Z 0000000180046e20 f i server.obj
 0001:00045f40       ?do_throw_error@detail@asio@boost@@YAXAEBVerror_code@system@3@@Z 0000000180046f40 f i server.obj
 0001:00045f70       ?run@io_context@asio@boost@@QEAA_KXZ 0000000180046f70 f i server.obj
 0001:00045fe0       ?decode@Percent@SimpleWeb@@SA?AV?$basic_string@DU?$char_traits@D@std@@V?$allocator@D@2@@std@@AEBV34@@Z 0000000180046fe0 f i server.obj
 0001:00046240       ?parse@QueryString@SimpleWeb@@SA?AV?$unordered_multimap@V?$basic_string@DU?$char_traits@D@std@@V?$allocator@D@2@@std@@V12@VCaseInsensitiveHash@SimpleWeb@@VCaseInsensitiveEqual@4@V?$allocator@U?$pair@$$CBV?$basic_string@DU?$char_traits@D@std@@V?$allocator@D@2@@std@@V12@@std@@@2@@std@@AEBV?$basic_string@DU?$char_traits@D@std@@V?$allocator@D@2@@4@@Z 0000000180047240 f i server.obj
 0001:00046a30       ??1?$Server@V?$basic_stream_socket@Vtcp@ip@asio@boost@@Vany_io_executor@34@@asio@boost@@@SimpleWeb@@UEAA@XZ 0000000180047a30 f i server.obj
 0001:00046a40       ?_Destroy@?$_Ref_count@UConnections@?$ServerBase@V?$basic_stream_socket@Vtcp@ip@asio@boost@@Vany_io_executor@34@@asio@boost@@@SimpleWeb@@@std@@EEAAXXZ 0000000180047a40 f i server.obj
 0001:00046a80       ??1?$_Hash@V?$_Uset_traits@PEAVConnection@?$ServerBase@V?$basic_stream_socket@Vtcp@ip@asio@boost@@Vany_io_executor@34@@asio@boost@@@SimpleWeb@@V?$_Uhash_compare@PEAVConnection@?$ServerBase@V?$basic_stream_socket@Vtcp@ip@asio@boost@@Vany_io_executor@34@@asio@boost@@@SimpleWeb@@U?$hash@PEAVConnection@?$ServerBase@V?$basic_stream_socket@Vtcp@ip@asio@boost@@Vany_io_executor@34@@asio@boost@@@SimpleWeb@@@std@@U?$equal_to@PEAVConnection@?$ServerBase@V?$basic_stream_socket@Vtcp@ip@asio@boost@@Vany_io_executor@34@@asio@boost@@@SimpleWeb@@@5@@std@@V?$allocator@PEAVConnection@?$ServerBase@V?$basic_stream_socket@Vtcp@ip@asio@boost@@Vany_io_executor@34@@asio@boost@@@SimpleWeb@@@5@$0A@@std@@@std@@QEAA@XZ 0000000180047a80 f i server.obj
 0001:00046b30       ?_Destroy@?$_Ref_count@VScopeRunner@SimpleWeb@@@std@@EEAAXXZ 0000000180047b30 f i server.obj
 0001:00046b40       ??0?$ServerBase@V?$basic_stream_socket@Vtcp@ip@asio@boost@@Vany_io_executor@34@@asio@boost@@@SimpleWeb@@IEAA@G@Z 0000000180047b40 f i server.obj
 0001:00046d80       ??_G?$Server@V?$basic_stream_socket@Vtcp@ip@asio@boost@@Vany_io_executor@34@@asio@boost@@@SimpleWeb@@UEAAPEAXI@Z 0000000180047d80 f i server.obj
 0001:00046d80       ??_E?$ServerBase@V?$basic_stream_socket@Vtcp@ip@asio@boost@@Vany_io_executor@34@@asio@boost@@@SimpleWeb@@UEAAPEAXI@Z 0000000180047d80 f i * CIL library *:* CIL module *
 0001:00046d80       ??_G?$ServerBase@V?$basic_stream_socket@Vtcp@ip@asio@boost@@Vany_io_executor@34@@asio@boost@@@SimpleWeb@@UEAAPEAXI@Z 0000000180047d80 f i server.obj
 0001:00046d80       ??_E?$Server@V?$basic_stream_socket@Vtcp@ip@asio@boost@@Vany_io_executor@34@@asio@boost@@@SimpleWeb@@UEAAPEAXI@Z 0000000180047d80 f i * CIL library *:* CIL module *
 0001:00046dc0       ??1?$regex_traits@D@std@@QEAA@XZ 0000000180047dc0 f i server.obj
 0001:00046df0       ?_Tidy@?$basic_regex@DV?$regex_traits@D@std@@@std@@AEAAXXZ 0000000180047df0 f i server.obj
 0001:00046e70       ??1?$basic_regex@DV?$regex_traits@D@std@@@std@@QEAA@XZ 0000000180047e70 f i server.obj
 0001:00046eb0       ??1regex_orderable@?$ServerBase@V?$basic_stream_socket@Vtcp@ip@asio@boost@@Vany_io_executor@34@@asio@boost@@@SimpleWeb@@QEAA@XZ 0000000180047eb0 f i server.obj
 0001:00046f40       ??$_Erase_tree@V?$allocator@U?$_Tree_node@U?$pair@$$CBVregex_orderable@?$ServerBase@V?$basic_stream_socket@Vtcp@ip@asio@boost@@Vany_io_executor@34@@asio@boost@@@SimpleWeb@@V?$map@V?$basic_string@DU?$char_traits@D@std@@V?$allocator@D@2@@std@@V?$function@$$A6AXV?$shared_ptr@VResponse@?$ServerBase@V?$basic_stream_socket@Vtcp@ip@asio@boost@@Vany_io_executor@34@@asio@boost@@@SimpleWeb@@@std@@V?$shared_ptr@VRequest@?$ServerBase@V?$basic_stream_socket@Vtcp@ip@asio@boost@@Vany_io_executor@34@@asio@boost@@@SimpleWeb@@@2@@Z@2@U?$less@V?$basic_string@DU?$char_traits@D@std@@V?$allocator@D@2@@std@@@2@V?$allocator@U?$pair@$$CBV?$basic_string@DU?$char_traits@D@std@@V?$allocator@D@2@@std@@V?$function@$$A6AXV?$shared_ptr@VResponse@?$ServerBase@V?$basic_stream_socket@Vtcp@ip@asio@boost@@Vany_io_executor@34@@asio@boost@@@SimpleWeb@@@std@@V?$shared_ptr@VRequest@?$ServerBase@V?$basic_stream_socket@Vtcp@ip@asio@boost@@Vany_io_executor@34@@asio@boost@@@SimpleWeb@@@2@@Z@2@@std@@@2@@std@@@std@@PEAX@std@@@std@@@?$_Tree_val@U?$_Tree_simple_types@U?$pair@$$CBVregex_orderable@?$ServerBase@V?$basic_stream_socket@Vtcp@ip@asio@boost@@Vany_io_executor@34@@asio@boost@@@SimpleWeb@@V?$map@V?$basic_string@DU?$char_traits@D@std@@V?$allocator@D@2@@std@@V?$function@$$A6AXV?$shared_ptr@VResponse@?$ServerBase@V?$basic_stream_socket@Vtcp@ip@asio@boost@@Vany_io_executor@34@@asio@boost@@@SimpleWeb@@@std@@V?$shared_ptr@VRequest@?$ServerBase@V?$basic_stream_socket@Vtcp@ip@asio@boost@@Vany_io_executor@34@@asio@boost@@@SimpleWeb@@@2@@Z@2@U?$less@V?$basic_string@DU?$char_traits@D@std@@V?$allocator@D@2@@std@@@2@V?$allocator@U?$pair@$$CBV?$basic_string@DU?$char_traits@D@std@@V?$allocator@D@2@@std@@V?$function@$$A6AXV?$shared_ptr@VResponse@?$ServerBase@V?$basic_stream_socket@Vtcp@ip@asio@boost@@Vany_io_executor@34@@asio@boost@@@SimpleWeb@@@std@@V?$shared_ptr@VRequest@?$ServerBase@V?$basic_stream_socket@Vtcp@ip@asio@boost@@Vany_io_executor@34@@asio@boost@@@SimpleWeb@@@2@@Z@2@@std@@@2@@std@@@std@@@std@@@std@@QEAAXAEAV?$allocator@U?$_Tree_node@U?$pair@$$CBVregex_orderable@?$ServerBase@V?$basic_stream_socket@Vtcp@ip@asio@boost@@Vany_io_executor@34@@asio@boost@@@SimpleWeb@@V?$map@V?$basic_string@DU?$char_traits@D@std@@V?$allocator@D@2@@std@@V?$function@$$A6AXV?$shared_ptr@VResponse@?$ServerBase@V?$basic_stream_socket@Vtcp@ip@asio@boost@@Vany_io_executor@34@@asio@boost@@@SimpleWeb@@@std@@V?$shared_ptr@VRequest@?$ServerBase@V?$basic_stream_socket@Vtcp@ip@asio@boost@@Vany_io_executor@34@@asio@boost@@@SimpleWeb@@@2@@Z@2@U?$less@V?$basic_string@DU?$char_traits@D@std@@V?$allocator@D@2@@std@@@2@V?$allocator@U?$pair@$$CBV?$basic_string@DU?$char_traits@D@std@@V?$allocator@D@2@@std@@V?$function@$$A6AXV?$shared_ptr@VResponse@?$ServerBase@V?$basic_stream_socket@Vtcp@ip@asio@boost@@Vany_io_executor@34@@asio@boost@@@SimpleWeb@@@std@@V?$shared_ptr@VRequest@?$ServerBase@V?$basic_stream_socket@Vtcp@ip@asio@boost@@Vany_io_executor@34@@asio@boost@@@SimpleWeb@@@2@@Z@2@@std@@@2@@std@@@std@@PEAX@std@@@1@PEAU?$_Tree_node@U?$pair@$$CBVregex_orderable@?$ServerBase@V?$basic_stream_socket@Vtcp@ip@asio@boost@@Vany_io_executor@34@@asio@boost@@@SimpleWeb@@V?$map@V?$basic_string@DU?$char_traits@D@std@@V?$allocator@D@2@@std@@V?$function@$$A6AXV?$shared_ptr@VResponse@?$ServerBase@V?$basic_stream_socket@Vtcp@ip@asio@boost@@Vany_io_executor@34@@asio@boost@@@SimpleWeb@@@std@@V?$shared_ptr@VRequest@?$ServerBase@V?$basic_stream_socket@Vtcp@ip@asio@boost@@Vany_io_executor@34@@asio@boost@@@SimpleWeb@@@2@@Z@2@U?$less@V?$basic_string@DU?$char_traits@D@std@@V?$allocator@D@2@@std@@@2@V?$allocator@U?$pair@$$CBV?$basic_string@DU?$char_traits@D@std@@V?$allocator@D@2@@std@@V?$function@$$A6AXV?$shared_ptr@VResponse@?$ServerBase@V?$basic_stream_socket@Vtcp@ip@asio@boost@@Vany_io_executor@34@@asio@boost@@@SimpleWeb@@@std@@V?$shared_ptr@VRequest@?$ServerBase@V?$basic_stream_socket@Vtcp@ip@asio@boost@@Vany_io_executor@34@@asio@boost@@@SimpleWeb@@@2@@Z@2@@std@@@2@@std@@@std@@PEAX@1@@Z 0000000180047f40 f i server.obj
 0001:00046fe0       ??$_Erase_tree@V?$allocator@U?$_Tree_node@U?$pair@$$CBV?$basic_string@DU?$char_traits@D@std@@V?$allocator@D@2@@std@@V?$function@$$A6AXV?$shared_ptr@VResponse@?$ServerBase@V?$basic_stream_socket@Vtcp@ip@asio@boost@@Vany_io_executor@34@@asio@boost@@@SimpleWeb@@@std@@V?$shared_ptr@VRequest@?$ServerBase@V?$basic_stream_socket@Vtcp@ip@asio@boost@@Vany_io_executor@34@@asio@boost@@@SimpleWeb@@@2@@Z@2@@std@@PEAX@std@@@std@@@?$_Tree_val@U?$_Tree_simple_types@U?$pair@$$CBV?$basic_string@DU?$char_traits@D@std@@V?$allocator@D@2@@std@@V?$function@$$A6AXV?$shared_ptr@VResponse@?$ServerBase@V?$basic_stream_socket@Vtcp@ip@asio@boost@@Vany_io_executor@34@@asio@boost@@@SimpleWeb@@@std@@V?$shared_ptr@VRequest@?$ServerBase@V?$basic_stream_socket@Vtcp@ip@asio@boost@@Vany_io_executor@34@@asio@boost@@@SimpleWeb@@@2@@Z@2@@std@@@std@@@std@@QEAAXAEAV?$allocator@U?$_Tree_node@U?$pair@$$CBV?$basic_string@DU?$char_traits@D@std@@V?$allocator@D@2@@std@@V?$function@$$A6AXV?$shared_ptr@VResponse@?$ServerBase@V?$basic_stream_socket@Vtcp@ip@asio@boost@@Vany_io_executor@34@@asio@boost@@@SimpleWeb@@@std@@V?$shared_ptr@VRequest@?$ServerBase@V?$basic_stream_socket@Vtcp@ip@asio@boost@@Vany_io_executor@34@@asio@boost@@@SimpleWeb@@@2@@Z@2@@std@@PEAX@std@@@1@PEAU?$_Tree_node@U?$pair@$$CBV?$basic_string@DU?$char_traits@D@std@@V?$allocator@D@2@@std@@V?$function@$$A6AXV?$shared_ptr@VResponse@?$ServerBase@V?$basic_stream_socket@Vtcp@ip@asio@boost@@Vany_io_executor@34@@asio@boost@@@SimpleWeb@@@std@@V?$shared_ptr@VRequest@?$ServerBase@V?$basic_stream_socket@Vtcp@ip@asio@boost@@Vany_io_executor@34@@asio@boost@@@SimpleWeb@@@2@@Z@2@@std@@PEAX@1@@Z 0000000180047fe0 f i server.obj
 0001:000470c0       ??$_Destroy_range@V?$allocator@Vthread@std@@@std@@@std@@YAXPEAVthread@0@QEAV10@AEAV?$allocator@Vthread@std@@@0@@Z 00000001800480c0 f i server.obj
 0001:000470f0       ??1?$vector@Vthread@std@@V?$allocator@Vthread@std@@@2@@std@@QEAA@XZ 00000001800480f0 f i server.obj
 0001:00047170       ?stop@?$ServerBase@V?$basic_stream_socket@Vtcp@ip@asio@boost@@Vany_io_executor@34@@asio@boost@@@SimpleWeb@@QEAAXXZ 0000000180048170 f i server.obj
 0001:00047310       ??1?$ServerBase@V?$basic_stream_socket@Vtcp@ip@asio@boost@@Vany_io_executor@34@@asio@boost@@@SimpleWeb@@UEAA@XZ 0000000180048310 f i server.obj
 0001:00047510       ??1?$_Temporary_owner_del@PEAVConnection@?$ServerBase@V?$basic_stream_socket@Vtcp@ip@asio@boost@@Vany_io_executor@34@@asio@boost@@@SimpleWeb@@V<lambda_1>@?1???$create_connection@AEAVio_context@asio@boost@@@23@IEAA?AV?$shared_ptr@VConnection@?$ServerBase@V?$basic_stream_socket@Vtcp@ip@asio@boost@@Vany_io_executor@34@@asio@boost@@@SimpleWeb@@@std@@AEAVio_context@asio@boost@@@Z@@std@@QEAA@XZ 0000000180048510 f i server.obj
 0001:00047530       ??R<lambda_1>@?1???$create_connection@AEAVio_context@asio@boost@@@?$ServerBase@V?$basic_stream_socket@Vtcp@ip@asio@boost@@Vany_io_executor@34@@asio@boost@@@SimpleWeb@@IEAA?AV?$shared_ptr@VConnection@?$ServerBase@V?$basic_stream_socket@Vtcp@ip@asio@boost@@Vany_io_executor@34@@asio@boost@@@SimpleWeb@@@std@@AEAVio_context@asio@boost@@@Z@QEBA@PEAVConnection@12@@Z 0000000180048530 f i server.obj
 0001:00047720       ?_Destroy@?$_Ref_count_resource@PEAVConnection@?$ServerBase@V?$basic_stream_socket@Vtcp@ip@asio@boost@@Vany_io_executor@34@@asio@boost@@@SimpleWeb@@V<lambda_1>@?1???$create_connection@AEAVio_context@asio@boost@@@23@IEAA?AV?$shared_ptr@VConnection@?$ServerBase@V?$basic_stream_socket@Vtcp@ip@asio@boost@@Vany_io_executor@34@@asio@boost@@@SimpleWeb@@@std@@AEAVio_context@asio@boost@@@Z@@std@@EEAAXXZ 0000000180048720 f i server.obj
 0001:00047740       ??_G?$_Ref_count_resource@PEAVConnection@?$ServerBase@V?$basic_stream_socket@Vtcp@ip@asio@boost@@Vany_io_executor@34@@asio@boost@@@SimpleWeb@@V<lambda_1>@?1???$create_connection@AEAVio_context@asio@boost@@@23@IEAA?AV?$shared_ptr@VConnection@?$ServerBase@V?$basic_stream_socket@Vtcp@ip@asio@boost@@Vany_io_executor@34@@asio@boost@@@SimpleWeb@@@std@@AEAVio_context@asio@boost@@@Z@@std@@UEAAPEAXI@Z 0000000180048740 f i server.obj
 0001:00047740       ??_E?$_Ref_count_resource@PEAVConnection@?$ServerBase@V?$basic_stream_socket@Vtcp@ip@asio@boost@@Vany_io_executor@34@@asio@boost@@@SimpleWeb@@V<lambda_1>@?1???$create_connection@AEAVio_context@asio@boost@@@23@IEAA?AV?$shared_ptr@VConnection@?$ServerBase@V?$basic_stream_socket@Vtcp@ip@asio@boost@@Vany_io_executor@34@@asio@boost@@@SimpleWeb@@@std@@AEAVio_context@asio@boost@@@Z@@std@@UEAAPEAXI@Z 0000000180048740 f i * CIL library *:* CIL module *
 0001:000477c0       ?_Get_deleter@?$_Ref_count_resource@PEAVConnection@?$ServerBase@V?$basic_stream_socket@Vtcp@ip@asio@boost@@Vany_io_executor@34@@asio@boost@@@SimpleWeb@@V<lambda_1>@?1???$create_connection@AEAVio_context@asio@boost@@@23@IEAA?AV?$shared_ptr@VConnection@?$ServerBase@V?$basic_stream_socket@Vtcp@ip@asio@boost@@Vany_io_executor@34@@asio@boost@@@SimpleWeb@@@std@@AEAVio_context@asio@boost@@@Z@@std@@UEBAPEAXAEBVtype_info@@@Z 00000001800487c0 f i server.obj
 0001:000477f0       ??$_Setpd@PEAVConnection@?$ServerBase@V?$basic_stream_socket@Vtcp@ip@asio@boost@@Vany_io_executor@34@@asio@boost@@@SimpleWeb@@V<lambda_1>@?1???$create_connection@AEAVio_context@asio@boost@@@23@IEAA?AV?$shared_ptr@VConnection@?$ServerBase@V?$basic_stream_socket@Vtcp@ip@asio@boost@@Vany_io_executor@34@@asio@boost@@@SimpleWeb@@@std@@AEAVio_context@asio@boost@@@Z@@?$shared_ptr@VConnection@?$ServerBase@V?$basic_stream_socket@Vtcp@ip@asio@boost@@Vany_io_executor@34@@asio@boost@@@SimpleWeb@@@std@@AEAAXQEAVConnection@?$ServerBase@V?$basic_stream_socket@Vtcp@ip@asio@boost@@Vany_io_executor@34@@asio@boost@@@SimpleWeb@@V<lambda_1>@?1???$create_connection@AEAVio_context@asio@boost@@@34@IEAA?AV01@AEAVio_context@asio@boost@@@Z@@Z 00000001800487f0 f i server.obj
 0001:00047990       ??$init_key@V?$win_iocp_socket_service@Vtcp@ip@asio@boost@@@detail@asio@boost@@@service_registry@detail@asio@boost@@CAXAEAUkey@service@execution_context@23@ZZ 0000000180048990 f i server.obj
 0001:000479c0       ??_E?$execution_context_service_base@V?$win_iocp_socket_service@Vtcp@ip@asio@boost@@@detail@asio@boost@@@detail@asio@boost@@UEAAPEAXI@Z 00000001800489c0 f i * CIL library *:* CIL module *
 0001:000479c0       ??_Eservice@execution_context@asio@boost@@MEAAPEAXI@Z 00000001800489c0 f i * CIL library *:* CIL module *
 0001:000479c0       ??_G?$execution_context_service_base@V?$win_iocp_socket_service@Vtcp@ip@asio@boost@@@detail@asio@boost@@@detail@asio@boost@@UEAAPEAXI@Z 00000001800489c0 f i server.obj
 0001:000479c0       ??_Gservice@execution_context@asio@boost@@MEAAPEAXI@Z 00000001800489c0 f i server.obj
 0001:000479f0       ??1?$execution_context_service_base@V?$win_iocp_socket_service@Vtcp@ip@asio@boost@@@detail@asio@boost@@@detail@asio@boost@@UEAA@XZ 00000001800489f0 f i server.obj
 0001:000479f0       ??1?$execution_context_service_base@V?$deadline_timer_service@U?$chrono_time_traits@Usteady_clock@chrono@std@@U?$wait_traits@Usteady_clock@chrono@std@@@asio@boost@@@detail@asio@boost@@@detail@asio@boost@@@detail@asio@boost@@UEAA@XZ 00000001800489f0 f i server.obj
 0001:000479f0       ??1?$execution_context_service_base@Vwin_iocp_io_context@detail@asio@boost@@@detail@asio@boost@@UEAA@XZ 00000001800489f0 f i server.obj
 0001:00047a00       ??_E?$win_iocp_socket_service@Vtcp@ip@asio@boost@@@detail@asio@boost@@UEAAPEAXI@Z 0000000180048a00 f i * CIL library *:* CIL module *
 0001:00047a00       ??_G?$win_iocp_socket_service@Vtcp@ip@asio@boost@@@detail@asio@boost@@UEAAPEAXI@Z 0000000180048a00 f i server.obj
 0001:00047a50       ?shutdown@?$win_iocp_socket_service@Vtcp@ip@asio@boost@@@detail@asio@boost@@UEAAXXZ 0000000180048a50 f i server.obj
 0001:00047ab0       ??$create@V?$win_iocp_socket_service@Vtcp@ip@asio@boost@@@detail@asio@boost@@Vio_context@34@@service_registry@detail@asio@boost@@CAPEAVservice@execution_context@23@PEAX@Z 0000000180048ab0 f i server.obj
 0001:00047b80       ??$target_type_ex@V?$basic_executor_type@V?$allocator@X@std@@$0A@@io_context@asio@boost@@@any_executor_base@detail@execution@asio@boost@@KAAEBVtype_info@@XZ 0000000180048b80 f i server.obj
 0001:00047b90       ??$equal_ex@V?$basic_executor_type@V?$allocator@X@std@@$0A@@io_context@asio@boost@@@any_executor_base@detail@execution@asio@boost@@KA_NAEBV01234@0@Z 0000000180048b90 f i server.obj
 0001:00047b90       ??$equal_ex@V?$basic_executor_type@V?$allocator@X@std@@$03@io_context@asio@boost@@@any_executor_base@detail@execution@asio@boost@@KA_NAEBV01234@0@Z 0000000180048b90 f i server.obj
 0001:00047bb0       ??$execute@Vexecutor_function@detail@asio@boost@@@?$basic_executor_type@V?$allocator@X@std@@$03@io_context@asio@boost@@AEBAX$$QEAVexecutor_function@detail@23@@Z 0000000180048bb0 f i server.obj
 0001:00047bb0       ??$execute@Vexecutor_function@detail@asio@boost@@@?$basic_executor_type@V?$allocator@X@std@@$0A@@io_context@asio@boost@@AEBAX$$QEAVexecutor_function@detail@23@@Z 0000000180048bb0 f i server.obj
 0001:00047d00       ??$execute_ex@V?$basic_executor_type@V?$allocator@X@std@@$03@io_context@asio@boost@@@any_executor_base@detail@execution@asio@boost@@KAXAEBV01234@$$QEAVexecutor_function@134@@Z 0000000180048d00 f i server.obj
 0001:00047d00       ??$execute_ex@V?$basic_executor_type@V?$allocator@X@std@@$0A@@io_context@asio@boost@@@any_executor_base@detail@execution@asio@boost@@KAXAEBV01234@$$QEAVexecutor_function@134@@Z 0000000180048d00 f i server.obj
 0001:00047d10       ??$move_object@V?$basic_executor_type@V?$allocator@X@std@@$0A@@io_context@asio@boost@@@any_executor_base@detail@execution@asio@boost@@KAXAEAV01234@0@Z 0000000180048d10 f i server.obj
 0001:00047d10       ??$copy_object@V?$basic_executor_type@V?$allocator@X@std@@$0A@@io_context@asio@boost@@@any_executor_base@detail@execution@asio@boost@@KAXAEAV01234@AEBV01234@@Z 0000000180048d10 f i server.obj
 0001:00047d20       ??$query_fn@V?$basic_executor_type@V?$allocator@X@std@@$03@io_context@asio@boost@@U?$context_as_t@AEAVexecution_context@asio@boost@@@execution@34@@any_executor_base@detail@execution@asio@boost@@KAXPEAXPEBX1@Z 0000000180048d20 f i server.obj
 0001:00047d20       ??$query_fn@V?$basic_executor_type@V?$allocator@X@std@@$0A@@io_context@asio@boost@@U?$context_as_t@AEAVexecution_context@asio@boost@@@execution@34@@any_executor_base@detail@execution@asio@boost@@KAXPEAXPEBX1@Z 0000000180048d20 f i server.obj
 0001:00047d30       ??$require_fn_impl@V?$any_executor@U?$context_as_t@AEAVexecution_context@asio@boost@@@execution@asio@boost@@U?$never_t@$0A@@blocking@detail@234@U?$prefer_only@U?$possibly_t@$0A@@blocking@detail@execution@asio@boost@@@234@U?$prefer_only@U?$tracked_t@$0A@@outstanding_work@detail@execution@asio@boost@@@234@U?$prefer_only@U?$untracked_t@$0A@@outstanding_work@detail@execution@asio@boost@@@234@U?$prefer_only@U?$fork_t@$0A@@relationship@detail@execution@asio@boost@@@234@U?$prefer_only@U?$continuation_t@$0A@@relationship@detail@execution@asio@boost@@@234@@execution@asio@boost@@V?$basic_executor_type@V?$allocator@X@std@@$03@io_context@34@U?$context_as_t@AEAVexecution_context@asio@boost@@@234@@any_executor_base@detail@execution@asio@boost@@KA?AV?$any_executor@U?$context_as_t@AEAVexecution_context@asio@boost@@@execution@asio@boost@@U?$never_t@$0A@@blocking@detail@234@U?$prefer_only@U?$possibly_t@$0A@@blocking@detail@execution@asio@boost@@@234@U?$prefer_only@U?$tracked_t@$0A@@outstanding_work@detail@execution@asio@boost@@@234@U?$prefer_only@U?$untracked_t@$0A@@outstanding_work@detail@execution@asio@boost@@@234@U?$prefer_only@U?$fork_t@$0A@@relationship@detail@execution@asio@boost@@@234@U?$prefer_only@U?$continuation_t@$0A@@relationship@detail@execution@asio@boost@@@234@@234@PEBX0ZZ 0000000180048d30 f i server.obj
 0001:00047d30       ??$require_fn_impl@V?$any_executor@U?$context_as_t@AEAVexecution_context@asio@boost@@@execution@asio@boost@@U?$never_t@$0A@@blocking@detail@234@U?$prefer_only@U?$possibly_t@$0A@@blocking@detail@execution@asio@boost@@@234@U?$prefer_only@U?$tracked_t@$0A@@outstanding_work@detail@execution@asio@boost@@@234@U?$prefer_only@U?$untracked_t@$0A@@outstanding_work@detail@execution@asio@boost@@@234@U?$prefer_only@U?$fork_t@$0A@@relationship@detail@execution@asio@boost@@@234@U?$prefer_only@U?$continuation_t@$0A@@relationship@detail@execution@asio@boost@@@234@@execution@asio@boost@@V?$basic_executor_type@V?$allocator@X@std@@$03@io_context@34@U?$prefer_only@U?$fork_t@$0A@@relationship@detail@execution@asio@boost@@@234@@any_executor_base@detail@execution@asio@boost@@KA?AV?$any_executor@U?$context_as_t@AEAVexecution_context@asio@boost@@@execution@asio@boost@@U?$never_t@$0A@@blocking@detail@234@U?$prefer_only@U?$possibly_t@$0A@@blocking@detail@execution@asio@boost@@@234@U?$prefer_only@U?$tracked_t@$0A@@outstanding_work@detail@execution@asio@boost@@@234@U?$prefer_only@U?$untracked_t@$0A@@outstanding_work@detail@execution@asio@boost@@@234@U?$prefer_only@U?$fork_t@$0A@@relationship@detail@execution@asio@boost@@@234@U?$prefer_only@U?$continuation_t@$0A@@relationship@detail@execution@asio@boost@@@234@@234@PEBX0ZZ 0000000180048d30 f i server.obj
 0001:00047d30       ??$require_fn_impl@V?$any_executor@U?$context_as_t@AEAVexecution_context@asio@boost@@@execution@asio@boost@@U?$never_t@$0A@@blocking@detail@234@U?$prefer_only@U?$possibly_t@$0A@@blocking@detail@execution@asio@boost@@@234@U?$prefer_only@U?$tracked_t@$0A@@outstanding_work@detail@execution@asio@boost@@@234@U?$prefer_only@U?$untracked_t@$0A@@outstanding_work@detail@execution@asio@boost@@@234@U?$prefer_only@U?$fork_t@$0A@@relationship@detail@execution@asio@boost@@@234@U?$prefer_only@U?$continuation_t@$0A@@relationship@detail@execution@asio@boost@@@234@@execution@asio@boost@@V?$basic_executor_type@V?$allocator@X@std@@$0A@@io_context@34@U?$prefer_only@U?$continuation_t@$0A@@relationship@detail@execution@asio@boost@@@234@@any_executor_base@detail@execution@asio@boost@@KA?AV?$any_executor@U?$context_as_t@AEAVexecution_context@asio@boost@@@execution@asio@boost@@U?$never_t@$0A@@blocking@detail@234@U?$prefer_only@U?$possibly_t@$0A@@blocking@detail@execution@asio@boost@@@234@U?$prefer_only@U?$tracked_t@$0A@@outstanding_work@detail@execution@asio@boost@@@234@U?$prefer_only@U?$untracked_t@$0A@@outstanding_work@detail@execution@asio@boost@@@234@U?$prefer_only@U?$fork_t@$0A@@relationship@detail@execution@asio@boost@@@234@U?$prefer_only@U?$continuation_t@$0A@@relationship@detail@execution@asio@boost@@@234@@234@PEBX0ZZ 0000000180048d30 f i server.obj
 0001:00047d30       ??$require_fn_impl@V?$any_executor@U?$context_as_t@AEAVexecution_context@asio@boost@@@execution@asio@boost@@U?$never_t@$0A@@blocking@detail@234@U?$prefer_only@U?$possibly_t@$0A@@blocking@detail@execution@asio@boost@@@234@U?$prefer_only@U?$tracked_t@$0A@@outstanding_work@detail@execution@asio@boost@@@234@U?$prefer_only@U?$untracked_t@$0A@@outstanding_work@detail@execution@asio@boost@@@234@U?$prefer_only@U?$fork_t@$0A@@relationship@detail@execution@asio@boost@@@234@U?$prefer_only@U?$continuation_t@$0A@@relationship@detail@execution@asio@boost@@@234@@execution@asio@boost@@V?$basic_executor_type@V?$allocator@X@std@@$0A@@io_context@34@U?$prefer_only@U?$fork_t@$0A@@relationship@detail@execution@asio@boost@@@234@@any_executor_base@detail@execution@asio@boost@@KA?AV?$any_executor@U?$context_as_t@AEAVexecution_context@asio@boost@@@execution@asio@boost@@U?$never_t@$0A@@blocking@detail@234@U?$prefer_only@U?$possibly_t@$0A@@blocking@detail@execution@asio@boost@@@234@U?$prefer_only@U?$tracked_t@$0A@@outstanding_work@detail@execution@asio@boost@@@234@U?$prefer_only@U?$untracked_t@$0A@@outstanding_work@detail@execution@asio@boost@@@234@U?$prefer_only@U?$fork_t@$0A@@relationship@detail@execution@asio@boost@@@234@U?$prefer_only@U?$continuation_t@$0A@@relationship@detail@execution@asio@boost@@@234@@234@PEBX0ZZ 0000000180048d30 f i server.obj
 0001:00047d30       ??$require_fn_impl@V?$any_executor@U?$context_as_t@AEAVexecution_context@asio@boost@@@execution@asio@boost@@U?$never_t@$0A@@blocking@detail@234@U?$prefer_only@U?$possibly_t@$0A@@blocking@detail@execution@asio@boost@@@234@U?$prefer_only@U?$tracked_t@$0A@@outstanding_work@detail@execution@asio@boost@@@234@U?$prefer_only@U?$untracked_t@$0A@@outstanding_work@detail@execution@asio@boost@@@234@U?$prefer_only@U?$fork_t@$0A@@relationship@detail@execution@asio@boost@@@234@U?$prefer_only@U?$continuation_t@$0A@@relationship@detail@execution@asio@boost@@@234@@execution@asio@boost@@V?$basic_executor_type@V?$allocator@X@std@@$0A@@io_context@34@U?$context_as_t@AEAVexecution_context@asio@boost@@@234@@any_executor_base@detail@execution@asio@boost@@KA?AV?$any_executor@U?$context_as_t@AEAVexecution_context@asio@boost@@@execution@asio@boost@@U?$never_t@$0A@@blocking@detail@234@U?$prefer_only@U?$possibly_t@$0A@@blocking@detail@execution@asio@boost@@@234@U?$prefer_only@U?$tracked_t@$0A@@outstanding_work@detail@execution@asio@boost@@@234@U?$prefer_only@U?$untracked_t@$0A@@outstanding_work@detail@execution@asio@boost@@@234@U?$prefer_only@U?$fork_t@$0A@@relationship@detail@execution@asio@boost@@@234@U?$prefer_only@U?$continuation_t@$0A@@relationship@detail@execution@asio@boost@@@234@@234@PEBX0ZZ 0000000180048d30 f i server.obj
 0001:00047d30       ??$require_fn_impl@V?$any_executor@U?$context_as_t@AEAVexecution_context@asio@boost@@@execution@asio@boost@@U?$never_t@$0A@@blocking@detail@234@U?$prefer_only@U?$possibly_t@$0A@@blocking@detail@execution@asio@boost@@@234@U?$prefer_only@U?$tracked_t@$0A@@outstanding_work@detail@execution@asio@boost@@@234@U?$prefer_only@U?$untracked_t@$0A@@outstanding_work@detail@execution@asio@boost@@@234@U?$prefer_only@U?$fork_t@$0A@@relationship@detail@execution@asio@boost@@@234@U?$prefer_only@U?$continuation_t@$0A@@relationship@detail@execution@asio@boost@@@234@@execution@asio@boost@@V?$basic_executor_type@V?$allocator@X@std@@$03@io_context@34@U?$prefer_only@U?$tracked_t@$0A@@outstanding_work@detail@execution@asio@boost@@@234@@any_executor_base@detail@execution@asio@boost@@KA?AV?$any_executor@U?$context_as_t@AEAVexecution_context@asio@boost@@@execution@asio@boost@@U?$never_t@$0A@@blocking@detail@234@U?$prefer_only@U?$possibly_t@$0A@@blocking@detail@execution@asio@boost@@@234@U?$prefer_only@U?$tracked_t@$0A@@outstanding_work@detail@execution@asio@boost@@@234@U?$prefer_only@U?$untracked_t@$0A@@outstanding_work@detail@execution@asio@boost@@@234@U?$prefer_only@U?$fork_t@$0A@@relationship@detail@execution@asio@boost@@@234@U?$prefer_only@U?$continuation_t@$0A@@relationship@detail@execution@asio@boost@@@234@@234@PEBX0ZZ 0000000180048d30 f i server.obj
 0001:00047d30       ??$require_fn_impl@V?$any_executor@U?$context_as_t@AEAVexecution_context@asio@boost@@@execution@asio@boost@@U?$never_t@$0A@@blocking@detail@234@U?$prefer_only@U?$possibly_t@$0A@@blocking@detail@execution@asio@boost@@@234@U?$prefer_only@U?$tracked_t@$0A@@outstanding_work@detail@execution@asio@boost@@@234@U?$prefer_only@U?$untracked_t@$0A@@outstanding_work@detail@execution@asio@boost@@@234@U?$prefer_only@U?$fork_t@$0A@@relationship@detail@execution@asio@boost@@@234@U?$prefer_only@U?$continuation_t@$0A@@relationship@detail@execution@asio@boost@@@234@@execution@asio@boost@@V?$basic_executor_type@V?$allocator@X@std@@$0A@@io_context@34@U?$prefer_only@U?$tracked_t@$0A@@outstanding_work@detail@execution@asio@boost@@@234@@any_executor_base@detail@execution@asio@boost@@KA?AV?$any_executor@U?$context_as_t@AEAVexecution_context@asio@boost@@@execution@asio@boost@@U?$never_t@$0A@@blocking@detail@234@U?$prefer_only@U?$possibly_t@$0A@@blocking@detail@execution@asio@boost@@@234@U?$prefer_only@U?$tracked_t@$0A@@outstanding_work@detail@execution@asio@boost@@@234@U?$prefer_only@U?$untracked_t@$0A@@outstanding_work@detail@execution@asio@boost@@@234@U?$prefer_only@U?$fork_t@$0A@@relationship@detail@execution@asio@boost@@@234@U?$prefer_only@U?$continuation_t@$0A@@relationship@detail@execution@asio@boost@@@234@@234@PEBX0ZZ 0000000180048d30 f i server.obj
 0001:00047d30       ??$require_fn_impl@V?$any_executor@U?$context_as_t@AEAVexecution_context@asio@boost@@@execution@asio@boost@@U?$never_t@$0A@@blocking@detail@234@U?$prefer_only@U?$possibly_t@$0A@@blocking@detail@execution@asio@boost@@@234@U?$prefer_only@U?$tracked_t@$0A@@outstanding_work@detail@execution@asio@boost@@@234@U?$prefer_only@U?$untracked_t@$0A@@outstanding_work@detail@execution@asio@boost@@@234@U?$prefer_only@U?$fork_t@$0A@@relationship@detail@execution@asio@boost@@@234@U?$prefer_only@U?$continuation_t@$0A@@relationship@detail@execution@asio@boost@@@234@@execution@asio@boost@@V?$basic_executor_type@V?$allocator@X@std@@$03@io_context@34@U?$prefer_only@U?$possibly_t@$0A@@blocking@detail@execution@asio@boost@@@234@@any_executor_base@detail@execution@asio@boost@@KA?AV?$any_executor@U?$context_as_t@AEAVexecution_context@asio@boost@@@execution@asio@boost@@U?$never_t@$0A@@blocking@detail@234@U?$prefer_only@U?$possibly_t@$0A@@blocking@detail@execution@asio@boost@@@234@U?$prefer_only@U?$tracked_t@$0A@@outstanding_work@detail@execution@asio@boost@@@234@U?$prefer_only@U?$untracked_t@$0A@@outstanding_work@detail@execution@asio@boost@@@234@U?$prefer_only@U?$fork_t@$0A@@relationship@detail@execution@asio@boost@@@234@U?$prefer_only@U?$continuation_t@$0A@@relationship@detail@execution@asio@boost@@@234@@234@PEBX0ZZ 0000000180048d30 f i server.obj
 0001:00047d30       ??$require_fn_impl@V?$any_executor@U?$context_as_t@AEAVexecution_context@asio@boost@@@execution@asio@boost@@U?$never_t@$0A@@blocking@detail@234@U?$prefer_only@U?$possibly_t@$0A@@blocking@detail@execution@asio@boost@@@234@U?$prefer_only@U?$tracked_t@$0A@@outstanding_work@detail@execution@asio@boost@@@234@U?$prefer_only@U?$untracked_t@$0A@@outstanding_work@detail@execution@asio@boost@@@234@U?$prefer_only@U?$fork_t@$0A@@relationship@detail@execution@asio@boost@@@234@U?$prefer_only@U?$continuation_t@$0A@@relationship@detail@execution@asio@boost@@@234@@execution@asio@boost@@V?$basic_executor_type@V?$allocator@X@std@@$0A@@io_context@34@U?$prefer_only@U?$untracked_t@$0A@@outstanding_work@detail@execution@asio@boost@@@234@@any_executor_base@detail@execution@asio@boost@@KA?AV?$any_executor@U?$context_as_t@AEAVexecution_context@asio@boost@@@execution@asio@boost@@U?$never_t@$0A@@blocking@detail@234@U?$prefer_only@U?$possibly_t@$0A@@blocking@detail@execution@asio@boost@@@234@U?$prefer_only@U?$tracked_t@$0A@@outstanding_work@detail@execution@asio@boost@@@234@U?$prefer_only@U?$untracked_t@$0A@@outstanding_work@detail@execution@asio@boost@@@234@U?$prefer_only@U?$fork_t@$0A@@relationship@detail@execution@asio@boost@@@234@U?$prefer_only@U?$continuation_t@$0A@@relationship@detail@execution@asio@boost@@@234@@234@PEBX0ZZ 0000000180048d30 f i server.obj
 0001:00047d30       ??$require_fn_impl@V?$any_executor@U?$context_as_t@AEAVexecution_context@asio@boost@@@execution@asio@boost@@U?$never_t@$0A@@blocking@detail@234@U?$prefer_only@U?$possibly_t@$0A@@blocking@detail@execution@asio@boost@@@234@U?$prefer_only@U?$tracked_t@$0A@@outstanding_work@detail@execution@asio@boost@@@234@U?$prefer_only@U?$untracked_t@$0A@@outstanding_work@detail@execution@asio@boost@@@234@U?$prefer_only@U?$fork_t@$0A@@relationship@detail@execution@asio@boost@@@234@U?$prefer_only@U?$continuation_t@$0A@@relationship@detail@execution@asio@boost@@@234@@execution@asio@boost@@V?$basic_executor_type@V?$allocator@X@std@@$03@io_context@34@U?$prefer_only@U?$untracked_t@$0A@@outstanding_work@detail@execution@asio@boost@@@234@@any_executor_base@detail@execution@asio@boost@@KA?AV?$any_executor@U?$context_as_t@AEAVexecution_context@asio@boost@@@execution@asio@boost@@U?$never_t@$0A@@blocking@detail@234@U?$prefer_only@U?$possibly_t@$0A@@blocking@detail@execution@asio@boost@@@234@U?$prefer_only@U?$tracked_t@$0A@@outstanding_work@detail@execution@asio@boost@@@234@U?$prefer_only@U?$untracked_t@$0A@@outstanding_work@detail@execution@asio@boost@@@234@U?$prefer_only@U?$fork_t@$0A@@relationship@detail@execution@asio@boost@@@234@U?$prefer_only@U?$continuation_t@$0A@@relationship@detail@execution@asio@boost@@@234@@234@PEBX0ZZ 0000000180048d30 f i server.obj
 0001:00047d30       ??$prefer_fn_impl@V?$any_executor@U?$context_as_t@AEAVexecution_context@asio@boost@@@execution@asio@boost@@U?$never_t@$0A@@blocking@detail@234@U?$prefer_only@U?$possibly_t@$0A@@blocking@detail@execution@asio@boost@@@234@U?$prefer_only@U?$tracked_t@$0A@@outstanding_work@detail@execution@asio@boost@@@234@U?$prefer_only@U?$untracked_t@$0A@@outstanding_work@detail@execution@asio@boost@@@234@U?$prefer_only@U?$fork_t@$0A@@relationship@detail@execution@asio@boost@@@234@U?$prefer_only@U?$continuation_t@$0A@@relationship@detail@execution@asio@boost@@@234@@execution@asio@boost@@V?$basic_executor_type@V?$allocator@X@std@@$03@io_context@34@U?$context_as_t@AEAVexecution_context@asio@boost@@@234@@any_executor_base@detail@execution@asio@boost@@KA?AV?$any_executor@U?$context_as_t@AEAVexecution_context@asio@boost@@@execution@asio@boost@@U?$never_t@$0A@@blocking@detail@234@U?$prefer_only@U?$possibly_t@$0A@@blocking@detail@execution@asio@boost@@@234@U?$prefer_only@U?$tracked_t@$0A@@outstanding_work@detail@execution@asio@boost@@@234@U?$prefer_only@U?$untracked_t@$0A@@outstanding_work@detail@execution@asio@boost@@@234@U?$prefer_only@U?$fork_t@$0A@@relationship@detail@execution@asio@boost@@@234@U?$prefer_only@U?$continuation_t@$0A@@relationship@detail@execution@asio@boost@@@234@@234@PEBX0ZZ 0000000180048d30 f i server.obj
 0001:00047d30       ??$prefer_fn_impl@V?$any_executor@U?$context_as_t@AEAVexecution_context@asio@boost@@@execution@asio@boost@@U?$never_t@$0A@@blocking@detail@234@U?$prefer_only@U?$possibly_t@$0A@@blocking@detail@execution@asio@boost@@@234@U?$prefer_only@U?$tracked_t@$0A@@outstanding_work@detail@execution@asio@boost@@@234@U?$prefer_only@U?$untracked_t@$0A@@outstanding_work@detail@execution@asio@boost@@@234@U?$prefer_only@U?$fork_t@$0A@@relationship@detail@execution@asio@boost@@@234@U?$prefer_only@U?$continuation_t@$0A@@relationship@detail@execution@asio@boost@@@234@@execution@asio@boost@@V?$basic_executor_type@V?$allocator@X@std@@$0A@@io_context@34@U?$context_as_t@AEAVexecution_context@asio@boost@@@234@@any_executor_base@detail@execution@asio@boost@@KA?AV?$any_executor@U?$context_as_t@AEAVexecution_context@asio@boost@@@execution@asio@boost@@U?$never_t@$0A@@blocking@detail@234@U?$prefer_only@U?$possibly_t@$0A@@blocking@detail@execution@asio@boost@@@234@U?$prefer_only@U?$tracked_t@$0A@@outstanding_work@detail@execution@asio@boost@@@234@U?$prefer_only@U?$untracked_t@$0A@@outstanding_work@detail@execution@asio@boost@@@234@U?$prefer_only@U?$fork_t@$0A@@relationship@detail@execution@asio@boost@@@234@U?$prefer_only@U?$continuation_t@$0A@@relationship@detail@execution@asio@boost@@@234@@234@PEBX0ZZ 0000000180048d30 f i server.obj
 0001:00047d30       ??$require_fn_impl@V?$any_executor@U?$context_as_t@AEAVexecution_context@asio@boost@@@execution@asio@boost@@U?$never_t@$0A@@blocking@detail@234@U?$prefer_only@U?$possibly_t@$0A@@blocking@detail@execution@asio@boost@@@234@U?$prefer_only@U?$tracked_t@$0A@@outstanding_work@detail@execution@asio@boost@@@234@U?$prefer_only@U?$untracked_t@$0A@@outstanding_work@detail@execution@asio@boost@@@234@U?$prefer_only@U?$fork_t@$0A@@relationship@detail@execution@asio@boost@@@234@U?$prefer_only@U?$continuation_t@$0A@@relationship@detail@execution@asio@boost@@@234@@execution@asio@boost@@V?$basic_executor_type@V?$allocator@X@std@@$03@io_context@34@U?$prefer_only@U?$continuation_t@$0A@@relationship@detail@execution@asio@boost@@@234@@any_executor_base@detail@execution@asio@boost@@KA?AV?$any_executor@U?$context_as_t@AEAVexecution_context@asio@boost@@@execution@asio@boost@@U?$never_t@$0A@@blocking@detail@234@U?$prefer_only@U?$possibly_t@$0A@@blocking@detail@execution@asio@boost@@@234@U?$prefer_only@U?$tracked_t@$0A@@outstanding_work@detail@execution@asio@boost@@@234@U?$prefer_only@U?$untracked_t@$0A@@outstanding_work@detail@execution@asio@boost@@@234@U?$prefer_only@U?$fork_t@$0A@@relationship@detail@execution@asio@boost@@@234@U?$prefer_only@U?$continuation_t@$0A@@relationship@detail@execution@asio@boost@@@234@@234@PEBX0ZZ 0000000180048d30 f i server.obj
 0001:00047d30       ??$require_fn_impl@V?$any_executor@U?$context_as_t@AEAVexecution_context@asio@boost@@@execution@asio@boost@@U?$never_t@$0A@@blocking@detail@234@U?$prefer_only@U?$possibly_t@$0A@@blocking@detail@execution@asio@boost@@@234@U?$prefer_only@U?$tracked_t@$0A@@outstanding_work@detail@execution@asio@boost@@@234@U?$prefer_only@U?$untracked_t@$0A@@outstanding_work@detail@execution@asio@boost@@@234@U?$prefer_only@U?$fork_t@$0A@@relationship@detail@execution@asio@boost@@@234@U?$prefer_only@U?$continuation_t@$0A@@relationship@detail@execution@asio@boost@@@234@@execution@asio@boost@@V?$basic_executor_type@V?$allocator@X@std@@$0A@@io_context@34@U?$prefer_only@U?$possibly_t@$0A@@blocking@detail@execution@asio@boost@@@234@@any_executor_base@detail@execution@asio@boost@@KA?AV?$any_executor@U?$context_as_t@AEAVexecution_context@asio@boost@@@execution@asio@boost@@U?$never_t@$0A@@blocking@detail@234@U?$prefer_only@U?$possibly_t@$0A@@blocking@detail@execution@asio@boost@@@234@U?$prefer_only@U?$tracked_t@$0A@@outstanding_work@detail@execution@asio@boost@@@234@U?$prefer_only@U?$untracked_t@$0A@@outstanding_work@detail@execution@asio@boost@@@234@U?$prefer_only@U?$fork_t@$0A@@relationship@detail@execution@asio@boost@@@234@U?$prefer_only@U?$continuation_t@$0A@@relationship@detail@execution@asio@boost@@@234@@234@PEBX0ZZ 0000000180048d30 f i server.obj
 0001:00047d70       ??$require_fn@V?$any_executor@U?$context_as_t@AEAVexecution_context@asio@boost@@@execution@asio@boost@@U?$never_t@$0A@@blocking@detail@234@U?$prefer_only@U?$possibly_t@$0A@@blocking@detail@execution@asio@boost@@@234@U?$prefer_only@U?$tracked_t@$0A@@outstanding_work@detail@execution@asio@boost@@@234@U?$prefer_only@U?$untracked_t@$0A@@outstanding_work@detail@execution@asio@boost@@@234@U?$prefer_only@U?$fork_t@$0A@@relationship@detail@execution@asio@boost@@@234@U?$prefer_only@U?$continuation_t@$0A@@relationship@detail@execution@asio@boost@@@234@@execution@asio@boost@@V?$basic_executor_type@V?$allocator@X@std@@$0A@@io_context@34@U?$prefer_only@U?$possibly_t@$0A@@blocking@detail@execution@asio@boost@@@234@@any_executor_base@detail@execution@asio@boost@@KA?AV?$any_executor@U?$context_as_t@AEAVexecution_context@asio@boost@@@execution@asio@boost@@U?$never_t@$0A@@blocking@detail@234@U?$prefer_only@U?$possibly_t@$0A@@blocking@detail@execution@asio@boost@@@234@U?$prefer_only@U?$tracked_t@$0A@@outstanding_work@detail@execution@asio@boost@@@234@U?$prefer_only@U?$untracked_t@$0A@@outstanding_work@detail@execution@asio@boost@@@234@U?$prefer_only@U?$fork_t@$0A@@relationship@detail@execution@asio@boost@@@234@U?$prefer_only@U?$continuation_t@$0A@@relationship@detail@execution@asio@boost@@@234@@234@PEBX0@Z 0000000180048d70 f i server.obj
 0001:00047d70       ??$require_fn@V?$any_executor@U?$context_as_t@AEAVexecution_context@asio@boost@@@execution@asio@boost@@U?$never_t@$0A@@blocking@detail@234@U?$prefer_only@U?$possibly_t@$0A@@blocking@detail@execution@asio@boost@@@234@U?$prefer_only@U?$tracked_t@$0A@@outstanding_work@detail@execution@asio@boost@@@234@U?$prefer_only@U?$untracked_t@$0A@@outstanding_work@detail@execution@asio@boost@@@234@U?$prefer_only@U?$fork_t@$0A@@relationship@detail@execution@asio@boost@@@234@U?$prefer_only@U?$continuation_t@$0A@@relationship@detail@execution@asio@boost@@@234@@execution@asio@boost@@V?$basic_executor_type@V?$allocator@X@std@@$0A@@io_context@34@U?$context_as_t@AEAVexecution_context@asio@boost@@@234@@any_executor_base@detail@execution@asio@boost@@KA?AV?$any_executor@U?$context_as_t@AEAVexecution_context@asio@boost@@@execution@asio@boost@@U?$never_t@$0A@@blocking@detail@234@U?$prefer_only@U?$possibly_t@$0A@@blocking@detail@execution@asio@boost@@@234@U?$prefer_only@U?$tracked_t@$0A@@outstanding_work@detail@execution@asio@boost@@@234@U?$prefer_only@U?$untracked_t@$0A@@outstanding_work@detail@execution@asio@boost@@@234@U?$prefer_only@U?$fork_t@$0A@@relationship@detail@execution@asio@boost@@@234@U?$prefer_only@U?$continuation_t@$0A@@relationship@detail@execution@asio@boost@@@234@@234@PEBX0@Z 0000000180048d70 f i server.obj
 0001:00047d70       ??$require_fn@V?$any_executor@U?$context_as_t@AEAVexecution_context@asio@boost@@@execution@asio@boost@@U?$never_t@$0A@@blocking@detail@234@U?$prefer_only@U?$possibly_t@$0A@@blocking@detail@execution@asio@boost@@@234@U?$prefer_only@U?$tracked_t@$0A@@outstanding_work@detail@execution@asio@boost@@@234@U?$prefer_only@U?$untracked_t@$0A@@outstanding_work@detail@execution@asio@boost@@@234@U?$prefer_only@U?$fork_t@$0A@@relationship@detail@execution@asio@boost@@@234@U?$prefer_only@U?$continuation_t@$0A@@relationship@detail@execution@asio@boost@@@234@@execution@asio@boost@@V?$basic_executor_type@V?$allocator@X@std@@$03@io_context@34@U?$prefer_only@U?$untracked_t@$0A@@outstanding_work@detail@execution@asio@boost@@@234@@any_executor_base@detail@execution@asio@boost@@KA?AV?$any_executor@U?$context_as_t@AEAVexecution_context@asio@boost@@@execution@asio@boost@@U?$never_t@$0A@@blocking@detail@234@U?$prefer_only@U?$possibly_t@$0A@@blocking@detail@execution@asio@boost@@@234@U?$prefer_only@U?$tracked_t@$0A@@outstanding_work@detail@execution@asio@boost@@@234@U?$prefer_only@U?$untracked_t@$0A@@outstanding_work@detail@execution@asio@boost@@@234@U?$prefer_only@U?$fork_t@$0A@@relationship@detail@execution@asio@boost@@@234@U?$prefer_only@U?$continuation_t@$0A@@relationship@detail@execution@asio@boost@@@234@@234@PEBX0@Z 0000000180048d70 f i server.obj
 0001:00047d70       ??$require_fn@V?$any_executor@U?$context_as_t@AEAVexecution_context@asio@boost@@@execution@asio@boost@@U?$never_t@$0A@@blocking@detail@234@U?$prefer_only@U?$possibly_t@$0A@@blocking@detail@execution@asio@boost@@@234@U?$prefer_only@U?$tracked_t@$0A@@outstanding_work@detail@execution@asio@boost@@@234@U?$prefer_only@U?$untracked_t@$0A@@outstanding_work@detail@execution@asio@boost@@@234@U?$prefer_only@U?$fork_t@$0A@@relationship@detail@execution@asio@boost@@@234@U?$prefer_only@U?$continuation_t@$0A@@relationship@detail@execution@asio@boost@@@234@@execution@asio@boost@@V?$basic_executor_type@V?$allocator@X@std@@$03@io_context@34@U?$prefer_only@U?$possibly_t@$0A@@blocking@detail@execution@asio@boost@@@234@@any_executor_base@detail@execution@asio@boost@@KA?AV?$any_executor@U?$context_as_t@AEAVexecution_context@asio@boost@@@execution@asio@boost@@U?$never_t@$0A@@blocking@detail@234@U?$prefer_only@U?$possibly_t@$0A@@blocking@detail@execution@asio@boost@@@234@U?$prefer_only@U?$tracked_t@$0A@@outstanding_work@detail@execution@asio@boost@@@234@U?$prefer_only@U?$untracked_t@$0A@@outstanding_work@detail@execution@asio@boost@@@234@U?$prefer_only@U?$fork_t@$0A@@relationship@detail@execution@asio@boost@@@234@U?$prefer_only@U?$continuation_t@$0A@@relationship@detail@execution@asio@boost@@@234@@234@PEBX0@Z 0000000180048d70 f i server.obj
 0001:00047d70       ??$require_fn@V?$any_executor@U?$context_as_t@AEAVexecution_context@asio@boost@@@execution@asio@boost@@U?$never_t@$0A@@blocking@detail@234@U?$prefer_only@U?$possibly_t@$0A@@blocking@detail@execution@asio@boost@@@234@U?$prefer_only@U?$tracked_t@$0A@@outstanding_work@detail@execution@asio@boost@@@234@U?$prefer_only@U?$untracked_t@$0A@@outstanding_work@detail@execution@asio@boost@@@234@U?$prefer_only@U?$fork_t@$0A@@relationship@detail@execution@asio@boost@@@234@U?$prefer_only@U?$continuation_t@$0A@@relationship@detail@execution@asio@boost@@@234@@execution@asio@boost@@V?$basic_executor_type@V?$allocator@X@std@@$0A@@io_context@34@U?$prefer_only@U?$untracked_t@$0A@@outstanding_work@detail@execution@asio@boost@@@234@@any_executor_base@detail@execution@asio@boost@@KA?AV?$any_executor@U?$context_as_t@AEAVexecution_context@asio@boost@@@execution@asio@boost@@U?$never_t@$0A@@blocking@detail@234@U?$prefer_only@U?$possibly_t@$0A@@blocking@detail@execution@asio@boost@@@234@U?$prefer_only@U?$tracked_t@$0A@@outstanding_work@detail@execution@asio@boost@@@234@U?$prefer_only@U?$untracked_t@$0A@@outstanding_work@detail@execution@asio@boost@@@234@U?$prefer_only@U?$fork_t@$0A@@relationship@detail@execution@asio@boost@@@234@U?$prefer_only@U?$continuation_t@$0A@@relationship@detail@execution@asio@boost@@@234@@234@PEBX0@Z 0000000180048d70 f i server.obj
 0001:00047d70       ??$require_fn@V?$any_executor@U?$context_as_t@AEAVexecution_context@asio@boost@@@execution@asio@boost@@U?$never_t@$0A@@blocking@detail@234@U?$prefer_only@U?$possibly_t@$0A@@blocking@detail@execution@asio@boost@@@234@U?$prefer_only@U?$tracked_t@$0A@@outstanding_work@detail@execution@asio@boost@@@234@U?$prefer_only@U?$untracked_t@$0A@@outstanding_work@detail@execution@asio@boost@@@234@U?$prefer_only@U?$fork_t@$0A@@relationship@detail@execution@asio@boost@@@234@U?$prefer_only@U?$continuation_t@$0A@@relationship@detail@execution@asio@boost@@@234@@execution@asio@boost@@V?$basic_executor_type@V?$allocator@X@std@@$0A@@io_context@34@U?$prefer_only@U?$continuation_t@$0A@@relationship@detail@execution@asio@boost@@@234@@any_executor_base@detail@execution@asio@boost@@KA?AV?$any_executor@U?$context_as_t@AEAVexecution_context@asio@boost@@@execution@asio@boost@@U?$never_t@$0A@@blocking@detail@234@U?$prefer_only@U?$possibly_t@$0A@@blocking@detail@execution@asio@boost@@@234@U?$prefer_only@U?$tracked_t@$0A@@outstanding_work@detail@execution@asio@boost@@@234@U?$prefer_only@U?$untracked_t@$0A@@outstanding_work@detail@execution@asio@boost@@@234@U?$prefer_only@U?$fork_t@$0A@@relationship@detail@execution@asio@boost@@@234@U?$prefer_only@U?$continuation_t@$0A@@relationship@detail@execution@asio@boost@@@234@@234@PEBX0@Z 0000000180048d70 f i server.obj
 0001:00047d70       ??$require_fn@V?$any_executor@U?$context_as_t@AEAVexecution_context@asio@boost@@@execution@asio@boost@@U?$never_t@$0A@@blocking@detail@234@U?$prefer_only@U?$possibly_t@$0A@@blocking@detail@execution@asio@boost@@@234@U?$prefer_only@U?$tracked_t@$0A@@outstanding_work@detail@execution@asio@boost@@@234@U?$prefer_only@U?$untracked_t@$0A@@outstanding_work@detail@execution@asio@boost@@@234@U?$prefer_only@U?$fork_t@$0A@@relationship@detail@execution@asio@boost@@@234@U?$prefer_only@U?$continuation_t@$0A@@relationship@detail@execution@asio@boost@@@234@@execution@asio@boost@@V?$basic_executor_type@V?$allocator@X@std@@$03@io_context@34@U?$prefer_only@U?$fork_t@$0A@@relationship@detail@execution@asio@boost@@@234@@any_executor_base@detail@execution@asio@boost@@KA?AV?$any_executor@U?$context_as_t@AEAVexecution_context@asio@boost@@@execution@asio@boost@@U?$never_t@$0A@@blocking@detail@234@U?$prefer_only@U?$possibly_t@$0A@@blocking@detail@execution@asio@boost@@@234@U?$prefer_only@U?$tracked_t@$0A@@outstanding_work@detail@execution@asio@boost@@@234@U?$prefer_only@U?$untracked_t@$0A@@outstanding_work@detail@execution@asio@boost@@@234@U?$prefer_only@U?$fork_t@$0A@@relationship@detail@execution@asio@boost@@@234@U?$prefer_only@U?$continuation_t@$0A@@relationship@detail@execution@asio@boost@@@234@@234@PEBX0@Z 0000000180048d70 f i server.obj
 0001:00047d70       ??$require_fn@V?$any_executor@U?$context_as_t@AEAVexecution_context@asio@boost@@@execution@asio@boost@@U?$never_t@$0A@@blocking@detail@234@U?$prefer_only@U?$possibly_t@$0A@@blocking@detail@execution@asio@boost@@@234@U?$prefer_only@U?$tracked_t@$0A@@outstanding_work@detail@execution@asio@boost@@@234@U?$prefer_only@U?$untracked_t@$0A@@outstanding_work@detail@execution@asio@boost@@@234@U?$prefer_only@U?$fork_t@$0A@@relationship@detail@execution@asio@boost@@@234@U?$prefer_only@U?$continuation_t@$0A@@relationship@detail@execution@asio@boost@@@234@@execution@asio@boost@@V?$basic_executor_type@V?$allocator@X@std@@$03@io_context@34@U?$prefer_only@U?$tracked_t@$0A@@outstanding_work@detail@execution@asio@boost@@@234@@any_executor_base@detail@execution@asio@boost@@KA?AV?$any_executor@U?$context_as_t@AEAVexecution_context@asio@boost@@@execution@asio@boost@@U?$never_t@$0A@@blocking@detail@234@U?$prefer_only@U?$possibly_t@$0A@@blocking@detail@execution@asio@boost@@@234@U?$prefer_only@U?$tracked_t@$0A@@outstanding_work@detail@execution@asio@boost@@@234@U?$prefer_only@U?$untracked_t@$0A@@outstanding_work@detail@execution@asio@boost@@@234@U?$prefer_only@U?$fork_t@$0A@@relationship@detail@execution@asio@boost@@@234@U?$prefer_only@U?$continuation_t@$0A@@relationship@detail@execution@asio@boost@@@234@@234@PEBX0@Z 0000000180048d70 f i server.obj
 0001:00047d70       ??$require_fn@V?$any_executor@U?$context_as_t@AEAVexecution_context@asio@boost@@@execution@asio@boost@@U?$never_t@$0A@@blocking@detail@234@U?$prefer_only@U?$possibly_t@$0A@@blocking@detail@execution@asio@boost@@@234@U?$prefer_only@U?$tracked_t@$0A@@outstanding_work@detail@execution@asio@boost@@@234@U?$prefer_only@U?$untracked_t@$0A@@outstanding_work@detail@execution@asio@boost@@@234@U?$prefer_only@U?$fork_t@$0A@@relationship@detail@execution@asio@boost@@@234@U?$prefer_only@U?$continuation_t@$0A@@relationship@detail@execution@asio@boost@@@234@@execution@asio@boost@@V?$basic_executor_type@V?$allocator@X@std@@$0A@@io_context@34@U?$prefer_only@U?$fork_t@$0A@@relationship@detail@execution@asio@boost@@@234@@any_executor_base@detail@execution@asio@boost@@KA?AV?$any_executor@U?$context_as_t@AEAVexecution_context@asio@boost@@@execution@asio@boost@@U?$never_t@$0A@@blocking@detail@234@U?$prefer_only@U?$possibly_t@$0A@@blocking@detail@execution@asio@boost@@@234@U?$prefer_only@U?$tracked_t@$0A@@outstanding_work@detail@execution@asio@boost@@@234@U?$prefer_only@U?$untracked_t@$0A@@outstanding_work@detail@execution@asio@boost@@@234@U?$prefer_only@U?$fork_t@$0A@@relationship@detail@execution@asio@boost@@@234@U?$prefer_only@U?$continuation_t@$0A@@relationship@detail@execution@asio@boost@@@234@@234@PEBX0@Z 0000000180048d70 f i server.obj
 0001:00047d70       ??$prefer_fn@V?$any_executor@U?$context_as_t@AEAVexecution_context@asio@boost@@@execution@asio@boost@@U?$never_t@$0A@@blocking@detail@234@U?$prefer_only@U?$possibly_t@$0A@@blocking@detail@execution@asio@boost@@@234@U?$prefer_only@U?$tracked_t@$0A@@outstanding_work@detail@execution@asio@boost@@@234@U?$prefer_only@U?$untracked_t@$0A@@outstanding_work@detail@execution@asio@boost@@@234@U?$prefer_only@U?$fork_t@$0A@@relationship@detail@execution@asio@boost@@@234@U?$prefer_only@U?$continuation_t@$0A@@relationship@detail@execution@asio@boost@@@234@@execution@asio@boost@@V?$basic_executor_type@V?$allocator@X@std@@$03@io_context@34@U?$context_as_t@AEAVexecution_context@asio@boost@@@234@@any_executor_base@detail@execution@asio@boost@@KA?AV?$any_executor@U?$context_as_t@AEAVexecution_context@asio@boost@@@execution@asio@boost@@U?$never_t@$0A@@blocking@detail@234@U?$prefer_only@U?$possibly_t@$0A@@blocking@detail@execution@asio@boost@@@234@U?$prefer_only@U?$tracked_t@$0A@@outstanding_work@detail@execution@asio@boost@@@234@U?$prefer_only@U?$untracked_t@$0A@@outstanding_work@detail@execution@asio@boost@@@234@U?$prefer_only@U?$fork_t@$0A@@relationship@detail@execution@asio@boost@@@234@U?$prefer_only@U?$continuation_t@$0A@@relationship@detail@execution@asio@boost@@@234@@234@PEBX0@Z 0000000180048d70 f i server.obj
 0001:00047d70       ??$require_fn@V?$any_executor@U?$context_as_t@AEAVexecution_context@asio@boost@@@execution@asio@boost@@U?$never_t@$0A@@blocking@detail@234@U?$prefer_only@U?$possibly_t@$0A@@blocking@detail@execution@asio@boost@@@234@U?$prefer_only@U?$tracked_t@$0A@@outstanding_work@detail@execution@asio@boost@@@234@U?$prefer_only@U?$untracked_t@$0A@@outstanding_work@detail@execution@asio@boost@@@234@U?$prefer_only@U?$fork_t@$0A@@relationship@detail@execution@asio@boost@@@234@U?$prefer_only@U?$continuation_t@$0A@@relationship@detail@execution@asio@boost@@@234@@execution@asio@boost@@V?$basic_executor_type@V?$allocator@X@std@@$03@io_context@34@U?$context_as_t@AEAVexecution_context@asio@boost@@@234@@any_executor_base@detail@execution@asio@boost@@KA?AV?$any_executor@U?$context_as_t@AEAVexecution_context@asio@boost@@@execution@asio@boost@@U?$never_t@$0A@@blocking@detail@234@U?$prefer_only@U?$possibly_t@$0A@@blocking@detail@execution@asio@boost@@@234@U?$prefer_only@U?$tracked_t@$0A@@outstanding_work@detail@execution@asio@boost@@@234@U?$prefer_only@U?$untracked_t@$0A@@outstanding_work@detail@execution@asio@boost@@@234@U?$prefer_only@U?$fork_t@$0A@@relationship@detail@execution@asio@boost@@@234@U?$prefer_only@U?$continuation_t@$0A@@relationship@detail@execution@asio@boost@@@234@@234@PEBX0@Z 0000000180048d70 f i server.obj
 0001:00047d70       ??$require_fn@V?$any_executor@U?$context_as_t@AEAVexecution_context@asio@boost@@@execution@asio@boost@@U?$never_t@$0A@@blocking@detail@234@U?$prefer_only@U?$possibly_t@$0A@@blocking@detail@execution@asio@boost@@@234@U?$prefer_only@U?$tracked_t@$0A@@outstanding_work@detail@execution@asio@boost@@@234@U?$prefer_only@U?$untracked_t@$0A@@outstanding_work@detail@execution@asio@boost@@@234@U?$prefer_only@U?$fork_t@$0A@@relationship@detail@execution@asio@boost@@@234@U?$prefer_only@U?$continuation_t@$0A@@relationship@detail@execution@asio@boost@@@234@@execution@asio@boost@@V?$basic_executor_type@V?$allocator@X@std@@$03@io_context@34@U?$prefer_only@U?$continuation_t@$0A@@relationship@detail@execution@asio@boost@@@234@@any_executor_base@detail@execution@asio@boost@@KA?AV?$any_executor@U?$context_as_t@AEAVexecution_context@asio@boost@@@execution@asio@boost@@U?$never_t@$0A@@blocking@detail@234@U?$prefer_only@U?$possibly_t@$0A@@blocking@detail@execution@asio@boost@@@234@U?$prefer_only@U?$tracked_t@$0A@@outstanding_work@detail@execution@asio@boost@@@234@U?$prefer_only@U?$untracked_t@$0A@@outstanding_work@detail@execution@asio@boost@@@234@U?$prefer_only@U?$fork_t@$0A@@relationship@detail@execution@asio@boost@@@234@U?$prefer_only@U?$continuation_t@$0A@@relationship@detail@execution@asio@boost@@@234@@234@PEBX0@Z 0000000180048d70 f i server.obj
 0001:00047d70       ??$prefer_fn@V?$any_executor@U?$context_as_t@AEAVexecution_context@asio@boost@@@execution@asio@boost@@U?$never_t@$0A@@blocking@detail@234@U?$prefer_only@U?$possibly_t@$0A@@blocking@detail@execution@asio@boost@@@234@U?$prefer_only@U?$tracked_t@$0A@@outstanding_work@detail@execution@asio@boost@@@234@U?$prefer_only@U?$untracked_t@$0A@@outstanding_work@detail@execution@asio@boost@@@234@U?$prefer_only@U?$fork_t@$0A@@relationship@detail@execution@asio@boost@@@234@U?$prefer_only@U?$continuation_t@$0A@@relationship@detail@execution@asio@boost@@@234@@execution@asio@boost@@V?$basic_executor_type@V?$allocator@X@std@@$0A@@io_context@34@U?$context_as_t@AEAVexecution_context@asio@boost@@@234@@any_executor_base@detail@execution@asio@boost@@KA?AV?$any_executor@U?$context_as_t@AEAVexecution_context@asio@boost@@@execution@asio@boost@@U?$never_t@$0A@@blocking@detail@234@U?$prefer_only@U?$possibly_t@$0A@@blocking@detail@execution@asio@boost@@@234@U?$prefer_only@U?$tracked_t@$0A@@outstanding_work@detail@execution@asio@boost@@@234@U?$prefer_only@U?$untracked_t@$0A@@outstanding_work@detail@execution@asio@boost@@@234@U?$prefer_only@U?$fork_t@$0A@@relationship@detail@execution@asio@boost@@@234@U?$prefer_only@U?$continuation_t@$0A@@relationship@detail@execution@asio@boost@@@234@@234@PEBX0@Z 0000000180048d70 f i server.obj
 0001:00047d70       ??$require_fn@V?$any_executor@U?$context_as_t@AEAVexecution_context@asio@boost@@@execution@asio@boost@@U?$never_t@$0A@@blocking@detail@234@U?$prefer_only@U?$possibly_t@$0A@@blocking@detail@execution@asio@boost@@@234@U?$prefer_only@U?$tracked_t@$0A@@outstanding_work@detail@execution@asio@boost@@@234@U?$prefer_only@U?$untracked_t@$0A@@outstanding_work@detail@execution@asio@boost@@@234@U?$prefer_only@U?$fork_t@$0A@@relationship@detail@execution@asio@boost@@@234@U?$prefer_only@U?$continuation_t@$0A@@relationship@detail@execution@asio@boost@@@234@@execution@asio@boost@@V?$basic_executor_type@V?$allocator@X@std@@$0A@@io_context@34@U?$prefer_only@U?$tracked_t@$0A@@outstanding_work@detail@execution@asio@boost@@@234@@any_executor_base@detail@execution@asio@boost@@KA?AV?$any_executor@U?$context_as_t@AEAVexecution_context@asio@boost@@@execution@asio@boost@@U?$never_t@$0A@@blocking@detail@234@U?$prefer_only@U?$possibly_t@$0A@@blocking@detail@execution@asio@boost@@@234@U?$prefer_only@U?$tracked_t@$0A@@outstanding_work@detail@execution@asio@boost@@@234@U?$prefer_only@U?$untracked_t@$0A@@outstanding_work@detail@execution@asio@boost@@@234@U?$prefer_only@U?$fork_t@$0A@@relationship@detail@execution@asio@boost@@@234@U?$prefer_only@U?$continuation_t@$0A@@relationship@detail@execution@asio@boost@@@234@@234@PEBX0@Z 0000000180048d70 f i server.obj
 0001:00047d90       ??$query_fn@V?$basic_executor_type@V?$allocator@X@std@@$0A@@io_context@asio@boost@@U?$prefer_only@U?$possibly_t@$0A@@blocking@detail@execution@asio@boost@@@execution@34@@any_executor_base@detail@execution@asio@boost@@KAXPEAXPEBX1@Z 0000000180048d90 f i server.obj
 0001:00047d90       ??$query_fn@V?$basic_executor_type@V?$allocator@X@std@@$03@io_context@asio@boost@@U?$never_t@$0A@@blocking@detail@execution@34@@any_executor_base@detail@execution@asio@boost@@KAXPEAXPEBX1@Z 0000000180048d90 f i server.obj
 0001:00047d90       ??$query_fn@V?$basic_executor_type@V?$allocator@X@std@@$0A@@io_context@asio@boost@@U?$never_t@$0A@@blocking@detail@execution@34@@any_executor_base@detail@execution@asio@boost@@KAXPEAXPEBX1@Z 0000000180048d90 f i server.obj
 0001:00047d90       ??$query_fn@V?$basic_executor_type@V?$allocator@X@std@@$03@io_context@asio@boost@@U?$prefer_only@U?$possibly_t@$0A@@blocking@detail@execution@asio@boost@@@execution@34@@any_executor_base@detail@execution@asio@boost@@KAXPEAXPEBX1@Z 0000000180048d90 f i server.obj
 0001:00047dd0       ??$prefer_fn@V?$any_executor@U?$context_as_t@AEAVexecution_context@asio@boost@@@execution@asio@boost@@U?$never_t@$0A@@blocking@detail@234@U?$prefer_only@U?$possibly_t@$0A@@blocking@detail@execution@asio@boost@@@234@U?$prefer_only@U?$tracked_t@$0A@@outstanding_work@detail@execution@asio@boost@@@234@U?$prefer_only@U?$untracked_t@$0A@@outstanding_work@detail@execution@asio@boost@@@234@U?$prefer_only@U?$fork_t@$0A@@relationship@detail@execution@asio@boost@@@234@U?$prefer_only@U?$continuation_t@$0A@@relationship@detail@execution@asio@boost@@@234@@execution@asio@boost@@V?$basic_executor_type@V?$allocator@X@std@@$0A@@io_context@34@U?$never_t@$0A@@blocking@detail@234@@any_executor_base@detail@execution@asio@boost@@KA?AV?$any_executor@U?$context_as_t@AEAVexecution_context@asio@boost@@@execution@asio@boost@@U?$never_t@$0A@@blocking@detail@234@U?$prefer_only@U?$possibly_t@$0A@@blocking@detail@execution@asio@boost@@@234@U?$prefer_only@U?$tracked_t@$0A@@outstanding_work@detail@execution@asio@boost@@@234@U?$prefer_only@U?$untracked_t@$0A@@outstanding_work@detail@execution@asio@boost@@@234@U?$prefer_only@U?$fork_t@$0A@@relationship@detail@execution@asio@boost@@@234@U?$prefer_only@U?$continuation_t@$0A@@relationship@detail@execution@asio@boost@@@234@@234@PEBX0@Z 0000000180048dd0 f i server.obj
 0001:00047dd0       ??$require_fn@V?$any_executor@U?$context_as_t@AEAVexecution_context@asio@boost@@@execution@asio@boost@@U?$never_t@$0A@@blocking@detail@234@U?$prefer_only@U?$possibly_t@$0A@@blocking@detail@execution@asio@boost@@@234@U?$prefer_only@U?$tracked_t@$0A@@outstanding_work@detail@execution@asio@boost@@@234@U?$prefer_only@U?$untracked_t@$0A@@outstanding_work@detail@execution@asio@boost@@@234@U?$prefer_only@U?$fork_t@$0A@@relationship@detail@execution@asio@boost@@@234@U?$prefer_only@U?$continuation_t@$0A@@relationship@detail@execution@asio@boost@@@234@@execution@asio@boost@@V?$basic_executor_type@V?$allocator@X@std@@$0A@@io_context@34@U?$never_t@$0A@@blocking@detail@234@@any_executor_base@detail@execution@asio@boost@@KA?AV?$any_executor@U?$context_as_t@AEAVexecution_context@asio@boost@@@execution@asio@boost@@U?$never_t@$0A@@blocking@detail@234@U?$prefer_only@U?$possibly_t@$0A@@blocking@detail@execution@asio@boost@@@234@U?$prefer_only@U?$tracked_t@$0A@@outstanding_work@detail@execution@asio@boost@@@234@U?$prefer_only@U?$untracked_t@$0A@@outstanding_work@detail@execution@asio@boost@@@234@U?$prefer_only@U?$fork_t@$0A@@relationship@detail@execution@asio@boost@@@234@U?$prefer_only@U?$continuation_t@$0A@@relationship@detail@execution@asio@boost@@@234@@234@PEBX0@Z 0000000180048dd0 f i server.obj
 0001:00047e00       ??$prefer_fn@V?$any_executor@U?$context_as_t@AEAVexecution_context@asio@boost@@@execution@asio@boost@@U?$never_t@$0A@@blocking@detail@234@U?$prefer_only@U?$possibly_t@$0A@@blocking@detail@execution@asio@boost@@@234@U?$prefer_only@U?$tracked_t@$0A@@outstanding_work@detail@execution@asio@boost@@@234@U?$prefer_only@U?$untracked_t@$0A@@outstanding_work@detail@execution@asio@boost@@@234@U?$prefer_only@U?$fork_t@$0A@@relationship@detail@execution@asio@boost@@@234@U?$prefer_only@U?$continuation_t@$0A@@relationship@detail@execution@asio@boost@@@234@@execution@asio@boost@@V?$basic_executor_type@V?$allocator@X@std@@$0A@@io_context@34@U?$prefer_only@U?$possibly_t@$0A@@blocking@detail@execution@asio@boost@@@234@@any_executor_base@detail@execution@asio@boost@@KA?AV?$any_executor@U?$context_as_t@AEAVexecution_context@asio@boost@@@execution@asio@boost@@U?$never_t@$0A@@blocking@detail@234@U?$prefer_only@U?$possibly_t@$0A@@blocking@detail@execution@asio@boost@@@234@U?$prefer_only@U?$tracked_t@$0A@@outstanding_work@detail@execution@asio@boost@@@234@U?$prefer_only@U?$untracked_t@$0A@@outstanding_work@detail@execution@asio@boost@@@234@U?$prefer_only@U?$fork_t@$0A@@relationship@detail@execution@asio@boost@@@234@U?$prefer_only@U?$continuation_t@$0A@@relationship@detail@execution@asio@boost@@@234@@234@PEBX0@Z 0000000180048e00 f i server.obj
 0001:00047e30       ??$query_fn@V?$basic_executor_type@V?$allocator@X@std@@$0A@@io_context@asio@boost@@U?$prefer_only@U?$tracked_t@$0A@@outstanding_work@detail@execution@asio@boost@@@execution@34@@any_executor_base@detail@execution@asio@boost@@KAXPEAXPEBX1@Z 0000000180048e30 f i server.obj
 0001:00047e30       ??$query_fn@V?$basic_executor_type@V?$allocator@X@std@@$0A@@io_context@asio@boost@@U?$prefer_only@U?$untracked_t@$0A@@outstanding_work@detail@execution@asio@boost@@@execution@34@@any_executor_base@detail@execution@asio@boost@@KAXPEAXPEBX1@Z 0000000180048e30 f i server.obj
 0001:00047e60       ??$target_type_ex@V?$basic_executor_type@V?$allocator@X@std@@$03@io_context@asio@boost@@@any_executor_base@detail@execution@asio@boost@@KAAEBVtype_info@@XZ 0000000180048e60 f i server.obj
 0001:00047e70       ??0multiple_exceptions@asio@boost@@QEAA@AEBV012@@Z 0000000180048e70 f i server.obj
 0001:00047ed0       ??_Gmultiple_exceptions@asio@boost@@UEAAPEAXI@Z 0000000180048ed0 f i server.obj
 0001:00047ed0       ??_Emultiple_exceptions@asio@boost@@UEAAPEAXI@Z 0000000180048ed0 f i * CIL library *:* CIL module *
 0001:00047f20       ?what@multiple_exceptions@asio@boost@@UEBAPEBDXZ 0000000180048f20 f i server.obj
 0001:00047f30       ??1multiple_exceptions@asio@boost@@UEAA@XZ 0000000180048f30 f i server.obj
 0001:00047f60       ?capture_current_exception@win_iocp_io_context@detail@asio@boost@@QEAAXXZ 0000000180048f60 f i server.obj
 0001:000480e0       ??1ptr@?$executor_op@Vexecutor_function@detail@asio@boost@@V?$allocator@X@std@@Vwin_iocp_operation@234@@detail@asio@boost@@QEAA@XZ 00000001800490e0 f i server.obj
 0001:000480f0       ?reset@ptr@?$executor_op@Vexecutor_function@detail@asio@boost@@V?$allocator@X@std@@Vwin_iocp_operation@234@@detail@asio@boost@@QEAAXXZ 00000001800490f0 f i server.obj
 0001:000481a0       ??$asio_handler_invoke@Vexecutor_function@detail@asio@boost@@@asio@boost@@YAXAEAVexecutor_function@detail@01@ZZ 00000001800491a0 f i server.obj
 0001:000481e0       ?do_complete@?$executor_op@Vexecutor_function@detail@asio@boost@@V?$allocator@X@std@@Vwin_iocp_operation@234@@detail@asio@boost@@SAXPEAXPEAVwin_iocp_operation@234@AEBVerror_code@system@4@_K@Z 00000001800491e0 f i server.obj
 0001:000482e0       ??$destroy_object@V?$basic_executor_type@V?$allocator@X@std@@$03@io_context@asio@boost@@@any_executor_base@detail@execution@asio@boost@@KAXAEAV01234@@Z 00000001800492e0 f i server.obj
 0001:00048310       ??$copy_object@V?$basic_executor_type@V?$allocator@X@std@@$03@io_context@asio@boost@@@any_executor_base@detail@execution@asio@boost@@KAXAEAV01234@AEBV01234@@Z 0000000180049310 f i server.obj
 0001:00048330       ??$move_object@V?$basic_executor_type@V?$allocator@X@std@@$03@io_context@asio@boost@@@any_executor_base@detail@execution@asio@boost@@KAXAEAV01234@0@Z 0000000180049330 f i server.obj
 0001:00048370       ??$prefer_fn@V?$any_executor@U?$context_as_t@AEAVexecution_context@asio@boost@@@execution@asio@boost@@U?$never_t@$0A@@blocking@detail@234@U?$prefer_only@U?$possibly_t@$0A@@blocking@detail@execution@asio@boost@@@234@U?$prefer_only@U?$tracked_t@$0A@@outstanding_work@detail@execution@asio@boost@@@234@U?$prefer_only@U?$untracked_t@$0A@@outstanding_work@detail@execution@asio@boost@@@234@U?$prefer_only@U?$fork_t@$0A@@relationship@detail@execution@asio@boost@@@234@U?$prefer_only@U?$continuation_t@$0A@@relationship@detail@execution@asio@boost@@@234@@execution@asio@boost@@V?$basic_executor_type@V?$allocator@X@std@@$03@io_context@34@U?$never_t@$0A@@blocking@detail@234@@any_executor_base@detail@execution@asio@boost@@KA?AV?$any_executor@U?$context_as_t@AEAVexecution_context@asio@boost@@@execution@asio@boost@@U?$never_t@$0A@@blocking@detail@234@U?$prefer_only@U?$possibly_t@$0A@@blocking@detail@execution@asio@boost@@@234@U?$prefer_only@U?$tracked_t@$0A@@outstanding_work@detail@execution@asio@boost@@@234@U?$prefer_only@U?$untracked_t@$0A@@outstanding_work@detail@execution@asio@boost@@@234@U?$prefer_only@U?$fork_t@$0A@@relationship@detail@execution@asio@boost@@@234@U?$prefer_only@U?$continuation_t@$0A@@relationship@detail@execution@asio@boost@@@234@@234@PEBX0@Z 0000000180049370 f i server.obj
 0001:00048370       ??$require_fn@V?$any_executor@U?$context_as_t@AEAVexecution_context@asio@boost@@@execution@asio@boost@@U?$never_t@$0A@@blocking@detail@234@U?$prefer_only@U?$possibly_t@$0A@@blocking@detail@execution@asio@boost@@@234@U?$prefer_only@U?$tracked_t@$0A@@outstanding_work@detail@execution@asio@boost@@@234@U?$prefer_only@U?$untracked_t@$0A@@outstanding_work@detail@execution@asio@boost@@@234@U?$prefer_only@U?$fork_t@$0A@@relationship@detail@execution@asio@boost@@@234@U?$prefer_only@U?$continuation_t@$0A@@relationship@detail@execution@asio@boost@@@234@@execution@asio@boost@@V?$basic_executor_type@V?$allocator@X@std@@$03@io_context@34@U?$never_t@$0A@@blocking@detail@234@@any_executor_base@detail@execution@asio@boost@@KA?AV?$any_executor@U?$context_as_t@AEAVexecution_context@asio@boost@@@execution@asio@boost@@U?$never_t@$0A@@blocking@detail@234@U?$prefer_only@U?$possibly_t@$0A@@blocking@detail@execution@asio@boost@@@234@U?$prefer_only@U?$tracked_t@$0A@@outstanding_work@detail@execution@asio@boost@@@234@U?$prefer_only@U?$untracked_t@$0A@@outstanding_work@detail@execution@asio@boost@@@234@U?$prefer_only@U?$fork_t@$0A@@relationship@detail@execution@asio@boost@@@234@U?$prefer_only@U?$continuation_t@$0A@@relationship@detail@execution@asio@boost@@@234@@234@PEBX0@Z 0000000180049370 f i server.obj
 0001:000483b0       ??$prefer_fn@V?$any_executor@U?$context_as_t@AEAVexecution_context@asio@boost@@@execution@asio@boost@@U?$never_t@$0A@@blocking@detail@234@U?$prefer_only@U?$possibly_t@$0A@@blocking@detail@execution@asio@boost@@@234@U?$prefer_only@U?$tracked_t@$0A@@outstanding_work@detail@execution@asio@boost@@@234@U?$prefer_only@U?$untracked_t@$0A@@outstanding_work@detail@execution@asio@boost@@@234@U?$prefer_only@U?$fork_t@$0A@@relationship@detail@execution@asio@boost@@@234@U?$prefer_only@U?$continuation_t@$0A@@relationship@detail@execution@asio@boost@@@234@@execution@asio@boost@@V?$basic_executor_type@V?$allocator@X@std@@$03@io_context@34@U?$prefer_only@U?$possibly_t@$0A@@blocking@detail@execution@asio@boost@@@234@@any_executor_base@detail@execution@asio@boost@@KA?AV?$any_executor@U?$context_as_t@AEAVexecution_context@asio@boost@@@execution@asio@boost@@U?$never_t@$0A@@blocking@detail@234@U?$prefer_only@U?$possibly_t@$0A@@blocking@detail@execution@asio@boost@@@234@U?$prefer_only@U?$tracked_t@$0A@@outstanding_work@detail@execution@asio@boost@@@234@U?$prefer_only@U?$untracked_t@$0A@@outstanding_work@detail@execution@asio@boost@@@234@U?$prefer_only@U?$fork_t@$0A@@relationship@detail@execution@asio@boost@@@234@U?$prefer_only@U?$continuation_t@$0A@@relationship@detail@execution@asio@boost@@@234@@234@PEBX0@Z 00000001800493b0 f i server.obj
 0001:000483f0       ??$query_fn@V?$basic_executor_type@V?$allocator@X@std@@$03@io_context@asio@boost@@U?$prefer_only@U?$untracked_t@$0A@@outstanding_work@detail@execution@asio@boost@@@execution@34@@any_executor_base@detail@execution@asio@boost@@KAXPEAXPEBX1@Z 00000001800493f0 f i server.obj
 0001:000483f0       ??$query_fn@V?$basic_executor_type@V?$allocator@X@std@@$03@io_context@asio@boost@@U?$prefer_only@U?$tracked_t@$0A@@outstanding_work@detail@execution@asio@boost@@@execution@34@@any_executor_base@detail@execution@asio@boost@@KAXPEAXPEBX1@Z 00000001800493f0 f i server.obj
 0001:00048420       ??$prefer_fn@V?$any_executor@U?$context_as_t@AEAVexecution_context@asio@boost@@@execution@asio@boost@@U?$never_t@$0A@@blocking@detail@234@U?$prefer_only@U?$possibly_t@$0A@@blocking@detail@execution@asio@boost@@@234@U?$prefer_only@U?$tracked_t@$0A@@outstanding_work@detail@execution@asio@boost@@@234@U?$prefer_only@U?$untracked_t@$0A@@outstanding_work@detail@execution@asio@boost@@@234@U?$prefer_only@U?$fork_t@$0A@@relationship@detail@execution@asio@boost@@@234@U?$prefer_only@U?$continuation_t@$0A@@relationship@detail@execution@asio@boost@@@234@@execution@asio@boost@@V?$basic_executor_type@V?$allocator@X@std@@$03@io_context@34@U?$prefer_only@U?$tracked_t@$0A@@outstanding_work@detail@execution@asio@boost@@@234@@any_executor_base@detail@execution@asio@boost@@KA?AV?$any_executor@U?$context_as_t@AEAVexecution_context@asio@boost@@@execution@asio@boost@@U?$never_t@$0A@@blocking@detail@234@U?$prefer_only@U?$possibly_t@$0A@@blocking@detail@execution@asio@boost@@@234@U?$prefer_only@U?$tracked_t@$0A@@outstanding_work@detail@execution@asio@boost@@@234@U?$prefer_only@U?$untracked_t@$0A@@outstanding_work@detail@execution@asio@boost@@@234@U?$prefer_only@U?$fork_t@$0A@@relationship@detail@execution@asio@boost@@@234@U?$prefer_only@U?$continuation_t@$0A@@relationship@detail@execution@asio@boost@@@234@@234@PEBX0@Z 0000000180049420 f i server.obj
 0001:00048460       ??$prefer_fn@V?$any_executor@U?$context_as_t@AEAVexecution_context@asio@boost@@@execution@asio@boost@@U?$never_t@$0A@@blocking@detail@234@U?$prefer_only@U?$possibly_t@$0A@@blocking@detail@execution@asio@boost@@@234@U?$prefer_only@U?$tracked_t@$0A@@outstanding_work@detail@execution@asio@boost@@@234@U?$prefer_only@U?$untracked_t@$0A@@outstanding_work@detail@execution@asio@boost@@@234@U?$prefer_only@U?$fork_t@$0A@@relationship@detail@execution@asio@boost@@@234@U?$prefer_only@U?$continuation_t@$0A@@relationship@detail@execution@asio@boost@@@234@@execution@asio@boost@@V?$basic_executor_type@V?$allocator@X@std@@$0A@@io_context@34@U?$prefer_only@U?$untracked_t@$0A@@outstanding_work@detail@execution@asio@boost@@@234@@any_executor_base@detail@execution@asio@boost@@KA?AV?$any_executor@U?$context_as_t@AEAVexecution_context@asio@boost@@@execution@asio@boost@@U?$never_t@$0A@@blocking@detail@234@U?$prefer_only@U?$possibly_t@$0A@@blocking@detail@execution@asio@boost@@@234@U?$prefer_only@U?$tracked_t@$0A@@outstanding_work@detail@execution@asio@boost@@@234@U?$prefer_only@U?$untracked_t@$0A@@outstanding_work@detail@execution@asio@boost@@@234@U?$prefer_only@U?$fork_t@$0A@@relationship@detail@execution@asio@boost@@@234@U?$prefer_only@U?$continuation_t@$0A@@relationship@detail@execution@asio@boost@@@234@@234@PEBX0@Z 0000000180049460 f i server.obj
 0001:00048460       ??$prefer_fn@V?$any_executor@U?$context_as_t@AEAVexecution_context@asio@boost@@@execution@asio@boost@@U?$never_t@$0A@@blocking@detail@234@U?$prefer_only@U?$possibly_t@$0A@@blocking@detail@execution@asio@boost@@@234@U?$prefer_only@U?$tracked_t@$0A@@outstanding_work@detail@execution@asio@boost@@@234@U?$prefer_only@U?$untracked_t@$0A@@outstanding_work@detail@execution@asio@boost@@@234@U?$prefer_only@U?$fork_t@$0A@@relationship@detail@execution@asio@boost@@@234@U?$prefer_only@U?$continuation_t@$0A@@relationship@detail@execution@asio@boost@@@234@@execution@asio@boost@@V?$basic_executor_type@V?$allocator@X@std@@$03@io_context@34@U?$prefer_only@U?$untracked_t@$0A@@outstanding_work@detail@execution@asio@boost@@@234@@any_executor_base@detail@execution@asio@boost@@KA?AV?$any_executor@U?$context_as_t@AEAVexecution_context@asio@boost@@@execution@asio@boost@@U?$never_t@$0A@@blocking@detail@234@U?$prefer_only@U?$possibly_t@$0A@@blocking@detail@execution@asio@boost@@@234@U?$prefer_only@U?$tracked_t@$0A@@outstanding_work@detail@execution@asio@boost@@@234@U?$prefer_only@U?$untracked_t@$0A@@outstanding_work@detail@execution@asio@boost@@@234@U?$prefer_only@U?$fork_t@$0A@@relationship@detail@execution@asio@boost@@@234@U?$prefer_only@U?$continuation_t@$0A@@relationship@detail@execution@asio@boost@@@234@@234@PEBX0@Z 0000000180049460 f i server.obj
 0001:00048490       ??$query_fn@V?$basic_executor_type@V?$allocator@X@std@@$0A@@io_context@asio@boost@@U?$prefer_only@U?$continuation_t@$0A@@relationship@detail@execution@asio@boost@@@execution@34@@any_executor_base@detail@execution@asio@boost@@KAXPEAXPEBX1@Z 0000000180049490 f i server.obj
 0001:00048490       ??$query_fn@V?$basic_executor_type@V?$allocator@X@std@@$03@io_context@asio@boost@@U?$prefer_only@U?$fork_t@$0A@@relationship@detail@execution@asio@boost@@@execution@34@@any_executor_base@detail@execution@asio@boost@@KAXPEAXPEBX1@Z 0000000180049490 f i server.obj
 0001:00048490       ??$query_fn@V?$basic_executor_type@V?$allocator@X@std@@$03@io_context@asio@boost@@U?$prefer_only@U?$continuation_t@$0A@@relationship@detail@execution@asio@boost@@@execution@34@@any_executor_base@detail@execution@asio@boost@@KAXPEAXPEBX1@Z 0000000180049490 f i server.obj
 0001:00048490       ??$query_fn@V?$basic_executor_type@V?$allocator@X@std@@$0A@@io_context@asio@boost@@U?$prefer_only@U?$fork_t@$0A@@relationship@detail@execution@asio@boost@@@execution@34@@any_executor_base@detail@execution@asio@boost@@KAXPEAXPEBX1@Z 0000000180049490 f i server.obj
 0001:000484d0       ??$prefer_fn@V?$any_executor@U?$context_as_t@AEAVexecution_context@asio@boost@@@execution@asio@boost@@U?$never_t@$0A@@blocking@detail@234@U?$prefer_only@U?$possibly_t@$0A@@blocking@detail@execution@asio@boost@@@234@U?$prefer_only@U?$tracked_t@$0A@@outstanding_work@detail@execution@asio@boost@@@234@U?$prefer_only@U?$untracked_t@$0A@@outstanding_work@detail@execution@asio@boost@@@234@U?$prefer_only@U?$fork_t@$0A@@relationship@detail@execution@asio@boost@@@234@U?$prefer_only@U?$continuation_t@$0A@@relationship@detail@execution@asio@boost@@@234@@execution@asio@boost@@V?$basic_executor_type@V?$allocator@X@std@@$03@io_context@34@U?$prefer_only@U?$fork_t@$0A@@relationship@detail@execution@asio@boost@@@234@@any_executor_base@detail@execution@asio@boost@@KA?AV?$any_executor@U?$context_as_t@AEAVexecution_context@asio@boost@@@execution@asio@boost@@U?$never_t@$0A@@blocking@detail@234@U?$prefer_only@U?$possibly_t@$0A@@blocking@detail@execution@asio@boost@@@234@U?$prefer_only@U?$tracked_t@$0A@@outstanding_work@detail@execution@asio@boost@@@234@U?$prefer_only@U?$untracked_t@$0A@@outstanding_work@detail@execution@asio@boost@@@234@U?$prefer_only@U?$fork_t@$0A@@relationship@detail@execution@asio@boost@@@234@U?$prefer_only@U?$continuation_t@$0A@@relationship@detail@execution@asio@boost@@@234@@234@PEBX0@Z 00000001800494d0 f i server.obj
 0001:00048510       ??$prefer_fn@V?$any_executor@U?$context_as_t@AEAVexecution_context@asio@boost@@@execution@asio@boost@@U?$never_t@$0A@@blocking@detail@234@U?$prefer_only@U?$possibly_t@$0A@@blocking@detail@execution@asio@boost@@@234@U?$prefer_only@U?$tracked_t@$0A@@outstanding_work@detail@execution@asio@boost@@@234@U?$prefer_only@U?$untracked_t@$0A@@outstanding_work@detail@execution@asio@boost@@@234@U?$prefer_only@U?$fork_t@$0A@@relationship@detail@execution@asio@boost@@@234@U?$prefer_only@U?$continuation_t@$0A@@relationship@detail@execution@asio@boost@@@234@@execution@asio@boost@@V?$basic_executor_type@V?$allocator@X@std@@$03@io_context@34@U?$prefer_only@U?$continuation_t@$0A@@relationship@detail@execution@asio@boost@@@234@@any_executor_base@detail@execution@asio@boost@@KA?AV?$any_executor@U?$context_as_t@AEAVexecution_context@asio@boost@@@execution@asio@boost@@U?$never_t@$0A@@blocking@detail@234@U?$prefer_only@U?$possibly_t@$0A@@blocking@detail@execution@asio@boost@@@234@U?$prefer_only@U?$tracked_t@$0A@@outstanding_work@detail@execution@asio@boost@@@234@U?$prefer_only@U?$untracked_t@$0A@@outstanding_work@detail@execution@asio@boost@@@234@U?$prefer_only@U?$fork_t@$0A@@relationship@detail@execution@asio@boost@@@234@U?$prefer_only@U?$continuation_t@$0A@@relationship@detail@execution@asio@boost@@@234@@234@PEBX0@Z 0000000180049510 f i server.obj
 0001:00048550       ??$?0V?$basic_executor_type@V?$allocator@X@std@@$03@io_context@asio@boost@@@?$any_executor@U?$context_as_t@AEAVexecution_context@asio@boost@@@execution@asio@boost@@U?$never_t@$0A@@blocking@detail@234@U?$prefer_only@U?$possibly_t@$0A@@blocking@detail@execution@asio@boost@@@234@U?$prefer_only@U?$tracked_t@$0A@@outstanding_work@detail@execution@asio@boost@@@234@U?$prefer_only@U?$untracked_t@$0A@@outstanding_work@detail@execution@asio@boost@@@234@U?$prefer_only@U?$fork_t@$0A@@relationship@detail@execution@asio@boost@@@234@U?$prefer_only@U?$continuation_t@$0A@@relationship@detail@execution@asio@boost@@@234@@execution@asio@boost@@QEAA@V?$basic_executor_type@V?$allocator@X@std@@$03@io_context@23@PEAX@Z 0000000180049550 f i server.obj
 0001:000485c0       ??$prefer_fn@V?$any_executor@U?$context_as_t@AEAVexecution_context@asio@boost@@@execution@asio@boost@@U?$never_t@$0A@@blocking@detail@234@U?$prefer_only@U?$possibly_t@$0A@@blocking@detail@execution@asio@boost@@@234@U?$prefer_only@U?$tracked_t@$0A@@outstanding_work@detail@execution@asio@boost@@@234@U?$prefer_only@U?$untracked_t@$0A@@outstanding_work@detail@execution@asio@boost@@@234@U?$prefer_only@U?$fork_t@$0A@@relationship@detail@execution@asio@boost@@@234@U?$prefer_only@U?$continuation_t@$0A@@relationship@detail@execution@asio@boost@@@234@@execution@asio@boost@@V?$basic_executor_type@V?$allocator@X@std@@$0A@@io_context@34@U?$prefer_only@U?$tracked_t@$0A@@outstanding_work@detail@execution@asio@boost@@@234@@any_executor_base@detail@execution@asio@boost@@KA?AV?$any_executor@U?$context_as_t@AEAVexecution_context@asio@boost@@@execution@asio@boost@@U?$never_t@$0A@@blocking@detail@234@U?$prefer_only@U?$possibly_t@$0A@@blocking@detail@execution@asio@boost@@@234@U?$prefer_only@U?$tracked_t@$0A@@outstanding_work@detail@execution@asio@boost@@@234@U?$prefer_only@U?$untracked_t@$0A@@outstanding_work@detail@execution@asio@boost@@@234@U?$prefer_only@U?$fork_t@$0A@@relationship@detail@execution@asio@boost@@@234@U?$prefer_only@U?$continuation_t@$0A@@relationship@detail@execution@asio@boost@@@234@@234@PEBX0@Z 00000001800495c0 f i server.obj
 0001:00048610       ??$prefer_fn@V?$any_executor@U?$context_as_t@AEAVexecution_context@asio@boost@@@execution@asio@boost@@U?$never_t@$0A@@blocking@detail@234@U?$prefer_only@U?$possibly_t@$0A@@blocking@detail@execution@asio@boost@@@234@U?$prefer_only@U?$tracked_t@$0A@@outstanding_work@detail@execution@asio@boost@@@234@U?$prefer_only@U?$untracked_t@$0A@@outstanding_work@detail@execution@asio@boost@@@234@U?$prefer_only@U?$fork_t@$0A@@relationship@detail@execution@asio@boost@@@234@U?$prefer_only@U?$continuation_t@$0A@@relationship@detail@execution@asio@boost@@@234@@execution@asio@boost@@V?$basic_executor_type@V?$allocator@X@std@@$0A@@io_context@34@U?$prefer_only@U?$fork_t@$0A@@relationship@detail@execution@asio@boost@@@234@@any_executor_base@detail@execution@asio@boost@@KA?AV?$any_executor@U?$context_as_t@AEAVexecution_context@asio@boost@@@execution@asio@boost@@U?$never_t@$0A@@blocking@detail@234@U?$prefer_only@U?$possibly_t@$0A@@blocking@detail@execution@asio@boost@@@234@U?$prefer_only@U?$tracked_t@$0A@@outstanding_work@detail@execution@asio@boost@@@234@U?$prefer_only@U?$untracked_t@$0A@@outstanding_work@detail@execution@asio@boost@@@234@U?$prefer_only@U?$fork_t@$0A@@relationship@detail@execution@asio@boost@@@234@U?$prefer_only@U?$continuation_t@$0A@@relationship@detail@execution@asio@boost@@@234@@234@PEBX0@Z 0000000180049610 f i server.obj
 0001:00048640       ??$prefer_fn@V?$any_executor@U?$context_as_t@AEAVexecution_context@asio@boost@@@execution@asio@boost@@U?$never_t@$0A@@blocking@detail@234@U?$prefer_only@U?$possibly_t@$0A@@blocking@detail@execution@asio@boost@@@234@U?$prefer_only@U?$tracked_t@$0A@@outstanding_work@detail@execution@asio@boost@@@234@U?$prefer_only@U?$untracked_t@$0A@@outstanding_work@detail@execution@asio@boost@@@234@U?$prefer_only@U?$fork_t@$0A@@relationship@detail@execution@asio@boost@@@234@U?$prefer_only@U?$continuation_t@$0A@@relationship@detail@execution@asio@boost@@@234@@execution@asio@boost@@V?$basic_executor_type@V?$allocator@X@std@@$0A@@io_context@34@U?$prefer_only@U?$continuation_t@$0A@@relationship@detail@execution@asio@boost@@@234@@any_executor_base@detail@execution@asio@boost@@KA?AV?$any_executor@U?$context_as_t@AEAVexecution_context@asio@boost@@@execution@asio@boost@@U?$never_t@$0A@@blocking@detail@234@U?$prefer_only@U?$possibly_t@$0A@@blocking@detail@execution@asio@boost@@@234@U?$prefer_only@U?$tracked_t@$0A@@outstanding_work@detail@execution@asio@boost@@@234@U?$prefer_only@U?$untracked_t@$0A@@outstanding_work@detail@execution@asio@boost@@@234@U?$prefer_only@U?$fork_t@$0A@@relationship@detail@execution@asio@boost@@@234@U?$prefer_only@U?$continuation_t@$0A@@relationship@detail@execution@asio@boost@@@234@@234@PEBX0@Z 0000000180049640 f i server.obj
 0001:00048670       ??$?0V?$basic_executor_type@V?$allocator@X@std@@$0A@@io_context@asio@boost@@@?$any_executor@U?$context_as_t@AEAVexecution_context@asio@boost@@@execution@asio@boost@@U?$never_t@$0A@@blocking@detail@234@U?$prefer_only@U?$possibly_t@$0A@@blocking@detail@execution@asio@boost@@@234@U?$prefer_only@U?$tracked_t@$0A@@outstanding_work@detail@execution@asio@boost@@@234@U?$prefer_only@U?$untracked_t@$0A@@outstanding_work@detail@execution@asio@boost@@@234@U?$prefer_only@U?$fork_t@$0A@@relationship@detail@execution@asio@boost@@@234@U?$prefer_only@U?$continuation_t@$0A@@relationship@detail@execution@asio@boost@@@234@@execution@asio@boost@@QEAA@V?$basic_executor_type@V?$allocator@X@std@@$0A@@io_context@23@PEAX@Z 0000000180049670 f i server.obj
 0001:000486b0       ??1?$basic_executor_type@V?$allocator@X@std@@$0A@@io_context@asio@boost@@QEAA@XZ 00000001800496b0 f i server.obj
 0001:000486c0       ??$?0Vio_context@asio@boost@@@?$io_object_impl@V?$win_iocp_socket_service@Vtcp@ip@asio@boost@@@detail@asio@boost@@Vany_io_executor@34@@detail@asio@boost@@QEAA@HHAEAVio_context@23@@Z 00000001800496c0 f i server.obj
 0001:00048800       ?deregister_descriptor@select_reactor@detail@asio@boost@@QEAAX_KAEAUper_descriptor_data@1234@_N@Z 0000000180049800 f i server.obj
 0001:000488e0       ?close_for_destruction@win_iocp_socket_service_base@detail@asio@boost@@IEAAXAEAUbase_implementation_type@1234@@Z 00000001800498e0 f i server.obj
 0001:000489b0       ??1?$io_object_impl@V?$win_iocp_socket_service@Vtcp@ip@asio@boost@@@detail@asio@boost@@Vany_io_executor@34@@detail@asio@boost@@QEAA@XZ 00000001800499b0 f i server.obj
 0001:00048a90       ?_Assign_grow@?$_Hash_vec@V?$allocator@V?$_List_unchecked_const_iterator@V?$_List_val@U?$_List_simple_types@PEAVConnection@?$ServerBase@V?$basic_stream_socket@Vtcp@ip@asio@boost@@Vany_io_executor@34@@asio@boost@@@SimpleWeb@@@std@@@std@@U_Iterator_base0@2@@std@@@std@@@std@@QEAAX_KV?$_List_unchecked_const_iterator@V?$_List_val@U?$_List_simple_types@PEAVConnection@?$ServerBase@V?$basic_stream_socket@Vtcp@ip@asio@boost@@Vany_io_executor@34@@asio@boost@@@SimpleWeb@@@std@@@std@@U_Iterator_base0@2@@2@@Z 0000000180049a90 f i server.obj
 0001:00048a90       ?_Assign_grow@?$_Hash_vec@V?$allocator@V?$_List_unchecked_iterator@V?$_List_val@U?$_List_simple_types@U?$pair@$$CBV?$basic_string@DU?$char_traits@D@std@@V?$allocator@D@2@@std@@V12@@std@@@std@@@std@@@std@@@std@@@std@@QEAAX_KV?$_List_unchecked_iterator@V?$_List_val@U?$_List_simple_types@U?$pair@$$CBV?$basic_string@DU?$char_traits@D@std@@V?$allocator@D@2@@std@@V12@@std@@@std@@@std@@@2@@Z 0000000180049a90 f i server.obj
 0001:00048bd0       ?_Unchecked_erase@?$_Hash@V?$_Uset_traits@PEAVConnection@?$ServerBase@V?$basic_stream_socket@Vtcp@ip@asio@boost@@Vany_io_executor@34@@asio@boost@@@SimpleWeb@@V?$_Uhash_compare@PEAVConnection@?$ServerBase@V?$basic_stream_socket@Vtcp@ip@asio@boost@@Vany_io_executor@34@@asio@boost@@@SimpleWeb@@U?$hash@PEAVConnection@?$ServerBase@V?$basic_stream_socket@Vtcp@ip@asio@boost@@Vany_io_executor@34@@asio@boost@@@SimpleWeb@@@std@@U?$equal_to@PEAVConnection@?$ServerBase@V?$basic_stream_socket@Vtcp@ip@asio@boost@@Vany_io_executor@34@@asio@boost@@@SimpleWeb@@@5@@std@@V?$allocator@PEAVConnection@?$ServerBase@V?$basic_stream_socket@Vtcp@ip@asio@boost@@Vany_io_executor@34@@asio@boost@@@SimpleWeb@@@5@$0A@@std@@@std@@AEAAPEAU?$_List_node@PEAVConnection@?$ServerBase@V?$basic_stream_socket@Vtcp@ip@asio@boost@@Vany_io_executor@34@@asio@boost@@@SimpleWeb@@PEAX@2@PEAU32@QEAU32@@Z 0000000180049bd0 f i server.obj
 0001:00048e00       ??$fill@PEAV?$_List_unchecked_const_iterator@V?$_List_val@U?$_List_simple_types@PEAVConnection@?$ServerBase@V?$basic_stream_socket@Vtcp@ip@asio@boost@@Vany_io_executor@34@@asio@boost@@@SimpleWeb@@@std@@@std@@U_Iterator_base0@2@@std@@V12@@std@@YAXQEAV?$_List_unchecked_const_iterator@V?$_List_val@U?$_List_simple_types@PEAVConnection@?$ServerBase@V?$basic_stream_socket@Vtcp@ip@asio@boost@@Vany_io_executor@34@@asio@boost@@@SimpleWeb@@@std@@@std@@U_Iterator_base0@2@@0@0AEBV10@@Z 0000000180049e00 f i server.obj
 0001:00048e00       ??$fill@PEAV?$_List_unchecked_iterator@V?$_List_val@U?$_List_simple_types@U?$pair@$$CBV?$basic_string@DU?$char_traits@D@std@@V?$allocator@D@2@@std@@V12@@std@@@std@@@std@@@std@@V12@@std@@YAXQEAV?$_List_unchecked_iterator@V?$_List_val@U?$_List_simple_types@U?$pair@$$CBV?$basic_string@DU?$char_traits@D@std@@V?$allocator@D@2@@std@@V12@@std@@@std@@@std@@@0@0AEBV10@@Z 0000000180049e00 f i server.obj
 0001:00048e90       ?clear@?$_Hash@V?$_Uset_traits@PEAVConnection@?$ServerBase@V?$basic_stream_socket@Vtcp@ip@asio@boost@@Vany_io_executor@34@@asio@boost@@@SimpleWeb@@V?$_Uhash_compare@PEAVConnection@?$ServerBase@V?$basic_stream_socket@Vtcp@ip@asio@boost@@Vany_io_executor@34@@asio@boost@@@SimpleWeb@@U?$hash@PEAVConnection@?$ServerBase@V?$basic_stream_socket@Vtcp@ip@asio@boost@@Vany_io_executor@34@@asio@boost@@@SimpleWeb@@@std@@U?$equal_to@PEAVConnection@?$ServerBase@V?$basic_stream_socket@Vtcp@ip@asio@boost@@Vany_io_executor@34@@asio@boost@@@SimpleWeb@@@5@@std@@V?$allocator@PEAVConnection@?$ServerBase@V?$basic_stream_socket@Vtcp@ip@asio@boost@@Vany_io_executor@34@@asio@boost@@@SimpleWeb@@@5@$0A@@std@@@std@@QEAAXXZ 0000000180049e90 f i server.obj
 0001:00048f50       ?_Forced_rehash@?$_Hash@V?$_Uset_traits@PEAVConnection@?$ServerBase@V?$basic_stream_socket@Vtcp@ip@asio@boost@@Vany_io_executor@34@@asio@boost@@@SimpleWeb@@V?$_Uhash_compare@PEAVConnection@?$ServerBase@V?$basic_stream_socket@Vtcp@ip@asio@boost@@Vany_io_executor@34@@asio@boost@@@SimpleWeb@@U?$hash@PEAVConnection@?$ServerBase@V?$basic_stream_socket@Vtcp@ip@asio@boost@@Vany_io_executor@34@@asio@boost@@@SimpleWeb@@@std@@U?$equal_to@PEAVConnection@?$ServerBase@V?$basic_stream_socket@Vtcp@ip@asio@boost@@Vany_io_executor@34@@asio@boost@@@SimpleWeb@@@5@@std@@V?$allocator@PEAVConnection@?$ServerBase@V?$basic_stream_socket@Vtcp@ip@asio@boost@@Vany_io_executor@34@@asio@boost@@@SimpleWeb@@@5@$0A@@std@@@std@@IEAAX_K@Z 0000000180049f50 f i server.obj
 0001:00049130       ??$emplace@PEAVConnection@?$ServerBase@V?$basic_stream_socket@Vtcp@ip@asio@boost@@Vany_io_executor@34@@asio@boost@@@SimpleWeb@@@?$_Hash@V?$_Uset_traits@PEAVConnection@?$ServerBase@V?$basic_stream_socket@Vtcp@ip@asio@boost@@Vany_io_executor@34@@asio@boost@@@SimpleWeb@@V?$_Uhash_compare@PEAVConnection@?$ServerBase@V?$basic_stream_socket@Vtcp@ip@asio@boost@@Vany_io_executor@34@@asio@boost@@@SimpleWeb@@U?$hash@PEAVConnection@?$ServerBase@V?$basic_stream_socket@Vtcp@ip@asio@boost@@Vany_io_executor@34@@asio@boost@@@SimpleWeb@@@std@@U?$equal_to@PEAVConnection@?$ServerBase@V?$basic_stream_socket@Vtcp@ip@asio@boost@@Vany_io_executor@34@@asio@boost@@@SimpleWeb@@@5@@std@@V?$allocator@PEAVConnection@?$ServerBase@V?$basic_stream_socket@Vtcp@ip@asio@boost@@Vany_io_executor@34@@asio@boost@@@SimpleWeb@@@5@$0A@@std@@@std@@QEAA?AU?$pair@V?$_List_const_iterator@V?$_List_val@U?$_List_simple_types@PEAVConnection@?$ServerBase@V?$basic_stream_socket@Vtcp@ip@asio@boost@@Vany_io_executor@34@@asio@boost@@@SimpleWeb@@@std@@@std@@@std@@_N@1@$$QEAPEAVConnection@?$ServerBase@V?$basic_stream_socket@Vtcp@ip@asio@boost@@Vany_io_executor@34@@asio@boost@@@SimpleWeb@@@Z 000000018004a130 f i server.obj
 0001:00049420       ??$create_connection@AEAVio_context@asio@boost@@@?$ServerBase@V?$basic_stream_socket@Vtcp@ip@asio@boost@@Vany_io_executor@34@@asio@boost@@@SimpleWeb@@IEAA?AV?$shared_ptr@VConnection@?$ServerBase@V?$basic_stream_socket@Vtcp@ip@asio@boost@@Vany_io_executor@34@@asio@boost@@@SimpleWeb@@@std@@AEAVio_context@asio@boost@@@Z 000000018004a420 f i server.obj
 0001:00049590       ??1ptr@?$win_iocp_socket_accept_op@V?$basic_socket@Vtcp@ip@asio@boost@@Vany_io_executor@34@@asio@boost@@Vtcp@ip@23@V<lambda_1>@?1??accept@?$Server@V?$basic_stream_socket@Vtcp@ip@asio@boost@@Vany_io_executor@34@@asio@boost@@@SimpleWeb@@MEAAXXZ@Vany_io_executor@23@@detail@asio@boost@@QEAA@XZ 000000018004a590 f i server.obj
 0001:000495a0       ?complete_iocp_accept@socket_ops@detail@asio@boost@@YAX_KPEAXKPEAUsockaddr@@PEA_K0AEAVerror_code@system@4@@Z 000000018004a5a0 f i server.obj
 0001:00049830       ?restart_accept_op@win_iocp_socket_service_base@detail@asio@boost@@QEAAX_KAEAVsocket_holder@234@HHHPEAXKPEAJPEAVwin_iocp_operation@234@@Z 000000018004a830 f i server.obj
 0001:00049a70       ?_Get_deleter@?$_Ref_count_resource@PEAXUnoop_deleter@socket_ops@detail@asio@boost@@@std@@UEBAPEAXAEBVtype_info@@@Z 000000018004aa70 f i server.obj
 0001:00049aa0       ??$reset@XUnoop_deleter@socket_ops@detail@asio@boost@@@?$shared_ptr@X@std@@QEAAXPEAXUnoop_deleter@socket_ops@detail@asio@boost@@@Z 000000018004aaa0 f i server.obj
 0001:00049b30       ?assign@?$win_iocp_socket_service@Vtcp@ip@asio@boost@@@detail@asio@boost@@QEAA?AVerror_code@system@4@AEAUimplementation_type@1234@AEBVtcp@ip@34@AEBVnative_handle_type@1234@AEAV564@@Z 000000018004ab30 f i server.obj
 0001:00049d40       ?reset@ptr@?$win_iocp_socket_accept_op@V?$basic_socket@Vtcp@ip@asio@boost@@Vany_io_executor@34@@asio@boost@@Vtcp@ip@23@V<lambda_1>@?1??accept@?$Server@V?$basic_stream_socket@Vtcp@ip@asio@boost@@Vany_io_executor@34@@asio@boost@@@SimpleWeb@@MEAAXXZ@Vany_io_executor@23@@detail@asio@boost@@QEAAXXZ 000000018004ad40 f i server.obj
 0001:00049e40       ??$complete@V?$binder1@V<lambda_1>@?1??accept@?$Server@V?$basic_stream_socket@Vtcp@ip@asio@boost@@Vany_io_executor@34@@asio@boost@@@SimpleWeb@@MEAAXXZ@Verror_code@system@boost@@@detail@asio@boost@@@executor_function_view@detail@asio@boost@@CAXPEAX@Z 000000018004ae40 f i server.obj
 0001:00049e50       ??1ptr@?$impl@V?$binder1@V<lambda_1>@?1??accept@?$Server@V?$basic_stream_socket@Vtcp@ip@asio@boost@@Vany_io_executor@34@@asio@boost@@@SimpleWeb@@MEAAXXZ@Verror_code@system@boost@@@detail@asio@boost@@V?$allocator@X@std@@@executor_function@detail@asio@boost@@QEAA@XZ 000000018004ae50 f i server.obj
 0001:00049e60       ?reset@ptr@?$impl@V?$binder1@V<lambda_1>@?1??accept@?$Server@V?$basic_stream_socket@Vtcp@ip@asio@boost@@Vany_io_executor@34@@asio@boost@@@SimpleWeb@@MEAAXXZ@Verror_code@system@boost@@@detail@asio@boost@@V?$allocator@X@std@@@executor_function@detail@asio@boost@@QEAAXXZ 000000018004ae60 f i server.obj
 0001:00049f40       ??1ptr@?$win_iocp_socket_recv_op@Vmutable_buffers_1@asio@boost@@V?$read_until_delim_string_op_v1@V?$basic_stream_socket@Vtcp@ip@asio@boost@@Vany_io_executor@34@@asio@boost@@V?$basic_streambuf_ref@V?$allocator@D@std@@@23@V<lambda_1>@?1??read@?$ServerBase@V?$basic_stream_socket@Vtcp@ip@asio@boost@@Vany_io_executor@34@@asio@boost@@@SimpleWeb@@IEAAXAEBV?$shared_ptr@VSession@?$ServerBase@V?$basic_stream_socket@Vtcp@ip@asio@boost@@Vany_io_executor@34@@asio@boost@@@SimpleWeb@@@std@@@Z@@detail@23@Vany_io_executor@23@@detail@asio@boost@@QEAA@XZ 000000018004af40 f i server.obj
 0001:00049f50       ?reset@ptr@?$win_iocp_socket_recv_op@Vmutable_buffers_1@asio@boost@@V?$read_until_delim_string_op_v1@V?$basic_stream_socket@Vtcp@ip@asio@boost@@Vany_io_executor@34@@asio@boost@@V?$basic_streambuf_ref@V?$allocator@D@std@@@23@V<lambda_1>@?1??read@?$ServerBase@V?$basic_stream_socket@Vtcp@ip@asio@boost@@Vany_io_executor@34@@asio@boost@@@SimpleWeb@@IEAAXAEBV?$shared_ptr@VSession@?$ServerBase@V?$basic_stream_socket@Vtcp@ip@asio@boost@@Vany_io_executor@34@@asio@boost@@@SimpleWeb@@@std@@@Z@@detail@23@Vany_io_executor@23@@detail@asio@boost@@QEAAXXZ 000000018004af50 f i server.obj
 0001:00049fe0       ??$complete@V?$binder2@V?$read_until_delim_string_op_v1@V?$basic_stream_socket@Vtcp@ip@asio@boost@@Vany_io_executor@34@@asio@boost@@V?$basic_streambuf_ref@V?$allocator@D@std@@@23@V<lambda_1>@?1??read@?$ServerBase@V?$basic_stream_socket@Vtcp@ip@asio@boost@@Vany_io_executor@34@@asio@boost@@@SimpleWeb@@IEAAXAEBV?$shared_ptr@VSession@?$ServerBase@V?$basic_stream_socket@Vtcp@ip@asio@boost@@Vany_io_executor@34@@asio@boost@@@SimpleWeb@@@std@@@Z@@detail@asio@boost@@Verror_code@system@4@_K@detail@asio@boost@@@executor_function_view@detail@asio@boost@@CAXPEAX@Z 000000018004afe0 f i server.obj
 0001:0004a010       ??1ptr@?$impl@V?$binder2@V?$read_until_delim_string_op_v1@V?$basic_stream_socket@Vtcp@ip@asio@boost@@Vany_io_executor@34@@asio@boost@@V?$basic_streambuf_ref@V?$allocator@D@std@@@23@V<lambda_1>@?1??read@?$ServerBase@V?$basic_stream_socket@Vtcp@ip@asio@boost@@Vany_io_executor@34@@asio@boost@@@SimpleWeb@@IEAAXAEBV?$shared_ptr@VSession@?$ServerBase@V?$basic_stream_socket@Vtcp@ip@asio@boost@@Vany_io_executor@34@@asio@boost@@@SimpleWeb@@@std@@@Z@@detail@asio@boost@@Verror_code@system@4@_K@detail@asio@boost@@V?$allocator@X@std@@@executor_function@detail@asio@boost@@QEAA@XZ 000000018004b010 f i server.obj
 0001:0004a020       ?reset@ptr@?$impl@V?$binder2@V?$read_until_delim_string_op_v1@V?$basic_stream_socket@Vtcp@ip@asio@boost@@Vany_io_executor@34@@asio@boost@@V?$basic_streambuf_ref@V?$allocator@D@std@@@23@V<lambda_1>@?1??read@?$ServerBase@V?$basic_stream_socket@Vtcp@ip@asio@boost@@Vany_io_executor@34@@asio@boost@@@SimpleWeb@@IEAAXAEBV?$shared_ptr@VSession@?$ServerBase@V?$basic_stream_socket@Vtcp@ip@asio@boost@@Vany_io_executor@34@@asio@boost@@@SimpleWeb@@@std@@@Z@@detail@asio@boost@@Verror_code@system@4@_K@detail@asio@boost@@V?$allocator@X@std@@@executor_function@detail@asio@boost@@QEAAXXZ 000000018004b020 f i server.obj
 0001:0004a0d0       ??$asio_handler_invoke@V?$binder2@V?$read_until_delim_string_op_v1@V?$basic_stream_socket@Vtcp@ip@asio@boost@@Vany_io_executor@34@@asio@boost@@V?$basic_streambuf_ref@V?$allocator@D@std@@@23@V<lambda_1>@?1??read@?$ServerBase@V?$basic_stream_socket@Vtcp@ip@asio@boost@@Vany_io_executor@34@@asio@boost@@@SimpleWeb@@IEAAXAEBV?$shared_ptr@VSession@?$ServerBase@V?$basic_stream_socket@Vtcp@ip@asio@boost@@Vany_io_executor@34@@asio@boost@@@SimpleWeb@@@std@@@Z@@detail@asio@boost@@Verror_code@system@4@_K@detail@asio@boost@@@asio@boost@@YAXAEAV?$binder2@V?$read_until_delim_string_op_v1@V?$basic_stream_socket@Vtcp@ip@asio@boost@@Vany_io_executor@34@@asio@boost@@V?$basic_streambuf_ref@V?$allocator@D@std@@@23@V<lambda_1>@?1??read@?$ServerBase@V?$basic_stream_socket@Vtcp@ip@asio@boost@@Vany_io_executor@34@@asio@boost@@@SimpleWeb@@IEAAXAEBV?$shared_ptr@VSession@?$ServerBase@V?$basic_stream_socket@Vtcp@ip@asio@boost@@Vany_io_executor@34@@asio@boost@@@SimpleWeb@@@std@@@Z@@detail@asio@boost@@Verror_code@system@4@_K@detail@01@ZZ 000000018004b0d0 f i server.obj
 0001:0004a110       ??$complete@V?$binder2@V?$read_until_delim_string_op_v1@V?$basic_stream_socket@Vtcp@ip@asio@boost@@Vany_io_executor@34@@asio@boost@@V?$basic_streambuf_ref@V?$allocator@D@std@@@23@V<lambda_1>@?1??read@?$ServerBase@V?$basic_stream_socket@Vtcp@ip@asio@boost@@Vany_io_executor@34@@asio@boost@@@SimpleWeb@@IEAAXAEBV?$shared_ptr@VSession@?$ServerBase@V?$basic_stream_socket@Vtcp@ip@asio@boost@@Vany_io_executor@34@@asio@boost@@@SimpleWeb@@@std@@@Z@@detail@asio@boost@@Verror_code@system@4@_K@detail@asio@boost@@V?$allocator@X@std@@@executor_function@detail@asio@boost@@CAXPEAUimpl_base@0123@_N@Z 000000018004b110 f i server.obj
 0001:0004a270       ??1?$binder2@V?$read_until_delim_string_op_v1@V?$basic_stream_socket@Vtcp@ip@asio@boost@@Vany_io_executor@34@@asio@boost@@V?$basic_streambuf_ref@V?$allocator@D@std@@@23@V<lambda_1>@?1??read@?$ServerBase@V?$basic_stream_socket@Vtcp@ip@asio@boost@@Vany_io_executor@34@@asio@boost@@@SimpleWeb@@IEAAXAEBV?$shared_ptr@VSession@?$ServerBase@V?$basic_stream_socket@Vtcp@ip@asio@boost@@Vany_io_executor@34@@asio@boost@@@SimpleWeb@@@std@@@Z@@detail@asio@boost@@Verror_code@system@4@_K@detail@asio@boost@@QEAA@XZ 000000018004b270 f i server.obj
 0001:0004a280       ?do_complete@?$win_iocp_socket_recv_op@Vmutable_buffers_1@asio@boost@@V?$read_until_delim_string_op_v1@V?$basic_stream_socket@Vtcp@ip@asio@boost@@Vany_io_executor@34@@asio@boost@@V?$basic_streambuf_ref@V?$allocator@D@std@@@23@V<lambda_1>@?1??read@?$ServerBase@V?$basic_stream_socket@Vtcp@ip@asio@boost@@Vany_io_executor@34@@asio@boost@@@SimpleWeb@@IEAAXAEBV?$shared_ptr@VSession@?$ServerBase@V?$basic_stream_socket@Vtcp@ip@asio@boost@@Vany_io_executor@34@@asio@boost@@@SimpleWeb@@@std@@@Z@@detail@23@Vany_io_executor@23@@detail@asio@boost@@SAXPEAXPEAVwin_iocp_operation@234@AEBVerror_code@system@4@_K@Z 000000018004b280 f i server.obj
 0001:0004a5f0       ??0?$read_until_delim_string_op_v1@V?$basic_stream_socket@Vtcp@ip@asio@boost@@Vany_io_executor@34@@asio@boost@@V?$basic_streambuf_ref@V?$allocator@D@std@@@23@V<lambda_1>@?1??read@?$ServerBase@V?$basic_stream_socket@Vtcp@ip@asio@boost@@Vany_io_executor@34@@asio@boost@@@SimpleWeb@@IEAAXAEBV?$shared_ptr@VSession@?$ServerBase@V?$basic_stream_socket@Vtcp@ip@asio@boost@@Vany_io_executor@34@@asio@boost@@@SimpleWeb@@@std@@@Z@@detail@asio@boost@@QEAA@$$QEAV0123@@Z 000000018004b5f0 f i server.obj
 0001:0004a670       ??$async_receive@Vmutable_buffers_1@asio@boost@@V?$read_until_delim_string_op_v1@V?$basic_stream_socket@Vtcp@ip@asio@boost@@Vany_io_executor@34@@asio@boost@@V?$basic_streambuf_ref@V?$allocator@D@std@@@23@V<lambda_1>@?1??read@?$ServerBase@V?$basic_stream_socket@Vtcp@ip@asio@boost@@Vany_io_executor@34@@asio@boost@@@SimpleWeb@@IEAAXAEBV?$shared_ptr@VSession@?$ServerBase@V?$basic_stream_socket@Vtcp@ip@asio@boost@@Vany_io_executor@34@@asio@boost@@@SimpleWeb@@@std@@@Z@@detail@23@Vany_io_executor@23@@win_iocp_socket_service_base@detail@asio@boost@@QEAAXAEAUbase_implementation_type@0123@AEBVmutable_buffers_1@23@HAEAV?$read_until_delim_string_op_v1@V?$basic_stream_socket@Vtcp@ip@asio@boost@@Vany_io_executor@34@@asio@boost@@V?$basic_streambuf_ref@V?$allocator@D@std@@@23@V<lambda_1>@?1??read@?$ServerBase@V?$basic_stream_socket@Vtcp@ip@asio@boost@@Vany_io_executor@34@@asio@boost@@@SimpleWeb@@IEAAXAEBV?$shared_ptr@VSession@?$ServerBase@V?$basic_stream_socket@Vtcp@ip@asio@boost@@Vany_io_executor@34@@asio@boost@@@SimpleWeb@@@std@@@Z@@123@AEBVany_io_executor@23@@Z 000000018004b670 f i server.obj
 0001:0004a820       ??$init_key@V?$deadline_timer_service@U?$chrono_time_traits@Usteady_clock@chrono@std@@U?$wait_traits@Usteady_clock@chrono@std@@@asio@boost@@@detail@asio@boost@@@detail@asio@boost@@@service_registry@detail@asio@boost@@CAXAEAUkey@service@execution_context@23@ZZ 000000018004b820 f i server.obj
 0001:0004a850       ??_E?$deadline_timer_service@U?$chrono_time_traits@Usteady_clock@chrono@std@@U?$wait_traits@Usteady_clock@chrono@std@@@asio@boost@@@detail@asio@boost@@@detail@asio@boost@@UEAAPEAXI@Z 000000018004b850 f i * CIL library *:* CIL module *
 0001:0004a850       ??_G?$deadline_timer_service@U?$chrono_time_traits@Usteady_clock@chrono@std@@U?$wait_traits@Usteady_clock@chrono@std@@@asio@boost@@@detail@asio@boost@@@detail@asio@boost@@UEAAPEAXI@Z 000000018004b850 f i server.obj
 0001:0004a930       ??_E?$timer_queue@U?$chrono_time_traits@Usteady_clock@chrono@std@@U?$wait_traits@Usteady_clock@chrono@std@@@asio@boost@@@detail@asio@boost@@@detail@asio@boost@@UEAAPEAXI@Z 000000018004b930 f i * CIL library *:* CIL module *
 0001:0004a930       ??_G?$timer_queue@U?$chrono_time_traits@Usteady_clock@chrono@std@@U?$wait_traits@Usteady_clock@chrono@std@@@asio@boost@@@detail@asio@boost@@@detail@asio@boost@@UEAAPEAXI@Z 000000018004b930 f i server.obj
 0001:0004a970       ?empty@?$timer_queue@U?$chrono_time_traits@Usteady_clock@chrono@std@@U?$wait_traits@Usteady_clock@chrono@std@@@asio@boost@@@detail@asio@boost@@@detail@asio@boost@@UEBA_NXZ 000000018004b970 f i server.obj
 0001:0004a980       ?wait_duration_msec@?$timer_queue@U?$chrono_time_traits@Usteady_clock@chrono@std@@U?$wait_traits@Usteady_clock@chrono@std@@@asio@boost@@@detail@asio@boost@@@detail@asio@boost@@UEBAJJ@Z 000000018004b980 f i server.obj
 0001:0004aac0       ?wait_duration_usec@?$timer_queue@U?$chrono_time_traits@Usteady_clock@chrono@std@@U?$wait_traits@Usteady_clock@chrono@std@@@asio@boost@@@detail@asio@boost@@@detail@asio@boost@@UEBAJJ@Z 000000018004bac0 f i server.obj
 0001:0004ac00       ?get_ready_timers@?$timer_queue@U?$chrono_time_traits@Usteady_clock@chrono@std@@U?$wait_traits@Usteady_clock@chrono@std@@@asio@boost@@@detail@asio@boost@@@detail@asio@boost@@UEAAXAEAV?$op_queue@Vwin_iocp_operation@detail@asio@boost@@@234@@Z 000000018004bc00 f i server.obj
 0001:0004ad20       ?get_all_timers@?$timer_queue@U?$chrono_time_traits@Usteady_clock@chrono@std@@U?$wait_traits@Usteady_clock@chrono@std@@@asio@boost@@@detail@asio@boost@@@detail@asio@boost@@UEAAXAEAV?$op_queue@Vwin_iocp_operation@detail@asio@boost@@@234@@Z 000000018004bd20 f i server.obj
 0001:0004ad80       ??_Gtimer_queue_base@detail@asio@boost@@UEAAPEAXI@Z 000000018004bd80 f i server.obj
 0001:0004ad80       ??_Etimer_queue_base@detail@asio@boost@@UEAAPEAXI@Z 000000018004bd80 f i * CIL library *:* CIL module *
 0001:0004adb0       ??1?$timer_queue@U?$chrono_time_traits@Usteady_clock@chrono@std@@U?$wait_traits@Usteady_clock@chrono@std@@@asio@boost@@@detail@asio@boost@@@detail@asio@boost@@UEAA@XZ 000000018004bdb0 f i server.obj
 0001:0004ae20       ??$init_key@Vwin_iocp_io_context@detail@asio@boost@@@service_registry@detail@asio@boost@@CAXAEAUkey@service@execution_context@23@ZZ 000000018004be20 f i server.obj
 0001:0004ae50       ?join@win_thread@detail@asio@boost@@QEAAXXZ 000000018004be50 f i server.obj
 0001:0004af00       ?shutdown@win_iocp_io_context@detail@asio@boost@@UEAAXXZ 000000018004bf00 f i server.obj
 0001:0004b190       ??1auto_handle@win_iocp_io_context@detail@asio@boost@@QEAA@XZ 000000018004c190 f i server.obj
 0001:0004b1a0       ?do_init@win_mutex@detail@asio@boost@@AEAAHXZ 000000018004c1a0 f i server.obj
 0001:0004b1d0       ??0win_mutex@detail@asio@boost@@QEAA@XZ 000000018004c1d0 f i server.obj
 0001:0004b290       ??1win_mutex@detail@asio@boost@@QEAA@XZ 000000018004c290 f i server.obj
 0001:0004b290       _Mtxdst                    000000018004c290 f i libcpmt:xmtx.obj
 0001:0004b2a0       ??1?$scoped_ptr@Vwin_thread@detail@asio@boost@@@detail@asio@boost@@QEAA@XZ 000000018004c2a0 f i server.obj
 0001:0004b2d0       ??_E?$func@Utimer_thread_function@win_iocp_io_context@detail@asio@boost@@@win_thread@detail@asio@boost@@UEAAPEAXI@Z 000000018004c2d0 f i * CIL library *:* CIL module *
 0001:0004b2d0       ??_G?$func@Uthread_function@win_iocp_io_context@detail@asio@boost@@@win_thread@detail@asio@boost@@UEAAPEAXI@Z 000000018004c2d0 f i server.obj
 0001:0004b2d0       ??_E?$func@Uthread_function@win_iocp_io_context@detail@asio@boost@@@win_thread@detail@asio@boost@@UEAAPEAXI@Z 000000018004c2d0 f i * CIL library *:* CIL module *
 0001:0004b2d0       ??_G?$func@Utimer_thread_function@win_iocp_io_context@detail@asio@boost@@@win_thread@detail@asio@boost@@UEAAPEAXI@Z 000000018004c2d0 f i server.obj
 0001:0004b300       ??1win_iocp_thread_info@detail@asio@boost@@QEAA@XZ 000000018004c300 f i server.obj
 0001:0004b350       ??1context@?$call_stack@Vthread_context@detail@asio@boost@@Vthread_info_base@234@@detail@asio@boost@@QEAA@XZ 000000018004c350 f i server.obj
 0001:0004b370       ?stop@win_iocp_io_context@detail@asio@boost@@QEAAXXZ 000000018004c370 f i server.obj
 0001:0004b460       ??1work_finished_on_block_exit@win_iocp_io_context@detail@asio@boost@@QEAA@XZ 000000018004c460 f i server.obj
 0001:0004b490       ?__autoclassinit2@exception_ptr@std@@QEAAX_K@Z 000000018004c490 f i server.obj
 0001:0004b4a0       ?rethrow_exception@std@@YAXVexception_ptr@1@@Z 000000018004c4a0 f i server.obj
 0001:0004b4b0       ??0exception_ptr@std@@QEAA@AEBV01@@Z 000000018004c4b0 f i server.obj
 0001:0004b4d0       ??1exception_ptr@std@@QEAA@XZ 000000018004c4d0 f i server.obj
 0001:0004b4e0       ?do_one@win_iocp_io_context@detail@asio@boost@@AEAA_KKAEAUwin_iocp_thread_info@234@AEAVerror_code@system@4@@Z 000000018004c4e0 f i server.obj
 0001:0004b9a0       ?run@win_iocp_io_context@detail@asio@boost@@QEAA_KAEAVerror_code@system@4@@Z 000000018004c9a0 f i server.obj
 0001:0004bb20       ?run@?$func@Uthread_function@win_iocp_io_context@detail@asio@boost@@@win_thread@detail@asio@boost@@UEAAXXZ 000000018004cb20 f i server.obj
 0001:0004bb50       ??0win_iocp_io_context@detail@asio@boost@@QEAA@AEAVexecution_context@23@H_N@Z 000000018004cb50 f i server.obj
 0001:0004bd90       ??$create@Vwin_iocp_io_context@detail@asio@boost@@Vexecution_context@34@@service_registry@detail@asio@boost@@CAPEAVservice@execution_context@23@PEAX@Z 000000018004cd90 f i server.obj
 0001:0004bde0       ?win_thread_function@detail@asio@boost@@YAIPEAX@Z 000000018004cde0 f i server.obj
 0001:0004be40       ??_Gfunc_base@win_thread@detail@asio@boost@@UEAAPEAXI@Z 000000018004ce40 f i server.obj
 0001:0004be40       ??_Efunc_base@win_thread@detail@asio@boost@@UEAAPEAXI@Z 000000018004ce40 f i * CIL library *:* CIL module *
 0001:0004be70       ?start_thread@win_thread@detail@asio@boost@@AEAAXPEAVfunc_base@1234@I@Z 000000018004ce70 f i server.obj
 0001:0004c100       ?run@?$func@Utimer_thread_function@win_iocp_io_context@detail@asio@boost@@@win_thread@detail@asio@boost@@UEAAXXZ 000000018004d100 f i server.obj
 0001:0004c170       ?do_add_timer_queue@win_iocp_io_context@detail@asio@boost@@AEAAXAEAVtimer_queue_base@234@@Z 000000018004d170 f i server.obj
 0001:0004c350       ??$create@V?$deadline_timer_service@U?$chrono_time_traits@Usteady_clock@chrono@std@@U?$wait_traits@Usteady_clock@chrono@std@@@asio@boost@@@detail@asio@boost@@@detail@asio@boost@@Vexecution_context@34@@service_registry@detail@asio@boost@@CAPEAVservice@execution_context@23@PEAX@Z 000000018004d350 f i server.obj
 0001:0004c420       ?do_use_service@service_registry@detail@asio@boost@@AEAAPEAVservice@execution_context@34@AEBUkey@5634@P6APEAV5634@PEAX@Z1@Z 000000018004d420 f i server.obj
 0001:0004c570       ??0?$basic_waitable_timer@Usteady_clock@chrono@std@@U?$wait_traits@Usteady_clock@chrono@std@@@asio@boost@@Vany_io_executor@56@@asio@boost@@QEAA@AEBVany_io_executor@12@AEBV?$duration@_JU?$ratio@$00$0DLJKMKAA@@std@@@chrono@std@@@Z 000000018004d570 f i server.obj
 0001:0004c720       ??1?$io_object_impl@V?$deadline_timer_service@U?$chrono_time_traits@Usteady_clock@chrono@std@@U?$wait_traits@Usteady_clock@chrono@std@@@asio@boost@@@detail@asio@boost@@@detail@asio@boost@@Vany_io_executor@34@@detail@asio@boost@@QEAA@XZ 000000018004d720 f i server.obj
 0001:0004c780       ??1?$unique_ptr@V?$basic_waitable_timer@Usteady_clock@chrono@std@@U?$wait_traits@Usteady_clock@chrono@std@@@asio@boost@@Vany_io_executor@56@@asio@boost@@U?$default_delete@V?$basic_waitable_timer@Usteady_clock@chrono@std@@U?$wait_traits@Usteady_clock@chrono@std@@@asio@boost@@Vany_io_executor@56@@asio@boost@@@std@@@std@@QEAA@XZ 000000018004d780 f i server.obj
 0001:0004c7f0       ??1ptr@?$wait_handler@V<lambda_1>@?1??set_timeout@Connection@?$ServerBase@V?$basic_stream_socket@Vtcp@ip@asio@boost@@Vany_io_executor@34@@asio@boost@@@SimpleWeb@@QEAAXJ@Z@Vany_io_executor@asio@boost@@@detail@asio@boost@@QEAA@XZ 000000018004d7f0 f i server.obj
 0001:0004c800       ?reset@ptr@?$wait_handler@V<lambda_1>@?1??set_timeout@Connection@?$ServerBase@V?$basic_stream_socket@Vtcp@ip@asio@boost@@Vany_io_executor@34@@asio@boost@@@SimpleWeb@@QEAAXJ@Z@Vany_io_executor@asio@boost@@@detail@asio@boost@@QEAAXXZ 000000018004d800 f i server.obj
 0001:0004c880       ??$complete@V?$binder1@V<lambda_1>@?1??set_timeout@Connection@?$ServerBase@V?$basic_stream_socket@Vtcp@ip@asio@boost@@Vany_io_executor@34@@asio@boost@@@SimpleWeb@@QEAAXJ@Z@Verror_code@system@boost@@@detail@asio@boost@@@executor_function_view@detail@asio@boost@@CAXPEAX@Z 000000018004d880 f i server.obj
 0001:0004c890       ?reset@ptr@?$impl@V?$binder1@V<lambda_1>@?1??set_timeout@Connection@?$ServerBase@V?$basic_stream_socket@Vtcp@ip@asio@boost@@Vany_io_executor@34@@asio@boost@@@SimpleWeb@@QEAAXJ@Z@Verror_code@system@boost@@@detail@asio@boost@@V?$allocator@X@std@@@executor_function@detail@asio@boost@@QEAAXXZ 000000018004d890 f i server.obj
 0001:0004c950       ??1?$op_queue@Vreactor_op@detail@asio@boost@@@detail@asio@boost@@QEAA@XZ 000000018004d950 f i server.obj
 0001:0004c950       ??1?$op_queue@Vwait_op@detail@asio@boost@@@detail@asio@boost@@QEAA@XZ 000000018004d950 f i server.obj
 0001:0004c950       ??1?$op_queue@Vwin_iocp_operation@detail@asio@boost@@@detail@asio@boost@@QEAA@XZ 000000018004d950 f i server.obj
 0001:0004c9c0       ?cancel_operations@?$reactor_op_queue@_K@detail@asio@boost@@QEAA_NV?$_List_iterator@V?$_List_val@U?$_List_simple_types@U?$pair@_KUmapped_type@?$reactor_op_queue@_K@detail@asio@boost@@@std@@@std@@@std@@@std@@AEAV?$op_queue@Vwin_iocp_operation@detail@asio@boost@@@234@AEBVerror_code@system@4@@Z 000000018004d9c0 f i server.obj
 0001:0004cb50       ?send@socket_ops@detail@asio@boost@@YAH_KPEBU_WSABUF@@0HAEAVerror_code@system@4@@Z 000000018004db50 f i server.obj
 0001:0004cdc0       ?cancel_ops_unlocked@select_reactor@detail@asio@boost@@AEAAX_KAEBVerror_code@system@4@@Z 000000018004ddc0 f i server.obj
 0001:0004cf40       ?cancel@win_iocp_socket_service_base@detail@asio@boost@@QEAA?AVerror_code@system@4@AEAUbase_implementation_type@1234@AEAV564@@Z 000000018004df40 f i server.obj
 0001:0004d1f0       ?close@Connection@?$ServerBase@V?$basic_stream_socket@Vtcp@ip@asio@boost@@Vany_io_executor@34@@asio@boost@@@SimpleWeb@@QEAAXXZ 000000018004e1f0 f i server.obj
 0001:0004d2f0       ??R?$binder1@V<lambda_1>@?1??set_timeout@Connection@?$ServerBase@V?$basic_stream_socket@Vtcp@ip@asio@boost@@Vany_io_executor@34@@asio@boost@@@SimpleWeb@@QEAAXJ@Z@Verror_code@system@boost@@@detail@asio@boost@@QEAAXXZ 000000018004e2f0 f i server.obj
 0001:0004d390       ??$asio_handler_invoke@V?$binder1@V<lambda_1>@?1??set_timeout@Connection@?$ServerBase@V?$basic_stream_socket@Vtcp@ip@asio@boost@@Vany_io_executor@34@@asio@boost@@@SimpleWeb@@QEAAXJ@Z@Verror_code@system@boost@@@detail@asio@boost@@@asio@boost@@YAXAEAV?$binder1@V<lambda_1>@?1??set_timeout@Connection@?$ServerBase@V?$basic_stream_socket@Vtcp@ip@asio@boost@@Vany_io_executor@34@@asio@boost@@@SimpleWeb@@QEAAXJ@Z@Verror_code@system@boost@@@detail@01@ZZ 000000018004e390 f i server.obj
 0001:0004d3b0       ??$complete@V?$binder1@V<lambda_1>@?1??set_timeout@Connection@?$ServerBase@V?$basic_stream_socket@Vtcp@ip@asio@boost@@Vany_io_executor@34@@asio@boost@@@SimpleWeb@@QEAAXJ@Z@Verror_code@system@boost@@@detail@asio@boost@@V?$allocator@X@std@@@executor_function@detail@asio@boost@@CAXPEAUimpl_base@0123@_N@Z 000000018004e3b0 f i server.obj
 0001:0004d460       ??1?$binder1@V<lambda_1>@?1??set_timeout@Connection@?$ServerBase@V?$basic_stream_socket@Vtcp@ip@asio@boost@@Vany_io_executor@34@@asio@boost@@@SimpleWeb@@QEAAXJ@Z@Verror_code@system@boost@@@detail@asio@boost@@QEAA@XZ 000000018004e460 f i server.obj
 0001:0004d460       ??1?$weak_ptr@X@std@@QEAA@XZ 000000018004e460 f i server.obj
 0001:0004d480       ??$complete@V?$binder1@V<lambda_1>@?1??set_timeout@Connection@?$ServerBase@V?$basic_stream_socket@Vtcp@ip@asio@boost@@Vany_io_executor@34@@asio@boost@@@SimpleWeb@@QEAAXJ@Z@Verror_code@system@boost@@@detail@asio@boost@@@?$handler_work@V<lambda_1>@?1??set_timeout@Connection@?$ServerBase@V?$basic_stream_socket@Vtcp@ip@asio@boost@@Vany_io_executor@34@@asio@boost@@@SimpleWeb@@QEAAXJ@Z@Vany_io_executor@asio@boost@@X@detail@asio@boost@@QEAAXAEAV?$binder1@V<lambda_1>@?1??set_timeout@Connection@?$ServerBase@V?$basic_stream_socket@Vtcp@ip@asio@boost@@Vany_io_executor@34@@asio@boost@@@SimpleWeb@@QEAAXJ@Z@Verror_code@system@boost@@@123@AEAV<lambda_1>@?1??set_timeout@Connection@?$ServerBase@V?$basic_stream_socket@Vtcp@ip@asio@boost@@Vany_io_executor@34@@asio@boost@@@SimpleWeb@@QEAAXJ@Z@@Z 000000018004e480 f i server.obj
 0001:0004d610       ?do_complete@?$wait_handler@V<lambda_1>@?1??set_timeout@Connection@?$ServerBase@V?$basic_stream_socket@Vtcp@ip@asio@boost@@Vany_io_executor@34@@asio@boost@@@SimpleWeb@@QEAAXJ@Z@Vany_io_executor@asio@boost@@@detail@asio@boost@@SAXPEAXPEAVwin_iocp_operation@234@AEBVerror_code@system@4@_K@Z 000000018004e610 f i server.obj
 0001:0004d7c0       ?post_immediate_completion@win_iocp_io_context@detail@asio@boost@@QEAAXPEAVwin_iocp_operation@234@_N@Z 000000018004e7c0 f i server.obj
 0001:0004d850       ??$_Emplace_reallocate@AEBUheap_entry@?$timer_queue@U?$chrono_time_traits@Usteady_clock@chrono@std@@U?$wait_traits@Usteady_clock@chrono@std@@@asio@boost@@@detail@asio@boost@@@detail@asio@boost@@@?$vector@Uheap_entry@?$timer_queue@U?$chrono_time_traits@Usteady_clock@chrono@std@@U?$wait_traits@Usteady_clock@chrono@std@@@asio@boost@@@detail@asio@boost@@@detail@asio@boost@@V?$allocator@Uheap_entry@?$timer_queue@U?$chrono_time_traits@Usteady_clock@chrono@std@@U?$wait_traits@Usteady_clock@chrono@std@@@asio@boost@@@detail@asio@boost@@@detail@asio@boost@@@std@@@std@@QEAAPEAUheap_entry@?$timer_queue@U?$chrono_time_traits@Usteady_clock@chrono@std@@U?$wait_traits@Usteady_clock@chrono@std@@@asio@boost@@@detail@asio@boost@@@detail@asio@boost@@QEAU23456@AEBU23456@@Z 000000018004e850 f i server.obj
 0001:0004d9e0       ?enqueue_timer@?$timer_queue@U?$chrono_time_traits@Usteady_clock@chrono@std@@U?$wait_traits@Usteady_clock@chrono@std@@@asio@boost@@@detail@asio@boost@@@detail@asio@boost@@QEAA_NAEBV?$time_point@Usteady_clock@chrono@std@@V?$duration@_JU?$ratio@$00$0DLJKMKAA@@std@@@23@@chrono@std@@AEAVper_timer_data@1234@PEAVwait_op@234@@Z 000000018004e9e0 f i server.obj
 0001:0004db60       ?update_timeout@win_iocp_io_context@detail@asio@boost@@AEAAXXZ 000000018004eb60 f i server.obj
 0001:0004dc00       ?set_timeout@Connection@?$ServerBase@V?$basic_stream_socket@Vtcp@ip@asio@boost@@Vany_io_executor@34@@asio@boost@@@SimpleWeb@@QEAAXJ@Z 000000018004ec00 f i server.obj
 0001:0004dfd0       ??1?$_List_node_emplace_op2@V?$allocator@U?$_List_node@U?$pair@$$CBV?$basic_string@DU?$char_traits@D@std@@V?$allocator@D@2@@std@@V12@@std@@PEAX@std@@@std@@@std@@QEAA@XZ 000000018004efd0 f i server.obj
 0001:0004e010       ?_Unchecked_erase@?$_Hash@V?$_Umap_traits@V?$basic_string@DU?$char_traits@D@std@@V?$allocator@D@2@@std@@V12@V?$_Uhash_compare@V?$basic_string@DU?$char_traits@D@std@@V?$allocator@D@2@@std@@VCaseInsensitiveHash@SimpleWeb@@VCaseInsensitiveEqual@4@@2@V?$allocator@U?$pair@$$CBV?$basic_string@DU?$char_traits@D@std@@V?$allocator@D@2@@std@@V12@@std@@@2@$00@std@@@std@@AEAAPEAU?$_List_node@U?$pair@$$CBV?$basic_string@DU?$char_traits@D@std@@V?$allocator@D@2@@std@@V12@@std@@PEAX@2@PEAU32@QEAU32@@Z 000000018004f010 f i server.obj
 0001:0004e1b0       ?clear@?$_Hash@V?$_Umap_traits@V?$basic_string@DU?$char_traits@D@std@@V?$allocator@D@2@@std@@V12@V?$_Uhash_compare@V?$basic_string@DU?$char_traits@D@std@@V?$allocator@D@2@@std@@VCaseInsensitiveHash@SimpleWeb@@VCaseInsensitiveEqual@4@@2@V?$allocator@U?$pair@$$CBV?$basic_string@DU?$char_traits@D@std@@V?$allocator@D@2@@std@@V12@@std@@@2@$00@std@@@std@@QEAAXXZ 000000018004f1b0 f i server.obj
 0001:0004e280       ?_Forced_rehash@?$_Hash@V?$_Umap_traits@V?$basic_string@DU?$char_traits@D@std@@V?$allocator@D@2@@std@@V12@V?$_Uhash_compare@V?$basic_string@DU?$char_traits@D@std@@V?$allocator@D@2@@std@@VCaseInsensitiveHash@SimpleWeb@@VCaseInsensitiveEqual@4@@2@V?$allocator@U?$pair@$$CBV?$basic_string@DU?$char_traits@D@std@@V?$allocator@D@2@@std@@V12@@std@@@2@$00@std@@@std@@IEAAX_K@Z 000000018004f280 f i server.obj
 0001:0004e460       ??$emplace@V?$basic_string@DU?$char_traits@D@std@@V?$allocator@D@2@@std@@V12@@?$_Hash@V?$_Umap_traits@V?$basic_string@DU?$char_traits@D@std@@V?$allocator@D@2@@std@@V12@V?$_Uhash_compare@V?$basic_string@DU?$char_traits@D@std@@V?$allocator@D@2@@std@@VCaseInsensitiveHash@SimpleWeb@@VCaseInsensitiveEqual@4@@2@V?$allocator@U?$pair@$$CBV?$basic_string@DU?$char_traits@D@std@@V?$allocator@D@2@@std@@V12@@std@@@2@$00@std@@@std@@QEAA?AV?$_List_iterator@V?$_List_val@U?$_List_simple_types@U?$pair@$$CBV?$basic_string@DU?$char_traits@D@std@@V?$allocator@D@2@@std@@V12@@std@@@std@@@std@@@1@$$QEAV?$basic_string@DU?$char_traits@D@std@@V?$allocator@D@2@@1@0@Z 000000018004f460 f i server.obj
 0001:0004e6c0       ?parse@HttpHeader@SimpleWeb@@SA?AV?$unordered_multimap@V?$basic_string@DU?$char_traits@D@std@@V?$allocator@D@2@@std@@V12@VCaseInsensitiveHash@SimpleWeb@@VCaseInsensitiveEqual@4@V?$allocator@U?$pair@$$CBV?$basic_string@DU?$char_traits@D@std@@V?$allocator@D@2@@std@@V12@@std@@@2@@std@@AEAV?$basic_istream@DU?$char_traits@D@std@@@4@@Z 000000018004f6c0 f i server.obj
 0001:0004e9c0       ?parse@RequestMessage@SimpleWeb@@SA_NAEAV?$basic_istream@DU?$char_traits@D@std@@@std@@AEAV?$basic_string@DU?$char_traits@D@std@@V?$allocator@D@2@@4@111AEAV?$unordered_multimap@V?$basic_string@DU?$char_traits@D@std@@V?$allocator@D@2@@std@@V12@VCaseInsensitiveHash@SimpleWeb@@VCaseInsensitiveEqual@4@V?$allocator@U?$pair@$$CBV?$basic_string@DU?$char_traits@D@std@@V?$allocator@D@2@@std@@V12@@std@@@2@@4@@Z 000000018004f9c0 f i server.obj
 0001:0004f0d0       ??1ptr@?$win_iocp_socket_recv_op@Vmutable_buffers_1@asio@boost@@V?$read_dynbuf_v1_op@V?$basic_stream_socket@Vtcp@ip@asio@boost@@Vany_io_executor@34@@asio@boost@@V?$basic_streambuf_ref@V?$allocator@D@std@@@23@Vtransfer_exactly_t@detail@23@V<lambda_1>@?BL@???R7?1??read@?$ServerBase@V?$basic_stream_socket@Vtcp@ip@asio@boost@@Vany_io_executor@34@@asio@boost@@@SimpleWeb@@IEAAXAEBV?$shared_ptr@VSession@?$ServerBase@V?$basic_stream_socket@Vtcp@ip@asio@boost@@Vany_io_executor@34@@asio@boost@@@SimpleWeb@@@std@@@Z@QEBA@AEBVerror_code@system@3@_K@Z@@detail@23@Vany_io_executor@23@@detail@asio@boost@@QEAA@XZ 00000001800500d0 f i server.obj
 0001:0004f0e0       ?reset@ptr@?$win_iocp_socket_recv_op@Vmutable_buffers_1@asio@boost@@V?$read_dynbuf_v1_op@V?$basic_stream_socket@Vtcp@ip@asio@boost@@Vany_io_executor@34@@asio@boost@@V?$basic_streambuf_ref@V?$allocator@D@std@@@23@Vtransfer_exactly_t@detail@23@V<lambda_1>@?BL@???R7?1??read@?$ServerBase@V?$basic_stream_socket@Vtcp@ip@asio@boost@@Vany_io_executor@34@@asio@boost@@@SimpleWeb@@IEAAXAEBV?$shared_ptr@VSession@?$ServerBase@V?$basic_stream_socket@Vtcp@ip@asio@boost@@Vany_io_executor@34@@asio@boost@@@SimpleWeb@@@std@@@Z@QEBA@AEBVerror_code@system@3@_K@Z@@detail@23@Vany_io_executor@23@@detail@asio@boost@@QEAAXXZ 00000001800500e0 f i server.obj
 0001:0004f1b0       ??$complete@V?$binder2@V?$read_dynbuf_v1_op@V?$basic_stream_socket@Vtcp@ip@asio@boost@@Vany_io_executor@34@@asio@boost@@V?$basic_streambuf_ref@V?$allocator@D@std@@@23@Vtransfer_exactly_t@detail@23@V<lambda_1>@?BL@???R7?1??read@?$ServerBase@V?$basic_stream_socket@Vtcp@ip@asio@boost@@Vany_io_executor@34@@asio@boost@@@SimpleWeb@@IEAAXAEBV?$shared_ptr@VSession@?$ServerBase@V?$basic_stream_socket@Vtcp@ip@asio@boost@@Vany_io_executor@34@@asio@boost@@@SimpleWeb@@@std@@@Z@QEBA@AEBVerror_code@system@3@_K@Z@@detail@asio@boost@@Verror_code@system@4@_K@detail@asio@boost@@@executor_function_view@detail@asio@boost@@CAXPEAX@Z 00000001800501b0 f i server.obj
 0001:0004f1e0       ??1ptr@?$impl@V?$binder2@V?$read_dynbuf_v1_op@V?$basic_stream_socket@Vtcp@ip@asio@boost@@Vany_io_executor@34@@asio@boost@@V?$basic_streambuf_ref@V?$allocator@D@std@@@23@Vtransfer_exactly_t@detail@23@V<lambda_1>@?BL@???R7?1??read@?$ServerBase@V?$basic_stream_socket@Vtcp@ip@asio@boost@@Vany_io_executor@34@@asio@boost@@@SimpleWeb@@IEAAXAEBV?$shared_ptr@VSession@?$ServerBase@V?$basic_stream_socket@Vtcp@ip@asio@boost@@Vany_io_executor@34@@asio@boost@@@SimpleWeb@@@std@@@Z@QEBA@AEBVerror_code@system@3@_K@Z@@detail@asio@boost@@Verror_code@system@4@_K@detail@asio@boost@@V?$allocator@X@std@@@executor_function@detail@asio@boost@@QEAA@XZ 00000001800501e0 f i server.obj
 0001:0004f1f0       ?reset@ptr@?$impl@V?$binder2@V?$read_dynbuf_v1_op@V?$basic_stream_socket@Vtcp@ip@asio@boost@@Vany_io_executor@34@@asio@boost@@V?$basic_streambuf_ref@V?$allocator@D@std@@@23@Vtransfer_exactly_t@detail@23@V<lambda_1>@?BL@???R7?1??read@?$ServerBase@V?$basic_stream_socket@Vtcp@ip@asio@boost@@Vany_io_executor@34@@asio@boost@@@SimpleWeb@@IEAAXAEBV?$shared_ptr@VSession@?$ServerBase@V?$basic_stream_socket@Vtcp@ip@asio@boost@@Vany_io_executor@34@@asio@boost@@@SimpleWeb@@@std@@@Z@QEBA@AEBVerror_code@system@3@_K@Z@@detail@asio@boost@@Verror_code@system@4@_K@detail@asio@boost@@V?$allocator@X@std@@@executor_function@detail@asio@boost@@QEAAXXZ 00000001800501f0 f i server.obj
 0001:0004f2d0       ??$asio_handler_invoke@V?$binder2@V?$read_dynbuf_v1_op@V?$basic_stream_socket@Vtcp@ip@asio@boost@@Vany_io_executor@34@@asio@boost@@V?$basic_streambuf_ref@V?$allocator@D@std@@@23@Vtransfer_exactly_t@detail@23@V<lambda_1>@?BL@???R7?1??read@?$ServerBase@V?$basic_stream_socket@Vtcp@ip@asio@boost@@Vany_io_executor@34@@asio@boost@@@SimpleWeb@@IEAAXAEBV?$shared_ptr@VSession@?$ServerBase@V?$basic_stream_socket@Vtcp@ip@asio@boost@@Vany_io_executor@34@@asio@boost@@@SimpleWeb@@@std@@@Z@QEBA@AEBVerror_code@system@3@_K@Z@@detail@asio@boost@@Verror_code@system@4@_K@detail@asio@boost@@@asio@boost@@YAXAEAV?$binder2@V?$read_dynbuf_v1_op@V?$basic_stream_socket@Vtcp@ip@asio@boost@@Vany_io_executor@34@@asio@boost@@V?$basic_streambuf_ref@V?$allocator@D@std@@@23@Vtransfer_exactly_t@detail@23@V<lambda_1>@?BL@???R7?1??read@?$ServerBase@V?$basic_stream_socket@Vtcp@ip@asio@boost@@Vany_io_executor@34@@asio@boost@@@SimpleWeb@@IEAAXAEBV?$shared_ptr@VSession@?$ServerBase@V?$basic_stream_socket@Vtcp@ip@asio@boost@@Vany_io_executor@34@@asio@boost@@@SimpleWeb@@@std@@@Z@QEBA@AEBVerror_code@system@3@_K@Z@@detail@asio@boost@@Verror_code@system@4@_K@detail@01@ZZ 00000001800502d0 f i server.obj
 0001:0004f310       ??$complete@V?$binder2@V?$read_dynbuf_v1_op@V?$basic_stream_socket@Vtcp@ip@asio@boost@@Vany_io_executor@34@@asio@boost@@V?$basic_streambuf_ref@V?$allocator@D@std@@@23@Vtransfer_exactly_t@detail@23@V<lambda_1>@?BL@???R7?1??read@?$ServerBase@V?$basic_stream_socket@Vtcp@ip@asio@boost@@Vany_io_executor@34@@asio@boost@@@SimpleWeb@@IEAAXAEBV?$shared_ptr@VSession@?$ServerBase@V?$basic_stream_socket@Vtcp@ip@asio@boost@@Vany_io_executor@34@@asio@boost@@@SimpleWeb@@@std@@@Z@QEBA@AEBVerror_code@system@3@_K@Z@@detail@asio@boost@@Verror_code@system@4@_K@detail@asio@boost@@V?$allocator@X@std@@@executor_function@detail@asio@boost@@CAXPEAUimpl_base@0123@_N@Z 0000000180050310 f i server.obj
 0001:0004f450       ??0?$binder2@V?$read_dynbuf_v1_op@V?$basic_stream_socket@Vtcp@ip@asio@boost@@Vany_io_executor@34@@asio@boost@@V?$basic_streambuf_ref@V?$allocator@D@std@@@23@Vtransfer_exactly_t@detail@23@V<lambda_1>@?BL@???R7?1??read@?$ServerBase@V?$basic_stream_socket@Vtcp@ip@asio@boost@@Vany_io_executor@34@@asio@boost@@@SimpleWeb@@IEAAXAEBV?$shared_ptr@VSession@?$ServerBase@V?$basic_stream_socket@Vtcp@ip@asio@boost@@Vany_io_executor@34@@asio@boost@@@SimpleWeb@@@std@@@Z@QEBA@AEBVerror_code@system@3@_K@Z@@detail@asio@boost@@Verror_code@system@4@_K@detail@asio@boost@@QEAA@$$QEAV0123@@Z 0000000180050450 f i server.obj
 0001:0004f4d0       ??1?$binder2@V?$read_dynbuf_v1_op@V?$basic_stream_socket@Vtcp@ip@asio@boost@@Vany_io_executor@34@@asio@boost@@V?$basic_streambuf_ref@V?$allocator@D@std@@@23@Vtransfer_exactly_t@detail@23@V<lambda_1>@?BL@???R7?1??read@?$ServerBase@V?$basic_stream_socket@Vtcp@ip@asio@boost@@Vany_io_executor@34@@asio@boost@@@SimpleWeb@@IEAAXAEBV?$shared_ptr@VSession@?$ServerBase@V?$basic_stream_socket@Vtcp@ip@asio@boost@@Vany_io_executor@34@@asio@boost@@@SimpleWeb@@@std@@@Z@QEBA@AEBVerror_code@system@3@_K@Z@@detail@asio@boost@@Verror_code@system@4@_K@detail@asio@boost@@QEAA@XZ 00000001800504d0 f i server.obj
 0001:0004f4d0       ??1?$read_dynbuf_v1_op@V?$basic_stream_socket@Vtcp@ip@asio@boost@@Vany_io_executor@34@@asio@boost@@V?$basic_streambuf_ref@V?$allocator@D@std@@@23@Vtransfer_exactly_t@detail@23@V<lambda_1>@?BL@???R7?1??read@?$ServerBase@V?$basic_stream_socket@Vtcp@ip@asio@boost@@Vany_io_executor@34@@asio@boost@@@SimpleWeb@@IEAAXAEBV?$shared_ptr@VSession@?$ServerBase@V?$basic_stream_socket@Vtcp@ip@asio@boost@@Vany_io_executor@34@@asio@boost@@@SimpleWeb@@@std@@@Z@QEBA@AEBVerror_code@system@3@_K@Z@@detail@asio@boost@@QEAA@XZ 00000001800504d0 f i server.obj
 0001:0004f520       ??$complete@V?$binder2@V?$read_dynbuf_v1_op@V?$basic_stream_socket@Vtcp@ip@asio@boost@@Vany_io_executor@34@@asio@boost@@V?$basic_streambuf_ref@V?$allocator@D@std@@@23@Vtransfer_exactly_t@detail@23@V<lambda_1>@?BL@???R7?1??read@?$ServerBase@V?$basic_stream_socket@Vtcp@ip@asio@boost@@Vany_io_executor@34@@asio@boost@@@SimpleWeb@@IEAAXAEBV?$shared_ptr@VSession@?$ServerBase@V?$basic_stream_socket@Vtcp@ip@asio@boost@@Vany_io_executor@34@@asio@boost@@@SimpleWeb@@@std@@@Z@QEBA@AEBVerror_code@system@3@_K@Z@@detail@asio@boost@@Verror_code@system@4@_K@detail@asio@boost@@@?$handler_work@V?$read_dynbuf_v1_op@V?$basic_stream_socket@Vtcp@ip@asio@boost@@Vany_io_executor@34@@asio@boost@@V?$basic_streambuf_ref@V?$allocator@D@std@@@23@Vtransfer_exactly_t@detail@23@V<lambda_1>@?BL@???R7?1??read@?$ServerBase@V?$basic_stream_socket@Vtcp@ip@asio@boost@@Vany_io_executor@34@@asio@boost@@@SimpleWeb@@IEAAXAEBV?$shared_ptr@VSession@?$ServerBase@V?$basic_stream_socket@Vtcp@ip@asio@boost@@Vany_io_executor@34@@asio@boost@@@SimpleWeb@@@std@@@Z@QEBA@AEBVerror_code@system@3@_K@Z@@detail@asio@boost@@Vany_io_executor@34@X@detail@asio@boost@@QEAAXAEAV?$binder2@V?$read_dynbuf_v1_op@V?$basic_stream_socket@Vtcp@ip@asio@boost@@Vany_io_executor@34@@asio@boost@@V?$basic_streambuf_ref@V?$allocator@D@std@@@23@Vtransfer_exactly_t@detail@23@V<lambda_1>@?BL@???R7?1??read@?$ServerBase@V?$basic_stream_socket@Vtcp@ip@asio@boost@@Vany_io_executor@34@@asio@boost@@@SimpleWeb@@IEAAXAEBV?$shared_ptr@VSession@?$ServerBase@V?$basic_stream_socket@Vtcp@ip@asio@boost@@Vany_io_executor@34@@asio@boost@@@SimpleWeb@@@std@@@Z@QEBA@AEBVerror_code@system@3@_K@Z@@detail@asio@boost@@Verror_code@system@4@_K@123@AEAV?$read_dynbuf_v1_op@V?$basic_stream_socket@Vtcp@ip@asio@boost@@Vany_io_executor@34@@asio@boost@@V?$basic_streambuf_ref@V?$allocator@D@std@@@23@Vtransfer_exactly_t@detail@23@V<lambda_1>@?BL@???R7?1??read@?$ServerBase@V?$basic_stream_socket@Vtcp@ip@asio@boost@@Vany_io_executor@34@@asio@boost@@@SimpleWeb@@IEAAXAEBV?$shared_ptr@VSession@?$ServerBase@V?$basic_stream_socket@Vtcp@ip@asio@boost@@Vany_io_executor@34@@asio@boost@@@SimpleWeb@@@std@@@Z@QEBA@AEBVerror_code@system@3@_K@Z@@123@@Z 0000000180050520 f i server.obj
 0001:0004f690       ?do_complete@?$win_iocp_socket_recv_op@Vmutable_buffers_1@asio@boost@@V?$read_dynbuf_v1_op@V?$basic_stream_socket@Vtcp@ip@asio@boost@@Vany_io_executor@34@@asio@boost@@V?$basic_streambuf_ref@V?$allocator@D@std@@@23@Vtransfer_exactly_t@detail@23@V<lambda_1>@?BL@???R7?1??read@?$ServerBase@V?$basic_stream_socket@Vtcp@ip@asio@boost@@Vany_io_executor@34@@asio@boost@@@SimpleWeb@@IEAAXAEBV?$shared_ptr@VSession@?$ServerBase@V?$basic_stream_socket@Vtcp@ip@asio@boost@@Vany_io_executor@34@@asio@boost@@@SimpleWeb@@@std@@@Z@QEBA@AEBVerror_code@system@3@_K@Z@@detail@23@Vany_io_executor@23@@detail@asio@boost@@SAXPEAXPEAVwin_iocp_operation@234@AEBVerror_code@system@4@_K@Z 0000000180050690 f i server.obj
 0001:0004f8a0       ??$async_receive@Vmutable_buffers_1@asio@boost@@V?$read_dynbuf_v1_op@V?$basic_stream_socket@Vtcp@ip@asio@boost@@Vany_io_executor@34@@asio@boost@@V?$basic_streambuf_ref@V?$allocator@D@std@@@23@Vtransfer_exactly_t@detail@23@V<lambda_1>@?BL@???R7?1??read@?$ServerBase@V?$basic_stream_socket@Vtcp@ip@asio@boost@@Vany_io_executor@34@@asio@boost@@@SimpleWeb@@IEAAXAEBV?$shared_ptr@VSession@?$ServerBase@V?$basic_stream_socket@Vtcp@ip@asio@boost@@Vany_io_executor@34@@asio@boost@@@SimpleWeb@@@std@@@Z@QEBA@AEBVerror_code@system@3@_K@Z@@detail@23@Vany_io_executor@23@@win_iocp_socket_service_base@detail@asio@boost@@QEAAXAEAUbase_implementation_type@0123@AEBVmutable_buffers_1@23@HAEAV?$read_dynbuf_v1_op@V?$basic_stream_socket@Vtcp@ip@asio@boost@@Vany_io_executor@34@@asio@boost@@V?$basic_streambuf_ref@V?$allocator@D@std@@@23@Vtransfer_exactly_t@detail@23@V<lambda_1>@?BL@???R7?1??read@?$ServerBase@V?$basic_stream_socket@Vtcp@ip@asio@boost@@Vany_io_executor@34@@asio@boost@@@SimpleWeb@@IEAAXAEBV?$shared_ptr@VSession@?$ServerBase@V?$basic_stream_socket@Vtcp@ip@asio@boost@@Vany_io_executor@34@@asio@boost@@@SimpleWeb@@@std@@@Z@QEBA@AEBVerror_code@system@3@_K@Z@@123@AEBVany_io_executor@23@@Z 00000001800508a0 f i server.obj
 0001:0004fab0       ??R?$read_dynbuf_v1_op@V?$basic_stream_socket@Vtcp@ip@asio@boost@@Vany_io_executor@34@@asio@boost@@V?$basic_streambuf_ref@V?$allocator@D@std@@@23@Vtransfer_exactly_t@detail@23@V<lambda_1>@?BL@???R7?1??read@?$ServerBase@V?$basic_stream_socket@Vtcp@ip@asio@boost@@Vany_io_executor@34@@asio@boost@@@SimpleWeb@@IEAAXAEBV?$shared_ptr@VSession@?$ServerBase@V?$basic_stream_socket@Vtcp@ip@asio@boost@@Vany_io_executor@34@@asio@boost@@@SimpleWeb@@@std@@@Z@QEBA@AEBVerror_code@system@3@_K@Z@@detail@asio@boost@@QEAAXVerror_code@system@3@_KH@Z 0000000180050ab0 f i server.obj
 0001:0004fdf0       ??$?RV<lambda_1>@?BL@???R0?1??read@?$ServerBase@V?$basic_stream_socket@Vtcp@ip@asio@boost@@Vany_io_executor@34@@asio@boost@@@SimpleWeb@@IEAAXAEBV?$shared_ptr@VSession@?$ServerBase@V?$basic_stream_socket@Vtcp@ip@asio@boost@@Vany_io_executor@34@@asio@boost@@@SimpleWeb@@@std@@@Z@QEBA@AEBVerror_code@system@boost@@_K@Z@V?$basic_streambuf_ref@V?$allocator@D@std@@@asio@8@Vtransfer_exactly_t@detail@asio@8@@?$initiate_async_read_dynbuf_v1@V?$basic_stream_socket@Vtcp@ip@asio@boost@@Vany_io_executor@34@@asio@boost@@@detail@asio@boost@@QEBAX$$QEAV<lambda_1>@?BL@???R4?1??read@?$ServerBase@V?$basic_stream_socket@Vtcp@ip@asio@boost@@Vany_io_executor@34@@asio@boost@@@SimpleWeb@@IEAAXAEBV?$shared_ptr@VSession@?$ServerBase@V?$basic_stream_socket@Vtcp@ip@asio@boost@@Vany_io_executor@34@@asio@boost@@@SimpleWeb@@@std@@@Z@QEBA@AEBVerror_code@system@3@_K@Z@$$QEAV?$basic_streambuf_ref@V?$allocator@D@std@@@23@$$QEAVtransfer_exactly_t@123@@Z 0000000180050df0 f i server.obj
 0001:0004ff70       ??1<lambda_1>@?1??accept@?$Server@V?$basic_stream_socket@Vtcp@ip@asio@boost@@Vany_io_executor@34@@asio@boost@@@SimpleWeb@@MEAAXXZ@QEAA@XZ 0000000180050f70 f i server.obj
 0001:0004ff70       ??1?$binder1@V<lambda_1>@?1??accept@?$Server@V?$basic_stream_socket@Vtcp@ip@asio@boost@@Vany_io_executor@34@@asio@boost@@@SimpleWeb@@MEAAXXZ@Verror_code@system@boost@@@detail@asio@boost@@QEAA@XZ 0000000180050f70 f i server.obj
 0001:0004ff70       ??1<lambda_1>@?1??read@?$ServerBase@V?$basic_stream_socket@Vtcp@ip@asio@boost@@Vany_io_executor@34@@asio@boost@@@SimpleWeb@@IEAAXAEBV?$shared_ptr@VSession@?$ServerBase@V?$basic_stream_socket@Vtcp@ip@asio@boost@@Vany_io_executor@34@@asio@boost@@@SimpleWeb@@@std@@@Z@QEAA@XZ 0000000180050f70 f i server.obj
 0001:0004ff70       ??1<lambda_1>@?BL@???R0?1??read@?$ServerBase@V?$basic_stream_socket@Vtcp@ip@asio@boost@@Vany_io_executor@34@@asio@boost@@@SimpleWeb@@IEAAXAEBV?$shared_ptr@VSession@?$ServerBase@V?$basic_stream_socket@Vtcp@ip@asio@boost@@Vany_io_executor@34@@asio@boost@@@SimpleWeb@@@std@@@Z@QEBA@AEBVerror_code@system@boost@@_K@Z@QEAA@XZ 0000000180050f70 f i server.obj
 0001:0004ffc0       ??Hasio@boost@@YA?AV?$buffers_iterator@Vconst_buffers_1@asio@boost@@D@01@AEBV201@_J@Z 0000000180050fc0 f i server.obj
 0001:000500d0       ??$partial_search@V?$buffers_iterator@Vconst_buffers_1@asio@boost@@D@asio@boost@@V?$_String_iterator@V?$_String_val@U?$_Simple_types@D@std@@@std@@@std@@@detail@asio@boost@@YA?AU?$pair@V?$buffers_iterator@Vconst_buffers_1@asio@boost@@D@asio@boost@@_N@std@@V?$buffers_iterator@Vconst_buffers_1@asio@boost@@D@12@0V?$_String_iterator@V?$_String_val@U?$_Simple_types@D@std@@@std@@@4@1@Z 00000001800510d0 f i server.obj
 0001:000502e0       ??1ptr@?$win_iocp_socket_recv_op@Vmutable_buffers_1@asio@boost@@V?$read_until_delim_string_op_v1@V?$basic_stream_socket@Vtcp@ip@asio@boost@@Vany_io_executor@34@@asio@boost@@V?$basic_streambuf_ref@V?$allocator@D@std@@@23@V<lambda_1>@?1??read_chunked_transfer_encoded@?$ServerBase@V?$basic_stream_socket@Vtcp@ip@asio@boost@@Vany_io_executor@34@@asio@boost@@@SimpleWeb@@IEAAXAEBV?$shared_ptr@VSession@?$ServerBase@V?$basic_stream_socket@Vtcp@ip@asio@boost@@Vany_io_executor@34@@asio@boost@@@SimpleWeb@@@std@@AEBV?$shared_ptr@V?$basic_streambuf@V?$allocator@D@std@@@asio@boost@@@std@@@Z@@detail@23@Vany_io_executor@23@@detail@asio@boost@@QEAA@XZ 00000001800512e0 f i server.obj
 0001:000502f0       ?reset@ptr@?$win_iocp_socket_recv_op@Vmutable_buffers_1@asio@boost@@V?$read_until_delim_string_op_v1@V?$basic_stream_socket@Vtcp@ip@asio@boost@@Vany_io_executor@34@@asio@boost@@V?$basic_streambuf_ref@V?$allocator@D@std@@@23@V<lambda_1>@?1??read_chunked_transfer_encoded@?$ServerBase@V?$basic_stream_socket@Vtcp@ip@asio@boost@@Vany_io_executor@34@@asio@boost@@@SimpleWeb@@IEAAXAEBV?$shared_ptr@VSession@?$ServerBase@V?$basic_stream_socket@Vtcp@ip@asio@boost@@Vany_io_executor@34@@asio@boost@@@SimpleWeb@@@std@@AEBV?$shared_ptr@V?$basic_streambuf@V?$allocator@D@std@@@asio@boost@@@std@@@Z@@detail@23@Vany_io_executor@23@@detail@asio@boost@@QEAAXXZ 00000001800512f0 f i server.obj
 0001:00050380       ??$complete@V?$binder2@V?$read_until_delim_string_op_v1@V?$basic_stream_socket@Vtcp@ip@asio@boost@@Vany_io_executor@34@@asio@boost@@V?$basic_streambuf_ref@V?$allocator@D@std@@@23@V<lambda_1>@?1??read_chunked_transfer_encoded@?$ServerBase@V?$basic_stream_socket@Vtcp@ip@asio@boost@@Vany_io_executor@34@@asio@boost@@@SimpleWeb@@IEAAXAEBV?$shared_ptr@VSession@?$ServerBase@V?$basic_stream_socket@Vtcp@ip@asio@boost@@Vany_io_executor@34@@asio@boost@@@SimpleWeb@@@std@@AEBV?$shared_ptr@V?$basic_streambuf@V?$allocator@D@std@@@asio@boost@@@std@@@Z@@detail@asio@boost@@Verror_code@system@4@_K@detail@asio@boost@@@executor_function_view@detail@asio@boost@@CAXPEAX@Z 0000000180051380 f i server.obj
 0001:000503c0       ??1ptr@?$impl@V?$binder2@V?$read_until_delim_string_op_v1@V?$basic_stream_socket@Vtcp@ip@asio@boost@@Vany_io_executor@34@@asio@boost@@V?$basic_streambuf_ref@V?$allocator@D@std@@@23@V<lambda_1>@?1??read_chunked_transfer_encoded@?$ServerBase@V?$basic_stream_socket@Vtcp@ip@asio@boost@@Vany_io_executor@34@@asio@boost@@@SimpleWeb@@IEAAXAEBV?$shared_ptr@VSession@?$ServerBase@V?$basic_stream_socket@Vtcp@ip@asio@boost@@Vany_io_executor@34@@asio@boost@@@SimpleWeb@@@std@@AEBV?$shared_ptr@V?$basic_streambuf@V?$allocator@D@std@@@asio@boost@@@std@@@Z@@detail@asio@boost@@Verror_code@system@4@_K@detail@asio@boost@@V?$allocator@X@std@@@executor_function@detail@asio@boost@@QEAA@XZ 00000001800513c0 f i server.obj
 0001:000503d0       ?reset@ptr@?$impl@V?$binder2@V?$read_until_delim_string_op_v1@V?$basic_stream_socket@Vtcp@ip@asio@boost@@Vany_io_executor@34@@asio@boost@@V?$basic_streambuf_ref@V?$allocator@D@std@@@23@V<lambda_1>@?1??read_chunked_transfer_encoded@?$ServerBase@V?$basic_stream_socket@Vtcp@ip@asio@boost@@Vany_io_executor@34@@asio@boost@@@SimpleWeb@@IEAAXAEBV?$shared_ptr@VSession@?$ServerBase@V?$basic_stream_socket@Vtcp@ip@asio@boost@@Vany_io_executor@34@@asio@boost@@@SimpleWeb@@@std@@AEBV?$shared_ptr@V?$basic_streambuf@V?$allocator@D@std@@@asio@boost@@@std@@@Z@@detail@asio@boost@@Verror_code@system@4@_K@detail@asio@boost@@V?$allocator@X@std@@@executor_function@detail@asio@boost@@QEAAXXZ 00000001800513d0 f i server.obj
 0001:00050480       ??$asio_handler_invoke@V?$binder2@V?$read_until_delim_string_op_v1@V?$basic_stream_socket@Vtcp@ip@asio@boost@@Vany_io_executor@34@@asio@boost@@V?$basic_streambuf_ref@V?$allocator@D@std@@@23@V<lambda_1>@?1??read_chunked_transfer_encoded@?$ServerBase@V?$basic_stream_socket@Vtcp@ip@asio@boost@@Vany_io_executor@34@@asio@boost@@@SimpleWeb@@IEAAXAEBV?$shared_ptr@VSession@?$ServerBase@V?$basic_stream_socket@Vtcp@ip@asio@boost@@Vany_io_executor@34@@asio@boost@@@SimpleWeb@@@std@@AEBV?$shared_ptr@V?$basic_streambuf@V?$allocator@D@std@@@asio@boost@@@std@@@Z@@detail@asio@boost@@Verror_code@system@4@_K@detail@asio@boost@@@asio@boost@@YAXAEAV?$binder2@V?$read_until_delim_string_op_v1@V?$basic_stream_socket@Vtcp@ip@asio@boost@@Vany_io_executor@34@@asio@boost@@V?$basic_streambuf_ref@V?$allocator@D@std@@@23@V<lambda_1>@?1??read_chunked_transfer_encoded@?$ServerBase@V?$basic_stream_socket@Vtcp@ip@asio@boost@@Vany_io_executor@34@@asio@boost@@@SimpleWeb@@IEAAXAEBV?$shared_ptr@VSession@?$ServerBase@V?$basic_stream_socket@Vtcp@ip@asio@boost@@Vany_io_executor@34@@asio@boost@@@SimpleWeb@@@std@@AEBV?$shared_ptr@V?$basic_streambuf@V?$allocator@D@std@@@asio@boost@@@std@@@Z@@detail@asio@boost@@Verror_code@system@4@_K@detail@01@ZZ 0000000180051480 f i server.obj
 0001:000504c0       ??$complete@V?$binder2@V?$read_until_delim_string_op_v1@V?$basic_stream_socket@Vtcp@ip@asio@boost@@Vany_io_executor@34@@asio@boost@@V?$basic_streambuf_ref@V?$allocator@D@std@@@23@V<lambda_1>@?1??read_chunked_transfer_encoded@?$ServerBase@V?$basic_stream_socket@Vtcp@ip@asio@boost@@Vany_io_executor@34@@asio@boost@@@SimpleWeb@@IEAAXAEBV?$shared_ptr@VSession@?$ServerBase@V?$basic_stream_socket@Vtcp@ip@asio@boost@@Vany_io_executor@34@@asio@boost@@@SimpleWeb@@@std@@AEBV?$shared_ptr@V?$basic_streambuf@V?$allocator@D@std@@@asio@boost@@@std@@@Z@@detail@asio@boost@@Verror_code@system@4@_K@detail@asio@boost@@V?$allocator@X@std@@@executor_function@detail@asio@boost@@CAXPEAUimpl_base@0123@_N@Z 00000001800514c0 f i server.obj
 0001:00050630       ??1?$binder2@V?$read_until_delim_string_op_v1@V?$basic_stream_socket@Vtcp@ip@asio@boost@@Vany_io_executor@34@@asio@boost@@V?$basic_streambuf_ref@V?$allocator@D@std@@@23@V<lambda_1>@?1??read_chunked_transfer_encoded@?$ServerBase@V?$basic_stream_socket@Vtcp@ip@asio@boost@@Vany_io_executor@34@@asio@boost@@@SimpleWeb@@IEAAXAEBV?$shared_ptr@VSession@?$ServerBase@V?$basic_stream_socket@Vtcp@ip@asio@boost@@Vany_io_executor@34@@asio@boost@@@SimpleWeb@@@std@@AEBV?$shared_ptr@V?$basic_streambuf@V?$allocator@D@std@@@asio@boost@@@std@@@Z@@detail@asio@boost@@Verror_code@system@4@_K@detail@asio@boost@@QEAA@XZ 0000000180051630 f i server.obj
 0001:00050640       ?do_complete@?$win_iocp_socket_recv_op@Vmutable_buffers_1@asio@boost@@V?$read_until_delim_string_op_v1@V?$basic_stream_socket@Vtcp@ip@asio@boost@@Vany_io_executor@34@@asio@boost@@V?$basic_streambuf_ref@V?$allocator@D@std@@@23@V<lambda_1>@?1??read_chunked_transfer_encoded@?$ServerBase@V?$basic_stream_socket@Vtcp@ip@asio@boost@@Vany_io_executor@34@@asio@boost@@@SimpleWeb@@IEAAXAEBV?$shared_ptr@VSession@?$ServerBase@V?$basic_stream_socket@Vtcp@ip@asio@boost@@Vany_io_executor@34@@asio@boost@@@SimpleWeb@@@std@@AEBV?$shared_ptr@V?$basic_streambuf@V?$allocator@D@std@@@asio@boost@@@std@@@Z@@detail@23@Vany_io_executor@23@@detail@asio@boost@@SAXPEAXPEAVwin_iocp_operation@234@AEBVerror_code@system@4@_K@Z 0000000180051640 f i server.obj
 0001:000509c0       ??0?$read_until_delim_string_op_v1@V?$basic_stream_socket@Vtcp@ip@asio@boost@@Vany_io_executor@34@@asio@boost@@V?$basic_streambuf_ref@V?$allocator@D@std@@@23@V<lambda_1>@?1??read_chunked_transfer_encoded@?$ServerBase@V?$basic_stream_socket@Vtcp@ip@asio@boost@@Vany_io_executor@34@@asio@boost@@@SimpleWeb@@IEAAXAEBV?$shared_ptr@VSession@?$ServerBase@V?$basic_stream_socket@Vtcp@ip@asio@boost@@Vany_io_executor@34@@asio@boost@@@SimpleWeb@@@std@@AEBV?$shared_ptr@V?$basic_streambuf@V?$allocator@D@std@@@asio@boost@@@std@@@Z@@detail@asio@boost@@QEAA@$$QEAV0123@@Z 00000001800519c0 f i server.obj
 0001:00050a70       ??$async_receive@Vmutable_buffers_1@asio@boost@@V?$read_until_delim_string_op_v1@V?$basic_stream_socket@Vtcp@ip@asio@boost@@Vany_io_executor@34@@asio@boost@@V?$basic_streambuf_ref@V?$allocator@D@std@@@23@V<lambda_1>@?1??read_chunked_transfer_encoded@?$ServerBase@V?$basic_stream_socket@Vtcp@ip@asio@boost@@Vany_io_executor@34@@asio@boost@@@SimpleWeb@@IEAAXAEBV?$shared_ptr@VSession@?$ServerBase@V?$basic_stream_socket@Vtcp@ip@asio@boost@@Vany_io_executor@34@@asio@boost@@@SimpleWeb@@@std@@AEBV?$shared_ptr@V?$basic_streambuf@V?$allocator@D@std@@@asio@boost@@@std@@@Z@@detail@23@Vany_io_executor@23@@win_iocp_socket_service_base@detail@asio@boost@@QEAAXAEAUbase_implementation_type@0123@AEBVmutable_buffers_1@23@HAEAV?$read_until_delim_string_op_v1@V?$basic_stream_socket@Vtcp@ip@asio@boost@@Vany_io_executor@34@@asio@boost@@V?$basic_streambuf_ref@V?$allocator@D@std@@@23@V<lambda_1>@?1??read_chunked_transfer_encoded@?$ServerBase@V?$basic_stream_socket@Vtcp@ip@asio@boost@@Vany_io_executor@34@@asio@boost@@@SimpleWeb@@IEAAXAEBV?$shared_ptr@VSession@?$ServerBase@V?$basic_stream_socket@Vtcp@ip@asio@boost@@Vany_io_executor@34@@asio@boost@@@SimpleWeb@@@std@@AEBV?$shared_ptr@V?$basic_streambuf@V?$allocator@D@std@@@asio@boost@@@std@@@Z@@123@AEBVany_io_executor@23@@Z 0000000180051a70 f i server.obj
 0001:00050c20       ??$_Find_hint@W4StatusCode@SimpleWeb@@@?$_Tree@V?$_Tmap_traits@W4StatusCode@SimpleWeb@@V?$basic_string@DU?$char_traits@D@std@@V?$allocator@D@2@@std@@U?$less@W4StatusCode@SimpleWeb@@@4@V?$allocator@U?$pair@$$CBW4StatusCode@SimpleWeb@@V?$basic_string@DU?$char_traits@D@std@@V?$allocator@D@2@@std@@@std@@@4@$0A@@std@@@std@@IEBA?AU?$_Tree_find_hint_result@PEAU?$_Tree_node@U?$pair@$$CBW4StatusCode@SimpleWeb@@V?$basic_string@DU?$char_traits@D@std@@V?$allocator@D@2@@std@@@std@@PEAX@std@@@1@QEAU?$_Tree_node@U?$pair@$$CBW4StatusCode@SimpleWeb@@V?$basic_string@DU?$char_traits@D@std@@V?$allocator@D@2@@std@@@std@@PEAX@1@AEBW4StatusCode@SimpleWeb@@@Z 0000000180051c20 f i server.obj
 0001:00050eb0       ??1?$_Tree_temp_node_alloc@V?$allocator@U?$_Tree_node@U?$pair@$$CBW4StatusCode@SimpleWeb@@V?$basic_string@DU?$char_traits@D@std@@V?$allocator@D@2@@std@@@std@@PEAX@std@@@std@@@std@@QEAA@XZ 0000000180051eb0 f i server.obj
 0001:00050eb0       ??1?$_Alloc_construct_ptr@V?$allocator@U?$_Tree_node@U?$pair@$$CBW4StatusCode@SimpleWeb@@V?$basic_string@DU?$char_traits@D@std@@V?$allocator@D@2@@std@@@std@@PEAX@std@@@std@@@std@@QEAA@XZ 0000000180051eb0 f i server.obj
 0001:00050ed0       ??0?$map@W4StatusCode@SimpleWeb@@V?$basic_string@DU?$char_traits@D@std@@V?$allocator@D@2@@std@@U?$less@W4StatusCode@SimpleWeb@@@4@V?$allocator@U?$pair@$$CBW4StatusCode@SimpleWeb@@V?$basic_string@DU?$char_traits@D@std@@V?$allocator@D@2@@std@@@std@@@4@@std@@QEAA@V?$initializer_list@U?$pair@$$CBW4StatusCode@SimpleWeb@@V?$basic_string@DU?$char_traits@D@std@@V?$allocator@D@2@@std@@@std@@@1@@Z 0000000180051ed0 f i server.obj
 0001:00051050       ??$?0W4StatusCode@SimpleWeb@@AEAY0BL@$$CBD$0A@@?$pair@$$CBW4StatusCode@SimpleWeb@@V?$basic_string@DU?$char_traits@D@std@@V?$allocator@D@2@@std@@@std@@QEAA@$$QEAW4StatusCode@SimpleWeb@@AEAY0BL@$$CBD@Z 0000000180052050 f i server.obj
 0001:000510a0       ??$?0W4StatusCode@SimpleWeb@@AEAY0CE@$$CBD$0A@@?$pair@$$CBW4StatusCode@SimpleWeb@@V?$basic_string@DU?$char_traits@D@std@@V?$allocator@D@2@@std@@@std@@QEAA@$$QEAW4StatusCode@SimpleWeb@@AEAY0CE@$$CBD@Z 00000001800520a0 f i server.obj
 0001:000510a0       ??$?0W4StatusCode@SimpleWeb@@AEAY0BI@$$CBD$0A@@?$pair@$$CBW4StatusCode@SimpleWeb@@V?$basic_string@DU?$char_traits@D@std@@V?$allocator@D@2@@std@@@std@@QEAA@$$QEAW4StatusCode@SimpleWeb@@AEAY0BI@$$CBD@Z 00000001800520a0 f i server.obj
 0001:000510a0       ??$?0W4StatusCode@SimpleWeb@@AEAY0BA@$$CBD$0A@@?$pair@$$CBW4StatusCode@SimpleWeb@@V?$basic_string@DU?$char_traits@D@std@@V?$allocator@D@2@@std@@@std@@QEAA@$$QEAW4StatusCode@SimpleWeb@@AEAY0BA@$$CBD@Z 00000001800520a0 f i server.obj
 0001:000510a0       ??$?0W4StatusCode@SimpleWeb@@AEAY0BF@$$CBD$0A@@?$pair@$$CBW4StatusCode@SimpleWeb@@V?$basic_string@DU?$char_traits@D@std@@V?$allocator@D@2@@std@@@std@@QEAA@$$QEAW4StatusCode@SimpleWeb@@AEAY0BF@$$CBD@Z 00000001800520a0 f i server.obj
 0001:000510a0       ??$?0W4StatusCode@SimpleWeb@@AEAY0BJ@$$CBD$0A@@?$pair@$$CBW4StatusCode@SimpleWeb@@V?$basic_string@DU?$char_traits@D@std@@V?$allocator@D@2@@std@@@std@@QEAA@$$QEAW4StatusCode@SimpleWeb@@AEAY0BJ@$$CBD@Z 00000001800520a0 f i server.obj
 0001:000510a0       ??$?0W4StatusCode@SimpleWeb@@AEAY0BC@$$CBD$0A@@?$pair@$$CBW4StatusCode@SimpleWeb@@V?$basic_string@DU?$char_traits@D@std@@V?$allocator@D@2@@std@@@std@@QEAA@$$QEAW4StatusCode@SimpleWeb@@AEAY0BC@$$CBD@Z 00000001800520a0 f i server.obj
 0001:000510a0       ??$?0W4StatusCode@SimpleWeb@@AEAY0CC@$$CBD$0A@@?$pair@$$CBW4StatusCode@SimpleWeb@@V?$basic_string@DU?$char_traits@D@std@@V?$allocator@D@2@@std@@@std@@QEAA@$$QEAW4StatusCode@SimpleWeb@@AEAY0CC@$$CBD@Z 00000001800520a0 f i server.obj
 0001:000510a0       ??$?0W4StatusCode@SimpleWeb@@AEAY0BE@$$CBD$0A@@?$pair@$$CBW4StatusCode@SimpleWeb@@V?$basic_string@DU?$char_traits@D@std@@V?$allocator@D@2@@std@@@std@@QEAA@$$QEAW4StatusCode@SimpleWeb@@AEAY0BE@$$CBD@Z 00000001800520a0 f i server.obj
 0001:000510a0       ??$?0W4StatusCode@SimpleWeb@@AEAY0BG@$$CBD$0A@@?$pair@$$CBW4StatusCode@SimpleWeb@@V?$basic_string@DU?$char_traits@D@std@@V?$allocator@D@2@@std@@@std@@QEAA@$$QEAW4StatusCode@SimpleWeb@@AEAY0BG@$$CBD@Z 00000001800520a0 f i server.obj
 0001:000510a0       ??$?0W4StatusCode@SimpleWeb@@AEAY0BK@$$CBD$0A@@?$pair@$$CBW4StatusCode@SimpleWeb@@V?$basic_string@DU?$char_traits@D@std@@V?$allocator@D@2@@std@@@std@@QEAA@$$QEAW4StatusCode@SimpleWeb@@AEAY0BK@$$CBD@Z 00000001800520a0 f i server.obj
 0001:000510a0       ??$?0W4StatusCode@SimpleWeb@@AEAY0BB@$$CBD$0A@@?$pair@$$CBW4StatusCode@SimpleWeb@@V?$basic_string@DU?$char_traits@D@std@@V?$allocator@D@2@@std@@@std@@QEAA@$$QEAW4StatusCode@SimpleWeb@@AEAY0BB@$$CBD@Z 00000001800520a0 f i server.obj
 0001:000510a0       ??$?0W4StatusCode@SimpleWeb@@AEAY0BH@$$CBD$0A@@?$pair@$$CBW4StatusCode@SimpleWeb@@V?$basic_string@DU?$char_traits@D@std@@V?$allocator@D@2@@std@@@std@@QEAA@$$QEAW4StatusCode@SimpleWeb@@AEAY0BH@$$CBD@Z 00000001800520a0 f i server.obj
 0001:000510f0       ??$?0W4StatusCode@SimpleWeb@@AEAY0L@$$CBD$0A@@?$pair@$$CBW4StatusCode@SimpleWeb@@V?$basic_string@DU?$char_traits@D@std@@V?$allocator@D@2@@std@@@std@@QEAA@$$QEAW4StatusCode@SimpleWeb@@AEAY0L@$$CBD@Z 00000001800520f0 f i server.obj
 0001:00051140       ??$?0W4StatusCode@SimpleWeb@@AEAY0BP@$$CBD$0A@@?$pair@$$CBW4StatusCode@SimpleWeb@@V?$basic_string@DU?$char_traits@D@std@@V?$allocator@D@2@@std@@@std@@QEAA@$$QEAW4StatusCode@SimpleWeb@@AEAY0BP@$$CBD@Z 0000000180052140 f i server.obj
 0001:00051190       ??$?0W4StatusCode@SimpleWeb@@AEAY0BM@$$CBD$0A@@?$pair@$$CBW4StatusCode@SimpleWeb@@V?$basic_string@DU?$char_traits@D@std@@V?$allocator@D@2@@std@@@std@@QEAA@$$QEAW4StatusCode@SimpleWeb@@AEAY0BM@$$CBD@Z 0000000180052190 f i server.obj
 0001:000511e0       ??$_Erase_tree@V?$allocator@U?$_Tree_node@U?$pair@$$CBW4StatusCode@SimpleWeb@@V?$basic_string@DU?$char_traits@D@std@@V?$allocator@D@2@@std@@@std@@PEAX@std@@@std@@@?$_Tree_val@U?$_Tree_simple_types@U?$pair@$$CBW4StatusCode@SimpleWeb@@V?$basic_string@DU?$char_traits@D@std@@V?$allocator@D@2@@std@@@std@@@std@@@std@@QEAAXAEAV?$allocator@U?$_Tree_node@U?$pair@$$CBW4StatusCode@SimpleWeb@@V?$basic_string@DU?$char_traits@D@std@@V?$allocator@D@2@@std@@@std@@PEAX@std@@@1@PEAU?$_Tree_node@U?$pair@$$CBW4StatusCode@SimpleWeb@@V?$basic_string@DU?$char_traits@D@std@@V?$allocator@D@2@@std@@@std@@PEAX@1@@Z 00000001800521e0 f i server.obj
 0001:000512a0       ??1?$_Tree@V?$_Tmap_traits@W4StatusCode@SimpleWeb@@V?$basic_string@DU?$char_traits@D@std@@V?$allocator@D@2@@std@@U?$less@W4StatusCode@SimpleWeb@@@4@V?$allocator@U?$pair@$$CBW4StatusCode@SimpleWeb@@V?$basic_string@DU?$char_traits@D@std@@V?$allocator@D@2@@std@@@std@@@4@$0A@@std@@@std@@QEAA@XZ 00000001800522a0 f i server.obj
 0001:000512d0       ??1?$pair@$$CBW4StatusCode@SimpleWeb@@V?$basic_string@DU?$char_traits@D@std@@V?$allocator@D@2@@std@@@std@@QEAA@XZ 00000001800522d0 f i server.obj
 0001:00051330       ?status_code_strings@SimpleWeb@@YAAEBV?$map@W4StatusCode@SimpleWeb@@V?$basic_string@DU?$char_traits@D@std@@V?$allocator@D@2@@std@@U?$less@W4StatusCode@SimpleWeb@@@4@V?$allocator@U?$pair@$$CBW4StatusCode@SimpleWeb@@V?$basic_string@DU?$char_traits@D@std@@V?$allocator@D@2@@std@@@std@@@4@@std@@XZ 0000000180052330 f i server.obj
 0001:00051fe0       ?status_code@SimpleWeb@@YAAEBV?$basic_string@DU?$char_traits@D@std@@V?$allocator@D@2@@std@@W4StatusCode@1@@Z 0000000180052fe0 f i server.obj
 0001:000520c0       ??$write_header@H@Response@?$ServerBase@V?$basic_stream_socket@Vtcp@ip@asio@boost@@Vany_io_executor@34@@asio@boost@@@SimpleWeb@@AEAAXAEBV?$unordered_multimap@V?$basic_string@DU?$char_traits@D@std@@V?$allocator@D@2@@std@@V12@VCaseInsensitiveHash@SimpleWeb@@VCaseInsensitiveEqual@4@V?$allocator@U?$pair@$$CBV?$basic_string@DU?$char_traits@D@std@@V?$allocator@D@2@@std@@V12@@std@@@2@@std@@H@Z 00000001800530c0 f i server.obj
 0001:00052570       ?write@Response@?$ServerBase@V?$basic_stream_socket@Vtcp@ip@asio@boost@@Vany_io_executor@34@@asio@boost@@@SimpleWeb@@QEAAXW4StatusCode@3@AEBV?$unordered_multimap@V?$basic_string@DU?$char_traits@D@std@@V?$allocator@D@2@@std@@V12@VCaseInsensitiveHash@SimpleWeb@@VCaseInsensitiveEqual@4@V?$allocator@U?$pair@$$CBV?$basic_string@DU?$char_traits@D@std@@V?$allocator@D@2@@std@@V12@@std@@@2@@std@@@Z 0000000180053570 f i server.obj
 0001:000525f0       ??1ptr@?$win_iocp_socket_recv_op@Vmutable_buffers_1@asio@boost@@V?$read_dynbuf_v1_op@V?$basic_stream_socket@Vtcp@ip@asio@boost@@Vany_io_executor@34@@asio@boost@@V?$basic_streambuf_ref@V?$allocator@D@std@@@23@Vtransfer_exactly_t@detail@23@V<lambda_1>@?BJ@???R7?1??read_chunked_transfer_encoded@?$ServerBase@V?$basic_stream_socket@Vtcp@ip@asio@boost@@Vany_io_executor@34@@asio@boost@@@SimpleWeb@@IEAAXAEBV?$shared_ptr@VSession@?$ServerBase@V?$basic_stream_socket@Vtcp@ip@asio@boost@@Vany_io_executor@34@@asio@boost@@@SimpleWeb@@@std@@AEBV?$shared_ptr@V?$basic_streambuf@V?$allocator@D@std@@@asio@boost@@@std@@@Z@QEBA@AEBVerror_code@system@3@_K@Z@@detail@23@Vany_io_executor@23@@detail@asio@boost@@QEAA@XZ 00000001800535f0 f i server.obj
 0001:00052600       ?reset@ptr@?$win_iocp_socket_recv_op@Vmutable_buffers_1@asio@boost@@V?$read_dynbuf_v1_op@V?$basic_stream_socket@Vtcp@ip@asio@boost@@Vany_io_executor@34@@asio@boost@@V?$basic_streambuf_ref@V?$allocator@D@std@@@23@Vtransfer_exactly_t@detail@23@V<lambda_1>@?BJ@???R7?1??read_chunked_transfer_encoded@?$ServerBase@V?$basic_stream_socket@Vtcp@ip@asio@boost@@Vany_io_executor@34@@asio@boost@@@SimpleWeb@@IEAAXAEBV?$shared_ptr@VSession@?$ServerBase@V?$basic_stream_socket@Vtcp@ip@asio@boost@@Vany_io_executor@34@@asio@boost@@@SimpleWeb@@@std@@AEBV?$shared_ptr@V?$basic_streambuf@V?$allocator@D@std@@@asio@boost@@@std@@@Z@QEBA@AEBVerror_code@system@3@_K@Z@@detail@23@Vany_io_executor@23@@detail@asio@boost@@QEAAXXZ 0000000180053600 f i server.obj
 0001:00052690       ??$complete@V?$binder2@V?$read_dynbuf_v1_op@V?$basic_stream_socket@Vtcp@ip@asio@boost@@Vany_io_executor@34@@asio@boost@@V?$basic_streambuf_ref@V?$allocator@D@std@@@23@Vtransfer_exactly_t@detail@23@V<lambda_1>@?BJ@???R7?1??read_chunked_transfer_encoded@?$ServerBase@V?$basic_stream_socket@Vtcp@ip@asio@boost@@Vany_io_executor@34@@asio@boost@@@SimpleWeb@@IEAAXAEBV?$shared_ptr@VSession@?$ServerBase@V?$basic_stream_socket@Vtcp@ip@asio@boost@@Vany_io_executor@34@@asio@boost@@@SimpleWeb@@@std@@AEBV?$shared_ptr@V?$basic_streambuf@V?$allocator@D@std@@@asio@boost@@@std@@@Z@QEBA@AEBVerror_code@system@3@_K@Z@@detail@asio@boost@@Verror_code@system@4@_K@detail@asio@boost@@@executor_function_view@detail@asio@boost@@CAXPEAX@Z 0000000180053690 f i server.obj
 0001:000526c0       ??1ptr@?$impl@V?$binder2@V?$read_dynbuf_v1_op@V?$basic_stream_socket@Vtcp@ip@asio@boost@@Vany_io_executor@34@@asio@boost@@V?$basic_streambuf_ref@V?$allocator@D@std@@@23@Vtransfer_exactly_t@detail@23@V<lambda_1>@?BJ@???R7?1??read_chunked_transfer_encoded@?$ServerBase@V?$basic_stream_socket@Vtcp@ip@asio@boost@@Vany_io_executor@34@@asio@boost@@@SimpleWeb@@IEAAXAEBV?$shared_ptr@VSession@?$ServerBase@V?$basic_stream_socket@Vtcp@ip@asio@boost@@Vany_io_executor@34@@asio@boost@@@SimpleWeb@@@std@@AEBV?$shared_ptr@V?$basic_streambuf@V?$allocator@D@std@@@asio@boost@@@std@@@Z@QEBA@AEBVerror_code@system@3@_K@Z@@detail@asio@boost@@Verror_code@system@4@_K@detail@asio@boost@@V?$allocator@X@std@@@executor_function@detail@asio@boost@@QEAA@XZ 00000001800536c0 f i server.obj
 0001:000526d0       ?reset@ptr@?$impl@V?$binder2@V?$read_dynbuf_v1_op@V?$basic_stream_socket@Vtcp@ip@asio@boost@@Vany_io_executor@34@@asio@boost@@V?$basic_streambuf_ref@V?$allocator@D@std@@@23@Vtransfer_exactly_t@detail@23@V<lambda_1>@?BJ@???R7?1??read_chunked_transfer_encoded@?$ServerBase@V?$basic_stream_socket@Vtcp@ip@asio@boost@@Vany_io_executor@34@@asio@boost@@@SimpleWeb@@IEAAXAEBV?$shared_ptr@VSession@?$ServerBase@V?$basic_stream_socket@Vtcp@ip@asio@boost@@Vany_io_executor@34@@asio@boost@@@SimpleWeb@@@std@@AEBV?$shared_ptr@V?$basic_streambuf@V?$allocator@D@std@@@asio@boost@@@std@@@Z@QEBA@AEBVerror_code@system@3@_K@Z@@detail@asio@boost@@Verror_code@system@4@_K@detail@asio@boost@@V?$allocator@X@std@@@executor_function@detail@asio@boost@@QEAAXXZ 00000001800536d0 f i server.obj
 0001:00052780       ??$asio_handler_invoke@V?$binder2@V?$read_dynbuf_v1_op@V?$basic_stream_socket@Vtcp@ip@asio@boost@@Vany_io_executor@34@@asio@boost@@V?$basic_streambuf_ref@V?$allocator@D@std@@@23@Vtransfer_exactly_t@detail@23@V<lambda_1>@?BJ@???R7?1??read_chunked_transfer_encoded@?$ServerBase@V?$basic_stream_socket@Vtcp@ip@asio@boost@@Vany_io_executor@34@@asio@boost@@@SimpleWeb@@IEAAXAEBV?$shared_ptr@VSession@?$ServerBase@V?$basic_stream_socket@Vtcp@ip@asio@boost@@Vany_io_executor@34@@asio@boost@@@SimpleWeb@@@std@@AEBV?$shared_ptr@V?$basic_streambuf@V?$allocator@D@std@@@asio@boost@@@std@@@Z@QEBA@AEBVerror_code@system@3@_K@Z@@detail@asio@boost@@Verror_code@system@4@_K@detail@asio@boost@@@asio@boost@@YAXAEAV?$binder2@V?$read_dynbuf_v1_op@V?$basic_stream_socket@Vtcp@ip@asio@boost@@Vany_io_executor@34@@asio@boost@@V?$basic_streambuf_ref@V?$allocator@D@std@@@23@Vtransfer_exactly_t@detail@23@V<lambda_1>@?BJ@???R7?1??read_chunked_transfer_encoded@?$ServerBase@V?$basic_stream_socket@Vtcp@ip@asio@boost@@Vany_io_executor@34@@asio@boost@@@SimpleWeb@@IEAAXAEBV?$shared_ptr@VSession@?$ServerBase@V?$basic_stream_socket@Vtcp@ip@asio@boost@@Vany_io_executor@34@@asio@boost@@@SimpleWeb@@@std@@AEBV?$shared_ptr@V?$basic_streambuf@V?$allocator@D@std@@@asio@boost@@@std@@@Z@QEBA@AEBVerror_code@system@3@_K@Z@@detail@asio@boost@@Verror_code@system@4@_K@detail@01@ZZ 0000000180053780 f i server.obj
 0001:000527c0       ??$complete@V?$binder2@V?$read_dynbuf_v1_op@V?$basic_stream_socket@Vtcp@ip@asio@boost@@Vany_io_executor@34@@asio@boost@@V?$basic_streambuf_ref@V?$allocator@D@std@@@23@Vtransfer_exactly_t@detail@23@V<lambda_1>@?BJ@???R7?1??read_chunked_transfer_encoded@?$ServerBase@V?$basic_stream_socket@Vtcp@ip@asio@boost@@Vany_io_executor@34@@asio@boost@@@SimpleWeb@@IEAAXAEBV?$shared_ptr@VSession@?$ServerBase@V?$basic_stream_socket@Vtcp@ip@asio@boost@@Vany_io_executor@34@@asio@boost@@@SimpleWeb@@@std@@AEBV?$shared_ptr@V?$basic_streambuf@V?$allocator@D@std@@@asio@boost@@@std@@@Z@QEBA@AEBVerror_code@system@3@_K@Z@@detail@asio@boost@@Verror_code@system@4@_K@detail@asio@boost@@V?$allocator@X@std@@@executor_function@detail@asio@boost@@CAXPEAUimpl_base@0123@_N@Z 00000001800537c0 f i server.obj
 0001:00052920       ??1?$read_dynbuf_v1_op@V?$basic_stream_socket@Vtcp@ip@asio@boost@@Vany_io_executor@34@@asio@boost@@V?$basic_streambuf_ref@V?$allocator@D@std@@@23@Vtransfer_exactly_t@detail@23@V<lambda_1>@?BJ@???R7?1??read_chunked_transfer_encoded@?$ServerBase@V?$basic_stream_socket@Vtcp@ip@asio@boost@@Vany_io_executor@34@@asio@boost@@@SimpleWeb@@IEAAXAEBV?$shared_ptr@VSession@?$ServerBase@V?$basic_stream_socket@Vtcp@ip@asio@boost@@Vany_io_executor@34@@asio@boost@@@SimpleWeb@@@std@@AEBV?$shared_ptr@V?$basic_streambuf@V?$allocator@D@std@@@asio@boost@@@std@@@Z@QEBA@AEBVerror_code@system@3@_K@Z@@detail@asio@boost@@QEAA@XZ 0000000180053920 f i server.obj
 0001:00052920       ??1?$binder2@V?$read_dynbuf_v1_op@V?$basic_stream_socket@Vtcp@ip@asio@boost@@Vany_io_executor@34@@asio@boost@@V?$basic_streambuf_ref@V?$allocator@D@std@@@23@Vtransfer_exactly_t@detail@23@V<lambda_1>@?BJ@???R7?1??read_chunked_transfer_encoded@?$ServerBase@V?$basic_stream_socket@Vtcp@ip@asio@boost@@Vany_io_executor@34@@asio@boost@@@SimpleWeb@@IEAAXAEBV?$shared_ptr@VSession@?$ServerBase@V?$basic_stream_socket@Vtcp@ip@asio@boost@@Vany_io_executor@34@@asio@boost@@@SimpleWeb@@@std@@AEBV?$shared_ptr@V?$basic_streambuf@V?$allocator@D@std@@@asio@boost@@@std@@@Z@QEBA@AEBVerror_code@system@3@_K@Z@@detail@asio@boost@@Verror_code@system@4@_K@detail@asio@boost@@QEAA@XZ 0000000180053920 f i server.obj
 0001:00052930       ?do_complete@?$win_iocp_socket_recv_op@Vmutable_buffers_1@asio@boost@@V?$read_dynbuf_v1_op@V?$basic_stream_socket@Vtcp@ip@asio@boost@@Vany_io_executor@34@@asio@boost@@V?$basic_streambuf_ref@V?$allocator@D@std@@@23@Vtransfer_exactly_t@detail@23@V<lambda_1>@?BJ@???R7?1??read_chunked_transfer_encoded@?$ServerBase@V?$basic_stream_socket@Vtcp@ip@asio@boost@@Vany_io_executor@34@@asio@boost@@@SimpleWeb@@IEAAXAEBV?$shared_ptr@VSession@?$ServerBase@V?$basic_stream_socket@Vtcp@ip@asio@boost@@Vany_io_executor@34@@asio@boost@@@SimpleWeb@@@std@@AEBV?$shared_ptr@V?$basic_streambuf@V?$allocator@D@std@@@asio@boost@@@std@@@Z@QEBA@AEBVerror_code@system@3@_K@Z@@detail@23@Vany_io_executor@23@@detail@asio@boost@@SAXPEAXPEAVwin_iocp_operation@234@AEBVerror_code@system@4@_K@Z 0000000180053930 f i server.obj
 0001:00052c90       ??0?$read_dynbuf_v1_op@V?$basic_stream_socket@Vtcp@ip@asio@boost@@Vany_io_executor@34@@asio@boost@@V?$basic_streambuf_ref@V?$allocator@D@std@@@23@Vtransfer_exactly_t@detail@23@V<lambda_1>@?BJ@???R7?1??read_chunked_transfer_encoded@?$ServerBase@V?$basic_stream_socket@Vtcp@ip@asio@boost@@Vany_io_executor@34@@asio@boost@@@SimpleWeb@@IEAAXAEBV?$shared_ptr@VSession@?$ServerBase@V?$basic_stream_socket@Vtcp@ip@asio@boost@@Vany_io_executor@34@@asio@boost@@@SimpleWeb@@@std@@AEBV?$shared_ptr@V?$basic_streambuf@V?$allocator@D@std@@@asio@boost@@@std@@@Z@QEBA@AEBVerror_code@system@3@_K@Z@@detail@asio@boost@@QEAA@$$QEAV0123@@Z 0000000180053c90 f i server.obj
 0001:00052d10       ??$async_receive@Vmutable_buffers_1@asio@boost@@V?$read_dynbuf_v1_op@V?$basic_stream_socket@Vtcp@ip@asio@boost@@Vany_io_executor@34@@asio@boost@@V?$basic_streambuf_ref@V?$allocator@D@std@@@23@Vtransfer_exactly_t@detail@23@V<lambda_1>@?BJ@???R7?1??read_chunked_transfer_encoded@?$ServerBase@V?$basic_stream_socket@Vtcp@ip@asio@boost@@Vany_io_executor@34@@asio@boost@@@SimpleWeb@@IEAAXAEBV?$shared_ptr@VSession@?$ServerBase@V?$basic_stream_socket@Vtcp@ip@asio@boost@@Vany_io_executor@34@@asio@boost@@@SimpleWeb@@@std@@AEBV?$shared_ptr@V?$basic_streambuf@V?$allocator@D@std@@@asio@boost@@@std@@@Z@QEBA@AEBVerror_code@system@3@_K@Z@@detail@23@Vany_io_executor@23@@win_iocp_socket_service_base@detail@asio@boost@@QEAAXAEAUbase_implementation_type@0123@AEBVmutable_buffers_1@23@HAEAV?$read_dynbuf_v1_op@V?$basic_stream_socket@Vtcp@ip@asio@boost@@Vany_io_executor@34@@asio@boost@@V?$basic_streambuf_ref@V?$allocator@D@std@@@23@Vtransfer_exactly_t@detail@23@V<lambda_1>@?BJ@???R7?1??read_chunked_transfer_encoded@?$ServerBase@V?$basic_stream_socket@Vtcp@ip@asio@boost@@Vany_io_executor@34@@asio@boost@@@SimpleWeb@@IEAAXAEBV?$shared_ptr@VSession@?$ServerBase@V?$basic_stream_socket@Vtcp@ip@asio@boost@@Vany_io_executor@34@@asio@boost@@@SimpleWeb@@@std@@AEBV?$shared_ptr@V?$basic_streambuf@V?$allocator@D@std@@@asio@boost@@@std@@@Z@QEBA@AEBVerror_code@system@3@_K@Z@@123@AEBVany_io_executor@23@@Z 0000000180053d10 f i server.obj
 0001:00052ec0       ??1ptr@?$win_iocp_socket_recv_op@Vmutable_buffers_1@asio@boost@@V?$read_dynbuf_v1_op@V?$basic_stream_socket@Vtcp@ip@asio@boost@@Vany_io_executor@34@@asio@boost@@V?$basic_streambuf_ref@V?$allocator@D@std@@@23@Vtransfer_exactly_t@detail@23@V<lambda_1>@?6???R7?BJ@???R7?1??read_chunked_transfer_encoded@?$ServerBase@V?$basic_stream_socket@Vtcp@ip@asio@boost@@Vany_io_executor@34@@asio@boost@@@SimpleWeb@@IEAAXAEBV?$shared_ptr@VSession@?$ServerBase@V?$basic_stream_socket@Vtcp@ip@asio@boost@@Vany_io_executor@34@@asio@boost@@@SimpleWeb@@@std@@AEBV?$shared_ptr@V?$basic_streambuf@V?$allocator@D@std@@@asio@boost@@@std@@@Z@QEBA@AEBVerror_code@system@3@_K@Z@QEBA@23@Z@@detail@23@Vany_io_executor@23@@detail@asio@boost@@QEAA@XZ 0000000180053ec0 f i server.obj
 0001:00052ec0       ??1ptr@?$win_iocp_socket_recv_op@Vmutable_buffers_1@asio@boost@@V?$read_dynbuf_v1_op@V?$basic_stream_socket@Vtcp@ip@asio@boost@@Vany_io_executor@34@@asio@boost@@V?$basic_streambuf_ref@V?$allocator@D@std@@@23@Vtransfer_exactly_t@detail@23@V<lambda_2>@?BN@???R<lambda_1>@?1??read_chunked_transfer_encoded@?$ServerBase@V?$basic_stream_socket@Vtcp@ip@asio@boost@@Vany_io_executor@34@@asio@boost@@@SimpleWeb@@IEAAXAEBV?$shared_ptr@VSession@?$ServerBase@V?$basic_stream_socket@Vtcp@ip@asio@boost@@Vany_io_executor@34@@asio@boost@@@SimpleWeb@@@std@@AEBV?$shared_ptr@V?$basic_streambuf@V?$allocator@D@std@@@asio@boost@@@std@@@Z@QEBA@AEBVerror_code@system@3@_K@Z@@detail@23@Vany_io_executor@23@@detail@asio@boost@@QEAA@XZ 0000000180053ec0 f i server.obj
 0001:00052ed0       ?reset@ptr@?$win_iocp_socket_recv_op@Vmutable_buffers_1@asio@boost@@V?$read_dynbuf_v1_op@V?$basic_stream_socket@Vtcp@ip@asio@boost@@Vany_io_executor@34@@asio@boost@@V?$basic_streambuf_ref@V?$allocator@D@std@@@23@Vtransfer_exactly_t@detail@23@V<lambda_2>@?BN@???R<lambda_1>@?1??read_chunked_transfer_encoded@?$ServerBase@V?$basic_stream_socket@Vtcp@ip@asio@boost@@Vany_io_executor@34@@asio@boost@@@SimpleWeb@@IEAAXAEBV?$shared_ptr@VSession@?$ServerBase@V?$basic_stream_socket@Vtcp@ip@asio@boost@@Vany_io_executor@34@@asio@boost@@@SimpleWeb@@@std@@AEBV?$shared_ptr@V?$basic_streambuf@V?$allocator@D@std@@@asio@boost@@@std@@@Z@QEBA@AEBVerror_code@system@3@_K@Z@@detail@23@Vany_io_executor@23@@detail@asio@boost@@QEAAXXZ 0000000180053ed0 f i server.obj
 0001:00052ed0       ?reset@ptr@?$win_iocp_socket_recv_op@Vmutable_buffers_1@asio@boost@@V?$read_dynbuf_v1_op@V?$basic_stream_socket@Vtcp@ip@asio@boost@@Vany_io_executor@34@@asio@boost@@V?$basic_streambuf_ref@V?$allocator@D@std@@@23@Vtransfer_exactly_t@detail@23@V<lambda_1>@?6???R7?BJ@???R7?1??read_chunked_transfer_encoded@?$ServerBase@V?$basic_stream_socket@Vtcp@ip@asio@boost@@Vany_io_executor@34@@asio@boost@@@SimpleWeb@@IEAAXAEBV?$shared_ptr@VSession@?$ServerBase@V?$basic_stream_socket@Vtcp@ip@asio@boost@@Vany_io_executor@34@@asio@boost@@@SimpleWeb@@@std@@AEBV?$shared_ptr@V?$basic_streambuf@V?$allocator@D@std@@@asio@boost@@@std@@@Z@QEBA@AEBVerror_code@system@3@_K@Z@QEBA@23@Z@@detail@23@Vany_io_executor@23@@detail@asio@boost@@QEAAXXZ 0000000180053ed0 f i server.obj
 0001:00052f60       ??$complete@V?$binder2@V?$read_dynbuf_v1_op@V?$basic_stream_socket@Vtcp@ip@asio@boost@@Vany_io_executor@34@@asio@boost@@V?$basic_streambuf_ref@V?$allocator@D@std@@@23@Vtransfer_exactly_t@detail@23@V<lambda_1>@?6???R7?BJ@???R7?1??read_chunked_transfer_encoded@?$ServerBase@V?$basic_stream_socket@Vtcp@ip@asio@boost@@Vany_io_executor@34@@asio@boost@@@SimpleWeb@@IEAAXAEBV?$shared_ptr@VSession@?$ServerBase@V?$basic_stream_socket@Vtcp@ip@asio@boost@@Vany_io_executor@34@@asio@boost@@@SimpleWeb@@@std@@AEBV?$shared_ptr@V?$basic_streambuf@V?$allocator@D@std@@@asio@boost@@@std@@@Z@QEBA@AEBVerror_code@system@3@_K@Z@QEBA@23@Z@@detail@asio@boost@@Verror_code@system@4@_K@detail@asio@boost@@@executor_function_view@detail@asio@boost@@CAXPEAX@Z 0000000180053f60 f i server.obj
 0001:00052f60       ??$complete@V?$binder2@V?$read_dynbuf_v1_op@V?$basic_stream_socket@Vtcp@ip@asio@boost@@Vany_io_executor@34@@asio@boost@@V?$basic_streambuf_ref@V?$allocator@D@std@@@23@Vtransfer_exactly_t@detail@23@V<lambda_2>@?BN@???R<lambda_1>@?1??read_chunked_transfer_encoded@?$ServerBase@V?$basic_stream_socket@Vtcp@ip@asio@boost@@Vany_io_executor@34@@asio@boost@@@SimpleWeb@@IEAAXAEBV?$shared_ptr@VSession@?$ServerBase@V?$basic_stream_socket@Vtcp@ip@asio@boost@@Vany_io_executor@34@@asio@boost@@@SimpleWeb@@@std@@AEBV?$shared_ptr@V?$basic_streambuf@V?$allocator@D@std@@@asio@boost@@@std@@@Z@QEBA@AEBVerror_code@system@3@_K@Z@@detail@asio@boost@@Verror_code@system@4@_K@detail@asio@boost@@@executor_function_view@detail@asio@boost@@CAXPEAX@Z 0000000180053f60 f i server.obj
 0001:00052f90       ??1ptr@?$impl@V?$binder2@V?$read_dynbuf_v1_op@V?$basic_stream_socket@Vtcp@ip@asio@boost@@Vany_io_executor@34@@asio@boost@@V?$basic_streambuf_ref@V?$allocator@D@std@@@23@Vtransfer_exactly_t@detail@23@V<lambda_2>@?BN@???R<lambda_1>@?1??read_chunked_transfer_encoded@?$ServerBase@V?$basic_stream_socket@Vtcp@ip@asio@boost@@Vany_io_executor@34@@asio@boost@@@SimpleWeb@@IEAAXAEBV?$shared_ptr@VSession@?$ServerBase@V?$basic_stream_socket@Vtcp@ip@asio@boost@@Vany_io_executor@34@@asio@boost@@@SimpleWeb@@@std@@AEBV?$shared_ptr@V?$basic_streambuf@V?$allocator@D@std@@@asio@boost@@@std@@@Z@QEBA@AEBVerror_code@system@3@_K@Z@@detail@asio@boost@@Verror_code@system@4@_K@detail@asio@boost@@V?$allocator@X@std@@@executor_function@detail@asio@boost@@QEAA@XZ 0000000180053f90 f i server.obj
 0001:00052f90       ??1ptr@?$impl@V?$binder2@V?$read_dynbuf_v1_op@V?$basic_stream_socket@Vtcp@ip@asio@boost@@Vany_io_executor@34@@asio@boost@@V?$basic_streambuf_ref@V?$allocator@D@std@@@23@Vtransfer_exactly_t@detail@23@V<lambda_1>@?6???R7?BJ@???R7?1??read_chunked_transfer_encoded@?$ServerBase@V?$basic_stream_socket@Vtcp@ip@asio@boost@@Vany_io_executor@34@@asio@boost@@@SimpleWeb@@IEAAXAEBV?$shared_ptr@VSession@?$ServerBase@V?$basic_stream_socket@Vtcp@ip@asio@boost@@Vany_io_executor@34@@asio@boost@@@SimpleWeb@@@std@@AEBV?$shared_ptr@V?$basic_streambuf@V?$allocator@D@std@@@asio@boost@@@std@@@Z@QEBA@AEBVerror_code@system@3@_K@Z@QEBA@23@Z@@detail@asio@boost@@Verror_code@system@4@_K@detail@asio@boost@@V?$allocator@X@std@@@executor_function@detail@asio@boost@@QEAA@XZ 0000000180053f90 f i server.obj
 0001:00052fa0       ?reset@ptr@?$impl@V?$binder2@V?$read_dynbuf_v1_op@V?$basic_stream_socket@Vtcp@ip@asio@boost@@Vany_io_executor@34@@asio@boost@@V?$basic_streambuf_ref@V?$allocator@D@std@@@23@Vtransfer_exactly_t@detail@23@V<lambda_2>@?BN@???R<lambda_1>@?1??read_chunked_transfer_encoded@?$ServerBase@V?$basic_stream_socket@Vtcp@ip@asio@boost@@Vany_io_executor@34@@asio@boost@@@SimpleWeb@@IEAAXAEBV?$shared_ptr@VSession@?$ServerBase@V?$basic_stream_socket@Vtcp@ip@asio@boost@@Vany_io_executor@34@@asio@boost@@@SimpleWeb@@@std@@AEBV?$shared_ptr@V?$basic_streambuf@V?$allocator@D@std@@@asio@boost@@@std@@@Z@QEBA@AEBVerror_code@system@3@_K@Z@@detail@asio@boost@@Verror_code@system@4@_K@detail@asio@boost@@V?$allocator@X@std@@@executor_function@detail@asio@boost@@QEAAXXZ 0000000180053fa0 f i server.obj
 0001:00052fa0       ?reset@ptr@?$impl@V?$binder2@V?$read_dynbuf_v1_op@V?$basic_stream_socket@Vtcp@ip@asio@boost@@Vany_io_executor@34@@asio@boost@@V?$basic_streambuf_ref@V?$allocator@D@std@@@23@Vtransfer_exactly_t@detail@23@V<lambda_1>@?6???R7?BJ@???R7?1??read_chunked_transfer_encoded@?$ServerBase@V?$basic_stream_socket@Vtcp@ip@asio@boost@@Vany_io_executor@34@@asio@boost@@@SimpleWeb@@IEAAXAEBV?$shared_ptr@VSession@?$ServerBase@V?$basic_stream_socket@Vtcp@ip@asio@boost@@Vany_io_executor@34@@asio@boost@@@SimpleWeb@@@std@@AEBV?$shared_ptr@V?$basic_streambuf@V?$allocator@D@std@@@asio@boost@@@std@@@Z@QEBA@AEBVerror_code@system@3@_K@Z@QEBA@23@Z@@detail@asio@boost@@Verror_code@system@4@_K@detail@asio@boost@@V?$allocator@X@std@@@executor_function@detail@asio@boost@@QEAAXXZ 0000000180053fa0 f i server.obj
 0001:00053050       ??$asio_handler_invoke@V?$binder2@V?$read_dynbuf_v1_op@V?$basic_stream_socket@Vtcp@ip@asio@boost@@Vany_io_executor@34@@asio@boost@@V?$basic_streambuf_ref@V?$allocator@D@std@@@23@Vtransfer_exactly_t@detail@23@V<lambda_2>@?BN@???R<lambda_1>@?1??read_chunked_transfer_encoded@?$ServerBase@V?$basic_stream_socket@Vtcp@ip@asio@boost@@Vany_io_executor@34@@asio@boost@@@SimpleWeb@@IEAAXAEBV?$shared_ptr@VSession@?$ServerBase@V?$basic_stream_socket@Vtcp@ip@asio@boost@@Vany_io_executor@34@@asio@boost@@@SimpleWeb@@@std@@AEBV?$shared_ptr@V?$basic_streambuf@V?$allocator@D@std@@@asio@boost@@@std@@@Z@QEBA@AEBVerror_code@system@3@_K@Z@@detail@asio@boost@@Verror_code@system@4@_K@detail@asio@boost@@@asio@boost@@YAXAEAV?$binder2@V?$read_dynbuf_v1_op@V?$basic_stream_socket@Vtcp@ip@asio@boost@@Vany_io_executor@34@@asio@boost@@V?$basic_streambuf_ref@V?$allocator@D@std@@@23@Vtransfer_exactly_t@detail@23@V<lambda_2>@?BN@???R<lambda_1>@?1??read_chunked_transfer_encoded@?$ServerBase@V?$basic_stream_socket@Vtcp@ip@asio@boost@@Vany_io_executor@34@@asio@boost@@@SimpleWeb@@IEAAXAEBV?$shared_ptr@VSession@?$ServerBase@V?$basic_stream_socket@Vtcp@ip@asio@boost@@Vany_io_executor@34@@asio@boost@@@SimpleWeb@@@std@@AEBV?$shared_ptr@V?$basic_streambuf@V?$allocator@D@std@@@asio@boost@@@std@@@Z@QEBA@AEBVerror_code@system@3@_K@Z@@detail@asio@boost@@Verror_code@system@4@_K@detail@01@ZZ 0000000180054050 f i server.obj
 0001:00053050       ??$asio_handler_invoke@V?$binder2@V?$read_dynbuf_v1_op@V?$basic_stream_socket@Vtcp@ip@asio@boost@@Vany_io_executor@34@@asio@boost@@V?$basic_streambuf_ref@V?$allocator@D@std@@@23@Vtransfer_exactly_t@detail@23@V<lambda_1>@?6???R7?BJ@???R7?1??read_chunked_transfer_encoded@?$ServerBase@V?$basic_stream_socket@Vtcp@ip@asio@boost@@Vany_io_executor@34@@asio@boost@@@SimpleWeb@@IEAAXAEBV?$shared_ptr@VSession@?$ServerBase@V?$basic_stream_socket@Vtcp@ip@asio@boost@@Vany_io_executor@34@@asio@boost@@@SimpleWeb@@@std@@AEBV?$shared_ptr@V?$basic_streambuf@V?$allocator@D@std@@@asio@boost@@@std@@@Z@QEBA@AEBVerror_code@system@3@_K@Z@QEBA@23@Z@@detail@asio@boost@@Verror_code@system@4@_K@detail@asio@boost@@@asio@boost@@YAXAEAV?$binder2@V?$read_dynbuf_v1_op@V?$basic_stream_socket@Vtcp@ip@asio@boost@@Vany_io_executor@34@@asio@boost@@V?$basic_streambuf_ref@V?$allocator@D@std@@@23@Vtransfer_exactly_t@detail@23@V<lambda_1>@?6???R7?BJ@???R7?1??read_chunked_transfer_encoded@?$ServerBase@V?$basic_stream_socket@Vtcp@ip@asio@boost@@Vany_io_executor@34@@asio@boost@@@SimpleWeb@@IEAAXAEBV?$shared_ptr@VSession@?$ServerBase@V?$basic_stream_socket@Vtcp@ip@asio@boost@@Vany_io_executor@34@@asio@boost@@@SimpleWeb@@@std@@AEBV?$shared_ptr@V?$basic_streambuf@V?$allocator@D@std@@@asio@boost@@@std@@@Z@QEBA@AEBVerror_code@system@3@_K@Z@QEBA@23@Z@@detail@asio@boost@@Verror_code@system@4@_K@detail@01@ZZ 0000000180054050 f i server.obj
 0001:00053090       ??$complete@V?$binder2@V?$read_dynbuf_v1_op@V?$basic_stream_socket@Vtcp@ip@asio@boost@@Vany_io_executor@34@@asio@boost@@V?$basic_streambuf_ref@V?$allocator@D@std@@@23@Vtransfer_exactly_t@detail@23@V<lambda_1>@?6???R7?BJ@???R7?1??read_chunked_transfer_encoded@?$ServerBase@V?$basic_stream_socket@Vtcp@ip@asio@boost@@Vany_io_executor@34@@asio@boost@@@SimpleWeb@@IEAAXAEBV?$shared_ptr@VSession@?$ServerBase@V?$basic_stream_socket@Vtcp@ip@asio@boost@@Vany_io_executor@34@@asio@boost@@@SimpleWeb@@@std@@AEBV?$shared_ptr@V?$basic_streambuf@V?$allocator@D@std@@@asio@boost@@@std@@@Z@QEBA@AEBVerror_code@system@3@_K@Z@QEBA@23@Z@@detail@asio@boost@@Verror_code@system@4@_K@detail@asio@boost@@V?$allocator@X@std@@@executor_function@detail@asio@boost@@CAXPEAUimpl_base@0123@_N@Z 0000000180054090 f i server.obj
 0001:00053090       ??$complete@V?$binder2@V?$read_dynbuf_v1_op@V?$basic_stream_socket@Vtcp@ip@asio@boost@@Vany_io_executor@34@@asio@boost@@V?$basic_streambuf_ref@V?$allocator@D@std@@@23@Vtransfer_exactly_t@detail@23@V<lambda_2>@?BN@???R<lambda_1>@?1??read_chunked_transfer_encoded@?$ServerBase@V?$basic_stream_socket@Vtcp@ip@asio@boost@@Vany_io_executor@34@@asio@boost@@@SimpleWeb@@IEAAXAEBV?$shared_ptr@VSession@?$ServerBase@V?$basic_stream_socket@Vtcp@ip@asio@boost@@Vany_io_executor@34@@asio@boost@@@SimpleWeb@@@std@@AEBV?$shared_ptr@V?$basic_streambuf@V?$allocator@D@std@@@asio@boost@@@std@@@Z@QEBA@AEBVerror_code@system@3@_K@Z@@detail@asio@boost@@Verror_code@system@4@_K@detail@asio@boost@@V?$allocator@X@std@@@executor_function@detail@asio@boost@@CAXPEAUimpl_base@0123@_N@Z 0000000180054090 f i server.obj
 0001:00053200       ??1?$read_dynbuf_v1_op@V?$basic_stream_socket@Vtcp@ip@asio@boost@@Vany_io_executor@34@@asio@boost@@V?$basic_streambuf_ref@V?$allocator@D@std@@@23@Vtransfer_exactly_t@detail@23@V<lambda_1>@?6???R7?BJ@???R7?1??read_chunked_transfer_encoded@?$ServerBase@V?$basic_stream_socket@Vtcp@ip@asio@boost@@Vany_io_executor@34@@asio@boost@@@SimpleWeb@@IEAAXAEBV?$shared_ptr@VSession@?$ServerBase@V?$basic_stream_socket@Vtcp@ip@asio@boost@@Vany_io_executor@34@@asio@boost@@@SimpleWeb@@@std@@AEBV?$shared_ptr@V?$basic_streambuf@V?$allocator@D@std@@@asio@boost@@@std@@@Z@QEBA@AEBVerror_code@system@3@_K@Z@QEBA@23@Z@@detail@asio@boost@@QEAA@XZ 0000000180054200 f i server.obj
 0001:00053200       ??1?$binder2@V?$read_dynbuf_v1_op@V?$basic_stream_socket@Vtcp@ip@asio@boost@@Vany_io_executor@34@@asio@boost@@V?$basic_streambuf_ref@V?$allocator@D@std@@@23@Vtransfer_exactly_t@detail@23@V<lambda_1>@?6???R7?BJ@???R7?1??read_chunked_transfer_encoded@?$ServerBase@V?$basic_stream_socket@Vtcp@ip@asio@boost@@Vany_io_executor@34@@asio@boost@@@SimpleWeb@@IEAAXAEBV?$shared_ptr@VSession@?$ServerBase@V?$basic_stream_socket@Vtcp@ip@asio@boost@@Vany_io_executor@34@@asio@boost@@@SimpleWeb@@@std@@AEBV?$shared_ptr@V?$basic_streambuf@V?$allocator@D@std@@@asio@boost@@@std@@@Z@QEBA@AEBVerror_code@system@3@_K@Z@QEBA@23@Z@@detail@asio@boost@@Verror_code@system@4@_K@detail@asio@boost@@QEAA@XZ 0000000180054200 f i server.obj
 0001:00053200       ??1?$binder2@V?$read_dynbuf_v1_op@V?$basic_stream_socket@Vtcp@ip@asio@boost@@Vany_io_executor@34@@asio@boost@@V?$basic_streambuf_ref@V?$allocator@D@std@@@23@Vtransfer_exactly_t@detail@23@V<lambda_2>@?BN@???R<lambda_1>@?1??read_chunked_transfer_encoded@?$ServerBase@V?$basic_stream_socket@Vtcp@ip@asio@boost@@Vany_io_executor@34@@asio@boost@@@SimpleWeb@@IEAAXAEBV?$shared_ptr@VSession@?$ServerBase@V?$basic_stream_socket@Vtcp@ip@asio@boost@@Vany_io_executor@34@@asio@boost@@@SimpleWeb@@@std@@AEBV?$shared_ptr@V?$basic_streambuf@V?$allocator@D@std@@@asio@boost@@@std@@@Z@QEBA@AEBVerror_code@system@3@_K@Z@@detail@asio@boost@@Verror_code@system@4@_K@detail@asio@boost@@QEAA@XZ 0000000180054200 f i server.obj
 0001:00053200       ??1?$read_dynbuf_v1_op@V?$basic_stream_socket@Vtcp@ip@asio@boost@@Vany_io_executor@34@@asio@boost@@V?$basic_streambuf_ref@V?$allocator@D@std@@@23@Vtransfer_exactly_t@detail@23@V<lambda_2>@?BN@???R<lambda_1>@?1??read_chunked_transfer_encoded@?$ServerBase@V?$basic_stream_socket@Vtcp@ip@asio@boost@@Vany_io_executor@34@@asio@boost@@@SimpleWeb@@IEAAXAEBV?$shared_ptr@VSession@?$ServerBase@V?$basic_stream_socket@Vtcp@ip@asio@boost@@Vany_io_executor@34@@asio@boost@@@SimpleWeb@@@std@@AEBV?$shared_ptr@V?$basic_streambuf@V?$allocator@D@std@@@asio@boost@@@std@@@Z@QEBA@AEBVerror_code@system@3@_K@Z@@detail@asio@boost@@QEAA@XZ 0000000180054200 f i server.obj
 0001:00053210       ??$complete@V?$binder2@V?$read_dynbuf_v1_op@V?$basic_stream_socket@Vtcp@ip@asio@boost@@Vany_io_executor@34@@asio@boost@@V?$basic_streambuf_ref@V?$allocator@D@std@@@23@Vtransfer_exactly_t@detail@23@V<lambda_1>@?6???R7?BJ@???R7?1??read_chunked_transfer_encoded@?$ServerBase@V?$basic_stream_socket@Vtcp@ip@asio@boost@@Vany_io_executor@34@@asio@boost@@@SimpleWeb@@IEAAXAEBV?$shared_ptr@VSession@?$ServerBase@V?$basic_stream_socket@Vtcp@ip@asio@boost@@Vany_io_executor@34@@asio@boost@@@SimpleWeb@@@std@@AEBV?$shared_ptr@V?$basic_streambuf@V?$allocator@D@std@@@asio@boost@@@std@@@Z@QEBA@AEBVerror_code@system@3@_K@Z@QEBA@23@Z@@detail@asio@boost@@Verror_code@system@4@_K@detail@asio@boost@@@?$handler_work@V?$read_dynbuf_v1_op@V?$basic_stream_socket@Vtcp@ip@asio@boost@@Vany_io_executor@34@@asio@boost@@V?$basic_streambuf_ref@V?$allocator@D@std@@@23@Vtransfer_exactly_t@detail@23@V<lambda_1>@?6???R7?BJ@???R7?1??read_chunked_transfer_encoded@?$ServerBase@V?$basic_stream_socket@Vtcp@ip@asio@boost@@Vany_io_executor@34@@asio@boost@@@SimpleWeb@@IEAAXAEBV?$shared_ptr@VSession@?$ServerBase@V?$basic_stream_socket@Vtcp@ip@asio@boost@@Vany_io_executor@34@@asio@boost@@@SimpleWeb@@@std@@AEBV?$shared_ptr@V?$basic_streambuf@V?$allocator@D@std@@@asio@boost@@@std@@@Z@QEBA@AEBVerror_code@system@3@_K@Z@QEBA@23@Z@@detail@asio@boost@@Vany_io_executor@34@X@detail@asio@boost@@QEAAXAEAV?$binder2@V?$read_dynbuf_v1_op@V?$basic_stream_socket@Vtcp@ip@asio@boost@@Vany_io_executor@34@@asio@boost@@V?$basic_streambuf_ref@V?$allocator@D@std@@@23@Vtransfer_exactly_t@detail@23@V<lambda_1>@?6???R7?BJ@???R7?1??read_chunked_transfer_encoded@?$ServerBase@V?$basic_stream_socket@Vtcp@ip@asio@boost@@Vany_io_executor@34@@asio@boost@@@SimpleWeb@@IEAAXAEBV?$shared_ptr@VSession@?$ServerBase@V?$basic_stream_socket@Vtcp@ip@asio@boost@@Vany_io_executor@34@@asio@boost@@@SimpleWeb@@@std@@AEBV?$shared_ptr@V?$basic_streambuf@V?$allocator@D@std@@@asio@boost@@@std@@@Z@QEBA@AEBVerror_code@system@3@_K@Z@QEBA@23@Z@@detail@asio@boost@@Verror_code@system@4@_K@123@AEAV?$read_dynbuf_v1_op@V?$basic_stream_socket@Vtcp@ip@asio@boost@@Vany_io_executor@34@@asio@boost@@V?$basic_streambuf_ref@V?$allocator@D@std@@@23@Vtransfer_exactly_t@detail@23@V<lambda_1>@?6???R7?BJ@???R7?1??read_chunked_transfer_encoded@?$ServerBase@V?$basic_stream_socket@Vtcp@ip@asio@boost@@Vany_io_executor@34@@asio@boost@@@SimpleWeb@@IEAAXAEBV?$shared_ptr@VSession@?$ServerBase@V?$basic_stream_socket@Vtcp@ip@asio@boost@@Vany_io_executor@34@@asio@boost@@@SimpleWeb@@@std@@AEBV?$shared_ptr@V?$basic_streambuf@V?$allocator@D@std@@@asio@boost@@@std@@@Z@QEBA@AEBVerror_code@system@3@_K@Z@QEBA@23@Z@@123@@Z 0000000180054210 f i server.obj
 0001:00053210       ??$complete@V?$binder2@V?$read_dynbuf_v1_op@V?$basic_stream_socket@Vtcp@ip@asio@boost@@Vany_io_executor@34@@asio@boost@@V?$basic_streambuf_ref@V?$allocator@D@std@@@23@Vtransfer_exactly_t@detail@23@V<lambda_2>@?BN@???R<lambda_1>@?1??read_chunked_transfer_encoded@?$ServerBase@V?$basic_stream_socket@Vtcp@ip@asio@boost@@Vany_io_executor@34@@asio@boost@@@SimpleWeb@@IEAAXAEBV?$shared_ptr@VSession@?$ServerBase@V?$basic_stream_socket@Vtcp@ip@asio@boost@@Vany_io_executor@34@@asio@boost@@@SimpleWeb@@@std@@AEBV?$shared_ptr@V?$basic_streambuf@V?$allocator@D@std@@@asio@boost@@@std@@@Z@QEBA@AEBVerror_code@system@3@_K@Z@@detail@asio@boost@@Verror_code@system@4@_K@detail@asio@boost@@@?$handler_work@V?$read_dynbuf_v1_op@V?$basic_stream_socket@Vtcp@ip@asio@boost@@Vany_io_executor@34@@asio@boost@@V?$basic_streambuf_ref@V?$allocator@D@std@@@23@Vtransfer_exactly_t@detail@23@V<lambda_2>@?BN@???R<lambda_1>@?1??read_chunked_transfer_encoded@?$ServerBase@V?$basic_stream_socket@Vtcp@ip@asio@boost@@Vany_io_executor@34@@asio@boost@@@SimpleWeb@@IEAAXAEBV?$shared_ptr@VSession@?$ServerBase@V?$basic_stream_socket@Vtcp@ip@asio@boost@@Vany_io_executor@34@@asio@boost@@@SimpleWeb@@@std@@AEBV?$shared_ptr@V?$basic_streambuf@V?$allocator@D@std@@@asio@boost@@@std@@@Z@QEBA@AEBVerror_code@system@3@_K@Z@@detail@asio@boost@@Vany_io_executor@34@X@detail@asio@boost@@QEAAXAEAV?$binder2@V?$read_dynbuf_v1_op@V?$basic_stream_socket@Vtcp@ip@asio@boost@@Vany_io_executor@34@@asio@boost@@V?$basic_streambuf_ref@V?$allocator@D@std@@@23@Vtransfer_exactly_t@detail@23@V<lambda_2>@?BN@???R<lambda_1>@?1??read_chunked_transfer_encoded@?$ServerBase@V?$basic_stream_socket@Vtcp@ip@asio@boost@@Vany_io_executor@34@@asio@boost@@@SimpleWeb@@IEAAXAEBV?$shared_ptr@VSession@?$ServerBase@V?$basic_stream_socket@Vtcp@ip@asio@boost@@Vany_io_executor@34@@asio@boost@@@SimpleWeb@@@std@@AEBV?$shared_ptr@V?$basic_streambuf@V?$allocator@D@std@@@asio@boost@@@std@@@Z@QEBA@AEBVerror_code@system@3@_K@Z@@detail@asio@boost@@Verror_code@system@4@_K@123@AEAV?$read_dynbuf_v1_op@V?$basic_stream_socket@Vtcp@ip@asio@boost@@Vany_io_executor@34@@asio@boost@@V?$basic_streambuf_ref@V?$allocator@D@std@@@23@Vtransfer_exactly_t@detail@23@V<lambda_2>@?BN@???R<lambda_1>@?1??read_chunked_transfer_encoded@?$ServerBase@V?$basic_stream_socket@Vtcp@ip@asio@boost@@Vany_io_executor@34@@asio@boost@@@SimpleWeb@@IEAAXAEBV?$shared_ptr@VSession@?$ServerBase@V?$basic_stream_socket@Vtcp@ip@asio@boost@@Vany_io_executor@34@@asio@boost@@@SimpleWeb@@@std@@AEBV?$shared_ptr@V?$basic_streambuf@V?$allocator@D@std@@@asio@boost@@@std@@@Z@QEBA@AEBVerror_code@system@3@_K@Z@@123@@Z 0000000180054210 f i server.obj
 0001:000533d0       ?do_complete@?$win_iocp_socket_recv_op@Vmutable_buffers_1@asio@boost@@V?$read_dynbuf_v1_op@V?$basic_stream_socket@Vtcp@ip@asio@boost@@Vany_io_executor@34@@asio@boost@@V?$basic_streambuf_ref@V?$allocator@D@std@@@23@Vtransfer_exactly_t@detail@23@V<lambda_1>@?6???R7?BJ@???R7?1??read_chunked_transfer_encoded@?$ServerBase@V?$basic_stream_socket@Vtcp@ip@asio@boost@@Vany_io_executor@34@@asio@boost@@@SimpleWeb@@IEAAXAEBV?$shared_ptr@VSession@?$ServerBase@V?$basic_stream_socket@Vtcp@ip@asio@boost@@Vany_io_executor@34@@asio@boost@@@SimpleWeb@@@std@@AEBV?$shared_ptr@V?$basic_streambuf@V?$allocator@D@std@@@asio@boost@@@std@@@Z@QEBA@AEBVerror_code@system@3@_K@Z@QEBA@23@Z@@detail@23@Vany_io_executor@23@@detail@asio@boost@@SAXPEAXPEAVwin_iocp_operation@234@AEBVerror_code@system@4@_K@Z 00000001800543d0 f i server.obj
 0001:000533d0       ?do_complete@?$win_iocp_socket_recv_op@Vmutable_buffers_1@asio@boost@@V?$read_dynbuf_v1_op@V?$basic_stream_socket@Vtcp@ip@asio@boost@@Vany_io_executor@34@@asio@boost@@V?$basic_streambuf_ref@V?$allocator@D@std@@@23@Vtransfer_exactly_t@detail@23@V<lambda_2>@?BN@???R<lambda_1>@?1??read_chunked_transfer_encoded@?$ServerBase@V?$basic_stream_socket@Vtcp@ip@asio@boost@@Vany_io_executor@34@@asio@boost@@@SimpleWeb@@IEAAXAEBV?$shared_ptr@VSession@?$ServerBase@V?$basic_stream_socket@Vtcp@ip@asio@boost@@Vany_io_executor@34@@asio@boost@@@SimpleWeb@@@std@@AEBV?$shared_ptr@V?$basic_streambuf@V?$allocator@D@std@@@asio@boost@@@std@@@Z@QEBA@AEBVerror_code@system@3@_K@Z@@detail@23@Vany_io_executor@23@@detail@asio@boost@@SAXPEAXPEAVwin_iocp_operation@234@AEBVerror_code@system@4@_K@Z 00000001800543d0 f i server.obj
 0001:000535f0       ??$async_receive@Vmutable_buffers_1@asio@boost@@V?$read_dynbuf_v1_op@V?$basic_stream_socket@Vtcp@ip@asio@boost@@Vany_io_executor@34@@asio@boost@@V?$basic_streambuf_ref@V?$allocator@D@std@@@23@Vtransfer_exactly_t@detail@23@V<lambda_2>@?BN@???R<lambda_1>@?1??read_chunked_transfer_encoded@?$ServerBase@V?$basic_stream_socket@Vtcp@ip@asio@boost@@Vany_io_executor@34@@asio@boost@@@SimpleWeb@@IEAAXAEBV?$shared_ptr@VSession@?$ServerBase@V?$basic_stream_socket@Vtcp@ip@asio@boost@@Vany_io_executor@34@@asio@boost@@@SimpleWeb@@@std@@AEBV?$shared_ptr@V?$basic_streambuf@V?$allocator@D@std@@@asio@boost@@@std@@@Z@QEBA@AEBVerror_code@system@3@_K@Z@@detail@23@Vany_io_executor@23@@win_iocp_socket_service_base@detail@asio@boost@@QEAAXAEAUbase_implementation_type@0123@AEBVmutable_buffers_1@23@HAEAV?$read_dynbuf_v1_op@V?$basic_stream_socket@Vtcp@ip@asio@boost@@Vany_io_executor@34@@asio@boost@@V?$basic_streambuf_ref@V?$allocator@D@std@@@23@Vtransfer_exactly_t@detail@23@V<lambda_2>@?BN@???R<lambda_1>@?1??read_chunked_transfer_encoded@?$ServerBase@V?$basic_stream_socket@Vtcp@ip@asio@boost@@Vany_io_executor@34@@asio@boost@@@SimpleWeb@@IEAAXAEBV?$shared_ptr@VSession@?$ServerBase@V?$basic_stream_socket@Vtcp@ip@asio@boost@@Vany_io_executor@34@@asio@boost@@@SimpleWeb@@@std@@AEBV?$shared_ptr@V?$basic_streambuf@V?$allocator@D@std@@@asio@boost@@@std@@@Z@QEBA@AEBVerror_code@system@3@_K@Z@@123@AEBVany_io_executor@23@@Z 00000001800545f0 f i server.obj
 0001:000535f0       ??$async_receive@Vmutable_buffers_1@asio@boost@@V?$read_dynbuf_v1_op@V?$basic_stream_socket@Vtcp@ip@asio@boost@@Vany_io_executor@34@@asio@boost@@V?$basic_streambuf_ref@V?$allocator@D@std@@@23@Vtransfer_exactly_t@detail@23@V<lambda_1>@?6???R7?BJ@???R7?1??read_chunked_transfer_encoded@?$ServerBase@V?$basic_stream_socket@Vtcp@ip@asio@boost@@Vany_io_executor@34@@asio@boost@@@SimpleWeb@@IEAAXAEBV?$shared_ptr@VSession@?$ServerBase@V?$basic_stream_socket@Vtcp@ip@asio@boost@@Vany_io_executor@34@@asio@boost@@@SimpleWeb@@@std@@AEBV?$shared_ptr@V?$basic_streambuf@V?$allocator@D@std@@@asio@boost@@@std@@@Z@QEBA@AEBVerror_code@system@3@_K@Z@QEBA@23@Z@@detail@23@Vany_io_executor@23@@win_iocp_socket_service_base@detail@asio@boost@@QEAAXAEAUbase_implementation_type@0123@AEBVmutable_buffers_1@23@HAEAV?$read_dynbuf_v1_op@V?$basic_stream_socket@Vtcp@ip@asio@boost@@Vany_io_executor@34@@asio@boost@@V?$basic_streambuf_ref@V?$allocator@D@std@@@23@Vtransfer_exactly_t@detail@23@V<lambda_1>@?6???R7?BJ@???R7?1??read_chunked_transfer_encoded@?$ServerBase@V?$basic_stream_socket@Vtcp@ip@asio@boost@@Vany_io_executor@34@@asio@boost@@@SimpleWeb@@IEAAXAEBV?$shared_ptr@VSession@?$ServerBase@V?$basic_stream_socket@Vtcp@ip@asio@boost@@Vany_io_executor@34@@asio@boost@@@SimpleWeb@@@std@@AEBV?$shared_ptr@V?$basic_streambuf@V?$allocator@D@std@@@asio@boost@@@std@@@Z@QEBA@AEBVerror_code@system@3@_K@Z@QEBA@23@Z@@123@AEBVany_io_executor@23@@Z 00000001800545f0 f i server.obj
 0001:000537d0       ??R?$read_dynbuf_v1_op@V?$basic_stream_socket@Vtcp@ip@asio@boost@@Vany_io_executor@34@@asio@boost@@V?$basic_streambuf_ref@V?$allocator@D@std@@@23@Vtransfer_exactly_t@detail@23@V<lambda_2>@?BN@???R<lambda_1>@?1??read_chunked_transfer_encoded@?$ServerBase@V?$basic_stream_socket@Vtcp@ip@asio@boost@@Vany_io_executor@34@@asio@boost@@@SimpleWeb@@IEAAXAEBV?$shared_ptr@VSession@?$ServerBase@V?$basic_stream_socket@Vtcp@ip@asio@boost@@Vany_io_executor@34@@asio@boost@@@SimpleWeb@@@std@@AEBV?$shared_ptr@V?$basic_streambuf@V?$allocator@D@std@@@asio@boost@@@std@@@Z@QEBA@AEBVerror_code@system@3@_K@Z@@detail@asio@boost@@QEAAXVerror_code@system@3@_KH@Z 00000001800547d0 f i server.obj
 0001:000537d0       ??R?$read_dynbuf_v1_op@V?$basic_stream_socket@Vtcp@ip@asio@boost@@Vany_io_executor@34@@asio@boost@@V?$basic_streambuf_ref@V?$allocator@D@std@@@23@Vtransfer_exactly_t@detail@23@V<lambda_1>@?6???R7?BJ@???R7?1??read_chunked_transfer_encoded@?$ServerBase@V?$basic_stream_socket@Vtcp@ip@asio@boost@@Vany_io_executor@34@@asio@boost@@@SimpleWeb@@IEAAXAEBV?$shared_ptr@VSession@?$ServerBase@V?$basic_stream_socket@Vtcp@ip@asio@boost@@Vany_io_executor@34@@asio@boost@@@SimpleWeb@@@std@@AEBV?$shared_ptr@V?$basic_streambuf@V?$allocator@D@std@@@asio@boost@@@std@@@Z@QEBA@AEBVerror_code@system@3@_K@Z@QEBA@23@Z@@detail@asio@boost@@QEAAXVerror_code@system@3@_KH@Z 00000001800547d0 f i server.obj
 0001:00053b10       ??0<lambda_1>@?6???R0?BJ@???R0?1??read_chunked_transfer_encoded@?$ServerBase@V?$basic_stream_socket@Vtcp@ip@asio@boost@@Vany_io_executor@34@@asio@boost@@@SimpleWeb@@IEAAXAEBV?$shared_ptr@VSession@?$ServerBase@V?$basic_stream_socket@Vtcp@ip@asio@boost@@Vany_io_executor@34@@asio@boost@@@SimpleWeb@@@std@@AEBV?$shared_ptr@V?$basic_streambuf@V?$allocator@D@std@@@asio@boost@@@5@@Z@QEBA@AEBVerror_code@system@boost@@_K@Z@QEBA@23@Z@QEAA@$$QEAV0?6???R0?BJ@???R0?1??123@IEAAX01@Z@QEBA@23@Z@QEBA@23@Z@@Z 0000000180054b10 f i server.obj
 0001:00053b10       ??0<lambda_2>@?BN@???R<lambda_1>@?1??read_chunked_transfer_encoded@?$ServerBase@V?$basic_stream_socket@Vtcp@ip@asio@boost@@Vany_io_executor@34@@asio@boost@@@SimpleWeb@@IEAAXAEBV?$shared_ptr@VSession@?$ServerBase@V?$basic_stream_socket@Vtcp@ip@asio@boost@@Vany_io_executor@34@@asio@boost@@@SimpleWeb@@@std@@AEBV?$shared_ptr@V?$basic_streambuf@V?$allocator@D@std@@@asio@boost@@@6@@Z@QEBA@AEBVerror_code@system@boost@@_K@Z@QEAA@$$QEAV0?BN@???R1?1??234@IEAAX01@Z@QEBA@23@Z@@Z 0000000180054b10 f i server.obj
 0001:00053b90       ??1<lambda_1>@?6???R0?BJ@???R0?1??read_chunked_transfer_encoded@?$ServerBase@V?$basic_stream_socket@Vtcp@ip@asio@boost@@Vany_io_executor@34@@asio@boost@@@SimpleWeb@@IEAAXAEBV?$shared_ptr@VSession@?$ServerBase@V?$basic_stream_socket@Vtcp@ip@asio@boost@@Vany_io_executor@34@@asio@boost@@@SimpleWeb@@@std@@AEBV?$shared_ptr@V?$basic_streambuf@V?$allocator@D@std@@@asio@boost@@@5@@Z@QEBA@AEBVerror_code@system@boost@@_K@Z@QEBA@23@Z@QEAA@XZ 0000000180054b90 f i server.obj
 0001:00053b90       ??1<lambda_2>@?BN@???R<lambda_1>@?1??read_chunked_transfer_encoded@?$ServerBase@V?$basic_stream_socket@Vtcp@ip@asio@boost@@Vany_io_executor@34@@asio@boost@@@SimpleWeb@@IEAAXAEBV?$shared_ptr@VSession@?$ServerBase@V?$basic_stream_socket@Vtcp@ip@asio@boost@@Vany_io_executor@34@@asio@boost@@@SimpleWeb@@@std@@AEBV?$shared_ptr@V?$basic_streambuf@V?$allocator@D@std@@@asio@boost@@@6@@Z@QEBA@AEBVerror_code@system@boost@@_K@Z@QEAA@XZ 0000000180054b90 f i server.obj
 0001:00053c50       ??R<lambda_1>@?BJ@???R0?1??read_chunked_transfer_encoded@?$ServerBase@V?$basic_stream_socket@Vtcp@ip@asio@boost@@Vany_io_executor@34@@asio@boost@@@SimpleWeb@@IEAAXAEBV?$shared_ptr@VSession@?$ServerBase@V?$basic_stream_socket@Vtcp@ip@asio@boost@@Vany_io_executor@34@@asio@boost@@@SimpleWeb@@@std@@AEBV?$shared_ptr@V?$basic_streambuf@V?$allocator@D@std@@@asio@boost@@@5@@Z@QEBA@AEBVerror_code@system@boost@@_K@Z@QEBA@23@Z 0000000180054c50 f i server.obj
 0001:00053f90       ??R?$read_dynbuf_v1_op@V?$basic_stream_socket@Vtcp@ip@asio@boost@@Vany_io_executor@34@@asio@boost@@V?$basic_streambuf_ref@V?$allocator@D@std@@@23@Vtransfer_exactly_t@detail@23@V<lambda_1>@?BJ@???R7?1??read_chunked_transfer_encoded@?$ServerBase@V?$basic_stream_socket@Vtcp@ip@asio@boost@@Vany_io_executor@34@@asio@boost@@@SimpleWeb@@IEAAXAEBV?$shared_ptr@VSession@?$ServerBase@V?$basic_stream_socket@Vtcp@ip@asio@boost@@Vany_io_executor@34@@asio@boost@@@SimpleWeb@@@std@@AEBV?$shared_ptr@V?$basic_streambuf@V?$allocator@D@std@@@asio@boost@@@std@@@Z@QEBA@AEBVerror_code@system@3@_K@Z@@detail@asio@boost@@QEAAXVerror_code@system@3@_KH@Z 0000000180054f90 f i server.obj
 0001:00054190       ??$?RV<lambda_1>@?BJ@???R0?1??read_chunked_transfer_encoded@?$ServerBase@V?$basic_stream_socket@Vtcp@ip@asio@boost@@Vany_io_executor@34@@asio@boost@@@SimpleWeb@@IEAAXAEBV?$shared_ptr@VSession@?$ServerBase@V?$basic_stream_socket@Vtcp@ip@asio@boost@@Vany_io_executor@34@@asio@boost@@@SimpleWeb@@@std@@AEBV?$shared_ptr@V?$basic_streambuf@V?$allocator@D@std@@@asio@boost@@@5@@Z@QEBA@AEBVerror_code@system@boost@@_K@Z@V?$basic_streambuf_ref@V?$allocator@D@std@@@asio@9@Vtransfer_exactly_t@detail@asio@9@@?$initiate_async_read_dynbuf_v1@V?$basic_stream_socket@Vtcp@ip@asio@boost@@Vany_io_executor@34@@asio@boost@@@detail@asio@boost@@QEBAX$$QEAV<lambda_1>@?BJ@???R4?1??read_chunked_transfer_encoded@?$ServerBase@V?$basic_stream_socket@Vtcp@ip@asio@boost@@Vany_io_executor@34@@asio@boost@@@SimpleWeb@@IEAAXAEBV?$shared_ptr@VSession@?$ServerBase@V?$basic_stream_socket@Vtcp@ip@asio@boost@@Vany_io_executor@34@@asio@boost@@@SimpleWeb@@@std@@AEBV?$shared_ptr@V?$basic_streambuf@V?$allocator@D@std@@@asio@boost@@@9@@Z@QEBA@AEBVerror_code@system@3@_K@Z@$$QEAV?$basic_streambuf_ref@V?$allocator@D@std@@@23@$$QEAVtransfer_exactly_t@123@@Z 0000000180055190 f i server.obj
 0001:00054310       ??1<lambda_1>@?BJ@???R0?1??read_chunked_transfer_encoded@?$ServerBase@V?$basic_stream_socket@Vtcp@ip@asio@boost@@Vany_io_executor@34@@asio@boost@@@SimpleWeb@@IEAAXAEBV?$shared_ptr@VSession@?$ServerBase@V?$basic_stream_socket@Vtcp@ip@asio@boost@@Vany_io_executor@34@@asio@boost@@@SimpleWeb@@@std@@AEBV?$shared_ptr@V?$basic_streambuf@V?$allocator@D@std@@@asio@boost@@@5@@Z@QEBA@AEBVerror_code@system@boost@@_K@Z@QEAA@XZ 0000000180055310 f i server.obj
 0001:00054310       ??1<lambda_1>@?1??read_chunked_transfer_encoded@?$ServerBase@V?$basic_stream_socket@Vtcp@ip@asio@boost@@Vany_io_executor@34@@asio@boost@@@SimpleWeb@@IEAAXAEBV?$shared_ptr@VSession@?$ServerBase@V?$basic_stream_socket@Vtcp@ip@asio@boost@@Vany_io_executor@34@@asio@boost@@@SimpleWeb@@@std@@AEBV?$shared_ptr@V?$basic_streambuf@V?$allocator@D@std@@@asio@boost@@@5@@Z@QEAA@XZ 0000000180055310 f i server.obj
 0001:00054310       ??1BakkesModPlugin@Plugin@BakkesMod@@QEAA@XZ 0000000180055310 f i SixMansPlugin-Rework.obj
 0001:000543a0       ?_Destroy@?$_Ref_count_obj2@V?$basic_streambuf@V?$allocator@D@std@@@asio@boost@@@std@@EEAAXXZ 00000001800553a0 f i server.obj
 0001:000543b0       ??_E?$_Ref_count_obj2@V?$basic_streambuf@V?$allocator@D@std@@@asio@boost@@@std@@UEAAPEAXI@Z 00000001800553b0 f i * CIL library *:* CIL module *
 0001:000543b0       ??_G?$_Ref_count_obj2@V?$basic_streambuf@V?$allocator@D@std@@@asio@boost@@@std@@UEAAPEAXI@Z 00000001800553b0 f i server.obj
 0001:000543e0       ?complete_iocp_recv@socket_ops@detail@asio@boost@@YAXEAEBV?$weak_ptr@X@std@@_NAEAVerror_code@system@4@_K@Z 00000001800553e0 f i server.obj
 0001:00054720       ?start_receive_op@win_iocp_socket_service_base@detail@asio@boost@@IEAAXAEAUbase_implementation_type@1234@PEAU_WSABUF@@_KH_NPEAVwin_iocp_operation@234@@Z 0000000180055720 f i server.obj
 0001:00054840       ?get@?$basic_istream@DU?$char_traits@D@std@@@std@@QEAAHXZ 0000000180055840 f i server.obj
 0001:00054980       ??R<lambda_1>@?1??read_chunked_transfer_encoded@?$ServerBase@V?$basic_stream_socket@Vtcp@ip@asio@boost@@Vany_io_executor@34@@asio@boost@@@SimpleWeb@@IEAAXAEBV?$shared_ptr@VSession@?$ServerBase@V?$basic_stream_socket@Vtcp@ip@asio@boost@@Vany_io_executor@34@@asio@boost@@@SimpleWeb@@@std@@AEBV?$shared_ptr@V?$basic_streambuf@V?$allocator@D@std@@@asio@boost@@@5@@Z@QEBA@AEBVerror_code@system@boost@@_K@Z 0000000180055980 f i server.obj
 0001:00055840       ??R?$read_until_delim_string_op_v1@V?$basic_stream_socket@Vtcp@ip@asio@boost@@Vany_io_executor@34@@asio@boost@@V?$basic_streambuf_ref@V?$allocator@D@std@@@23@V<lambda_1>@?1??read_chunked_transfer_encoded@?$ServerBase@V?$basic_stream_socket@Vtcp@ip@asio@boost@@Vany_io_executor@34@@asio@boost@@@SimpleWeb@@IEAAXAEBV?$shared_ptr@VSession@?$ServerBase@V?$basic_stream_socket@Vtcp@ip@asio@boost@@Vany_io_executor@34@@asio@boost@@@SimpleWeb@@@std@@AEBV?$shared_ptr@V?$basic_streambuf@V?$allocator@D@std@@@asio@boost@@@std@@@Z@@detail@asio@boost@@QEAAXVerror_code@system@3@_KH@Z 0000000180056840 f i server.obj
 0001:00055c20       ??1?$read_until_delim_string_op_v1@V?$basic_stream_socket@Vtcp@ip@asio@boost@@Vany_io_executor@34@@asio@boost@@V?$basic_streambuf_ref@V?$allocator@D@std@@@23@V<lambda_1>@?1??read_chunked_transfer_encoded@?$ServerBase@V?$basic_stream_socket@Vtcp@ip@asio@boost@@Vany_io_executor@34@@asio@boost@@@SimpleWeb@@IEAAXAEBV?$shared_ptr@VSession@?$ServerBase@V?$basic_stream_socket@Vtcp@ip@asio@boost@@Vany_io_executor@34@@asio@boost@@@SimpleWeb@@@std@@AEBV?$shared_ptr@V?$basic_streambuf@V?$allocator@D@std@@@asio@boost@@@std@@@Z@@detail@asio@boost@@QEAA@XZ 0000000180056c20 f i server.obj
 0001:00055c90       ??$async_read_until@V?$basic_stream_socket@Vtcp@ip@asio@boost@@Vany_io_executor@34@@asio@boost@@V?$basic_streambuf_ref@V?$allocator@D@std@@@23@V<lambda_1>@?1??read_chunked_transfer_encoded@?$ServerBase@V?$basic_stream_socket@Vtcp@ip@asio@boost@@Vany_io_executor@34@@asio@boost@@@SimpleWeb@@IEAAXAEBV?$shared_ptr@VSession@?$ServerBase@V?$basic_stream_socket@Vtcp@ip@asio@boost@@Vany_io_executor@34@@asio@boost@@@SimpleWeb@@@std@@AEBV?$shared_ptr@V?$basic_streambuf@V?$allocator@D@std@@@asio@boost@@@std@@@Z@@asio@boost@@YA?A_PAEAV?$basic_stream_socket@Vtcp@ip@asio@boost@@Vany_io_executor@34@@01@$$QEAV?$basic_streambuf_ref@V?$allocator@D@std@@@01@V?$basic_string_view@DU?$char_traits@D@std@@@std@@$$QEAV<lambda_1>@?1??read_chunked_transfer_encoded@?$ServerBase@V?$basic_stream_socket@Vtcp@ip@asio@boost@@Vany_io_executor@34@@asio@boost@@@SimpleWeb@@IEAAXAEBV?$shared_ptr@VSession@?$ServerBase@V?$basic_stream_socket@Vtcp@ip@asio@boost@@Vany_io_executor@34@@asio@boost@@@SimpleWeb@@@5@AEBV?$shared_ptr@V?$basic_streambuf@V?$allocator@D@std@@@asio@boost@@@5@@Z@HH@Z 0000000180056c90 f i server.obj
 0001:00055e50       ?read_chunked_transfer_encoded@?$ServerBase@V?$basic_stream_socket@Vtcp@ip@asio@boost@@Vany_io_executor@34@@asio@boost@@@SimpleWeb@@IEAAXAEBV?$shared_ptr@VSession@?$ServerBase@V?$basic_stream_socket@Vtcp@ip@asio@boost@@Vany_io_executor@34@@asio@boost@@@SimpleWeb@@@std@@AEBV?$shared_ptr@V?$basic_streambuf@V?$allocator@D@std@@@asio@boost@@@4@@Z 0000000180056e50 f i server.obj
 0001:00055f80       ?erase@?$_Hash@V?$_Uset_traits@PEAVConnection@?$ServerBase@V?$basic_stream_socket@Vtcp@ip@asio@boost@@Vany_io_executor@34@@asio@boost@@@SimpleWeb@@V?$_Uhash_compare@PEAVConnection@?$ServerBase@V?$basic_stream_socket@Vtcp@ip@asio@boost@@Vany_io_executor@34@@asio@boost@@@SimpleWeb@@U?$hash@PEAVConnection@?$ServerBase@V?$basic_stream_socket@Vtcp@ip@asio@boost@@Vany_io_executor@34@@asio@boost@@@SimpleWeb@@@std@@U?$equal_to@PEAVConnection@?$ServerBase@V?$basic_stream_socket@Vtcp@ip@asio@boost@@Vany_io_executor@34@@asio@boost@@@SimpleWeb@@@5@@std@@V?$allocator@PEAVConnection@?$ServerBase@V?$basic_stream_socket@Vtcp@ip@asio@boost@@Vany_io_executor@34@@asio@boost@@@SimpleWeb@@@5@$0A@@std@@@std@@QEAA?AV?$_List_const_iterator@V?$_List_val@U?$_List_simple_types@PEAVConnection@?$ServerBase@V?$basic_stream_socket@Vtcp@ip@asio@boost@@Vany_io_executor@34@@asio@boost@@@SimpleWeb@@@std@@@std@@@2@V32@@Z 0000000180056f80 f i server.obj
 0001:00056080       ??$_Resize_reallocate@U_Value_init_tag@std@@@?$vector@U_Loop_vals_t@std@@V?$allocator@U_Loop_vals_t@std@@@2@@std@@AEAAX_KAEBU_Value_init_tag@1@@Z 0000000180057080 f i server.obj
 0001:000561f0       ??0?$_Matcher@V?$_String_const_iterator@V?$_String_val@U?$_Simple_types@D@std@@@std@@@std@@DV?$regex_traits@D@2@V12@@std@@QEAA@V?$_String_const_iterator@V?$_String_val@U?$_Simple_types@D@std@@@std@@@1@0AEBV?$regex_traits@D@1@PEAV_Root_node@1@IW4syntax_option_type@regex_constants@1@W4match_flag_type@61@@Z 00000001800571f0 f i server.obj
 0001:00056330       ??1?$vector@U_Loop_vals_t@std@@V?$allocator@U_Loop_vals_t@std@@@2@@std@@QEAA@XZ 0000000180057330 f i server.obj
 0001:00056390       ??1?$_Matcher@V?$_String_const_iterator@V?$_String_val@U?$_Simple_types@D@std@@@std@@@std@@DV?$regex_traits@D@2@V12@@std@@QEAA@XZ 0000000180057390 f i server.obj
 0001:00056410       ?erase@?$vector@_NV?$allocator@_N@std@@@std@@QEAA?AV?$_Vb_iterator@U?$_Wrap_alloc@V?$allocator@I@std@@@std@@@2@V?$_Vb_const_iterator@U?$_Wrap_alloc@V?$allocator@I@std@@@std@@@2@0@Z 0000000180057410 f i server.obj
 0001:00056690       ?resize@?$vector@_NV?$allocator@_N@std@@@std@@QEAAX_K_N@Z 0000000180057690 f i server.obj
 0001:00056820       ??$_Resize_reallocate@U_Value_init_tag@std@@@?$vector@U_Grp_t@?$_Tgt_state_t@V?$_String_const_iterator@V?$_String_val@U?$_Simple_types@D@std@@@std@@@std@@@std@@V?$allocator@U_Grp_t@?$_Tgt_state_t@V?$_String_const_iterator@V?$_String_val@U?$_Simple_types@D@std@@@std@@@std@@@std@@@3@@std@@AEAAX_KAEBU_Value_init_tag@1@@Z 0000000180057820 f i server.obj
 0001:000569a0       ?_Is_wbound@?$_Matcher@V?$_String_const_iterator@V?$_String_val@U?$_Simple_types@D@std@@@std@@@std@@DV?$regex_traits@D@2@V12@@std@@AEBA_NXZ 00000001800579a0 f i server.obj
 0001:00056a20       ??$_Compare@V?$_String_const_iterator@V?$_String_val@U?$_Simple_types@D@std@@@std@@@std@@PEBDV?$regex_traits@D@2@@std@@YA?AV?$_String_const_iterator@V?$_String_val@U?$_Simple_types@D@std@@@std@@@0@V10@0PEBD1AEBV?$regex_traits@D@0@W4syntax_option_type@regex_constants@0@@Z 0000000180057a20 f i server.obj
 0001:00056ba0       ?_Do_class@?$_Matcher@V?$_String_const_iterator@V?$_String_val@U?$_Simple_types@D@std@@@std@@@std@@DV?$regex_traits@D@2@V12@@std@@AEAA_NPEAV_Node_base@2@@Z 0000000180057ba0 f i server.obj
 0001:00056d70       ?do_transform@?$collate@D@std@@MEBA?AV?$basic_string@DU?$char_traits@D@std@@V?$allocator@D@2@@2@PEBD0@Z 0000000180057d70 f i server.obj
 0001:00056f00       ?translate@?$_Regex_traits@D@std@@QEBADD@Z 0000000180057f00 f i server.obj
 0001:00056fb0       ??$_Compare@V?$_String_const_iterator@V?$_String_val@U?$_Simple_types@D@std@@@std@@@std@@V12@V?$regex_traits@D@2@@std@@YA?AV?$_String_const_iterator@V?$_String_val@U?$_Simple_types@D@std@@@std@@@0@V10@000AEBV?$regex_traits@D@0@W4syntax_option_type@regex_constants@0@@Z 0000000180057fb0 f i server.obj
 0001:00057170       ?_Do_if@?$_Matcher@V?$_String_const_iterator@V?$_String_val@U?$_Simple_types@D@std@@@std@@@std@@DV?$regex_traits@D@2@V12@@std@@AEAA_NPEAV_Node_if@2@@Z 0000000180058170 f i server.obj
 0001:000575b0       ?_Do_rep0@?$_Matcher@V?$_String_const_iterator@V?$_String_val@U?$_Simple_types@D@std@@@std@@@std@@DV?$regex_traits@D@2@V12@@std@@AEAA_NPEAV_Node_rep@2@_N@Z 00000001800585b0 f i server.obj
 0001:00057a70       ??0?$_Bt_state_t@V?$_String_const_iterator@V?$_String_val@U?$_Simple_types@D@std@@@std@@@std@@@std@@QEAA@AEBV01@@Z 0000000180058a70 f i server.obj
 0001:00057b20       ??1?$_Bt_state_t@V?$_String_const_iterator@V?$_String_val@U?$_Simple_types@D@std@@@std@@@std@@@std@@QEAA@XZ 0000000180058b20 f i server.obj
 0001:00057b80       ??1?$_Tgt_state_t@V?$_String_const_iterator@V?$_String_val@U?$_Simple_types@D@std@@@std@@@std@@@std@@QEAA@XZ 0000000180058b80 f i server.obj
 0001:00057c30       ?_Do_rep@?$_Matcher@V?$_String_const_iterator@V?$_String_val@U?$_Simple_types@D@std@@@std@@@std@@DV?$regex_traits@D@2@V12@@std@@AEAA_NPEAV_Node_rep@2@_NH@Z 0000000180058c30 f i server.obj
 0001:00057fc0       ?_Better_match@?$_Matcher@V?$_String_const_iterator@V?$_String_val@U?$_Simple_types@D@std@@@std@@@std@@DV?$regex_traits@D@2@V12@@std@@AEAA_NXZ 0000000180058fc0 f i server.obj
 0001:00058080       ??$_Assign_range@PEAI@?$vector@IV?$allocator@I@std@@@std@@AEAAXPEAI0Uforward_iterator_tag@1@@Z 0000000180059080 f i server.obj
 0001:000581f0       ?_Buy_raw@?$vector@U_Grp_t@?$_Tgt_state_t@V?$_String_const_iterator@V?$_String_val@U?$_Simple_types@D@std@@@std@@@std@@@std@@V?$allocator@U_Grp_t@?$_Tgt_state_t@V?$_String_const_iterator@V?$_String_val@U?$_Simple_types@D@std@@@std@@@std@@@std@@@3@@std@@AEAAX_K@Z 00000001800591f0 f i server.obj
 0001:00058280       ??$_Assign_range@PEAU_Grp_t@?$_Tgt_state_t@V?$_String_const_iterator@V?$_String_val@U?$_Simple_types@D@std@@@std@@@std@@@std@@@?$vector@U_Grp_t@?$_Tgt_state_t@V?$_String_const_iterator@V?$_String_val@U?$_Simple_types@D@std@@@std@@@std@@@std@@V?$allocator@U_Grp_t@?$_Tgt_state_t@V?$_String_const_iterator@V?$_String_val@U?$_Simple_types@D@std@@@std@@@std@@@std@@@3@@std@@AEAAXPEAU_Grp_t@?$_Tgt_state_t@V?$_String_const_iterator@V?$_String_val@U?$_Simple_types@D@std@@@std@@@std@@@1@0Uforward_iterator_tag@1@@Z 0000000180059280 f i server.obj
 0001:000583f0       ?_Match_pat@?$_Matcher@V?$_String_const_iterator@V?$_String_val@U?$_Simple_types@D@std@@@std@@@std@@DV?$regex_traits@D@2@V12@@std@@AEAA_NPEAV_Node_base@2@@Z 00000001800593f0 f i server.obj
 0001:00058a00       ??$_Resize_reallocate@U_Value_init_tag@std@@@?$vector@V?$sub_match@V?$_String_const_iterator@V?$_String_val@U?$_Simple_types@D@std@@@std@@@std@@@std@@V?$allocator@V?$sub_match@V?$_String_const_iterator@V?$_String_val@U?$_Simple_types@D@std@@@std@@@std@@@std@@@2@@std@@AEAAX_KAEBU_Value_init_tag@1@@Z 0000000180059a00 f i server.obj
 0001:00058be0       ?_Resize@?$match_results@V?$_String_const_iterator@V?$_String_val@U?$_Simple_types@D@std@@@std@@@std@@V?$allocator@V?$sub_match@V?$_String_const_iterator@V?$_String_val@U?$_Simple_types@D@std@@@std@@@std@@@std@@@2@@std@@QEAAXI@Z 0000000180059be0 f i server.obj
 0001:00058c90       ??$_Match@V?$allocator@V?$sub_match@V?$_String_const_iterator@V?$_String_val@U?$_Simple_types@D@std@@@std@@@std@@@std@@@std@@@?$_Matcher@V?$_String_const_iterator@V?$_String_val@U?$_Simple_types@D@std@@@std@@@std@@DV?$regex_traits@D@2@V12@@std@@QEAA_NPEAV?$match_results@V?$_String_const_iterator@V?$_String_val@U?$_Simple_types@D@std@@@std@@@std@@V?$allocator@V?$sub_match@V?$_String_const_iterator@V?$_String_val@U?$_Simple_types@D@std@@@std@@@std@@@std@@@2@@1@_N@Z 0000000180059c90 f i server.obj
 0001:00058ec0       ?find@?$_Tree@V?$_Tmap_traits@V?$basic_string@DU?$char_traits@D@std@@V?$allocator@D@2@@std@@V?$function@$$A6AXV?$shared_ptr@VResponse@?$ServerBase@V?$basic_stream_socket@Vtcp@ip@asio@boost@@Vany_io_executor@34@@asio@boost@@@SimpleWeb@@@std@@V?$shared_ptr@VRequest@?$ServerBase@V?$basic_stream_socket@Vtcp@ip@asio@boost@@Vany_io_executor@34@@asio@boost@@@SimpleWeb@@@2@@Z@2@U?$less@V?$basic_string@DU?$char_traits@D@std@@V?$allocator@D@2@@std@@@2@V?$allocator@U?$pair@$$CBV?$basic_string@DU?$char_traits@D@std@@V?$allocator@D@2@@std@@V?$function@$$A6AXV?$shared_ptr@VResponse@?$ServerBase@V?$basic_stream_socket@Vtcp@ip@asio@boost@@Vany_io_executor@34@@asio@boost@@@SimpleWeb@@@std@@V?$shared_ptr@VRequest@?$ServerBase@V?$basic_stream_socket@Vtcp@ip@asio@boost@@Vany_io_executor@34@@asio@boost@@@SimpleWeb@@@2@@Z@2@@std@@@2@$0A@@std@@@std@@QEAA?AV?$_Tree_iterator@V?$_Tree_val@U?$_Tree_simple_types@U?$pair@$$CBV?$basic_string@DU?$char_traits@D@std@@V?$allocator@D@2@@std@@V?$function@$$A6AXV?$shared_ptr@VResponse@?$ServerBase@V?$basic_stream_socket@Vtcp@ip@asio@boost@@Vany_io_executor@34@@asio@boost@@@SimpleWeb@@@std@@V?$shared_ptr@VRequest@?$ServerBase@V?$basic_stream_socket@Vtcp@ip@asio@boost@@Vany_io_executor@34@@asio@boost@@@SimpleWeb@@@2@@Z@2@@std@@@std@@@std@@@2@AEBV?$basic_string@DU?$char_traits@D@std@@V?$allocator@D@2@@2@@Z 0000000180059ec0 f i server.obj
 0001:00058fc0       ??1?$_Temporary_owner_del@PEAVResponse@?$ServerBase@V?$basic_stream_socket@Vtcp@ip@asio@boost@@Vany_io_executor@34@@asio@boost@@@SimpleWeb@@V<lambda_1>@?1??write@23@IEAAXAEBV?$shared_ptr@VSession@?$ServerBase@V?$basic_stream_socket@Vtcp@ip@asio@boost@@Vany_io_executor@34@@asio@boost@@@SimpleWeb@@@std@@AEAV?$function@$$A6AXV?$shared_ptr@VResponse@?$ServerBase@V?$basic_stream_socket@Vtcp@ip@asio@boost@@Vany_io_executor@34@@asio@boost@@@SimpleWeb@@@std@@V?$shared_ptr@VRequest@?$ServerBase@V?$basic_stream_socket@Vtcp@ip@asio@boost@@Vany_io_executor@34@@asio@boost@@@SimpleWeb@@@2@@Z@7@@Z@@std@@QEAA@XZ 0000000180059fc0 f i server.obj
 0001:00058fe0       ??1?$_Temporary_owner@VResponse@?$ServerBase@V?$basic_stream_socket@Vtcp@ip@asio@boost@@Vany_io_executor@34@@asio@boost@@@SimpleWeb@@@std@@QEAA@XZ 0000000180059fe0 f i server.obj
 0001:00059010       ??$_Set_ptr_rep_and_enable_shared@VResponse@?$ServerBase@V?$basic_stream_socket@Vtcp@ip@asio@boost@@Vany_io_executor@34@@asio@boost@@@SimpleWeb@@@?$shared_ptr@VResponse@?$ServerBase@V?$basic_stream_socket@Vtcp@ip@asio@boost@@Vany_io_executor@34@@asio@boost@@@SimpleWeb@@@std@@AEAAXQEAVResponse@?$ServerBase@V?$basic_stream_socket@Vtcp@ip@asio@boost@@Vany_io_executor@34@@asio@boost@@@SimpleWeb@@QEAV_Ref_count_base@1@@Z 000000018005a010 f i server.obj
 0001:000590d0       ??_EResponse@?$ServerBase@V?$basic_stream_socket@Vtcp@ip@asio@boost@@Vany_io_executor@34@@asio@boost@@@SimpleWeb@@UEAAPEAXI@Z 000000018005a0d0 f i * CIL library *:* CIL module *
 0001:000590d0       ??_GResponse@?$ServerBase@V?$basic_stream_socket@Vtcp@ip@asio@boost@@Vany_io_executor@34@@asio@boost@@@SimpleWeb@@UEAAPEAXI@Z 000000018005a0d0 f i server.obj
 0001:000591f0       ?_Destroy@?$_Ref_count@VResponse@?$ServerBase@V?$basic_stream_socket@Vtcp@ip@asio@boost@@Vany_io_executor@34@@asio@boost@@@SimpleWeb@@@std@@EEAAXXZ 000000018005a1f0 f i server.obj
 0001:00059220       ??0bad_weak_ptr@std@@QEAA@XZ 000000018005a220 f i server.obj
 0001:00059240       ?what@bad_weak_ptr@std@@UEBAPEBDXZ 000000018005a240 f i server.obj
 0001:00059250       ??0bad_weak_ptr@std@@QEAA@AEBV01@@Z 000000018005a250 f i server.obj
 0001:00059290       ?_Throw_bad_weak_ptr@std@@YAXXZ 000000018005a290 f i server.obj
 0001:000592b0       ??$allocate@Udefault_tag@thread_info_base@detail@asio@boost@@@thread_info_base@detail@asio@boost@@SAPEAXUdefault_tag@0123@PEAV0123@_K2@Z 000000018005a2b0 f i server.obj
 0001:00059380       ?asio_handler_allocate@asio@boost@@YAPEAX_KZZ 000000018005a380 f i server.obj
 0001:000593d0       ??1ptr@?$win_iocp_socket_send_op@Vconst_buffers_1@asio@boost@@V?$write_op@V?$basic_stream_socket@Vtcp@ip@asio@boost@@Vany_io_executor@34@@asio@boost@@Vconst_buffers_1@23@PEBVconst_buffer@23@Vtransfer_all_t@detail@23@V?$write_dynbuf_v1_op@V?$basic_stream_socket@Vtcp@ip@asio@boost@@Vany_io_executor@34@@asio@boost@@V?$basic_streambuf_ref@V?$allocator@D@std@@@23@Vtransfer_all_t@detail@23@V<lambda_1>@?1??send_on_delete@Response@?$ServerBase@V?$basic_stream_socket@Vtcp@ip@asio@boost@@Vany_io_executor@34@@asio@boost@@@SimpleWeb@@AEAAXAEBV?$function@$$A6AXAEBVerror_code@system@boost@@@Z@std@@@Z@@723@@detail@23@Vany_io_executor@23@@detail@asio@boost@@QEAA@XZ 000000018005a3d0 f i server.obj
 0001:000593e0       ?complete_iocp_send@socket_ops@detail@asio@boost@@YAXAEBV?$weak_ptr@X@std@@AEAVerror_code@system@4@@Z 000000018005a3e0 f i server.obj
 0001:000595b0       ?asio_handler_deallocate@asio@boost@@YAXPEAX_KZZ 000000018005a5b0 f i server.obj
 0001:00059630       ?reset@ptr@?$win_iocp_socket_send_op@Vconst_buffers_1@asio@boost@@V?$write_op@V?$basic_stream_socket@Vtcp@ip@asio@boost@@Vany_io_executor@34@@asio@boost@@Vconst_buffers_1@23@PEBVconst_buffer@23@Vtransfer_all_t@detail@23@V?$write_dynbuf_v1_op@V?$basic_stream_socket@Vtcp@ip@asio@boost@@Vany_io_executor@34@@asio@boost@@V?$basic_streambuf_ref@V?$allocator@D@std@@@23@Vtransfer_all_t@detail@23@V<lambda_1>@?1??send_on_delete@Response@?$ServerBase@V?$basic_stream_socket@Vtcp@ip@asio@boost@@Vany_io_executor@34@@asio@boost@@@SimpleWeb@@AEAAXAEBV?$function@$$A6AXAEBVerror_code@system@boost@@@Z@std@@@Z@@723@@detail@23@Vany_io_executor@23@@detail@asio@boost@@QEAAXXZ 000000018005a630 f i server.obj
 0001:000596c0       ??$complete@V?$binder2@V?$write_op@V?$basic_stream_socket@Vtcp@ip@asio@boost@@Vany_io_executor@34@@asio@boost@@Vconst_buffers_1@23@PEBVconst_buffer@23@Vtransfer_all_t@detail@23@V?$write_dynbuf_v1_op@V?$basic_stream_socket@Vtcp@ip@asio@boost@@Vany_io_executor@34@@asio@boost@@V?$basic_streambuf_ref@V?$allocator@D@std@@@23@Vtransfer_all_t@detail@23@V<lambda_1>@?1??send_on_delete@Response@?$ServerBase@V?$basic_stream_socket@Vtcp@ip@asio@boost@@Vany_io_executor@34@@asio@boost@@@SimpleWeb@@AEAAXAEBV?$function@$$A6AXAEBVerror_code@system@boost@@@Z@std@@@Z@@723@@detail@asio@boost@@Verror_code@system@4@_K@detail@asio@boost@@@executor_function_view@detail@asio@boost@@CAXPEAX@Z 000000018005a6c0 f i server.obj
 0001:00059700       ??$allocate@Uexecutor_function_tag@thread_info_base@detail@asio@boost@@@thread_info_base@detail@asio@boost@@SAPEAXUexecutor_function_tag@0123@PEAV0123@_K2@Z 000000018005a700 f i server.obj
 0001:000597d0       ??1ptr@?$impl@V?$binder2@V?$write_op@V?$basic_stream_socket@Vtcp@ip@asio@boost@@Vany_io_executor@34@@asio@boost@@Vconst_buffers_1@23@PEBVconst_buffer@23@Vtransfer_all_t@detail@23@V?$write_dynbuf_v1_op@V?$basic_stream_socket@Vtcp@ip@asio@boost@@Vany_io_executor@34@@asio@boost@@V?$basic_streambuf_ref@V?$allocator@D@std@@@23@Vtransfer_all_t@detail@23@V<lambda_1>@?1??send_on_delete@Response@?$ServerBase@V?$basic_stream_socket@Vtcp@ip@asio@boost@@Vany_io_executor@34@@asio@boost@@@SimpleWeb@@AEAAXAEBV?$function@$$A6AXAEBVerror_code@system@boost@@@Z@std@@@Z@@723@@detail@asio@boost@@Verror_code@system@4@_K@detail@asio@boost@@V?$allocator@X@std@@@executor_function@detail@asio@boost@@QEAA@XZ 000000018005a7d0 f i server.obj
 0001:000597e0       ?reset@ptr@?$impl@V?$binder2@V?$write_op@V?$basic_stream_socket@Vtcp@ip@asio@boost@@Vany_io_executor@34@@asio@boost@@Vconst_buffers_1@23@PEBVconst_buffer@23@Vtransfer_all_t@detail@23@V?$write_dynbuf_v1_op@V?$basic_stream_socket@Vtcp@ip@asio@boost@@Vany_io_executor@34@@asio@boost@@V?$basic_streambuf_ref@V?$allocator@D@std@@@23@Vtransfer_all_t@detail@23@V<lambda_1>@?1??send_on_delete@Response@?$ServerBase@V?$basic_stream_socket@Vtcp@ip@asio@boost@@Vany_io_executor@34@@asio@boost@@@SimpleWeb@@AEAAXAEBV?$function@$$A6AXAEBVerror_code@system@boost@@@Z@std@@@Z@@723@@detail@asio@boost@@Verror_code@system@4@_K@detail@asio@boost@@V?$allocator@X@std@@@executor_function@detail@asio@boost@@QEAAXXZ 000000018005a7e0 f i server.obj
 0001:00059890       ??$asio_handler_invoke@V?$binder2@V?$write_op@V?$basic_stream_socket@Vtcp@ip@asio@boost@@Vany_io_executor@34@@asio@boost@@Vconst_buffers_1@23@PEBVconst_buffer@23@Vtransfer_all_t@detail@23@V?$write_dynbuf_v1_op@V?$basic_stream_socket@Vtcp@ip@asio@boost@@Vany_io_executor@34@@asio@boost@@V?$basic_streambuf_ref@V?$allocator@D@std@@@23@Vtransfer_all_t@detail@23@V<lambda_1>@?1??send_on_delete@Response@?$ServerBase@V?$basic_stream_socket@Vtcp@ip@asio@boost@@Vany_io_executor@34@@asio@boost@@@SimpleWeb@@AEAAXAEBV?$function@$$A6AXAEBVerror_code@system@boost@@@Z@std@@@Z@@723@@detail@asio@boost@@Verror_code@system@4@_K@detail@asio@boost@@@asio@boost@@YAXAEAV?$binder2@V?$write_op@V?$basic_stream_socket@Vtcp@ip@asio@boost@@Vany_io_executor@34@@asio@boost@@Vconst_buffers_1@23@PEBVconst_buffer@23@Vtransfer_all_t@detail@23@V?$write_dynbuf_v1_op@V?$basic_stream_socket@Vtcp@ip@asio@boost@@Vany_io_executor@34@@asio@boost@@V?$basic_streambuf_ref@V?$allocator@D@std@@@23@Vtransfer_all_t@detail@23@V<lambda_1>@?1??send_on_delete@Response@?$ServerBase@V?$basic_stream_socket@Vtcp@ip@asio@boost@@Vany_io_executor@34@@asio@boost@@@SimpleWeb@@AEAAXAEBV?$function@$$A6AXAEBVerror_code@system@boost@@@Z@std@@@Z@@723@@detail@asio@boost@@Verror_code@system@4@_K@detail@01@ZZ 000000018005a890 f i server.obj
 0001:000598e0       ??$complete@V?$binder2@V?$write_op@V?$basic_stream_socket@Vtcp@ip@asio@boost@@Vany_io_executor@34@@asio@boost@@Vconst_buffers_1@23@PEBVconst_buffer@23@Vtransfer_all_t@detail@23@V?$write_dynbuf_v1_op@V?$basic_stream_socket@Vtcp@ip@asio@boost@@Vany_io_executor@34@@asio@boost@@V?$basic_streambuf_ref@V?$allocator@D@std@@@23@Vtransfer_all_t@detail@23@V<lambda_1>@?1??send_on_delete@Response@?$ServerBase@V?$basic_stream_socket@Vtcp@ip@asio@boost@@Vany_io_executor@34@@asio@boost@@@SimpleWeb@@AEAAXAEBV?$function@$$A6AXAEBVerror_code@system@boost@@@Z@std@@@Z@@723@@detail@asio@boost@@Verror_code@system@4@_K@detail@asio@boost@@V?$allocator@X@std@@@executor_function@detail@asio@boost@@CAXPEAUimpl_base@0123@_N@Z 000000018005a8e0 f i server.obj
 0001:00059a50       ??0?$binder2@V?$write_op@V?$basic_stream_socket@Vtcp@ip@asio@boost@@Vany_io_executor@34@@asio@boost@@Vconst_buffers_1@23@PEBVconst_buffer@23@Vtransfer_all_t@detail@23@V?$write_dynbuf_v1_op@V?$basic_stream_socket@Vtcp@ip@asio@boost@@Vany_io_executor@34@@asio@boost@@V?$basic_streambuf_ref@V?$allocator@D@std@@@23@Vtransfer_all_t@detail@23@V<lambda_1>@?1??send_on_delete@Response@?$ServerBase@V?$basic_stream_socket@Vtcp@ip@asio@boost@@Vany_io_executor@34@@asio@boost@@@SimpleWeb@@AEAAXAEBV?$function@$$A6AXAEBVerror_code@system@boost@@@Z@std@@@Z@@723@@detail@asio@boost@@Verror_code@system@4@_K@detail@asio@boost@@QEAA@$$QEAV0123@@Z 000000018005aa50 f i server.obj
 0001:00059ad0       ??1?$write_op@V?$basic_stream_socket@Vtcp@ip@asio@boost@@Vany_io_executor@34@@asio@boost@@Vconst_buffers_1@23@PEBVconst_buffer@23@Vtransfer_all_t@detail@23@V?$write_dynbuf_v1_op@V?$basic_stream_socket@Vtcp@ip@asio@boost@@Vany_io_executor@34@@asio@boost@@V?$basic_streambuf_ref@V?$allocator@D@std@@@23@Vtransfer_all_t@detail@23@V<lambda_1>@?1??send_on_delete@Response@?$ServerBase@V?$basic_stream_socket@Vtcp@ip@asio@boost@@Vany_io_executor@34@@asio@boost@@@SimpleWeb@@AEAAXAEBV?$function@$$A6AXAEBVerror_code@system@boost@@@Z@std@@@Z@@723@@detail@asio@boost@@QEAA@XZ 000000018005aad0 f i server.obj
 0001:00059ad0       ??1?$binder2@V?$write_op@V?$basic_stream_socket@Vtcp@ip@asio@boost@@Vany_io_executor@34@@asio@boost@@Vconst_buffers_1@23@PEBVconst_buffer@23@Vtransfer_all_t@detail@23@V?$write_dynbuf_v1_op@V?$basic_stream_socket@Vtcp@ip@asio@boost@@Vany_io_executor@34@@asio@boost@@V?$basic_streambuf_ref@V?$allocator@D@std@@@23@Vtransfer_all_t@detail@23@V<lambda_1>@?1??send_on_delete@Response@?$ServerBase@V?$basic_stream_socket@Vtcp@ip@asio@boost@@Vany_io_executor@34@@asio@boost@@@SimpleWeb@@AEAAXAEBV?$function@$$A6AXAEBVerror_code@system@boost@@@Z@std@@@Z@@723@@detail@asio@boost@@Verror_code@system@4@_K@detail@asio@boost@@QEAA@XZ 000000018005aad0 f i server.obj
 0001:00059ae0       ?do_complete@?$win_iocp_socket_send_op@Vconst_buffers_1@asio@boost@@V?$write_op@V?$basic_stream_socket@Vtcp@ip@asio@boost@@Vany_io_executor@34@@asio@boost@@Vconst_buffers_1@23@PEBVconst_buffer@23@Vtransfer_all_t@detail@23@V?$write_dynbuf_v1_op@V?$basic_stream_socket@Vtcp@ip@asio@boost@@Vany_io_executor@34@@asio@boost@@V?$basic_streambuf_ref@V?$allocator@D@std@@@23@Vtransfer_all_t@detail@23@V<lambda_1>@?1??send_on_delete@Response@?$ServerBase@V?$basic_stream_socket@Vtcp@ip@asio@boost@@Vany_io_executor@34@@asio@boost@@@SimpleWeb@@AEAAXAEBV?$function@$$A6AXAEBVerror_code@system@boost@@@Z@std@@@Z@@723@@detail@23@Vany_io_executor@23@@detail@asio@boost@@SAXPEAXPEAVwin_iocp_operation@234@AEBVerror_code@system@4@_K@Z 000000018005aae0 f i server.obj
 0001:00059e20       ?start_send_op@win_iocp_socket_service_base@detail@asio@boost@@IEAAXAEAUbase_implementation_type@1234@PEAU_WSABUF@@_KH_NPEAVwin_iocp_operation@234@@Z 000000018005ae20 f i server.obj
 0001:00059f20       ??$async_send@Vconst_buffers_1@asio@boost@@V?$write_op@V?$basic_stream_socket@Vtcp@ip@asio@boost@@Vany_io_executor@34@@asio@boost@@Vconst_buffers_1@23@PEBVconst_buffer@23@Vtransfer_all_t@detail@23@V?$write_dynbuf_v1_op@V?$basic_stream_socket@Vtcp@ip@asio@boost@@Vany_io_executor@34@@asio@boost@@V?$basic_streambuf_ref@V?$allocator@D@std@@@23@Vtransfer_all_t@detail@23@V<lambda_1>@?1??send_on_delete@Response@?$ServerBase@V?$basic_stream_socket@Vtcp@ip@asio@boost@@Vany_io_executor@34@@asio@boost@@@SimpleWeb@@AEAAXAEBV?$function@$$A6AXAEBVerror_code@system@boost@@@Z@std@@@Z@@723@@detail@23@Vany_io_executor@23@@win_iocp_socket_service_base@detail@asio@boost@@QEAAXAEAUbase_implementation_type@0123@AEBVconst_buffers_1@23@HAEAV?$write_op@V?$basic_stream_socket@Vtcp@ip@asio@boost@@Vany_io_executor@34@@asio@boost@@Vconst_buffers_1@23@PEBVconst_buffer@23@Vtransfer_all_t@detail@23@V?$write_dynbuf_v1_op@V?$basic_stream_socket@Vtcp@ip@asio@boost@@Vany_io_executor@34@@asio@boost@@V?$basic_streambuf_ref@V?$allocator@D@std@@@23@Vtransfer_all_t@detail@23@V<lambda_1>@?1??send_on_delete@Response@?$ServerBase@V?$basic_stream_socket@Vtcp@ip@asio@boost@@Vany_io_executor@34@@asio@boost@@@SimpleWeb@@AEAAXAEBV?$function@$$A6AXAEBVerror_code@system@boost@@@Z@std@@@Z@@723@@123@AEBVany_io_executor@23@@Z 000000018005af20 f i server.obj
 0001:0005a0f0       ??R?$write_op@V?$basic_stream_socket@Vtcp@ip@asio@boost@@Vany_io_executor@34@@asio@boost@@Vconst_buffers_1@23@PEBVconst_buffer@23@Vtransfer_all_t@detail@23@V?$write_dynbuf_v1_op@V?$basic_stream_socket@Vtcp@ip@asio@boost@@Vany_io_executor@34@@asio@boost@@V?$basic_streambuf_ref@V?$allocator@D@std@@@23@Vtransfer_all_t@detail@23@V<lambda_1>@?1??send_on_delete@Response@?$ServerBase@V?$basic_stream_socket@Vtcp@ip@asio@boost@@Vany_io_executor@34@@asio@boost@@@SimpleWeb@@AEAAXAEBV?$function@$$A6AXAEBVerror_code@system@boost@@@Z@std@@@Z@@723@@detail@asio@boost@@QEAAXVerror_code@system@3@_KH@Z 000000018005b0f0 f i server.obj
 0001:0005a1e0       ??0?$write_dynbuf_v1_op@V?$basic_stream_socket@Vtcp@ip@asio@boost@@Vany_io_executor@34@@asio@boost@@V?$basic_streambuf_ref@V?$allocator@D@std@@@23@Vtransfer_all_t@detail@23@V<lambda_1>@?1??send_on_delete@Response@?$ServerBase@V?$basic_stream_socket@Vtcp@ip@asio@boost@@Vany_io_executor@34@@asio@boost@@@SimpleWeb@@AEAAXAEBV?$function@$$A6AXAEBVerror_code@system@boost@@@Z@std@@@Z@@detail@asio@boost@@QEAA@$$QEAV0123@@Z 000000018005b1e0 f i server.obj
 0001:0005a260       ??1?$unique_ptr@VSharedLock@ScopeRunner@SimpleWeb@@U?$default_delete@VSharedLock@ScopeRunner@SimpleWeb@@@std@@@std@@QEAA@XZ 000000018005b260 f i server.obj
 0001:0005a280       ??R?$write_dynbuf_v1_op@V?$basic_stream_socket@Vtcp@ip@asio@boost@@Vany_io_executor@34@@asio@boost@@V?$basic_streambuf_ref@V?$allocator@D@std@@@23@Vtransfer_all_t@detail@23@V<lambda_1>@?1??send_on_delete@Response@?$ServerBase@V?$basic_stream_socket@Vtcp@ip@asio@boost@@Vany_io_executor@34@@asio@boost@@@SimpleWeb@@AEAAXAEBV?$function@$$A6AXAEBVerror_code@system@boost@@@Z@std@@@Z@@detail@asio@boost@@QEAAXAEBVerror_code@system@3@_KH@Z 000000018005b280 f i server.obj
 0001:0005a4c0       ??1<lambda_1>@?1??send_on_delete@Response@?$ServerBase@V?$basic_stream_socket@Vtcp@ip@asio@boost@@Vany_io_executor@34@@asio@boost@@@SimpleWeb@@AEAAXAEBV?$function@$$A6AXAEBVerror_code@system@boost@@@Z@std@@@Z@QEAA@XZ 000000018005b4c0 f i server.obj
 0001:0005a530       ?send_on_delete@Response@?$ServerBase@V?$basic_stream_socket@Vtcp@ip@asio@boost@@Vany_io_executor@34@@asio@boost@@@SimpleWeb@@AEAAXAEBV?$function@$$A6AXAEBVerror_code@system@boost@@@Z@std@@@Z 000000018005b530 f i server.obj
 0001:0005a6d0       ?_Copy@?$_Func_impl_no_alloc@V<lambda_1>@?1???R1?1??write@?$ServerBase@V?$basic_stream_socket@Vtcp@ip@asio@boost@@Vany_io_executor@34@@asio@boost@@@SimpleWeb@@IEAAXAEBV?$shared_ptr@VSession@?$ServerBase@V?$basic_stream_socket@Vtcp@ip@asio@boost@@Vany_io_executor@34@@asio@boost@@@SimpleWeb@@@std@@AEAV?$function@$$A6AXV?$shared_ptr@VResponse@?$ServerBase@V?$basic_stream_socket@Vtcp@ip@asio@boost@@Vany_io_executor@34@@asio@boost@@@SimpleWeb@@@std@@V?$shared_ptr@VRequest@?$ServerBase@V?$basic_stream_socket@Vtcp@ip@asio@boost@@Vany_io_executor@34@@asio@boost@@@SimpleWeb@@@2@@Z@6@@Z@QEBA@PEAVResponse@34@@Z@XAEBVerror_code@system@boost@@@std@@EEBAPEAV?$_Func_base@XAEBVerror_code@system@boost@@@2@PEAX@Z 000000018005b6d0 f i server.obj
 0001:0005a710       ?_Move@?$_Func_impl_no_alloc@V<lambda_1>@?1???R1?1??write@?$ServerBase@V?$basic_stream_socket@Vtcp@ip@asio@boost@@Vany_io_executor@34@@asio@boost@@@SimpleWeb@@IEAAXAEBV?$shared_ptr@VSession@?$ServerBase@V?$basic_stream_socket@Vtcp@ip@asio@boost@@Vany_io_executor@34@@asio@boost@@@SimpleWeb@@@std@@AEAV?$function@$$A6AXV?$shared_ptr@VResponse@?$ServerBase@V?$basic_stream_socket@Vtcp@ip@asio@boost@@Vany_io_executor@34@@asio@boost@@@SimpleWeb@@@std@@V?$shared_ptr@VRequest@?$ServerBase@V?$basic_stream_socket@Vtcp@ip@asio@boost@@Vany_io_executor@34@@asio@boost@@@SimpleWeb@@@2@@Z@6@@Z@QEBA@PEAVResponse@34@@Z@XAEBVerror_code@system@boost@@@std@@EEAAPEAV?$_Func_base@XAEBVerror_code@system@boost@@@2@PEAX@Z 000000018005b710 f i server.obj
 0001:0005a750       ?remove_timer@?$timer_queue@U?$chrono_time_traits@Usteady_clock@chrono@std@@U?$wait_traits@Usteady_clock@chrono@std@@@asio@boost@@@detail@asio@boost@@@detail@asio@boost@@AEAAXAEAVper_timer_data@1234@@Z 000000018005b750 f i server.obj
 0001:0005a980       ?post_deferred_completions@win_iocp_io_context@detail@asio@boost@@QEAAXAEAV?$op_queue@Vwin_iocp_operation@detail@asio@boost@@@234@@Z 000000018005b980 f i server.obj
 0001:0005aa70       ??$cancel_timer@U?$chrono_time_traits@Usteady_clock@chrono@std@@U?$wait_traits@Usteady_clock@chrono@std@@@asio@boost@@@detail@asio@boost@@@win_iocp_io_context@detail@asio@boost@@QEAA_KAEAV?$timer_queue@U?$chrono_time_traits@Usteady_clock@chrono@std@@U?$wait_traits@Usteady_clock@chrono@std@@@asio@boost@@@detail@asio@boost@@@123@AEAVper_timer_data@4123@_K@Z 000000018005ba70 f i server.obj
 0001:0005ac60       ?cancel_timeout@Connection@?$ServerBase@V?$basic_stream_socket@Vtcp@ip@asio@boost@@Vany_io_executor@34@@asio@boost@@@SimpleWeb@@QEAAXXZ 000000018005bc60 f i server.obj
 0001:0005aca0       ??$?RV?$basic_string@DU?$char_traits@D@std@@V?$allocator@D@2@@std@@@?$_Uhash_compare@V?$basic_string@DU?$char_traits@D@std@@V?$allocator@D@2@@std@@VCaseInsensitiveHash@SimpleWeb@@VCaseInsensitiveEqual@4@@std@@QEBA_KAEBV?$basic_string@DU?$char_traits@D@std@@V?$allocator@D@2@@1@@Z 000000018005bca0 f i server.obj
 0001:0005ad80       ?case_insensitive_equal@SimpleWeb@@YA_NAEBV?$basic_string@DU?$char_traits@D@std@@V?$allocator@D@2@@std@@0@Z 000000018005bd80 f i server.obj
 0001:0005ae20       ?_Destroy@?$_Ref_count_obj2@VSession@?$ServerBase@V?$basic_stream_socket@Vtcp@ip@asio@boost@@Vany_io_executor@34@@asio@boost@@@SimpleWeb@@@std@@EEAAXXZ 000000018005be20 f i server.obj
 0001:0005aeb0       ??_G?$_Ref_count_obj2@VSession@?$ServerBase@V?$basic_stream_socket@Vtcp@ip@asio@boost@@Vany_io_executor@34@@asio@boost@@@SimpleWeb@@@std@@UEAAPEAXI@Z 000000018005beb0 f i server.obj
 0001:0005aeb0       ??_E?$_Ref_count_obj2@VSession@?$ServerBase@V?$basic_stream_socket@Vtcp@ip@asio@boost@@Vany_io_executor@34@@asio@boost@@@SimpleWeb@@@std@@UEAAPEAXI@Z 000000018005beb0 f i * CIL library *:* CIL module *
 0001:0005aee0       ??1Request@?$ServerBase@V?$basic_stream_socket@Vtcp@ip@asio@boost@@Vany_io_executor@34@@asio@boost@@@SimpleWeb@@QEAA@XZ 000000018005bee0 f i server.obj
 0001:0005b210       ?_Destroy@?$_Ref_count@VRequest@?$ServerBase@V?$basic_stream_socket@Vtcp@ip@asio@boost@@Vany_io_executor@34@@asio@boost@@@SimpleWeb@@@std@@EEAAXXZ 000000018005c210 f i server.obj
 0001:0005b240       ??_GContent@?$ServerBase@V?$basic_stream_socket@Vtcp@ip@asio@boost@@Vany_io_executor@34@@asio@boost@@@SimpleWeb@@UEAAPEAXI@Z 000000018005c240 f i server.obj
 0001:0005b240       ??_EContent@?$ServerBase@V?$basic_stream_socket@Vtcp@ip@asio@boost@@Vany_io_executor@34@@asio@boost@@@SimpleWeb@@UEAAPEAXI@Z 000000018005c240 f i * CIL library *:* CIL module *
 0001:0005b2a8       ??_EContent@?$ServerBase@V?$basic_stream_socket@Vtcp@ip@asio@boost@@Vany_io_executor@34@@asio@boost@@@SimpleWeb@@$4PPPPPPPM@A@EAAPEAXI@Z 000000018005c2a8 f i server.obj
 0001:0005b2c0       ??0?$unordered_multimap@V?$basic_string@DU?$char_traits@D@std@@V?$allocator@D@2@@std@@V12@VCaseInsensitiveHash@SimpleWeb@@VCaseInsensitiveEqual@4@V?$allocator@U?$pair@$$CBV?$basic_string@DU?$char_traits@D@std@@V?$allocator@D@2@@std@@V12@@std@@@2@@std@@QEAA@XZ 000000018005c2c0 f i server.obj
 0001:0005b340       ??$destroy@U?$pair@$$CBV?$basic_string@DU?$char_traits@D@std@@V?$allocator@D@2@@std@@V12@@std@@@?$_Default_allocator_traits@V?$allocator@U?$_List_node@U?$pair@$$CBV?$basic_string@DU?$char_traits@D@std@@V?$allocator@D@2@@std@@V12@@std@@PEAX@std@@@std@@@std@@SAXAEAV?$allocator@U?$_List_node@U?$pair@$$CBV?$basic_string@DU?$char_traits@D@std@@V?$allocator@D@2@@std@@V12@@std@@PEAX@std@@@1@QEAU?$pair@$$CBV?$basic_string@DU?$char_traits@D@std@@V?$allocator@D@2@@std@@V12@@1@@Z 000000018005c340 f i server.obj
 0001:0005b3f0       ??1?$list@U?$pair@$$CBV?$basic_string@DU?$char_traits@D@std@@V?$allocator@D@2@@std@@V12@@std@@V?$allocator@U?$pair@$$CBV?$basic_string@DU?$char_traits@D@std@@V?$allocator@D@2@@std@@V12@@std@@@2@@std@@QEAA@XZ 000000018005c3f0 f i server.obj
 0001:0005b460       ??1?$_Hash_vec@V?$allocator@V?$_List_unchecked_iterator@V?$_List_val@U?$_List_simple_types@U?$pair@$$CBV?$basic_string@DU?$char_traits@D@std@@V?$allocator@D@2@@std@@V12@@std@@@std@@@std@@@std@@@std@@@std@@QEAA@XZ 000000018005c460 f i server.obj
 0001:0005b4c0       ??1?$unordered_multimap@V?$basic_string@DU?$char_traits@D@std@@V?$allocator@D@2@@std@@V12@VCaseInsensitiveHash@SimpleWeb@@VCaseInsensitiveEqual@4@V?$allocator@U?$pair@$$CBV?$basic_string@DU?$char_traits@D@std@@V?$allocator@D@2@@std@@V12@@std@@@2@@std@@QEAA@XZ 000000018005c4c0 f i server.obj
 0001:0005b520       ??1?$match_results@V?$_String_const_iterator@V?$_String_val@U?$_Simple_types@D@std@@@std@@@std@@V?$allocator@V?$sub_match@V?$_String_const_iterator@V?$_String_val@U?$_Simple_types@D@std@@@std@@@std@@@std@@@2@@std@@QEAA@XZ 000000018005c520 f i server.obj
 0001:0005b5a0       ??0Request@?$ServerBase@V?$basic_stream_socket@Vtcp@ip@asio@boost@@Vany_io_executor@34@@asio@boost@@@SimpleWeb@@AEAA@_KAEBV?$shared_ptr@VConnection@?$ServerBase@V?$basic_stream_socket@Vtcp@ip@asio@boost@@Vany_io_executor@34@@asio@boost@@@SimpleWeb@@@std@@@Z 000000018005c5a0 f i server.obj
 0001:0005b7f0       ??0Session@?$ServerBase@V?$basic_stream_socket@Vtcp@ip@asio@boost@@Vany_io_executor@34@@asio@boost@@@SimpleWeb@@QEAA@_KV?$shared_ptr@VConnection@?$ServerBase@V?$basic_stream_socket@Vtcp@ip@asio@boost@@Vany_io_executor@34@@asio@boost@@@SimpleWeb@@@std@@@Z 000000018005c7f0 f i server.obj
 0001:0005b8f0       ??R<lambda_1>@?1???R0?1??write@?$ServerBase@V?$basic_stream_socket@Vtcp@ip@asio@boost@@Vany_io_executor@34@@asio@boost@@@SimpleWeb@@IEAAXAEBV?$shared_ptr@VSession@?$ServerBase@V?$basic_stream_socket@Vtcp@ip@asio@boost@@Vany_io_executor@34@@asio@boost@@@SimpleWeb@@@std@@AEAV?$function@$$A6AXV?$shared_ptr@VResponse@?$ServerBase@V?$basic_stream_socket@Vtcp@ip@asio@boost@@Vany_io_executor@34@@asio@boost@@@SimpleWeb@@@std@@V?$shared_ptr@VRequest@?$ServerBase@V?$basic_stream_socket@Vtcp@ip@asio@boost@@Vany_io_executor@34@@asio@boost@@@SimpleWeb@@@2@@Z@5@@Z@QEBA@PEAVResponse@23@@Z@QEBA@AEBVerror_code@system@boost@@@Z 000000018005c8f0 f i server.obj
 0001:0005bf00       ?_Do_call@?$_Func_impl_no_alloc@V<lambda_1>@?1???R1?1??write@?$ServerBase@V?$basic_stream_socket@Vtcp@ip@asio@boost@@Vany_io_executor@34@@asio@boost@@@SimpleWeb@@IEAAXAEBV?$shared_ptr@VSession@?$ServerBase@V?$basic_stream_socket@Vtcp@ip@asio@boost@@Vany_io_executor@34@@asio@boost@@@SimpleWeb@@@std@@AEAV?$function@$$A6AXV?$shared_ptr@VResponse@?$ServerBase@V?$basic_stream_socket@Vtcp@ip@asio@boost@@Vany_io_executor@34@@asio@boost@@@SimpleWeb@@@std@@V?$shared_ptr@VRequest@?$ServerBase@V?$basic_stream_socket@Vtcp@ip@asio@boost@@Vany_io_executor@34@@asio@boost@@@SimpleWeb@@@2@@Z@6@@Z@QEBA@PEAVResponse@34@@Z@XAEBVerror_code@system@boost@@@std@@EEAAXAEBVerror_code@system@boost@@@Z 000000018005cf00 f i server.obj
 0001:0005bf10       ?_Target_type@?$_Func_impl_no_alloc@V<lambda_1>@?1???R1?1??write@?$ServerBase@V?$basic_stream_socket@Vtcp@ip@asio@boost@@Vany_io_executor@34@@asio@boost@@@SimpleWeb@@IEAAXAEBV?$shared_ptr@VSession@?$ServerBase@V?$basic_stream_socket@Vtcp@ip@asio@boost@@Vany_io_executor@34@@asio@boost@@@SimpleWeb@@@std@@AEAV?$function@$$A6AXV?$shared_ptr@VResponse@?$ServerBase@V?$basic_stream_socket@Vtcp@ip@asio@boost@@Vany_io_executor@34@@asio@boost@@@SimpleWeb@@@std@@V?$shared_ptr@VRequest@?$ServerBase@V?$basic_stream_socket@Vtcp@ip@asio@boost@@Vany_io_executor@34@@asio@boost@@@SimpleWeb@@@2@@Z@6@@Z@QEBA@PEAVResponse@34@@Z@XAEBVerror_code@system@boost@@@std@@EEBAAEBVtype_info@@XZ 000000018005cf10 f i server.obj
 0001:0005bf20       ?_Delete_this@?$_Func_impl_no_alloc@V<lambda_1>@?1???R1?1??write@?$ServerBase@V?$basic_stream_socket@Vtcp@ip@asio@boost@@Vany_io_executor@34@@asio@boost@@@SimpleWeb@@IEAAXAEBV?$shared_ptr@VSession@?$ServerBase@V?$basic_stream_socket@Vtcp@ip@asio@boost@@Vany_io_executor@34@@asio@boost@@@SimpleWeb@@@std@@AEAV?$function@$$A6AXV?$shared_ptr@VResponse@?$ServerBase@V?$basic_stream_socket@Vtcp@ip@asio@boost@@Vany_io_executor@34@@asio@boost@@@SimpleWeb@@@std@@V?$shared_ptr@VRequest@?$ServerBase@V?$basic_stream_socket@Vtcp@ip@asio@boost@@Vany_io_executor@34@@asio@boost@@@SimpleWeb@@@2@@Z@6@@Z@QEBA@PEAVResponse@34@@Z@XAEBVerror_code@system@boost@@@std@@EEAAX_N@Z 000000018005cf20 f i server.obj
 0001:0005bfa0       ??R<lambda_1>@?1??write@?$ServerBase@V?$basic_stream_socket@Vtcp@ip@asio@boost@@Vany_io_executor@34@@asio@boost@@@SimpleWeb@@IEAAXAEBV?$shared_ptr@VSession@?$ServerBase@V?$basic_stream_socket@Vtcp@ip@asio@boost@@Vany_io_executor@34@@asio@boost@@@SimpleWeb@@@std@@AEAV?$function@$$A6AXV?$shared_ptr@VResponse@?$ServerBase@V?$basic_stream_socket@Vtcp@ip@asio@boost@@Vany_io_executor@34@@asio@boost@@@SimpleWeb@@@std@@V?$shared_ptr@VRequest@?$ServerBase@V?$basic_stream_socket@Vtcp@ip@asio@boost@@Vany_io_executor@34@@asio@boost@@@SimpleWeb@@@2@@Z@5@@Z@QEBA@PEAVResponse@23@@Z 000000018005cfa0 f i server.obj
 0001:0005c100       ?_Destroy@?$_Ref_count_resource@PEAVResponse@?$ServerBase@V?$basic_stream_socket@Vtcp@ip@asio@boost@@Vany_io_executor@34@@asio@boost@@@SimpleWeb@@V<lambda_1>@?1??write@23@IEAAXAEBV?$shared_ptr@VSession@?$ServerBase@V?$basic_stream_socket@Vtcp@ip@asio@boost@@Vany_io_executor@34@@asio@boost@@@SimpleWeb@@@std@@AEAV?$function@$$A6AXV?$shared_ptr@VResponse@?$ServerBase@V?$basic_stream_socket@Vtcp@ip@asio@boost@@Vany_io_executor@34@@asio@boost@@@SimpleWeb@@@std@@V?$shared_ptr@VRequest@?$ServerBase@V?$basic_stream_socket@Vtcp@ip@asio@boost@@Vany_io_executor@34@@asio@boost@@@SimpleWeb@@@2@@Z@7@@Z@@std@@EEAAXXZ 000000018005d100 f i server.obj
 0001:0005c120       ??_G?$_Ref_count_resource@PEAVResponse@?$ServerBase@V?$basic_stream_socket@Vtcp@ip@asio@boost@@Vany_io_executor@34@@asio@boost@@@SimpleWeb@@V<lambda_1>@?1??write@23@IEAAXAEBV?$shared_ptr@VSession@?$ServerBase@V?$basic_stream_socket@Vtcp@ip@asio@boost@@Vany_io_executor@34@@asio@boost@@@SimpleWeb@@@std@@AEAV?$function@$$A6AXV?$shared_ptr@VResponse@?$ServerBase@V?$basic_stream_socket@Vtcp@ip@asio@boost@@Vany_io_executor@34@@asio@boost@@@SimpleWeb@@@std@@V?$shared_ptr@VRequest@?$ServerBase@V?$basic_stream_socket@Vtcp@ip@asio@boost@@Vany_io_executor@34@@asio@boost@@@SimpleWeb@@@2@@Z@7@@Z@@std@@UEAAPEAXI@Z 000000018005d120 f i server.obj
 0001:0005c120       ??_E?$_Ref_count_resource@PEAVResponse@?$ServerBase@V?$basic_stream_socket@Vtcp@ip@asio@boost@@Vany_io_executor@34@@asio@boost@@@SimpleWeb@@V<lambda_1>@?1??write@23@IEAAXAEBV?$shared_ptr@VSession@?$ServerBase@V?$basic_stream_socket@Vtcp@ip@asio@boost@@Vany_io_executor@34@@asio@boost@@@SimpleWeb@@@std@@AEAV?$function@$$A6AXV?$shared_ptr@VResponse@?$ServerBase@V?$basic_stream_socket@Vtcp@ip@asio@boost@@Vany_io_executor@34@@asio@boost@@@SimpleWeb@@@std@@V?$shared_ptr@VRequest@?$ServerBase@V?$basic_stream_socket@Vtcp@ip@asio@boost@@Vany_io_executor@34@@asio@boost@@@SimpleWeb@@@2@@Z@7@@Z@@std@@UEAAPEAXI@Z 000000018005d120 f i * CIL library *:* CIL module *
 0001:0005c150       ?_Get_deleter@?$_Ref_count_resource@PEAVResponse@?$ServerBase@V?$basic_stream_socket@Vtcp@ip@asio@boost@@Vany_io_executor@34@@asio@boost@@@SimpleWeb@@V<lambda_1>@?1??write@23@IEAAXAEBV?$shared_ptr@VSession@?$ServerBase@V?$basic_stream_socket@Vtcp@ip@asio@boost@@Vany_io_executor@34@@asio@boost@@@SimpleWeb@@@std@@AEAV?$function@$$A6AXV?$shared_ptr@VResponse@?$ServerBase@V?$basic_stream_socket@Vtcp@ip@asio@boost@@Vany_io_executor@34@@asio@boost@@@SimpleWeb@@@std@@V?$shared_ptr@VRequest@?$ServerBase@V?$basic_stream_socket@Vtcp@ip@asio@boost@@Vany_io_executor@34@@asio@boost@@@SimpleWeb@@@2@@Z@7@@Z@@std@@UEBAPEAXAEBVtype_info@@@Z 000000018005d150 f i server.obj
 0001:0005c180       ??_EResponse@?$ServerBase@V?$basic_stream_socket@Vtcp@ip@asio@boost@@Vany_io_executor@34@@asio@boost@@@SimpleWeb@@$4PPPPPPPM@A@EAAPEAXI@Z 000000018005d180 f i server.obj
 0001:0005c190       ??_E?$basic_streambuf@V?$allocator@D@std@@@asio@boost@@UEAAPEAXI@Z 000000018005d190 f i * CIL library *:* CIL module *
 0001:0005c190       ??_G?$basic_streambuf@V?$allocator@D@std@@@asio@boost@@UEAAPEAXI@Z 000000018005d190 f i server.obj
 0001:0005c1d0       ??0length_error@std@@QEAA@PEBD@Z 000000018005d1d0 f i server.obj
 0001:0005c240       ??0?$wrapexcept@Vlength_error@std@@@boost@@QEAA@AEBVlength_error@std@@@Z 000000018005d240 f i server.obj
 0001:0005c2c0       ?clone@?$wrapexcept@Vlength_error@std@@@boost@@UEBAPEBVclone_base@exception_detail@2@XZ 000000018005d2c0 f i server.obj
 0001:0005c320       ?rethrow@?$wrapexcept@Vlength_error@std@@@boost@@UEBAXXZ 000000018005d320 f i server.obj
 0001:0005c350       ??0?$wrapexcept@Vlength_error@std@@@boost@@QEAA@AEBU01@@Z 000000018005d350 f i server.obj
 0001:0005c400       ??0length_error@std@@QEAA@AEBV01@@Z 000000018005d400 f i server.obj
 0001:0005c440       ??0logic_error@std@@QEAA@AEBV01@@Z 000000018005d440 f i server.obj
 0001:0005c480       ??$throw_exception@Vlength_error@std@@@boost@@YAXAEBVlength_error@std@@@Z 000000018005d480 f i server.obj
 0001:0005c4b0       ?reserve@?$basic_streambuf@V?$allocator@D@std@@@asio@boost@@IEAAX_K@Z 000000018005d4b0 f i server.obj
 0001:0005c5d0       ?overflow@?$basic_streambuf@V?$allocator@D@std@@@asio@boost@@MEAAHH@Z 000000018005d5d0 f i server.obj
 0001:0005c660       ?underflow@?$basic_streambuf@V?$allocator@D@std@@@asio@boost@@MEAAHXZ 000000018005d660 f i server.obj
 0001:0005c6a0       ??$_Resize_reallocate@U_Value_init_tag@std@@@?$vector@DV?$allocator@D@std@@@std@@AEAAX_KAEBU_Value_init_tag@1@@Z 000000018005d6a0 f i server.obj
 0001:0005c7a0       ?resize@?$vector@DV?$allocator@D@std@@@std@@QEAAX_K@Z 000000018005d7a0 f i server.obj
 0001:0005c820       ??0?$basic_streambuf@V?$allocator@D@std@@@asio@boost@@QEAA@_KAEBV?$allocator@D@std@@@Z 000000018005d820 f i server.obj
 0001:0005c8f0       ??1?$basic_streambuf@V?$allocator@D@std@@@asio@boost@@UEAA@XZ 000000018005d8f0 f i server.obj
 0001:0005c9a0       ??$_Free_non_head@V?$allocator@U?$_List_node@U?$pair@V?$shared_ptr@V?$basic_streambuf@V?$allocator@D@std@@@asio@boost@@@std@@V?$function@$$A6AXAEBVerror_code@system@boost@@@Z@2@@std@@PEAX@std@@@std@@@?$_List_node@U?$pair@V?$shared_ptr@V?$basic_streambuf@V?$allocator@D@std@@@asio@boost@@@std@@V?$function@$$A6AXAEBVerror_code@system@boost@@@Z@2@@std@@PEAX@std@@SAXAEAV?$allocator@U?$_List_node@U?$pair@V?$shared_ptr@V?$basic_streambuf@V?$allocator@D@std@@@asio@boost@@@std@@V?$function@$$A6AXAEBVerror_code@system@boost@@@Z@2@@std@@PEAX@std@@@1@PEAU01@@Z 000000018005d9a0 f i server.obj
 0001:0005ca60       ??0Response@?$ServerBase@V?$basic_stream_socket@Vtcp@ip@asio@boost@@Vany_io_executor@34@@asio@boost@@@SimpleWeb@@AEAA@V?$shared_ptr@VSession@?$ServerBase@V?$basic_stream_socket@Vtcp@ip@asio@boost@@Vany_io_executor@34@@asio@boost@@@SimpleWeb@@@std@@J@Z 000000018005da60 f i server.obj
 0001:0005cc30       ?message@generic_error_category@detail@system@boost@@UEBAPEBDHPEAD_K@Z 000000018005dc30 f i server.obj
 0001:0005cca0       ?message@generic_error_category@detail@system@boost@@UEBA?AV?$basic_string@DU?$char_traits@D@std@@V?$allocator@D@2@@std@@H@Z 000000018005dca0 f i server.obj
 0001:0005cd10       ?write@?$ServerBase@V?$basic_stream_socket@Vtcp@ip@asio@boost@@Vany_io_executor@34@@asio@boost@@@SimpleWeb@@IEAAXAEBV?$shared_ptr@VSession@?$ServerBase@V?$basic_stream_socket@Vtcp@ip@asio@boost@@Vany_io_executor@34@@asio@boost@@@SimpleWeb@@@std@@AEAV?$function@$$A6AXV?$shared_ptr@VResponse@?$ServerBase@V?$basic_stream_socket@Vtcp@ip@asio@boost@@Vany_io_executor@34@@asio@boost@@@SimpleWeb@@@std@@V?$shared_ptr@VRequest@?$ServerBase@V?$basic_stream_socket@Vtcp@ip@asio@boost@@Vany_io_executor@34@@asio@boost@@@SimpleWeb@@@2@@Z@4@@Z 000000018005dd10 f i server.obj
 0001:0005cfa0       ?find_resource@?$ServerBase@V?$basic_stream_socket@Vtcp@ip@asio@boost@@Vany_io_executor@34@@asio@boost@@@SimpleWeb@@IEAAXAEBV?$shared_ptr@VSession@?$ServerBase@V?$basic_stream_socket@Vtcp@ip@asio@boost@@Vany_io_executor@34@@asio@boost@@@SimpleWeb@@@std@@@Z 000000018005dfa0 f i server.obj
 0001:0005d6e0       ??R<lambda_1>@?1??read@?$ServerBase@V?$basic_stream_socket@Vtcp@ip@asio@boost@@Vany_io_executor@34@@asio@boost@@@SimpleWeb@@IEAAXAEBV?$shared_ptr@VSession@?$ServerBase@V?$basic_stream_socket@Vtcp@ip@asio@boost@@Vany_io_executor@34@@asio@boost@@@SimpleWeb@@@std@@@Z@QEBA@AEBVerror_code@system@boost@@_K@Z 000000018005e6e0 f i server.obj
 0001:0005e1a0       ??R?$read_until_delim_string_op_v1@V?$basic_stream_socket@Vtcp@ip@asio@boost@@Vany_io_executor@34@@asio@boost@@V?$basic_streambuf_ref@V?$allocator@D@std@@@23@V<lambda_1>@?1??read@?$ServerBase@V?$basic_stream_socket@Vtcp@ip@asio@boost@@Vany_io_executor@34@@asio@boost@@@SimpleWeb@@IEAAXAEBV?$shared_ptr@VSession@?$ServerBase@V?$basic_stream_socket@Vtcp@ip@asio@boost@@Vany_io_executor@34@@asio@boost@@@SimpleWeb@@@std@@@Z@@detail@asio@boost@@QEAAXVerror_code@system@3@_KH@Z 000000018005f1a0 f i server.obj
 0001:0005e580       ??1?$read_until_delim_string_op_v1@V?$basic_stream_socket@Vtcp@ip@asio@boost@@Vany_io_executor@34@@asio@boost@@V?$basic_streambuf_ref@V?$allocator@D@std@@@23@V<lambda_1>@?1??read@?$ServerBase@V?$basic_stream_socket@Vtcp@ip@asio@boost@@Vany_io_executor@34@@asio@boost@@@SimpleWeb@@IEAAXAEBV?$shared_ptr@VSession@?$ServerBase@V?$basic_stream_socket@Vtcp@ip@asio@boost@@Vany_io_executor@34@@asio@boost@@@SimpleWeb@@@std@@@Z@@detail@asio@boost@@QEAA@XZ 000000018005f580 f i server.obj
 0001:0005e630       ?read@?$ServerBase@V?$basic_stream_socket@Vtcp@ip@asio@boost@@Vany_io_executor@34@@asio@boost@@@SimpleWeb@@IEAAXAEBV?$shared_ptr@VSession@?$ServerBase@V?$basic_stream_socket@Vtcp@ip@asio@boost@@Vany_io_executor@34@@asio@boost@@@SimpleWeb@@@std@@@Z 000000018005f630 f i server.obj
 0001:0005e7e0       ??R?$_Func_class@XV?$shared_ptr@VRequest@?$ServerBase@V?$basic_stream_socket@Vtcp@ip@asio@boost@@Vany_io_executor@34@@asio@boost@@@SimpleWeb@@@std@@AEBVerror_code@system@boost@@@std@@QEBAXV?$shared_ptr@VRequest@?$ServerBase@V?$basic_stream_socket@Vtcp@ip@asio@boost@@Vany_io_executor@34@@asio@boost@@@SimpleWeb@@@1@AEBVerror_code@system@boost@@@Z 000000018005f7e0 f i server.obj
 0001:0005e870       ??R<lambda_1>@?1??accept@?$Server@V?$basic_stream_socket@Vtcp@ip@asio@boost@@Vany_io_executor@34@@asio@boost@@@SimpleWeb@@MEAAXXZ@QEBA@AEBVerror_code@system@boost@@@Z 000000018005f870 f i server.obj
 0001:0005eb00       ??$asio_handler_invoke@V?$binder1@V<lambda_1>@?1??accept@?$Server@V?$basic_stream_socket@Vtcp@ip@asio@boost@@Vany_io_executor@34@@asio@boost@@@SimpleWeb@@MEAAXXZ@Verror_code@system@boost@@@detail@asio@boost@@@asio@boost@@YAXAEAV?$binder1@V<lambda_1>@?1??accept@?$Server@V?$basic_stream_socket@Vtcp@ip@asio@boost@@Vany_io_executor@34@@asio@boost@@@SimpleWeb@@MEAAXXZ@Verror_code@system@boost@@@detail@01@ZZ 000000018005fb00 f i server.obj
 0001:0005eb20       ??$complete@V?$binder1@V<lambda_1>@?1??accept@?$Server@V?$basic_stream_socket@Vtcp@ip@asio@boost@@Vany_io_executor@34@@asio@boost@@@SimpleWeb@@MEAAXXZ@Verror_code@system@boost@@@detail@asio@boost@@V?$allocator@X@std@@@executor_function@detail@asio@boost@@CAXPEAUimpl_base@0123@_N@Z 000000018005fb20 f i server.obj
 0001:0005ec20       ??1executor_function@detail@asio@boost@@QEAA@XZ 000000018005fc20 f i server.obj
 0001:0005ec40       ??$?RAEAVany_io_executor@asio@boost@@AEBU?$possibly_t@$0A@@blocking@detail@execution@12@@impl@boost_asio_prefer_fn@@QEBA?AVany_io_executor@asio@boost@@AEAV234@AEBU?$possibly_t@$0A@@blocking@detail@execution@34@@Z 000000018005fc40 f i server.obj
 0001:0005ecf0       ??$dispatch@V?$binder1@V<lambda_1>@?1??accept@?$Server@V?$basic_stream_socket@Vtcp@ip@asio@boost@@Vany_io_executor@34@@asio@boost@@@SimpleWeb@@MEAAXXZ@Verror_code@system@boost@@@detail@asio@boost@@V<lambda_1>@?1??accept@?$Server@V?$basic_stream_socket@Vtcp@ip@asio@boost@@Vany_io_executor@34@@asio@boost@@@SimpleWeb@@MEAAXXZ@@?$handler_work_base@Vany_io_executor@asio@boost@@XVio_context@23@Vexecutor@23@X@detail@asio@boost@@QEAAXAEAV?$binder1@V<lambda_1>@?1??accept@?$Server@V?$basic_stream_socket@Vtcp@ip@asio@boost@@Vany_io_executor@34@@asio@boost@@@SimpleWeb@@MEAAXXZ@Verror_code@system@boost@@@123@AEAV<lambda_1>@?1??accept@?$Server@V?$basic_stream_socket@Vtcp@ip@asio@boost@@Vany_io_executor@34@@asio@boost@@@SimpleWeb@@MEAAXXZ@@Z 000000018005fcf0 f i server.obj
 0001:0005ee80       ?do_complete@?$win_iocp_socket_accept_op@V?$basic_socket@Vtcp@ip@asio@boost@@Vany_io_executor@34@@asio@boost@@Vtcp@ip@23@V<lambda_1>@?1??accept@?$Server@V?$basic_stream_socket@Vtcp@ip@asio@boost@@Vany_io_executor@34@@asio@boost@@@SimpleWeb@@MEAAXXZ@Vany_io_executor@23@@detail@asio@boost@@SAXPEAXPEAVwin_iocp_operation@234@AEBVerror_code@system@4@_K@Z 000000018005fe80 f i server.obj
 0001:0005f260       ??1socket_holder@detail@asio@boost@@QEAA@XZ 0000000180060260 f i server.obj
 0001:0005f2c0       ??$query_fn_impl@XU?$prefer_only@U?$untracked_t@$0A@@outstanding_work@detail@execution@asio@boost@@@execution@asio@boost@@@any_executor_base@detail@execution@asio@boost@@KAXPEAXPEBX10@Z 00000001800602c0 f i server.obj
 0001:0005f2c0       ??$query_fn_impl@XU?$never_t@$0A@@blocking@detail@execution@asio@boost@@@any_executor_base@detail@execution@asio@boost@@KAXPEAXPEBX10@Z 00000001800602c0 f i server.obj
 0001:0005f2c0       ??$query_fn_impl@XU?$prefer_only@U?$fork_t@$0A@@relationship@detail@execution@asio@boost@@@execution@asio@boost@@@any_executor_base@detail@execution@asio@boost@@KAXPEAXPEBX10@Z 00000001800602c0 f i server.obj
 0001:0005f2c0       ??$query_fn_impl@XU?$prefer_only@U?$tracked_t@$0A@@outstanding_work@detail@execution@asio@boost@@@execution@asio@boost@@@any_executor_base@detail@execution@asio@boost@@KAXPEAXPEBX10@Z 00000001800602c0 f i server.obj
 0001:0005f2c0       ??$query_fn_impl@XU?$context_as_t@AEAVexecution_context@asio@boost@@@execution@asio@boost@@@any_executor_base@detail@execution@asio@boost@@KAXPEAXPEBX10@Z 00000001800602c0 f i server.obj
 0001:0005f2c0       ??$query_fn_impl@XU?$prefer_only@U?$possibly_t@$0A@@blocking@detail@execution@asio@boost@@@execution@asio@boost@@@any_executor_base@detail@execution@asio@boost@@KAXPEAXPEBX10@Z 00000001800602c0 f i server.obj
 0001:0005f2c0       ??$query_fn_impl@XU?$prefer_only@U?$continuation_t@$0A@@relationship@detail@execution@asio@boost@@@execution@asio@boost@@@any_executor_base@detail@execution@asio@boost@@KAXPEAXPEBX10@Z 00000001800602c0 f i server.obj
 0001:0005f2d0       ??$query_fn@XU?$context_as_t@AEAVexecution_context@asio@boost@@@execution@asio@boost@@@any_executor_base@detail@execution@asio@boost@@KAXPEAXPEBX1@Z 00000001800602d0 f i server.obj
 0001:0005f2d0       ??$query_fn@XU?$prefer_only@U?$fork_t@$0A@@relationship@detail@execution@asio@boost@@@execution@asio@boost@@@any_executor_base@detail@execution@asio@boost@@KAXPEAXPEBX1@Z 00000001800602d0 f i server.obj
 0001:0005f2d0       ??$query_fn@XU?$prefer_only@U?$tracked_t@$0A@@outstanding_work@detail@execution@asio@boost@@@execution@asio@boost@@@any_executor_base@detail@execution@asio@boost@@KAXPEAXPEBX1@Z 00000001800602d0 f i server.obj
 0001:0005f2d0       ??$query_fn@XU?$prefer_only@U?$continuation_t@$0A@@relationship@detail@execution@asio@boost@@@execution@asio@boost@@@any_executor_base@detail@execution@asio@boost@@KAXPEAXPEBX1@Z 00000001800602d0 f i server.obj
 0001:0005f2d0       ??$query_fn@XU?$prefer_only@U?$possibly_t@$0A@@blocking@detail@execution@asio@boost@@@execution@asio@boost@@@any_executor_base@detail@execution@asio@boost@@KAXPEAXPEBX1@Z 00000001800602d0 f i server.obj
 0001:0005f2d0       ??$query_fn@XU?$never_t@$0A@@blocking@detail@execution@asio@boost@@@any_executor_base@detail@execution@asio@boost@@KAXPEAXPEBX1@Z 00000001800602d0 f i server.obj
 0001:0005f2d0       ??$query_fn@XU?$prefer_only@U?$untracked_t@$0A@@outstanding_work@detail@execution@asio@boost@@@execution@asio@boost@@@any_executor_base@detail@execution@asio@boost@@KAXPEAXPEBX1@Z 00000001800602d0 f i server.obj
 0001:0005f2e0       ??$prefer_fn_impl@V?$any_executor@U?$context_as_t@AEAVexecution_context@asio@boost@@@execution@asio@boost@@U?$never_t@$0A@@blocking@detail@234@U?$prefer_only@U?$possibly_t@$0A@@blocking@detail@execution@asio@boost@@@234@U?$prefer_only@U?$tracked_t@$0A@@outstanding_work@detail@execution@asio@boost@@@234@U?$prefer_only@U?$untracked_t@$0A@@outstanding_work@detail@execution@asio@boost@@@234@U?$prefer_only@U?$fork_t@$0A@@relationship@detail@execution@asio@boost@@@234@U?$prefer_only@U?$continuation_t@$0A@@relationship@detail@execution@asio@boost@@@234@@execution@asio@boost@@XU?$prefer_only@U?$possibly_t@$0A@@blocking@detail@execution@asio@boost@@@234@@any_executor_base@detail@execution@asio@boost@@KA?AV?$any_executor@U?$context_as_t@AEAVexecution_context@asio@boost@@@execution@asio@boost@@U?$never_t@$0A@@blocking@detail@234@U?$prefer_only@U?$possibly_t@$0A@@blocking@detail@execution@asio@boost@@@234@U?$prefer_only@U?$tracked_t@$0A@@outstanding_work@detail@execution@asio@boost@@@234@U?$prefer_only@U?$untracked_t@$0A@@outstanding_work@detail@execution@asio@boost@@@234@U?$prefer_only@U?$fork_t@$0A@@relationship@detail@execution@asio@boost@@@234@U?$prefer_only@U?$continuation_t@$0A@@relationship@detail@execution@asio@boost@@@234@@234@PEBX0PEAX@Z 00000001800602e0 f i server.obj
 0001:0005f2e0       ??$prefer_fn_impl@V?$any_executor@U?$context_as_t@AEAVexecution_context@asio@boost@@@execution@asio@boost@@U?$never_t@$0A@@blocking@detail@234@U?$prefer_only@U?$possibly_t@$0A@@blocking@detail@execution@asio@boost@@@234@U?$prefer_only@U?$tracked_t@$0A@@outstanding_work@detail@execution@asio@boost@@@234@U?$prefer_only@U?$untracked_t@$0A@@outstanding_work@detail@execution@asio@boost@@@234@U?$prefer_only@U?$fork_t@$0A@@relationship@detail@execution@asio@boost@@@234@U?$prefer_only@U?$continuation_t@$0A@@relationship@detail@execution@asio@boost@@@234@@execution@asio@boost@@XU?$prefer_only@U?$tracked_t@$0A@@outstanding_work@detail@execution@asio@boost@@@234@@any_executor_base@detail@execution@asio@boost@@KA?AV?$any_executor@U?$context_as_t@AEAVexecution_context@asio@boost@@@execution@asio@boost@@U?$never_t@$0A@@blocking@detail@234@U?$prefer_only@U?$possibly_t@$0A@@blocking@detail@execution@asio@boost@@@234@U?$prefer_only@U?$tracked_t@$0A@@outstanding_work@detail@execution@asio@boost@@@234@U?$prefer_only@U?$untracked_t@$0A@@outstanding_work@detail@execution@asio@boost@@@234@U?$prefer_only@U?$fork_t@$0A@@relationship@detail@execution@asio@boost@@@234@U?$prefer_only@U?$continuation_t@$0A@@relationship@detail@execution@asio@boost@@@234@@234@PEBX0PEAX@Z 00000001800602e0 f i server.obj
 0001:0005f2e0       ??$require_fn_impl@V?$any_executor@U?$context_as_t@AEAVexecution_context@asio@boost@@@execution@asio@boost@@U?$never_t@$0A@@blocking@detail@234@U?$prefer_only@U?$possibly_t@$0A@@blocking@detail@execution@asio@boost@@@234@U?$prefer_only@U?$tracked_t@$0A@@outstanding_work@detail@execution@asio@boost@@@234@U?$prefer_only@U?$untracked_t@$0A@@outstanding_work@detail@execution@asio@boost@@@234@U?$prefer_only@U?$fork_t@$0A@@relationship@detail@execution@asio@boost@@@234@U?$prefer_only@U?$continuation_t@$0A@@relationship@detail@execution@asio@boost@@@234@@execution@asio@boost@@XU?$never_t@$0A@@blocking@detail@234@@any_executor_base@detail@execution@asio@boost@@KA?AV?$any_executor@U?$context_as_t@AEAVexecution_context@asio@boost@@@execution@asio@boost@@U?$never_t@$0A@@blocking@detail@234@U?$prefer_only@U?$possibly_t@$0A@@blocking@detail@execution@asio@boost@@@234@U?$prefer_only@U?$tracked_t@$0A@@outstanding_work@detail@execution@asio@boost@@@234@U?$prefer_only@U?$untracked_t@$0A@@outstanding_work@detail@execution@asio@boost@@@234@U?$prefer_only@U?$fork_t@$0A@@relationship@detail@execution@asio@boost@@@234@U?$prefer_only@U?$continuation_t@$0A@@relationship@detail@execution@asio@boost@@@234@@234@PEBX0PEAX@Z 00000001800602e0 f i server.obj
 0001:0005f2e0       ??$prefer_fn_impl@V?$any_executor@U?$context_as_t@AEAVexecution_context@asio@boost@@@execution@asio@boost@@U?$never_t@$0A@@blocking@detail@234@U?$prefer_only@U?$possibly_t@$0A@@blocking@detail@execution@asio@boost@@@234@U?$prefer_only@U?$tracked_t@$0A@@outstanding_work@detail@execution@asio@boost@@@234@U?$prefer_only@U?$untracked_t@$0A@@outstanding_work@detail@execution@asio@boost@@@234@U?$prefer_only@U?$fork_t@$0A@@relationship@detail@execution@asio@boost@@@234@U?$prefer_only@U?$continuation_t@$0A@@relationship@detail@execution@asio@boost@@@234@@execution@asio@boost@@XU?$prefer_only@U?$continuation_t@$0A@@relationship@detail@execution@asio@boost@@@234@@any_executor_base@detail@execution@asio@boost@@KA?AV?$any_executor@U?$context_as_t@AEAVexecution_context@asio@boost@@@execution@asio@boost@@U?$never_t@$0A@@blocking@detail@234@U?$prefer_only@U?$possibly_t@$0A@@blocking@detail@execution@asio@boost@@@234@U?$prefer_only@U?$tracked_t@$0A@@outstanding_work@detail@execution@asio@boost@@@234@U?$prefer_only@U?$untracked_t@$0A@@outstanding_work@detail@execution@asio@boost@@@234@U?$prefer_only@U?$fork_t@$0A@@relationship@detail@execution@asio@boost@@@234@U?$prefer_only@U?$continuation_t@$0A@@relationship@detail@execution@asio@boost@@@234@@234@PEBX0PEAX@Z 00000001800602e0 f i server.obj
 0001:0005f2e0       ??$require_fn_impl@V?$any_executor@U?$context_as_t@AEAVexecution_context@asio@boost@@@execution@asio@boost@@U?$never_t@$0A@@blocking@detail@234@U?$prefer_only@U?$possibly_t@$0A@@blocking@detail@execution@asio@boost@@@234@U?$prefer_only@U?$tracked_t@$0A@@outstanding_work@detail@execution@asio@boost@@@234@U?$prefer_only@U?$untracked_t@$0A@@outstanding_work@detail@execution@asio@boost@@@234@U?$prefer_only@U?$fork_t@$0A@@relationship@detail@execution@asio@boost@@@234@U?$prefer_only@U?$continuation_t@$0A@@relationship@detail@execution@asio@boost@@@234@@execution@asio@boost@@XU?$prefer_only@U?$possibly_t@$0A@@blocking@detail@execution@asio@boost@@@234@@any_executor_base@detail@execution@asio@boost@@KA?AV?$any_executor@U?$context_as_t@AEAVexecution_context@asio@boost@@@execution@asio@boost@@U?$never_t@$0A@@blocking@detail@234@U?$prefer_only@U?$possibly_t@$0A@@blocking@detail@execution@asio@boost@@@234@U?$prefer_only@U?$tracked_t@$0A@@outstanding_work@detail@execution@asio@boost@@@234@U?$prefer_only@U?$untracked_t@$0A@@outstanding_work@detail@execution@asio@boost@@@234@U?$prefer_only@U?$fork_t@$0A@@relationship@detail@execution@asio@boost@@@234@U?$prefer_only@U?$continuation_t@$0A@@relationship@detail@execution@asio@boost@@@234@@234@PEBX0PEAX@Z 00000001800602e0 f i server.obj
 0001:0005f2e0       ??$require_fn_impl@V?$any_executor@U?$context_as_t@AEAVexecution_context@asio@boost@@@execution@asio@boost@@U?$never_t@$0A@@blocking@detail@234@U?$prefer_only@U?$possibly_t@$0A@@blocking@detail@execution@asio@boost@@@234@U?$prefer_only@U?$tracked_t@$0A@@outstanding_work@detail@execution@asio@boost@@@234@U?$prefer_only@U?$untracked_t@$0A@@outstanding_work@detail@execution@asio@boost@@@234@U?$prefer_only@U?$fork_t@$0A@@relationship@detail@execution@asio@boost@@@234@U?$prefer_only@U?$continuation_t@$0A@@relationship@detail@execution@asio@boost@@@234@@execution@asio@boost@@XU?$prefer_only@U?$untracked_t@$0A@@outstanding_work@detail@execution@asio@boost@@@234@@any_executor_base@detail@execution@asio@boost@@KA?AV?$any_executor@U?$context_as_t@AEAVexecution_context@asio@boost@@@execution@asio@boost@@U?$never_t@$0A@@blocking@detail@234@U?$prefer_only@U?$possibly_t@$0A@@blocking@detail@execution@asio@boost@@@234@U?$prefer_only@U?$tracked_t@$0A@@outstanding_work@detail@execution@asio@boost@@@234@U?$prefer_only@U?$untracked_t@$0A@@outstanding_work@detail@execution@asio@boost@@@234@U?$prefer_only@U?$fork_t@$0A@@relationship@detail@execution@asio@boost@@@234@U?$prefer_only@U?$continuation_t@$0A@@relationship@detail@execution@asio@boost@@@234@@234@PEBX0PEAX@Z 00000001800602e0 f i server.obj
 0001:0005f2e0       ??$prefer_fn_impl@V?$any_executor@U?$context_as_t@AEAVexecution_context@asio@boost@@@execution@asio@boost@@U?$never_t@$0A@@blocking@detail@234@U?$prefer_only@U?$possibly_t@$0A@@blocking@detail@execution@asio@boost@@@234@U?$prefer_only@U?$tracked_t@$0A@@outstanding_work@detail@execution@asio@boost@@@234@U?$prefer_only@U?$untracked_t@$0A@@outstanding_work@detail@execution@asio@boost@@@234@U?$prefer_only@U?$fork_t@$0A@@relationship@detail@execution@asio@boost@@@234@U?$prefer_only@U?$continuation_t@$0A@@relationship@detail@execution@asio@boost@@@234@@execution@asio@boost@@XU?$prefer_only@U?$untracked_t@$0A@@outstanding_work@detail@execution@asio@boost@@@234@@any_executor_base@detail@execution@asio@boost@@KA?AV?$any_executor@U?$context_as_t@AEAVexecution_context@asio@boost@@@execution@asio@boost@@U?$never_t@$0A@@blocking@detail@234@U?$prefer_only@U?$possibly_t@$0A@@blocking@detail@execution@asio@boost@@@234@U?$prefer_only@U?$tracked_t@$0A@@outstanding_work@detail@execution@asio@boost@@@234@U?$prefer_only@U?$untracked_t@$0A@@outstanding_work@detail@execution@asio@boost@@@234@U?$prefer_only@U?$fork_t@$0A@@relationship@detail@execution@asio@boost@@@234@U?$prefer_only@U?$continuation_t@$0A@@relationship@detail@execution@asio@boost@@@234@@234@PEBX0PEAX@Z 00000001800602e0 f i server.obj
 0001:0005f2e0       ??$require_fn_impl@V?$any_executor@U?$context_as_t@AEAVexecution_context@asio@boost@@@execution@asio@boost@@U?$never_t@$0A@@blocking@detail@234@U?$prefer_only@U?$possibly_t@$0A@@blocking@detail@execution@asio@boost@@@234@U?$prefer_only@U?$tracked_t@$0A@@outstanding_work@detail@execution@asio@boost@@@234@U?$prefer_only@U?$untracked_t@$0A@@outstanding_work@detail@execution@asio@boost@@@234@U?$prefer_only@U?$fork_t@$0A@@relationship@detail@execution@asio@boost@@@234@U?$prefer_only@U?$continuation_t@$0A@@relationship@detail@execution@asio@boost@@@234@@execution@asio@boost@@XU?$prefer_only@U?$continuation_t@$0A@@relationship@detail@execution@asio@boost@@@234@@any_executor_base@detail@execution@asio@boost@@KA?AV?$any_executor@U?$context_as_t@AEAVexecution_context@asio@boost@@@execution@asio@boost@@U?$never_t@$0A@@blocking@detail@234@U?$prefer_only@U?$possibly_t@$0A@@blocking@detail@execution@asio@boost@@@234@U?$prefer_only@U?$tracked_t@$0A@@outstanding_work@detail@execution@asio@boost@@@234@U?$prefer_only@U?$untracked_t@$0A@@outstanding_work@detail@execution@asio@boost@@@234@U?$prefer_only@U?$fork_t@$0A@@relationship@detail@execution@asio@boost@@@234@U?$prefer_only@U?$continuation_t@$0A@@relationship@detail@execution@asio@boost@@@234@@234@PEBX0PEAX@Z 00000001800602e0 f i server.obj
 0001:0005f2e0       ??$prefer_fn_impl@V?$any_executor@U?$context_as_t@AEAVexecution_context@asio@boost@@@execution@asio@boost@@U?$never_t@$0A@@blocking@detail@234@U?$prefer_only@U?$possibly_t@$0A@@blocking@detail@execution@asio@boost@@@234@U?$prefer_only@U?$tracked_t@$0A@@outstanding_work@detail@execution@asio@boost@@@234@U?$prefer_only@U?$untracked_t@$0A@@outstanding_work@detail@execution@asio@boost@@@234@U?$prefer_only@U?$fork_t@$0A@@relationship@detail@execution@asio@boost@@@234@U?$prefer_only@U?$continuation_t@$0A@@relationship@detail@execution@asio@boost@@@234@@execution@asio@boost@@XU?$context_as_t@AEAVexecution_context@asio@boost@@@234@@any_executor_base@detail@execution@asio@boost@@KA?AV?$any_executor@U?$context_as_t@AEAVexecution_context@asio@boost@@@execution@asio@boost@@U?$never_t@$0A@@blocking@detail@234@U?$prefer_only@U?$possibly_t@$0A@@blocking@detail@execution@asio@boost@@@234@U?$prefer_only@U?$tracked_t@$0A@@outstanding_work@detail@execution@asio@boost@@@234@U?$prefer_only@U?$untracked_t@$0A@@outstanding_work@detail@execution@asio@boost@@@234@U?$prefer_only@U?$fork_t@$0A@@relationship@detail@execution@asio@boost@@@234@U?$prefer_only@U?$continuation_t@$0A@@relationship@detail@execution@asio@boost@@@234@@234@PEBX0PEAX@Z 00000001800602e0 f i server.obj
 0001:0005f2e0       ??$prefer_fn_impl@V?$any_executor@U?$context_as_t@AEAVexecution_context@asio@boost@@@execution@asio@boost@@U?$never_t@$0A@@blocking@detail@234@U?$prefer_only@U?$possibly_t@$0A@@blocking@detail@execution@asio@boost@@@234@U?$prefer_only@U?$tracked_t@$0A@@outstanding_work@detail@execution@asio@boost@@@234@U?$prefer_only@U?$untracked_t@$0A@@outstanding_work@detail@execution@asio@boost@@@234@U?$prefer_only@U?$fork_t@$0A@@relationship@detail@execution@asio@boost@@@234@U?$prefer_only@U?$continuation_t@$0A@@relationship@detail@execution@asio@boost@@@234@@execution@asio@boost@@XU?$prefer_only@U?$fork_t@$0A@@relationship@detail@execution@asio@boost@@@234@@any_executor_base@detail@execution@asio@boost@@KA?AV?$any_executor@U?$context_as_t@AEAVexecution_context@asio@boost@@@execution@asio@boost@@U?$never_t@$0A@@blocking@detail@234@U?$prefer_only@U?$possibly_t@$0A@@blocking@detail@execution@asio@boost@@@234@U?$prefer_only@U?$tracked_t@$0A@@outstanding_work@detail@execution@asio@boost@@@234@U?$prefer_only@U?$untracked_t@$0A@@outstanding_work@detail@execution@asio@boost@@@234@U?$prefer_only@U?$fork_t@$0A@@relationship@detail@execution@asio@boost@@@234@U?$prefer_only@U?$continuation_t@$0A@@relationship@detail@execution@asio@boost@@@234@@234@PEBX0PEAX@Z 00000001800602e0 f i server.obj
 0001:0005f2e0       ??$require_fn_impl@V?$any_executor@U?$context_as_t@AEAVexecution_context@asio@boost@@@execution@asio@boost@@U?$never_t@$0A@@blocking@detail@234@U?$prefer_only@U?$possibly_t@$0A@@blocking@detail@execution@asio@boost@@@234@U?$prefer_only@U?$tracked_t@$0A@@outstanding_work@detail@execution@asio@boost@@@234@U?$prefer_only@U?$untracked_t@$0A@@outstanding_work@detail@execution@asio@boost@@@234@U?$prefer_only@U?$fork_t@$0A@@relationship@detail@execution@asio@boost@@@234@U?$prefer_only@U?$continuation_t@$0A@@relationship@detail@execution@asio@boost@@@234@@execution@asio@boost@@XU?$prefer_only@U?$fork_t@$0A@@relationship@detail@execution@asio@boost@@@234@@any_executor_base@detail@execution@asio@boost@@KA?AV?$any_executor@U?$context_as_t@AEAVexecution_context@asio@boost@@@execution@asio@boost@@U?$never_t@$0A@@blocking@detail@234@U?$prefer_only@U?$possibly_t@$0A@@blocking@detail@execution@asio@boost@@@234@U?$prefer_only@U?$tracked_t@$0A@@outstanding_work@detail@execution@asio@boost@@@234@U?$prefer_only@U?$untracked_t@$0A@@outstanding_work@detail@execution@asio@boost@@@234@U?$prefer_only@U?$fork_t@$0A@@relationship@detail@execution@asio@boost@@@234@U?$prefer_only@U?$continuation_t@$0A@@relationship@detail@execution@asio@boost@@@234@@234@PEBX0PEAX@Z 00000001800602e0 f i server.obj
 0001:0005f2e0       ??$prefer_fn_impl@V?$any_executor@U?$context_as_t@AEAVexecution_context@asio@boost@@@execution@asio@boost@@U?$never_t@$0A@@blocking@detail@234@U?$prefer_only@U?$possibly_t@$0A@@blocking@detail@execution@asio@boost@@@234@U?$prefer_only@U?$tracked_t@$0A@@outstanding_work@detail@execution@asio@boost@@@234@U?$prefer_only@U?$untracked_t@$0A@@outstanding_work@detail@execution@asio@boost@@@234@U?$prefer_only@U?$fork_t@$0A@@relationship@detail@execution@asio@boost@@@234@U?$prefer_only@U?$continuation_t@$0A@@relationship@detail@execution@asio@boost@@@234@@execution@asio@boost@@XU?$never_t@$0A@@blocking@detail@234@@any_executor_base@detail@execution@asio@boost@@KA?AV?$any_executor@U?$context_as_t@AEAVexecution_context@asio@boost@@@execution@asio@boost@@U?$never_t@$0A@@blocking@detail@234@U?$prefer_only@U?$possibly_t@$0A@@blocking@detail@execution@asio@boost@@@234@U?$prefer_only@U?$tracked_t@$0A@@outstanding_work@detail@execution@asio@boost@@@234@U?$prefer_only@U?$untracked_t@$0A@@outstanding_work@detail@execution@asio@boost@@@234@U?$prefer_only@U?$fork_t@$0A@@relationship@detail@execution@asio@boost@@@234@U?$prefer_only@U?$continuation_t@$0A@@relationship@detail@execution@asio@boost@@@234@@234@PEBX0PEAX@Z 00000001800602e0 f i server.obj
 0001:0005f2e0       ??$require_fn_impl@V?$any_executor@U?$context_as_t@AEAVexecution_context@asio@boost@@@execution@asio@boost@@U?$never_t@$0A@@blocking@detail@234@U?$prefer_only@U?$possibly_t@$0A@@blocking@detail@execution@asio@boost@@@234@U?$prefer_only@U?$tracked_t@$0A@@outstanding_work@detail@execution@asio@boost@@@234@U?$prefer_only@U?$untracked_t@$0A@@outstanding_work@detail@execution@asio@boost@@@234@U?$prefer_only@U?$fork_t@$0A@@relationship@detail@execution@asio@boost@@@234@U?$prefer_only@U?$continuation_t@$0A@@relationship@detail@execution@asio@boost@@@234@@execution@asio@boost@@XU?$context_as_t@AEAVexecution_context@asio@boost@@@234@@any_executor_base@detail@execution@asio@boost@@KA?AV?$any_executor@U?$context_as_t@AEAVexecution_context@asio@boost@@@execution@asio@boost@@U?$never_t@$0A@@blocking@detail@234@U?$prefer_only@U?$possibly_t@$0A@@blocking@detail@execution@asio@boost@@@234@U?$prefer_only@U?$tracked_t@$0A@@outstanding_work@detail@execution@asio@boost@@@234@U?$prefer_only@U?$untracked_t@$0A@@outstanding_work@detail@execution@asio@boost@@@234@U?$prefer_only@U?$fork_t@$0A@@relationship@detail@execution@asio@boost@@@234@U?$prefer_only@U?$continuation_t@$0A@@relationship@detail@execution@asio@boost@@@234@@234@PEBX0PEAX@Z 00000001800602e0 f i server.obj
 0001:0005f2e0       ??$require_fn_impl@V?$any_executor@U?$context_as_t@AEAVexecution_context@asio@boost@@@execution@asio@boost@@U?$never_t@$0A@@blocking@detail@234@U?$prefer_only@U?$possibly_t@$0A@@blocking@detail@execution@asio@boost@@@234@U?$prefer_only@U?$tracked_t@$0A@@outstanding_work@detail@execution@asio@boost@@@234@U?$prefer_only@U?$untracked_t@$0A@@outstanding_work@detail@execution@asio@boost@@@234@U?$prefer_only@U?$fork_t@$0A@@relationship@detail@execution@asio@boost@@@234@U?$prefer_only@U?$continuation_t@$0A@@relationship@detail@execution@asio@boost@@@234@@execution@asio@boost@@XU?$prefer_only@U?$tracked_t@$0A@@outstanding_work@detail@execution@asio@boost@@@234@@any_executor_base@detail@execution@asio@boost@@KA?AV?$any_executor@U?$context_as_t@AEAVexecution_context@asio@boost@@@execution@asio@boost@@U?$never_t@$0A@@blocking@detail@234@U?$prefer_only@U?$possibly_t@$0A@@blocking@detail@execution@asio@boost@@@234@U?$prefer_only@U?$tracked_t@$0A@@outstanding_work@detail@execution@asio@boost@@@234@U?$prefer_only@U?$untracked_t@$0A@@outstanding_work@detail@execution@asio@boost@@@234@U?$prefer_only@U?$fork_t@$0A@@relationship@detail@execution@asio@boost@@@234@U?$prefer_only@U?$continuation_t@$0A@@relationship@detail@execution@asio@boost@@@234@@234@PEBX0PEAX@Z 00000001800602e0 f i server.obj
 0001:0005f310       ??$prefer_fn@V?$any_executor@U?$context_as_t@AEAVexecution_context@asio@boost@@@execution@asio@boost@@U?$never_t@$0A@@blocking@detail@234@U?$prefer_only@U?$possibly_t@$0A@@blocking@detail@execution@asio@boost@@@234@U?$prefer_only@U?$tracked_t@$0A@@outstanding_work@detail@execution@asio@boost@@@234@U?$prefer_only@U?$untracked_t@$0A@@outstanding_work@detail@execution@asio@boost@@@234@U?$prefer_only@U?$fork_t@$0A@@relationship@detail@execution@asio@boost@@@234@U?$prefer_only@U?$continuation_t@$0A@@relationship@detail@execution@asio@boost@@@234@@execution@asio@boost@@XU?$context_as_t@AEAVexecution_context@asio@boost@@@234@@any_executor_base@detail@execution@asio@boost@@KA?AV?$any_executor@U?$context_as_t@AEAVexecution_context@asio@boost@@@execution@asio@boost@@U?$never_t@$0A@@blocking@detail@234@U?$prefer_only@U?$possibly_t@$0A@@blocking@detail@execution@asio@boost@@@234@U?$prefer_only@U?$tracked_t@$0A@@outstanding_work@detail@execution@asio@boost@@@234@U?$prefer_only@U?$untracked_t@$0A@@outstanding_work@detail@execution@asio@boost@@@234@U?$prefer_only@U?$fork_t@$0A@@relationship@detail@execution@asio@boost@@@234@U?$prefer_only@U?$continuation_t@$0A@@relationship@detail@execution@asio@boost@@@234@@234@PEBX0@Z 0000000180060310 f i server.obj
 0001:0005f310       ??$prefer_fn@V?$any_executor@U?$context_as_t@AEAVexecution_context@asio@boost@@@execution@asio@boost@@U?$never_t@$0A@@blocking@detail@234@U?$prefer_only@U?$possibly_t@$0A@@blocking@detail@execution@asio@boost@@@234@U?$prefer_only@U?$tracked_t@$0A@@outstanding_work@detail@execution@asio@boost@@@234@U?$prefer_only@U?$untracked_t@$0A@@outstanding_work@detail@execution@asio@boost@@@234@U?$prefer_only@U?$fork_t@$0A@@relationship@detail@execution@asio@boost@@@234@U?$prefer_only@U?$continuation_t@$0A@@relationship@detail@execution@asio@boost@@@234@@execution@asio@boost@@XU?$prefer_only@U?$fork_t@$0A@@relationship@detail@execution@asio@boost@@@234@@any_executor_base@detail@execution@asio@boost@@KA?AV?$any_executor@U?$context_as_t@AEAVexecution_context@asio@boost@@@execution@asio@boost@@U?$never_t@$0A@@blocking@detail@234@U?$prefer_only@U?$possibly_t@$0A@@blocking@detail@execution@asio@boost@@@234@U?$prefer_only@U?$tracked_t@$0A@@outstanding_work@detail@execution@asio@boost@@@234@U?$prefer_only@U?$untracked_t@$0A@@outstanding_work@detail@execution@asio@boost@@@234@U?$prefer_only@U?$fork_t@$0A@@relationship@detail@execution@asio@boost@@@234@U?$prefer_only@U?$continuation_t@$0A@@relationship@detail@execution@asio@boost@@@234@@234@PEBX0@Z 0000000180060310 f i server.obj
 0001:0005f310       ??$prefer_fn@V?$any_executor@U?$context_as_t@AEAVexecution_context@asio@boost@@@execution@asio@boost@@U?$never_t@$0A@@blocking@detail@234@U?$prefer_only@U?$possibly_t@$0A@@blocking@detail@execution@asio@boost@@@234@U?$prefer_only@U?$tracked_t@$0A@@outstanding_work@detail@execution@asio@boost@@@234@U?$prefer_only@U?$untracked_t@$0A@@outstanding_work@detail@execution@asio@boost@@@234@U?$prefer_only@U?$fork_t@$0A@@relationship@detail@execution@asio@boost@@@234@U?$prefer_only@U?$continuation_t@$0A@@relationship@detail@execution@asio@boost@@@234@@execution@asio@boost@@XU?$never_t@$0A@@blocking@detail@234@@any_executor_base@detail@execution@asio@boost@@KA?AV?$any_executor@U?$context_as_t@AEAVexecution_context@asio@boost@@@execution@asio@boost@@U?$never_t@$0A@@blocking@detail@234@U?$prefer_only@U?$possibly_t@$0A@@blocking@detail@execution@asio@boost@@@234@U?$prefer_only@U?$tracked_t@$0A@@outstanding_work@detail@execution@asio@boost@@@234@U?$prefer_only@U?$untracked_t@$0A@@outstanding_work@detail@execution@asio@boost@@@234@U?$prefer_only@U?$fork_t@$0A@@relationship@detail@execution@asio@boost@@@234@U?$prefer_only@U?$continuation_t@$0A@@relationship@detail@execution@asio@boost@@@234@@234@PEBX0@Z 0000000180060310 f i server.obj
 0001:0005f310       ??$require_fn@V?$any_executor@U?$context_as_t@AEAVexecution_context@asio@boost@@@execution@asio@boost@@U?$never_t@$0A@@blocking@detail@234@U?$prefer_only@U?$possibly_t@$0A@@blocking@detail@execution@asio@boost@@@234@U?$prefer_only@U?$tracked_t@$0A@@outstanding_work@detail@execution@asio@boost@@@234@U?$prefer_only@U?$untracked_t@$0A@@outstanding_work@detail@execution@asio@boost@@@234@U?$prefer_only@U?$fork_t@$0A@@relationship@detail@execution@asio@boost@@@234@U?$prefer_only@U?$continuation_t@$0A@@relationship@detail@execution@asio@boost@@@234@@execution@asio@boost@@XU?$prefer_only@U?$continuation_t@$0A@@relationship@detail@execution@asio@boost@@@234@@any_executor_base@detail@execution@asio@boost@@KA?AV?$any_executor@U?$context_as_t@AEAVexecution_context@asio@boost@@@execution@asio@boost@@U?$never_t@$0A@@blocking@detail@234@U?$prefer_only@U?$possibly_t@$0A@@blocking@detail@execution@asio@boost@@@234@U?$prefer_only@U?$tracked_t@$0A@@outstanding_work@detail@execution@asio@boost@@@234@U?$prefer_only@U?$untracked_t@$0A@@outstanding_work@detail@execution@asio@boost@@@234@U?$prefer_only@U?$fork_t@$0A@@relationship@detail@execution@asio@boost@@@234@U?$prefer_only@U?$continuation_t@$0A@@relationship@detail@execution@asio@boost@@@234@@234@PEBX0@Z 0000000180060310 f i server.obj
 0001:0005f310       ??$require_fn@V?$any_executor@U?$context_as_t@AEAVexecution_context@asio@boost@@@execution@asio@boost@@U?$never_t@$0A@@blocking@detail@234@U?$prefer_only@U?$possibly_t@$0A@@blocking@detail@execution@asio@boost@@@234@U?$prefer_only@U?$tracked_t@$0A@@outstanding_work@detail@execution@asio@boost@@@234@U?$prefer_only@U?$untracked_t@$0A@@outstanding_work@detail@execution@asio@boost@@@234@U?$prefer_only@U?$fork_t@$0A@@relationship@detail@execution@asio@boost@@@234@U?$prefer_only@U?$continuation_t@$0A@@relationship@detail@execution@asio@boost@@@234@@execution@asio@boost@@XU?$prefer_only@U?$tracked_t@$0A@@outstanding_work@detail@execution@asio@boost@@@234@@any_executor_base@detail@execution@asio@boost@@KA?AV?$any_executor@U?$context_as_t@AEAVexecution_context@asio@boost@@@execution@asio@boost@@U?$never_t@$0A@@blocking@detail@234@U?$prefer_only@U?$possibly_t@$0A@@blocking@detail@execution@asio@boost@@@234@U?$prefer_only@U?$tracked_t@$0A@@outstanding_work@detail@execution@asio@boost@@@234@U?$prefer_only@U?$untracked_t@$0A@@outstanding_work@detail@execution@asio@boost@@@234@U?$prefer_only@U?$fork_t@$0A@@relationship@detail@execution@asio@boost@@@234@U?$prefer_only@U?$continuation_t@$0A@@relationship@detail@execution@asio@boost@@@234@@234@PEBX0@Z 0000000180060310 f i server.obj
 0001:0005f310       ??$require_fn@V?$any_executor@U?$context_as_t@AEAVexecution_context@asio@boost@@@execution@asio@boost@@U?$never_t@$0A@@blocking@detail@234@U?$prefer_only@U?$possibly_t@$0A@@blocking@detail@execution@asio@boost@@@234@U?$prefer_only@U?$tracked_t@$0A@@outstanding_work@detail@execution@asio@boost@@@234@U?$prefer_only@U?$untracked_t@$0A@@outstanding_work@detail@execution@asio@boost@@@234@U?$prefer_only@U?$fork_t@$0A@@relationship@detail@execution@asio@boost@@@234@U?$prefer_only@U?$continuation_t@$0A@@relationship@detail@execution@asio@boost@@@234@@execution@asio@boost@@XU?$context_as_t@AEAVexecution_context@asio@boost@@@234@@any_executor_base@detail@execution@asio@boost@@KA?AV?$any_executor@U?$context_as_t@AEAVexecution_context@asio@boost@@@execution@asio@boost@@U?$never_t@$0A@@blocking@detail@234@U?$prefer_only@U?$possibly_t@$0A@@blocking@detail@execution@asio@boost@@@234@U?$prefer_only@U?$tracked_t@$0A@@outstanding_work@detail@execution@asio@boost@@@234@U?$prefer_only@U?$untracked_t@$0A@@outstanding_work@detail@execution@asio@boost@@@234@U?$prefer_only@U?$fork_t@$0A@@relationship@detail@execution@asio@boost@@@234@U?$prefer_only@U?$continuation_t@$0A@@relationship@detail@execution@asio@boost@@@234@@234@PEBX0@Z 0000000180060310 f i server.obj
 0001:0005f310       ??$prefer_fn@V?$any_executor@U?$context_as_t@AEAVexecution_context@asio@boost@@@execution@asio@boost@@U?$never_t@$0A@@blocking@detail@234@U?$prefer_only@U?$possibly_t@$0A@@blocking@detail@execution@asio@boost@@@234@U?$prefer_only@U?$tracked_t@$0A@@outstanding_work@detail@execution@asio@boost@@@234@U?$prefer_only@U?$untracked_t@$0A@@outstanding_work@detail@execution@asio@boost@@@234@U?$prefer_only@U?$fork_t@$0A@@relationship@detail@execution@asio@boost@@@234@U?$prefer_only@U?$continuation_t@$0A@@relationship@detail@execution@asio@boost@@@234@@execution@asio@boost@@XU?$prefer_only@U?$untracked_t@$0A@@outstanding_work@detail@execution@asio@boost@@@234@@any_executor_base@detail@execution@asio@boost@@KA?AV?$any_executor@U?$context_as_t@AEAVexecution_context@asio@boost@@@execution@asio@boost@@U?$never_t@$0A@@blocking@detail@234@U?$prefer_only@U?$possibly_t@$0A@@blocking@detail@execution@asio@boost@@@234@U?$prefer_only@U?$tracked_t@$0A@@outstanding_work@detail@execution@asio@boost@@@234@U?$prefer_only@U?$untracked_t@$0A@@outstanding_work@detail@execution@asio@boost@@@234@U?$prefer_only@U?$fork_t@$0A@@relationship@detail@execution@asio@boost@@@234@U?$prefer_only@U?$continuation_t@$0A@@relationship@detail@execution@asio@boost@@@234@@234@PEBX0@Z 0000000180060310 f i server.obj
 0001:0005f310       ??$require_fn@V?$any_executor@U?$context_as_t@AEAVexecution_context@asio@boost@@@execution@asio@boost@@U?$never_t@$0A@@blocking@detail@234@U?$prefer_only@U?$possibly_t@$0A@@blocking@detail@execution@asio@boost@@@234@U?$prefer_only@U?$tracked_t@$0A@@outstanding_work@detail@execution@asio@boost@@@234@U?$prefer_only@U?$untracked_t@$0A@@outstanding_work@detail@execution@asio@boost@@@234@U?$prefer_only@U?$fork_t@$0A@@relationship@detail@execution@asio@boost@@@234@U?$prefer_only@U?$continuation_t@$0A@@relationship@detail@execution@asio@boost@@@234@@execution@asio@boost@@XU?$prefer_only@U?$fork_t@$0A@@relationship@detail@execution@asio@boost@@@234@@any_executor_base@detail@execution@asio@boost@@KA?AV?$any_executor@U?$context_as_t@AEAVexecution_context@asio@boost@@@execution@asio@boost@@U?$never_t@$0A@@blocking@detail@234@U?$prefer_only@U?$possibly_t@$0A@@blocking@detail@execution@asio@boost@@@234@U?$prefer_only@U?$tracked_t@$0A@@outstanding_work@detail@execution@asio@boost@@@234@U?$prefer_only@U?$untracked_t@$0A@@outstanding_work@detail@execution@asio@boost@@@234@U?$prefer_only@U?$fork_t@$0A@@relationship@detail@execution@asio@boost@@@234@U?$prefer_only@U?$continuation_t@$0A@@relationship@detail@execution@asio@boost@@@234@@234@PEBX0@Z 0000000180060310 f i server.obj
 0001:0005f310       ??$prefer_fn@V?$any_executor@U?$context_as_t@AEAVexecution_context@asio@boost@@@execution@asio@boost@@U?$never_t@$0A@@blocking@detail@234@U?$prefer_only@U?$possibly_t@$0A@@blocking@detail@execution@asio@boost@@@234@U?$prefer_only@U?$tracked_t@$0A@@outstanding_work@detail@execution@asio@boost@@@234@U?$prefer_only@U?$untracked_t@$0A@@outstanding_work@detail@execution@asio@boost@@@234@U?$prefer_only@U?$fork_t@$0A@@relationship@detail@execution@asio@boost@@@234@U?$prefer_only@U?$continuation_t@$0A@@relationship@detail@execution@asio@boost@@@234@@execution@asio@boost@@XU?$prefer_only@U?$possibly_t@$0A@@blocking@detail@execution@asio@boost@@@234@@any_executor_base@detail@execution@asio@boost@@KA?AV?$any_executor@U?$context_as_t@AEAVexecution_context@asio@boost@@@execution@asio@boost@@U?$never_t@$0A@@blocking@detail@234@U?$prefer_only@U?$possibly_t@$0A@@blocking@detail@execution@asio@boost@@@234@U?$prefer_only@U?$tracked_t@$0A@@outstanding_work@detail@execution@asio@boost@@@234@U?$prefer_only@U?$untracked_t@$0A@@outstanding_work@detail@execution@asio@boost@@@234@U?$prefer_only@U?$fork_t@$0A@@relationship@detail@execution@asio@boost@@@234@U?$prefer_only@U?$continuation_t@$0A@@relationship@detail@execution@asio@boost@@@234@@234@PEBX0@Z 0000000180060310 f i server.obj
 0001:0005f310       ??$prefer_fn@V?$any_executor@U?$context_as_t@AEAVexecution_context@asio@boost@@@execution@asio@boost@@U?$never_t@$0A@@blocking@detail@234@U?$prefer_only@U?$possibly_t@$0A@@blocking@detail@execution@asio@boost@@@234@U?$prefer_only@U?$tracked_t@$0A@@outstanding_work@detail@execution@asio@boost@@@234@U?$prefer_only@U?$untracked_t@$0A@@outstanding_work@detail@execution@asio@boost@@@234@U?$prefer_only@U?$fork_t@$0A@@relationship@detail@execution@asio@boost@@@234@U?$prefer_only@U?$continuation_t@$0A@@relationship@detail@execution@asio@boost@@@234@@execution@asio@boost@@XU?$prefer_only@U?$tracked_t@$0A@@outstanding_work@detail@execution@asio@boost@@@234@@any_executor_base@detail@execution@asio@boost@@KA?AV?$any_executor@U?$context_as_t@AEAVexecution_context@asio@boost@@@execution@asio@boost@@U?$never_t@$0A@@blocking@detail@234@U?$prefer_only@U?$possibly_t@$0A@@blocking@detail@execution@asio@boost@@@234@U?$prefer_only@U?$tracked_t@$0A@@outstanding_work@detail@execution@asio@boost@@@234@U?$prefer_only@U?$untracked_t@$0A@@outstanding_work@detail@execution@asio@boost@@@234@U?$prefer_only@U?$fork_t@$0A@@relationship@detail@execution@asio@boost@@@234@U?$prefer_only@U?$continuation_t@$0A@@relationship@detail@execution@asio@boost@@@234@@234@PEBX0@Z 0000000180060310 f i server.obj
 0001:0005f310       ??$require_fn@V?$any_executor@U?$context_as_t@AEAVexecution_context@asio@boost@@@execution@asio@boost@@U?$never_t@$0A@@blocking@detail@234@U?$prefer_only@U?$possibly_t@$0A@@blocking@detail@execution@asio@boost@@@234@U?$prefer_only@U?$tracked_t@$0A@@outstanding_work@detail@execution@asio@boost@@@234@U?$prefer_only@U?$untracked_t@$0A@@outstanding_work@detail@execution@asio@boost@@@234@U?$prefer_only@U?$fork_t@$0A@@relationship@detail@execution@asio@boost@@@234@U?$prefer_only@U?$continuation_t@$0A@@relationship@detail@execution@asio@boost@@@234@@execution@asio@boost@@XU?$never_t@$0A@@blocking@detail@234@@any_executor_base@detail@execution@asio@boost@@KA?AV?$any_executor@U?$context_as_t@AEAVexecution_context@asio@boost@@@execution@asio@boost@@U?$never_t@$0A@@blocking@detail@234@U?$prefer_only@U?$possibly_t@$0A@@blocking@detail@execution@asio@boost@@@234@U?$prefer_only@U?$tracked_t@$0A@@outstanding_work@detail@execution@asio@boost@@@234@U?$prefer_only@U?$untracked_t@$0A@@outstanding_work@detail@execution@asio@boost@@@234@U?$prefer_only@U?$fork_t@$0A@@relationship@detail@execution@asio@boost@@@234@U?$prefer_only@U?$continuation_t@$0A@@relationship@detail@execution@asio@boost@@@234@@234@PEBX0@Z 0000000180060310 f i server.obj
 0001:0005f310       ??$require_fn@V?$any_executor@U?$context_as_t@AEAVexecution_context@asio@boost@@@execution@asio@boost@@U?$never_t@$0A@@blocking@detail@234@U?$prefer_only@U?$possibly_t@$0A@@blocking@detail@execution@asio@boost@@@234@U?$prefer_only@U?$tracked_t@$0A@@outstanding_work@detail@execution@asio@boost@@@234@U?$prefer_only@U?$untracked_t@$0A@@outstanding_work@detail@execution@asio@boost@@@234@U?$prefer_only@U?$fork_t@$0A@@relationship@detail@execution@asio@boost@@@234@U?$prefer_only@U?$continuation_t@$0A@@relationship@detail@execution@asio@boost@@@234@@execution@asio@boost@@XU?$prefer_only@U?$untracked_t@$0A@@outstanding_work@detail@execution@asio@boost@@@234@@any_executor_base@detail@execution@asio@boost@@KA?AV?$any_executor@U?$context_as_t@AEAVexecution_context@asio@boost@@@execution@asio@boost@@U?$never_t@$0A@@blocking@detail@234@U?$prefer_only@U?$possibly_t@$0A@@blocking@detail@execution@asio@boost@@@234@U?$prefer_only@U?$tracked_t@$0A@@outstanding_work@detail@execution@asio@boost@@@234@U?$prefer_only@U?$untracked_t@$0A@@outstanding_work@detail@execution@asio@boost@@@234@U?$prefer_only@U?$fork_t@$0A@@relationship@detail@execution@asio@boost@@@234@U?$prefer_only@U?$continuation_t@$0A@@relationship@detail@execution@asio@boost@@@234@@234@PEBX0@Z 0000000180060310 f i server.obj
 0001:0005f310       ??$prefer_fn@V?$any_executor@U?$context_as_t@AEAVexecution_context@asio@boost@@@execution@asio@boost@@U?$never_t@$0A@@blocking@detail@234@U?$prefer_only@U?$possibly_t@$0A@@blocking@detail@execution@asio@boost@@@234@U?$prefer_only@U?$tracked_t@$0A@@outstanding_work@detail@execution@asio@boost@@@234@U?$prefer_only@U?$untracked_t@$0A@@outstanding_work@detail@execution@asio@boost@@@234@U?$prefer_only@U?$fork_t@$0A@@relationship@detail@execution@asio@boost@@@234@U?$prefer_only@U?$continuation_t@$0A@@relationship@detail@execution@asio@boost@@@234@@execution@asio@boost@@XU?$prefer_only@U?$continuation_t@$0A@@relationship@detail@execution@asio@boost@@@234@@any_executor_base@detail@execution@asio@boost@@KA?AV?$any_executor@U?$context_as_t@AEAVexecution_context@asio@boost@@@execution@asio@boost@@U?$never_t@$0A@@blocking@detail@234@U?$prefer_only@U?$possibly_t@$0A@@blocking@detail@execution@asio@boost@@@234@U?$prefer_only@U?$tracked_t@$0A@@outstanding_work@detail@execution@asio@boost@@@234@U?$prefer_only@U?$untracked_t@$0A@@outstanding_work@detail@execution@asio@boost@@@234@U?$prefer_only@U?$fork_t@$0A@@relationship@detail@execution@asio@boost@@@234@U?$prefer_only@U?$continuation_t@$0A@@relationship@detail@execution@asio@boost@@@234@@234@PEBX0@Z 0000000180060310 f i server.obj
 0001:0005f310       ??$require_fn@V?$any_executor@U?$context_as_t@AEAVexecution_context@asio@boost@@@execution@asio@boost@@U?$never_t@$0A@@blocking@detail@234@U?$prefer_only@U?$possibly_t@$0A@@blocking@detail@execution@asio@boost@@@234@U?$prefer_only@U?$tracked_t@$0A@@outstanding_work@detail@execution@asio@boost@@@234@U?$prefer_only@U?$untracked_t@$0A@@outstanding_work@detail@execution@asio@boost@@@234@U?$prefer_only@U?$fork_t@$0A@@relationship@detail@execution@asio@boost@@@234@U?$prefer_only@U?$continuation_t@$0A@@relationship@detail@execution@asio@boost@@@234@@execution@asio@boost@@XU?$prefer_only@U?$possibly_t@$0A@@blocking@detail@execution@asio@boost@@@234@@any_executor_base@detail@execution@asio@boost@@KA?AV?$any_executor@U?$context_as_t@AEAVexecution_context@asio@boost@@@execution@asio@boost@@U?$never_t@$0A@@blocking@detail@234@U?$prefer_only@U?$possibly_t@$0A@@blocking@detail@execution@asio@boost@@@234@U?$prefer_only@U?$tracked_t@$0A@@outstanding_work@detail@execution@asio@boost@@@234@U?$prefer_only@U?$untracked_t@$0A@@outstanding_work@detail@execution@asio@boost@@@234@U?$prefer_only@U?$fork_t@$0A@@relationship@detail@execution@asio@boost@@@234@U?$prefer_only@U?$continuation_t@$0A@@relationship@detail@execution@asio@boost@@@234@@234@PEBX0@Z 0000000180060310 f i server.obj
 0001:0005f320       ?query_fn_void@any_executor_base@detail@execution@asio@boost@@KAXPEAXPEBX1@Z 0000000180060320 f i server.obj
 0001:0005f320       ?execute_void@any_executor_base@detail@execution@asio@boost@@KAXAEBV12345@$$QEAVexecutor_function@245@@Z 0000000180060320 f i server.obj
 0001:0005f320       ?blocking_execute_void@any_executor_base@detail@execution@asio@boost@@KAXAEBV12345@Vexecutor_function_view@245@@Z 0000000180060320 f i server.obj
 0001:0005f350       ?copy_void@any_executor_base@detail@execution@asio@boost@@KAXAEAV12345@AEBV12345@@Z 0000000180060350 f i server.obj
 0001:0005f350       ?move_void@any_executor_base@detail@execution@asio@boost@@KAXAEAV12345@0@Z 0000000180060350 f i server.obj
 0001:0005f360       ?target_type_void@any_executor_base@detail@execution@asio@boost@@KAAEBVtype_info@@XZ 0000000180060360 f i server.obj
 0001:0005f370       ??0bad_executor@execution@asio@boost@@QEAA@XZ 0000000180060370 f i server.obj
 0001:0005f390       ??0?$wrapexcept@Vbad_executor@execution@asio@boost@@@boost@@QEAA@AEBVbad_executor@execution@asio@1@@Z 0000000180060390 f i server.obj
 0001:0005f410       ?clone@?$wrapexcept@Vbad_executor@execution@asio@boost@@@boost@@UEBAPEBVclone_base@exception_detail@2@XZ 0000000180060410 f i server.obj
 0001:0005f470       ?rethrow@?$wrapexcept@Vbad_executor@execution@asio@boost@@@boost@@UEBAXXZ 0000000180060470 f i server.obj
 0001:0005f4a0       ??0?$wrapexcept@Vbad_executor@execution@asio@boost@@@boost@@QEAA@AEBU01@@Z 00000001800604a0 f i server.obj
 0001:0005f550       ?what@bad_executor@execution@asio@boost@@UEBAPEBDXZ 0000000180060550 f i server.obj
 0001:0005f560       ??0bad_executor@execution@asio@boost@@QEAA@AEBV0123@@Z 0000000180060560 f i server.obj
 0001:0005f5a0       ??$throw_exception@Vbad_executor@execution@asio@boost@@@boost@@YAXAEBVbad_executor@execution@asio@0@@Z 00000001800605a0 f i server.obj
 0001:0005f5d0       ??0?$handler_work_base@Vany_io_executor@asio@boost@@XVio_context@23@Vexecutor@23@X@detail@asio@boost@@QEAA@HHAEBVany_io_executor@23@@Z 00000001800605d0 f i server.obj
 0001:0005f760       ?setsockopt@socket_ops@detail@asio@boost@@YAH_KAEAEHHPEBX0AEAVerror_code@system@4@@Z 0000000180060760 f i server.obj
 0001:0005f990       ??8system@boost@@YA_NAEBVerror_code@01@0@Z 0000000180060990 f i server.obj
 0001:0005fac0       ?close@socket_ops@detail@asio@boost@@YAH_KAEAE_NAEAVerror_code@system@4@@Z 0000000180060ac0 f i server.obj
 0001:0005fcc0       ?get_last_error@socket_ops@detail@asio@boost@@YAXAEAVerror_code@system@4@_N@Z 0000000180060cc0 f i server.obj
 0001:0005fdc0       ?on_completion@win_iocp_io_context@detail@asio@boost@@QEAAXPEAVwin_iocp_operation@234@AEBVerror_code@system@4@K@Z 0000000180060dc0 f i server.obj
 0001:0005feb0       ?on_completion@win_iocp_io_context@detail@asio@boost@@QEAAXPEAVwin_iocp_operation@234@KK@Z 0000000180060eb0 f i server.obj
 0001:0005ff40       ??1?$scoped_lock@Vwin_mutex@detail@asio@boost@@@detail@asio@boost@@QEAA@XZ 0000000180060f40 f i server.obj
 0001:0005ff60       ?on_pending@win_iocp_io_context@detail@asio@boost@@QEAAXPEAVwin_iocp_operation@234@@Z 0000000180060f60 f i server.obj
 0001:0005fff0       ?start_accept_op@win_iocp_socket_service_base@detail@asio@boost@@IEAAXAEAUbase_implementation_type@1234@_NAEAVsocket_holder@234@HHHPEAXKPEAVwin_iocp_operation@234@@Z 0000000180060ff0 f i server.obj
 0001:000601e0       ?accept@?$Server@V?$basic_stream_socket@Vtcp@ip@asio@boost@@Vany_io_executor@34@@asio@boost@@@SimpleWeb@@MEAAXXZ 00000001800611e0 f i server.obj
 0001:00060440       ?GetInstance@Listener@@SA?AV?$shared_ptr@VListener@@@std@@XZ 0000000180061440 f i SixMansPlugin-Rework.obj
 0001:000605a0       ?GetInstance@PrivateMatch@@SA?AV?$shared_ptr@VPrivateMatch@@@std@@XZ 00000001800615a0 f i SixMansPlugin-Rework.obj
 0001:000606e0       ??0SettingsTab@@QEAA@XZ    00000001800616e0 f i SixMansPlugin-Rework.obj
 0001:00060780       ?GetInstance@SettingsTab@@SA?AV?$shared_ptr@VSettingsTab@@@std@@XZ 0000000180061780 f i SixMansPlugin-Rework.obj
 0001:000608c0       getPlugin                  00000001800618c0 f   SixMansPlugin-Rework.obj
 0001:00060a00       ??_ESixMansPlugin@@UEAAPEAXI@Z 0000000180061a00 f i * CIL library *:* CIL module *
 0001:00060a00       ??_GSixMansPlugin@@UEAAPEAXI@Z 0000000180061a00 f i SixMansPlugin-Rework.obj
 0001:00060b50       deleteMe                   0000000180061b50 f   SixMansPlugin-Rework.obj
 0001:00060bc0       ?onLoad@SixMansPlugin@@EEAAXXZ 0000000180061bc0 f   SixMansPlugin-Rework.obj
 0001:00060e50       ?onUnload@SixMansPlugin@@EEAAXXZ 0000000180061e50 f   SixMansPlugin-Rework.obj
 0001:00061020       ?_Destroy@?$_Ref_count@VSixMansPlugin@@@std@@EEAAXXZ 0000000180062020 f i SixMansPlugin-Rework.obj
 0001:00061040       ?_Destroy@?$_Ref_count_obj2@VSettingsTab@@@std@@EEAAXXZ 0000000180062040 f i SixMansPlugin-Rework.obj
 0001:00061090       ?_Destroy@?$_Ref_count_obj2@VPrivateMatch@@@std@@EEAAXXZ 0000000180062090 f i SixMansPlugin-Rework.obj
 0001:000610a0       ?_Destroy@?$_Ref_count_obj2@VListener@@@std@@EEAAXXZ 00000001800620a0 f i SixMansPlugin-Rework.obj
 0001:000610b0       ??_E?$_Ref_count_obj2@VSettingsTab@@@std@@UEAAPEAXI@Z 00000001800620b0 f i * CIL library *:* CIL module *
 0001:000610b0       ??_G?$_Ref_count_obj2@VSettingsTab@@@std@@UEAAPEAXI@Z 00000001800620b0 f i SixMansPlugin-Rework.obj
 0001:000610e0       ??_E?$_Ref_count_obj2@VPrivateMatch@@@std@@UEAAPEAXI@Z 00000001800620e0 f i * CIL library *:* CIL module *
 0001:000610e0       ??_G?$_Ref_count_obj2@VPrivateMatch@@@std@@UEAAPEAXI@Z 00000001800620e0 f i SixMansPlugin-Rework.obj
 0001:00061110       ??_E?$_Ref_count_obj2@VListener@@@std@@UEAAPEAXI@Z 0000000180062110 f i * CIL library *:* CIL module *
 0001:00061110       ??_G?$_Ref_count_obj2@VListener@@@std@@UEAAPEAXI@Z 0000000180062110 f i SixMansPlugin-Rework.obj
 0001:00061140       ??1PrivateMatch@@QEAA@XZ   0000000180062140 f i SixMansPlugin-Rework.obj
 0001:00061328       ??_ESixMansPlugin@@WCI@EAAPEAXI@Z 0000000180062328 f i SixMansPlugin-Rework.obj
 0001:00061334       ?SetImGuiContext@SixMansPlugin@@W7EAAX_K@Z 0000000180062334 f i SixMansPlugin-Rework.obj
 0001:00061340       ??4?$shared_ptr@VCVarManagerWrapper@@@std@@QEAAAEAV01@AEBV01@@Z 0000000180062340 f i SixMansPlugin-Rework.obj
 0001:000613d0       ??0BakkesModPlugin@Plugin@BakkesMod@@QEAA@XZ 00000001800623d0 f i SixMansPlugin-Rework.obj
 0001:000613f0       ?GetMenuName@SixMansPlugin@@UEAA?AV?$basic_string@DU?$char_traits@D@std@@V?$allocator@D@2@@std@@XZ 00000001800623f0 f   SixMansPlugin-ReworkGUI.obj
 0001:000613f0       ?GetPluginName@SixMansPlugin@@UEAA?AV?$basic_string@DU?$char_traits@D@std@@V?$allocator@D@2@@std@@XZ 00000001800623f0 f   SixMansPlugin-ReworkGUI.obj
 0001:00061430       ?SetImGuiContext@SixMansPlugin@@UEAAX_K@Z 0000000180062430 f   SixMansPlugin-ReworkGUI.obj
 0001:00061440       ?RenderSettings@SixMansPlugin@@UEAAXXZ 0000000180062440 f   SixMansPlugin-ReworkGUI.obj
 0001:00061460       ?Render@SixMansPlugin@@UEAAXXZ 0000000180062460 f   SixMansPlugin-ReworkGUI.obj
 0001:00061630       ?GetMenuTitle@SixMansPlugin@@UEAA?AV?$basic_string@DU?$char_traits@D@std@@V?$allocator@D@2@@std@@XZ 0000000180062630 f   SixMansPlugin-ReworkGUI.obj
 0001:00061650       ?ShouldBlockInput@SixMansPlugin@@UEAA_NXZ 0000000180062650 f   SixMansPlugin-ReworkGUI.obj
 0001:00061670       ?OnOpen@SixMansPlugin@@UEAAXXZ 0000000180062670 f   SixMansPlugin-ReworkGUI.obj
 0001:00061680       ?OnClose@SixMansPlugin@@UEAAXXZ 0000000180062680 f   SixMansPlugin-ReworkGUI.obj
 0001:00061690       ??0BakkesModPlugin@Plugin@BakkesMod@@QEAA@AEBV012@@Z 0000000180062690 f i pch.obj
 0001:000616f0       ??0BakkesModPlugin@Plugin@BakkesMod@@QEAA@$$QEAV012@@Z 00000001800626f0 f i pch.obj
 0001:00061750       ??4BakkesModPlugin@Plugin@BakkesMod@@QEAAAEAV012@AEBV012@@Z 0000000180062750 f i pch.obj
 0001:000617f0       ??4BakkesModPlugin@Plugin@BakkesMod@@QEAAAEAV012@$$QEAV012@@Z 00000001800627f0 f i pch.obj
 0001:000618d0       ?__autoclassinit2@BakkesModPlugin@Plugin@BakkesMod@@QEAAX_K@Z 00000001800628d0 f i pch.obj
 0001:000618da       ??1CVarWrapper@@QEAA@XZ    00000001800628da f   pluginsdk:pluginsdk.dll
 0001:000618e0       ??1MatchmakingWrapper@@QEAA@XZ 00000001800628e0 f   pluginsdk:pluginsdk.dll
 0001:000618e8       ??0bad_alloc@std@@QEAA@XZ  00000001800628e8 f i libcpmt:xthrow.obj
 0001:00061908       ??0bad_function_call@std@@QEAA@AEBV01@@Z 0000000180062908 f i libcpmt:xthrow.obj
 0001:00061944       ??0bad_function_call@std@@QEAA@XZ 0000000180062944 f i libcpmt:xthrow.obj
 0001:0006195c       ??0invalid_argument@std@@QEAA@AEBV01@@Z 000000018006295c f i libcpmt:xthrow.obj
 0001:00061998       ??0invalid_argument@std@@QEAA@PEBD@Z 0000000180062998 f i libcpmt:xthrow.obj
 0001:000619e0       ??0out_of_range@std@@QEAA@AEBV01@@Z 00000001800629e0 f i libcpmt:xthrow.obj
 0001:00061a1c       ??0out_of_range@std@@QEAA@PEBD@Z 0000000180062a1c f i libcpmt:xthrow.obj
 0001:00061a64       ??0regex_error@std@@QEAA@AEBV01@@Z 0000000180062a64 f i libcpmt:xthrow.obj
 0001:00061ab0       ??0regex_error@std@@QEAA@W4error_type@regex_constants@1@@Z 0000000180062ab0 f i libcpmt:xthrow.obj
 0001:00061b14       ??_Gregex_error@std@@UEAAPEAXI@Z 0000000180062b14 f i libcpmt:xthrow.obj
 0001:00061b14       ??_Eregex_error@std@@UEAAPEAXI@Z 0000000180062b14 f i libcpmt:xthrow.obj
 0001:00061b58       ?_Stringify@regex_error@std@@CAPEBDW4error_type@regex_constants@2@@Z 0000000180062b58 f i libcpmt:xthrow.obj
 0001:00061c24       ?__scrt_throw_std_bad_alloc@@YAXXZ 0000000180062c24 f   LIBCMT:throw_bad_alloc.obj
 0001:00061c24       ?_Xbad_alloc@std@@YAXXZ    0000000180062c24 f   libcpmt:xthrow.obj
 0001:00061c44       ?_Xbad_function_call@std@@YAXXZ 0000000180062c44 f   libcpmt:xthrow.obj
 0001:00061c64       ?_Xinvalid_argument@std@@YAXPEBD@Z 0000000180062c64 f   libcpmt:xthrow.obj
 0001:00061c88       ?_Xlength_error@std@@YAXPEBD@Z 0000000180062c88 f   libcpmt:xthrow.obj
 0001:00061cac       ?_Xout_of_range@std@@YAXPEBD@Z 0000000180062cac f   libcpmt:xthrow.obj
 0001:00061cd0       ?_Xregex_error@std@@YAXW4error_type@regex_constants@1@@Z 0000000180062cd0 f   libcpmt:xthrow.obj
 0001:00061cf4       ?_Xruntime_error@std@@YAXPEBD@Z 0000000180062cf4 f   libcpmt:xthrow.obj
 0001:00061d18       ?what@bad_function_call@std@@UEBAPEBDXZ 0000000180062d18 f i libcpmt:xthrow.obj
 0001:00061d20       ?_Ios_base_dtor@ios_base@std@@CAXPEAV12@@Z 0000000180062d20 f   libcpmt:ios.obj
 0001:00061d98       ?_Tidy@ios_base@std@@AEAAXXZ 0000000180062d98 f i libcpmt:ios.obj
 0001:00061e18       ?_Syserror_map@std@@YAPEBDH@Z 0000000180062e18 f   libcpmt:syserror.obj
 0001:00061e40       ?_Winerror_map@std@@YAHH@Z 0000000180062e40 f   libcpmt:syserror.obj
 0001:00061e64       ??0_Locimp@locale@std@@AEAA@_N@Z 0000000180062e64 f i libcpmt:locale0.obj
 0001:00061eec       ??4?$_Yarn@D@std@@QEAAAEAV01@PEBD@Z 0000000180062eec f i libcpmt:locale0.obj
 0001:00061f64       ??_E_Locimp@locale@std@@MEAAPEAXI@Z 0000000180062f64 f i libcpmt:locale0.obj
 0001:00061f64       ??_G_Locimp@locale@std@@MEAAPEAXI@Z 0000000180062f64 f i libcpmt:locale0.obj
 0001:00061fc0       ?_Facet_Register@std@@YAXPEAV_Facet_base@1@@Z 0000000180062fc0 f   libcpmt:locale0.obj
 0001:00061ff8       ?_Getgloballocale@locale@std@@CAPEAV_Locimp@12@XZ 0000000180062ff8 f   libcpmt:locale0.obj
 0001:00062000       ?_Init@locale@std@@CAPEAV_Locimp@12@_N@Z 0000000180063000 f   libcpmt:locale0.obj
 0001:000620f8       ?_Locimp_dtor@_Locimp@locale@std@@CAXPEAV123@@Z 00000001800630f8 f   libcpmt:locale0.obj
 0001:00062174       ?_Locinfo_ctor@_Locinfo@std@@SAXPEAV12@PEBD@Z 0000000180063174 f   libcpmt:locale0.obj
 0001:000621e0       ?_Locinfo_dtor@_Locinfo@std@@SAXPEAV12@@Z 00000001800631e0 f   libcpmt:locale0.obj
 0001:000621fc       ?_New_Locimp@_Locimp@locale@std@@CAPEAV123@_N@Z 00000001800631fc f   libcpmt:locale0.obj
 0001:0006222c       ?_Setgloballocale@locale@std@@CAXPEAX@Z 000000018006322c f   libcpmt:locale0.obj
 0001:00062260       _Deletegloballocale        0000000180063260 f   libcpmt:locale0.obj
 0001:000622d0       ??0_Init_locks@std@@QEAA@XZ 00000001800632d0 f   libcpmt:xlock.obj
 0001:00062314       ??0_Lockit@std@@QEAA@H@Z   0000000180063314 f   libcpmt:xlock.obj
 0001:00062350       ??1_Init_locks@std@@QEAA@XZ 0000000180063350 f   libcpmt:xlock.obj
 0001:0006238c       ??1_Lockit@std@@QEAA@XZ    000000018006338c f   libcpmt:xlock.obj
 0001:000623c0       _Lock_at_thread_exit_mutex 00000001800633c0 f   libcpmt:xlock.obj
 0001:000623cc       _Unlock_at_thread_exit_mutex 00000001800633cc f   libcpmt:xlock.obj
 0001:000623d8       _Getctype                  00000001800633d8 f   libcpmt:_tolower.obj
 0001:00062498       _Tolower                   0000000180063498 f   libcpmt:_tolower.obj
 0001:000625cc       _Toupper                   00000001800635cc f   libcpmt:_toupper.obj
 0001:00062710       ?uncaught_exceptions@std@@YAHXZ 0000000180063710 f   libcpmt:uncaught_exceptions.obj
 0001:00062718       _Getcvt                    0000000180063718 f   libcpmt:xwctomb.obj
 0001:000627b0       __std_fs_code_page         00000001800637b0 f   libcpmt:filesystem.obj
 0001:000627d8       __std_fs_convert_narrow_to_wide 00000001800637d8 f   libcpmt:filesystem.obj
 0001:00062820       __std_fs_convert_wide_to_narrow_replace_chars 0000000180063820 f   libcpmt:filesystem.obj
 0001:000628ec       __std_fs_get_stats         00000001800638ec f   libcpmt:filesystem.obj
 0001:00062b88       __std_fs_open_handle       0000000180063b88 f   libcpmt:filesystem.obj
 0001:00062be0       __std_system_error_allocate_message 0000000180063be0 f   libcpmt:syserror_import_lib.obj
 0001:00062c40       __std_system_error_deallocate_message 0000000180063c40 f   libcpmt:syserror_import_lib.obj
 0001:00062c48       ?setw@std@@YA?AU?$_Smanip@_J@1@_J@Z 0000000180063c48 f   libcpmt:iomanip.obj
 0001:00062c64       ??$_Xfiopen@_W@std@@YAPEAU_iobuf@@PEB_WHH@Z 0000000180063c64 f i libcpmt:fiopen.obj
 0001:00062d70       ?_Fiopen@std@@YAPEAU_iobuf@@PEB_WHH@Z 0000000180063d70 f   libcpmt:fiopen.obj
 0001:00062d78       ?create_stl_critical_section@details@Concurrency@@YAXPEAVstl_critical_section_interface@12@@Z 0000000180063d78 f i libcpmt:mutex.obj
 0001:00062ddc       ?destroy@stl_critical_section_vista@details@Concurrency@@UEAAXXZ 0000000180063ddc f i libcpmt:mutex.obj
